	.arch armv5te
	.eabi_attribute 27, 3
	.fpu vfp
	.eabi_attribute 20, 1
	.eabi_attribute 21, 1
	.eabi_attribute 23, 3
	.eabi_attribute 24, 1
	.eabi_attribute 25, 1
	.eabi_attribute 26, 2
	.eabi_attribute 30, 6
	.eabi_attribute 18, 2
	.file	"IwSoundManager.cpp"
	.text
.Ltext0:
	.cfi_sections	.debug_frame
	.section	.text._ZL11IwDebugExitv,"ax",%progbits
	.align	2
	.type	_ZL11IwDebugExitv, %function
_ZL11IwDebugExitv:
.LFB0:
	.file 1 "c:/marmalade/6.2/modules/iwutil/h/IwDebug.h"
	.loc 1 354 0
	.cfi_startproc
	@ args = 0, pretend = 0, frame = 0
	@ frame_needed = 0, uses_anonymous_args = 0
	stmfd	sp!, {r3, lr}
.LCFI0:
	.cfi_def_cfa_offset 8
	.loc 1 355 0
	.cfi_offset 14, -4
	.cfi_offset 3, -8
	bl	abort
	.cfi_endproc
.LFE0:
	.size	_ZL11IwDebugExitv, .-_ZL11IwDebugExitv
	.section	.text._ZN12CIwCallStackC1EPKc,"axG",%progbits,_ZN12CIwCallStackC1EPKc,comdat
	.align	2
	.weak	_ZN12CIwCallStackC1EPKc
	.hidden	_ZN12CIwCallStackC1EPKc
	.type	_ZN12CIwCallStackC1EPKc, %function
_ZN12CIwCallStackC1EPKc:
.LFB29:
	.file 2 "c:/marmalade/6.2/modules/iwutil/h/IwRuntime.h"
	.loc 2 97 0
	.cfi_startproc
	@ args = 0, pretend = 0, frame = 8
	@ frame_needed = 0, uses_anonymous_args = 0
	str	lr, [sp, #-4]!
.LCFI1:
	.cfi_def_cfa_offset 4
	sub	sp, sp, #12
.LCFI2:
	.cfi_def_cfa_offset 16
	str	r0, [sp, #4]
	str	r1, [sp, #0]
	.loc 2 99 0
	ldr	r0, [sp, #0]
	ldr	r1, [sp, #4]
	.cfi_offset 14, -4
	bl	IwCallStackEnter
	mov	r3, r0
	mov	r2, r3
	ldr	r3, [sp, #4]
	strb	r2, [r3, #0]
	.loc 2 100 0
	ldr	r3, [sp, #4]
	mov	r0, r3
	add	sp, sp, #12
	ldmfd	sp!, {pc}
	.cfi_endproc
.LFE29:
	.size	_ZN12CIwCallStackC1EPKc, .-_ZN12CIwCallStackC1EPKc
	.section	.text._ZN12CIwCallStackD1Ev,"axG",%progbits,_ZN12CIwCallStackD1Ev,comdat
	.align	2
	.weak	_ZN12CIwCallStackD1Ev
	.hidden	_ZN12CIwCallStackD1Ev
	.type	_ZN12CIwCallStackD1Ev, %function
_ZN12CIwCallStackD1Ev:
.LFB32:
	.loc 2 101 0
	.cfi_startproc
	@ args = 0, pretend = 0, frame = 8
	@ frame_needed = 0, uses_anonymous_args = 0
	str	lr, [sp, #-4]!
.LCFI3:
	.cfi_def_cfa_offset 4
	sub	sp, sp, #12
.LCFI4:
	.cfi_def_cfa_offset 16
	str	r0, [sp, #4]
	.loc 2 103 0
	ldr	r3, [sp, #4]
	ldrb	r3, [r3, #0]	@ zero_extendqisi2
	cmp	r3, #0
	beq	.L7
	.cfi_offset 14, -4
	.loc 2 104 0
	ldr	r0, [sp, #4]
	bl	IwCallStackLeave
.L7:
	.loc 2 105 0
	ldr	r3, [sp, #4]
	mov	r0, r3
	add	sp, sp, #12
	ldmfd	sp!, {pc}
	.cfi_endproc
.LFE32:
	.size	_ZN12CIwCallStackD1Ev, .-_ZN12CIwCallStackD1Ev
	.section	.rodata
	.align	2
.LC0:
	.ascii	"GEOM\000"
	.align	2
.LC1:
	.ascii	"Multiply overflow\000"
	.align	2
.LC2:
	.ascii	"test >> 63 == test >> 31\000"
	.align	2
.LC3:
	.ascii	"c:/marmalade/6.2/modules/iwgeom/h/IwGeomCore.h\000"
	.section	.text._ZL12IW_FIXED_MULii,"ax",%progbits
	.align	2
	.type	_ZL12IW_FIXED_MULii, %function
_ZL12IW_FIXED_MULii:
.LFB70:
	.file 3 "c:/marmalade/6.2/modules/iwgeom/h/IwGeomCore.h"
	.loc 3 388 0
	.cfi_startproc
	@ args = 0, pretend = 0, frame = 16
	@ frame_needed = 0, uses_anonymous_args = 0
	stmfd	sp!, {r4, r5, r6, r7, r8, lr}
.LCFI5:
	.cfi_def_cfa_offset 24
	sub	sp, sp, #16
.LCFI6:
	.cfi_def_cfa_offset 40
	str	r0, [sp, #4]
	str	r1, [sp, #0]
.LBB2:
	.loc 3 390 0
	ldr	r1, [sp, #4]
	mov	r4, r1
	mov	r5, r4, asr #31
	.cfi_offset 14, -4
	.cfi_offset 8, -8
	.cfi_offset 7, -12
	.cfi_offset 6, -16
	.cfi_offset 5, -20
	.cfi_offset 4, -24
	ldr	r1, [sp, #0]
	mov	r0, r1
	mov	r1, r0, asr #31
	mul	ip, r0, r5
	mul	r8, r4, r1
	add	ip, ip, r8
	umull	r2, r3, r4, r0
	mov	r0, r2
	mov	r1, r3
	add	ip, ip, r1
	mov	r1, ip
	strd	r0, [sp, #8]
	strd	r0, [sp, #8]
.LBB3:
	.loc 3 391 0
	ldr	r1, [sp, #12]
	mov	r6, r1, asr #31
	ldr	r1, [sp, #12]
	mov	r7, r1, asr #31
	ldr	r1, [sp, #12]
	mov	r1, r1, asl #1
	ldr	r0, [sp, #8]
	mov	r2, r0, lsr #31
	orr	r2, r1, r2
	ldr	r1, [sp, #12]
	mov	r3, r1, asr #31
	cmp	r7, r3
	cmpeq	r6, r2
	beq	.L10
	ldr	r0, .L21
	bl	IwDebugAssertIsChannelOn
	mov	r3, r0
	cmp	r3, #0
	beq	.L10
	ldr	r3, .L21+4
	ldrb	r3, [r3, #0]	@ zero_extendqisi2
	cmp	r3, #0
	bne	.L10
	mov	r3, #1
	b	.L11
.L10:
	mov	r3, #0
.L11:
	cmp	r3, #0
	beq	.L12
	mov	r0, #0
	bl	IwDebugAssertSetSolution
	ldr	r0, .L21+8
	bl	IwDebugAssertSetUID
	ldr	r0, .L21+12
	bl	IwDebugAssertSetMessage
	ldr	r0, .L21+16
	ldr	r1, .L21+20
	ldr	r2, .L21+24
	mov	r3, #1
	bl	IwDebugAssertShow
	mov	r3, r0
	cmp	r3, #1
	beq	.L14
	cmp	r3, #2
	beq	.L15
	b	.L13
.L14:
	bl	s3eDebugIsDebuggerPresent
	mov	r3, r0
	cmp	r3, #0
	moveq	r3, #0
	movne	r3, #1
	and	r3, r3, #255
	cmp	r3, #0
	beq	.L16
	bl	s3eDebugIsDebuggerPresent
	mov	r3, r0
	cmp	r3, #0
	moveq	r3, #0
	movne	r3, #1
	and	r3, r3, #255
	cmp	r3, #0
	beq	.L20
	mvn	r3, #11
	mov	r2, #0
	str	r2, [r3, #0]
	b	.L13
.L16:
	bl	_ZL11IwDebugExitv
	b	.L13
.L15:
	ldr	r3, .L21+4
	mov	r2, #1
	strb	r2, [r3, #0]
	b	.L13
.L20:
	mov	r0, r0	@ nop
.L13:
	mov	r0, #0
	bl	IwDebugAssertSetUID
.L12:
.LBE3:
	.loc 3 393 0
	ldr	r3, [sp, #4]
	ldr	r2, [sp, #0]
	mul	r3, r2, r3
	mov	r3, r3, asr #12
.LBE2:
	.loc 3 394 0
	mov	r0, r3
	add	sp, sp, #16
	ldmfd	sp!, {r4, r5, r6, r7, r8, pc}
.L22:
	.align	2
.L21:
	.word	.LC0
	.word	_ZZL12IW_FIXED_MULiiE21_s_IwAssertIgnoreThis
	.word	350
	.word	.LC1
	.word	.LC2
	.word	.LC3
	.word	391
	.cfi_endproc
.LFE70:
	.size	_ZL12IW_FIXED_MULii, .-_ZL12IW_FIXED_MULii
	.section	.text._ZN11CIwMenuItem5EnterEv,"axG",%progbits,_ZN11CIwMenuItem5EnterEv,comdat
	.align	2
	.weak	_ZN11CIwMenuItem5EnterEv
	.hidden	_ZN11CIwMenuItem5EnterEv
	.type	_ZN11CIwMenuItem5EnterEv, %function
_ZN11CIwMenuItem5EnterEv:
.LFB250:
	.file 4 "c:/marmalade/6.2/modules/iwutil/h/IwMenu.h"
	.loc 4 104 0
	.cfi_startproc
	@ args = 0, pretend = 0, frame = 8
	@ frame_needed = 0, uses_anonymous_args = 0
	@ link register save eliminated.
	sub	sp, sp, #8
.LCFI7:
	.cfi_def_cfa_offset 8
	str	r0, [sp, #4]
	.loc 4 104 0
	ldr	r3, [sp, #4]
	ldr	r3, [r3, #60]
	orr	r2, r3, #1
	ldr	r3, [sp, #4]
	str	r2, [r3, #60]
	add	sp, sp, #8
	bx	lr
	.cfi_endproc
.LFE250:
	.size	_ZN11CIwMenuItem5EnterEv, .-_ZN11CIwMenuItem5EnterEv
	.section	.text._ZN11CIwMenuItem4ExitEv,"axG",%progbits,_ZN11CIwMenuItem4ExitEv,comdat
	.align	2
	.weak	_ZN11CIwMenuItem4ExitEv
	.hidden	_ZN11CIwMenuItem4ExitEv
	.type	_ZN11CIwMenuItem4ExitEv, %function
_ZN11CIwMenuItem4ExitEv:
.LFB251:
	.loc 4 110 0
	.cfi_startproc
	@ args = 0, pretend = 0, frame = 8
	@ frame_needed = 0, uses_anonymous_args = 0
	@ link register save eliminated.
	sub	sp, sp, #8
.LCFI8:
	.cfi_def_cfa_offset 8
	str	r0, [sp, #4]
	.loc 4 110 0
	ldr	r3, [sp, #4]
	ldr	r3, [r3, #60]
	bic	r2, r3, #1
	ldr	r3, [sp, #4]
	str	r2, [r3, #60]
	add	sp, sp, #8
	bx	lr
	.cfi_endproc
.LFE251:
	.size	_ZN11CIwMenuItem4ExitEv, .-_ZN11CIwMenuItem4ExitEv
	.section	.text._ZN11CIwMenuItem6SelectEv,"axG",%progbits,_ZN11CIwMenuItem6SelectEv,comdat
	.align	2
	.weak	_ZN11CIwMenuItem6SelectEv
	.hidden	_ZN11CIwMenuItem6SelectEv
	.type	_ZN11CIwMenuItem6SelectEv, %function
_ZN11CIwMenuItem6SelectEv:
.LFB252:
	.loc 4 116 0
	.cfi_startproc
	@ args = 0, pretend = 0, frame = 8
	@ frame_needed = 0, uses_anonymous_args = 0
	@ link register save eliminated.
	sub	sp, sp, #8
.LCFI9:
	.cfi_def_cfa_offset 8
	str	r0, [sp, #4]
	.loc 4 116 0
	add	sp, sp, #8
	bx	lr
	.cfi_endproc
.LFE252:
	.size	_ZN11CIwMenuItem6SelectEv, .-_ZN11CIwMenuItem6SelectEv
	.section	.text._ZN11CIwMenuItem3RunEv,"axG",%progbits,_ZN11CIwMenuItem3RunEv,comdat
	.align	2
	.weak	_ZN11CIwMenuItem3RunEv
	.hidden	_ZN11CIwMenuItem3RunEv
	.type	_ZN11CIwMenuItem3RunEv, %function
_ZN11CIwMenuItem3RunEv:
.LFB253:
	.loc 4 128 0
	.cfi_startproc
	@ args = 0, pretend = 0, frame = 8
	@ frame_needed = 0, uses_anonymous_args = 0
	str	lr, [sp, #-4]!
.LCFI10:
	.cfi_def_cfa_offset 4
	sub	sp, sp, #12
.LCFI11:
	.cfi_def_cfa_offset 16
	str	r0, [sp, #4]
	.loc 4 131 0
	ldr	r3, [sp, #4]
	ldr	r3, [r3, #0]
	add	r3, r3, #24
	ldr	r3, [r3, #0]
	ldr	r0, [sp, #4]
	.cfi_offset 14, -4
	blx	r3
	.loc 4 132 0
	add	sp, sp, #12
	ldmfd	sp!, {pc}
	.cfi_endproc
.LFE253:
	.size	_ZN11CIwMenuItem3RunEv, .-_ZN11CIwMenuItem3RunEv
	.section	.text._ZN11CIwMenuItem4PlusEv,"axG",%progbits,_ZN11CIwMenuItem4PlusEv,comdat
	.align	2
	.weak	_ZN11CIwMenuItem4PlusEv
	.hidden	_ZN11CIwMenuItem4PlusEv
	.type	_ZN11CIwMenuItem4PlusEv, %function
_ZN11CIwMenuItem4PlusEv:
.LFB254:
	.loc 4 138 0
	.cfi_startproc
	@ args = 0, pretend = 0, frame = 8
	@ frame_needed = 0, uses_anonymous_args = 0
	@ link register save eliminated.
	sub	sp, sp, #8
.LCFI12:
	.cfi_def_cfa_offset 8
	str	r0, [sp, #4]
	.loc 4 138 0
	add	sp, sp, #8
	bx	lr
	.cfi_endproc
.LFE254:
	.size	_ZN11CIwMenuItem4PlusEv, .-_ZN11CIwMenuItem4PlusEv
	.section	.text._ZN11CIwMenuItem5MinusEv,"axG",%progbits,_ZN11CIwMenuItem5MinusEv,comdat
	.align	2
	.weak	_ZN11CIwMenuItem5MinusEv
	.hidden	_ZN11CIwMenuItem5MinusEv
	.type	_ZN11CIwMenuItem5MinusEv, %function
_ZN11CIwMenuItem5MinusEv:
.LFB255:
	.loc 4 144 0
	.cfi_startproc
	@ args = 0, pretend = 0, frame = 8
	@ frame_needed = 0, uses_anonymous_args = 0
	@ link register save eliminated.
	sub	sp, sp, #8
.LCFI13:
	.cfi_def_cfa_offset 8
	str	r0, [sp, #4]
	.loc 4 144 0
	add	sp, sp, #8
	bx	lr
	.cfi_endproc
.LFE255:
	.size	_ZN11CIwMenuItem5MinusEv, .-_ZN11CIwMenuItem5MinusEv
	.section	.text._ZN14CIwMenuManager11DestroyMenuEv,"axG",%progbits,_ZN14CIwMenuManager11DestroyMenuEv,comdat
	.align	2
	.weak	_ZN14CIwMenuManager11DestroyMenuEv
	.hidden	_ZN14CIwMenuManager11DestroyMenuEv
	.type	_ZN14CIwMenuManager11DestroyMenuEv, %function
_ZN14CIwMenuManager11DestroyMenuEv:
.LFB259:
	.loc 4 345 0
	.cfi_startproc
	@ args = 0, pretend = 0, frame = 8
	@ frame_needed = 0, uses_anonymous_args = 0
	@ link register save eliminated.
	sub	sp, sp, #8
.LCFI14:
	.cfi_def_cfa_offset 8
	str	r0, [sp, #4]
	.loc 4 345 0
	ldr	r3, [sp, #4]
	ldr	r3, [r3, #24]
	orr	r2, r3, #1024
	ldr	r3, [sp, #4]
	str	r2, [r3, #24]
	add	sp, sp, #8
	bx	lr
	.cfi_endproc
.LFE259:
	.size	_ZN14CIwMenuManager11DestroyMenuEv, .-_ZN14CIwMenuManager11DestroyMenuEv
	.section	.text._Z16IwGetMenuManagerv,"axG",%progbits,_Z16IwGetMenuManagerv,comdat
	.align	2
	.weak	_Z16IwGetMenuManagerv
	.hidden	_Z16IwGetMenuManagerv
	.type	_Z16IwGetMenuManagerv, %function
_Z16IwGetMenuManagerv:
.LFB269:
	.loc 4 473 0
	.cfi_startproc
	@ args = 0, pretend = 0, frame = 0
	@ frame_needed = 0, uses_anonymous_args = 0
	@ link register save eliminated.
	.loc 4 473 0
	ldr	r3, .L39
	ldr	r3, [r3, #0]
	mov	r0, r3
	bx	lr
.L40:
	.align	2
.L39:
	.word	g_IwMenuManager
	.cfi_endproc
.LFE269:
	.size	_Z16IwGetMenuManagerv, .-_Z16IwGetMenuManagerv
	.section	.rodata
	.align	2
.LC4:
	.ascii	"\000"
	.section	.text._ZN20CIwMenuItemEditValueC2EPKcPvjffffN11CIwMenuItem8ColourIDE,"axG",%progbits,_ZN20CIwMenuItemEditValueC2EPKcPvjffffN11CIwMenuItem8ColourIDE,comdat
	.align	2
	.weak	_ZN20CIwMenuItemEditValueC2EPKcPvjffffN11CIwMenuItem8ColourIDE
	.hidden	_ZN20CIwMenuItemEditValueC2EPKcPvjffffN11CIwMenuItem8ColourIDE
	.type	_ZN20CIwMenuItemEditValueC2EPKcPvjffffN11CIwMenuItem8ColourIDE, %function
_ZN20CIwMenuItemEditValueC2EPKcPvjffffN11CIwMenuItem8ColourIDE:
.LFB274:
	.loc 4 502 0
	.cfi_startproc
	@ args = 20, pretend = 0, frame = 16
	@ frame_needed = 0, uses_anonymous_args = 0
	str	lr, [sp, #-4]!
.LCFI15:
	.cfi_def_cfa_offset 4
	sub	sp, sp, #28
.LCFI16:
	.cfi_def_cfa_offset 32
	str	r0, [sp, #20]
	str	r1, [sp, #16]
	str	r2, [sp, #12]
	str	r3, [sp, #8]
	.loc 4 502 0
	ldr	r3, [sp, #20]
	ldr	r2, [sp, #48]
	str	r2, [sp, #0]
	mov	r0, r3
	ldr	r1, .L46
	ldr	r2, [sp, #16]
	mov	r3, #0
	.cfi_offset 14, -4
	bl	_ZN11CIwMenuItemC2EPKcS1_jNS_8ColourIDE
	ldr	r3, [sp, #20]
	ldr	r2, .L46+4
	str	r2, [r3, #0]
	.loc 4 504 0
	ldr	r3, [sp, #20]
	ldr	r2, [sp, #8]
	str	r2, [r3, #68]
	.loc 4 505 0
	ldr	r3, [sp, #20]
	ldr	r2, [sp, #12]
	str	r2, [r3, #72]
	.loc 4 506 0
	ldr	r3, [sp, #20]
	flds	s15, [sp, #32]
	fsts	s15, [r3, #76]
	.loc 4 507 0
	ldr	r3, [sp, #20]
	flds	s15, [sp, #44]
	fsts	s15, [r3, #80]
	.loc 4 508 0
	ldr	r3, [sp, #20]
	flds	s15, [sp, #36]
	fsts	s15, [r3, #84]
	.loc 4 509 0
	ldr	r3, [sp, #20]
	flds	s15, [sp, #40]
	fsts	s15, [r3, #88]
	.loc 4 510 0
	ldr	r3, [sp, #20]
	flds	s15, [r3, #76]
	fcmpzs	s15
	fmstat
	bne	.L42
.L45:
	.loc 4 511 0
	ldr	r3, [sp, #20]
	mov	r2, #5
	str	r2, [r3, #8]
.L42:
	.loc 4 512 0
	ldr	r3, [sp, #20]
	mov	r0, r3
	add	sp, sp, #28
	ldmfd	sp!, {pc}
.L47:
	.align	2
.L46:
	.word	.LC4
	.word	_ZTV20CIwMenuItemEditValue+8
	.cfi_endproc
.LFE274:
	.size	_ZN20CIwMenuItemEditValueC2EPKcPvjffffN11CIwMenuItem8ColourIDE, .-_ZN20CIwMenuItemEditValueC2EPKcPvjffffN11CIwMenuItem8ColourIDE
	.section	.text._ZN20CIwMenuItemEditValueD2Ev,"axG",%progbits,_ZN20CIwMenuItemEditValueD2Ev,comdat
	.align	2
	.weak	_ZN20CIwMenuItemEditValueD2Ev
	.hidden	_ZN20CIwMenuItemEditValueD2Ev
	.type	_ZN20CIwMenuItemEditValueD2Ev, %function
_ZN20CIwMenuItemEditValueD2Ev:
.LFB277:
	.loc 4 513 0
	.cfi_startproc
	@ args = 0, pretend = 0, frame = 8
	@ frame_needed = 0, uses_anonymous_args = 0
	str	lr, [sp, #-4]!
.LCFI17:
	.cfi_def_cfa_offset 4
	sub	sp, sp, #12
.LCFI18:
	.cfi_def_cfa_offset 16
	str	r0, [sp, #4]
	.loc 4 513 0
	ldr	r3, [sp, #4]
	ldr	r2, .L52
	str	r2, [r3, #0]
	ldr	r3, [sp, #4]
	mov	r0, r3
	.cfi_offset 14, -4
	bl	_ZN11CIwMenuItemD2Ev
	mov	r3, #0
	and	r3, r3, #255
	cmp	r3, #0
	beq	.L50
	ldr	r0, [sp, #4]
	bl	_ZdlPv
.L50:
	ldr	r3, [sp, #4]
	mov	r0, r3
	add	sp, sp, #12
	ldmfd	sp!, {pc}
.L53:
	.align	2
.L52:
	.word	_ZTV20CIwMenuItemEditValue+8
	.cfi_endproc
.LFE277:
	.size	_ZN20CIwMenuItemEditValueD2Ev, .-_ZN20CIwMenuItemEditValueD2Ev
	.section	.text._ZN20CIwMenuItemEditValue4BackEv,"axG",%progbits,_ZN20CIwMenuItemEditValue4BackEv,comdat
	.align	2
	.weak	_ZN20CIwMenuItemEditValue4BackEv
	.hidden	_ZN20CIwMenuItemEditValue4BackEv
	.type	_ZN20CIwMenuItemEditValue4BackEv, %function
_ZN20CIwMenuItemEditValue4BackEv:
.LFB280:
	.loc 4 514 0
	.cfi_startproc
	@ args = 0, pretend = 0, frame = 8
	@ frame_needed = 0, uses_anonymous_args = 0
	str	lr, [sp, #-4]!
.LCFI19:
	.cfi_def_cfa_offset 4
	sub	sp, sp, #12
.LCFI20:
	.cfi_def_cfa_offset 16
	str	r0, [sp, #4]
	.loc 4 514 0
	.cfi_offset 14, -4
	bl	_Z16IwGetMenuManagerv
	mov	r3, r0
	mov	r0, r3
	bl	_ZN14CIwMenuManager11DestroyMenuEv
	add	sp, sp, #12
	ldmfd	sp!, {pc}
	.cfi_endproc
.LFE280:
	.size	_ZN20CIwMenuItemEditValue4BackEv, .-_ZN20CIwMenuItemEditValue4BackEv
	.section	.text._ZN21CIwMenuItemEditUInt32C1EPKcPjffff,"axG",%progbits,_ZN21CIwMenuItemEditUInt32C1EPKcPjffff,comdat
	.align	2
	.weak	_ZN21CIwMenuItemEditUInt32C1EPKcPjffff
	.hidden	_ZN21CIwMenuItemEditUInt32C1EPKcPjffff
	.type	_ZN21CIwMenuItemEditUInt32C1EPKcPjffff, %function
_ZN21CIwMenuItemEditUInt32C1EPKcPjffff:
.LFB298:
	.loc 4 636 0
	.cfi_startproc
	@ args = 12, pretend = 0, frame = 16
	@ frame_needed = 0, uses_anonymous_args = 0
	str	lr, [sp, #-4]!
.LCFI21:
	.cfi_def_cfa_offset 4
	sub	sp, sp, #44
.LCFI22:
	.cfi_def_cfa_offset 48
	str	r0, [sp, #36]
	str	r1, [sp, #32]
	str	r2, [sp, #28]
	str	r3, [sp, #24]	@ float
	.loc 4 636 0
	ldr	r3, [sp, #36]
	flds	s15, [sp, #24]
	fsts	s15, [sp, #0]
	flds	s15, [sp, #48]
	fsts	s15, [sp, #4]
	flds	s15, [sp, #52]
	fsts	s15, [sp, #8]
	flds	s15, [sp, #56]
	fsts	s15, [sp, #12]
	mov	r2, #2
	str	r2, [sp, #16]
	mov	r0, r3
	ldr	r1, [sp, #32]
	ldr	r2, [sp, #28]
	mov	r3, #8
	.cfi_offset 14, -4
	bl	_ZN20CIwMenuItemEditValueC2EPKcPvjffffN11CIwMenuItem8ColourIDE
	ldr	r3, [sp, #36]
	ldr	r2, .L59
	str	r2, [r3, #0]
	ldr	r3, [sp, #36]
	mov	r0, r3
	add	sp, sp, #44
	ldmfd	sp!, {pc}
.L60:
	.align	2
.L59:
	.word	_ZTV21CIwMenuItemEditUInt32+8
	.cfi_endproc
.LFE298:
	.size	_ZN21CIwMenuItemEditUInt32C1EPKcPjffff, .-_ZN21CIwMenuItemEditUInt32C1EPKcPjffff
	.section	.text._ZN16CIwMenuItemTitleC1EPKc,"axG",%progbits,_ZN16CIwMenuItemTitleC1EPKc,comdat
	.align	2
	.weak	_ZN16CIwMenuItemTitleC1EPKc
	.hidden	_ZN16CIwMenuItemTitleC1EPKc
	.type	_ZN16CIwMenuItemTitleC1EPKc, %function
_ZN16CIwMenuItemTitleC1EPKc:
.LFB315:
	.loc 4 705 0
	.cfi_startproc
	@ args = 0, pretend = 0, frame = 8
	@ frame_needed = 0, uses_anonymous_args = 0
	str	lr, [sp, #-4]!
.LCFI23:
	.cfi_def_cfa_offset 4
	sub	sp, sp, #20
.LCFI24:
	.cfi_def_cfa_offset 24
	str	r0, [sp, #12]
	str	r1, [sp, #8]
	.loc 4 705 0
	ldr	r3, [sp, #12]
	mov	r2, #0
	str	r2, [sp, #0]
	mov	r0, r3
	ldr	r1, .L64
	ldr	r2, [sp, #8]
	mov	r3, #2
	.cfi_offset 14, -4
	bl	_ZN11CIwMenuItemC2EPKcS1_jNS_8ColourIDE
	ldr	r3, [sp, #12]
	ldr	r2, .L64+4
	str	r2, [r3, #0]
	ldr	r3, [sp, #12]
	mov	r0, r3
	add	sp, sp, #20
	ldmfd	sp!, {pc}
.L65:
	.align	2
.L64:
	.word	.LC4
	.word	_ZTV16CIwMenuItemTitle+8
	.cfi_endproc
.LFE315:
	.size	_ZN16CIwMenuItemTitleC1EPKc, .-_ZN16CIwMenuItemTitleC1EPKc
	.section	.text._ZN21CIwMenuItemEditUInt32D1Ev,"axG",%progbits,_ZN21CIwMenuItemEditUInt32D1Ev,comdat
	.align	2
	.weak	_ZN21CIwMenuItemEditUInt32D1Ev
	.hidden	_ZN21CIwMenuItemEditUInt32D1Ev
	.type	_ZN21CIwMenuItemEditUInt32D1Ev, %function
_ZN21CIwMenuItemEditUInt32D1Ev:
.LFB319:
	.loc 4 625 0
	.cfi_startproc
	@ args = 0, pretend = 0, frame = 8
	@ frame_needed = 0, uses_anonymous_args = 0
	str	lr, [sp, #-4]!
.LCFI25:
	.cfi_def_cfa_offset 4
	sub	sp, sp, #12
.LCFI26:
	.cfi_def_cfa_offset 16
	str	r0, [sp, #4]
	.loc 4 625 0
	ldr	r3, [sp, #4]
	ldr	r2, .L70
	str	r2, [r3, #0]
	ldr	r3, [sp, #4]
	mov	r0, r3
	.cfi_offset 14, -4
	bl	_ZN20CIwMenuItemEditValueD2Ev
	mov	r3, #0
	and	r3, r3, #255
	cmp	r3, #0
	beq	.L68
	ldr	r0, [sp, #4]
	bl	_ZdlPv
.L68:
	ldr	r3, [sp, #4]
	mov	r0, r3
	add	sp, sp, #12
	ldmfd	sp!, {pc}
.L71:
	.align	2
.L70:
	.word	_ZTV21CIwMenuItemEditUInt32+8
	.cfi_endproc
.LFE319:
	.size	_ZN21CIwMenuItemEditUInt32D1Ev, .-_ZN21CIwMenuItemEditUInt32D1Ev
	.section	.text._ZN21CIwMenuItemEditUInt32D0Ev,"axG",%progbits,_ZN21CIwMenuItemEditUInt32D0Ev,comdat
	.align	2
	.weak	_ZN21CIwMenuItemEditUInt32D0Ev
	.hidden	_ZN21CIwMenuItemEditUInt32D0Ev
	.type	_ZN21CIwMenuItemEditUInt32D0Ev, %function
_ZN21CIwMenuItemEditUInt32D0Ev:
.LFB320:
	.loc 4 625 0
	.cfi_startproc
	@ args = 0, pretend = 0, frame = 8
	@ frame_needed = 0, uses_anonymous_args = 0
	str	lr, [sp, #-4]!
.LCFI27:
	.cfi_def_cfa_offset 4
	sub	sp, sp, #12
.LCFI28:
	.cfi_def_cfa_offset 16
	str	r0, [sp, #4]
	.loc 4 625 0
	ldr	r3, [sp, #4]
	ldr	r2, .L76
	str	r2, [r3, #0]
	ldr	r3, [sp, #4]
	mov	r0, r3
	.cfi_offset 14, -4
	bl	_ZN20CIwMenuItemEditValueD2Ev
	mov	r3, #1
	and	r3, r3, #255
	cmp	r3, #0
	beq	.L74
	ldr	r0, [sp, #4]
	bl	_ZdlPv
.L74:
	ldr	r3, [sp, #4]
	mov	r0, r3
	add	sp, sp, #12
	ldmfd	sp!, {pc}
.L77:
	.align	2
.L76:
	.word	_ZTV21CIwMenuItemEditUInt32+8
	.cfi_endproc
.LFE320:
	.size	_ZN21CIwMenuItemEditUInt32D0Ev, .-_ZN21CIwMenuItemEditUInt32D0Ev
	.section	.text._ZNK12CIwSoundSpec8GetGroupEv,"axG",%progbits,_ZNK12CIwSoundSpec8GetGroupEv,comdat
	.align	2
	.weak	_ZNK12CIwSoundSpec8GetGroupEv
	.hidden	_ZNK12CIwSoundSpec8GetGroupEv
	.type	_ZNK12CIwSoundSpec8GetGroupEv, %function
_ZNK12CIwSoundSpec8GetGroupEv:
.LFB412:
	.file 5 "c:/users/0900391/dropbox/project impact/code/demos/demo_4_tilecollision_advaudio_ui/libs/soundengine/h/IwSoundSpec.h"
	.loc 5 52 0
	.cfi_startproc
	@ args = 0, pretend = 0, frame = 8
	@ frame_needed = 0, uses_anonymous_args = 0
	@ link register save eliminated.
	sub	sp, sp, #8
.LCFI29:
	.cfi_def_cfa_offset 8
	str	r0, [sp, #4]
	.loc 5 52 0
	ldr	r3, [sp, #4]
	ldr	r3, [r3, #36]
	mov	r0, r3
	add	sp, sp, #8
	bx	lr
	.cfi_endproc
.LFE412:
	.size	_ZNK12CIwSoundSpec8GetGroupEv, .-_ZNK12CIwSoundSpec8GetGroupEv
	.section	.text._ZNK12CIwSoundSpec7GetDataEv,"axG",%progbits,_ZNK12CIwSoundSpec7GetDataEv,comdat
	.align	2
	.weak	_ZNK12CIwSoundSpec7GetDataEv
	.hidden	_ZNK12CIwSoundSpec7GetDataEv
	.type	_ZNK12CIwSoundSpec7GetDataEv, %function
_ZNK12CIwSoundSpec7GetDataEv:
.LFB414:
	.loc 5 58 0
	.cfi_startproc
	@ args = 0, pretend = 0, frame = 8
	@ frame_needed = 0, uses_anonymous_args = 0
	@ link register save eliminated.
	sub	sp, sp, #8
.LCFI30:
	.cfi_def_cfa_offset 8
	str	r0, [sp, #4]
	.loc 5 58 0
	ldr	r3, [sp, #4]
	ldr	r3, [r3, #32]
	mov	r0, r3
	add	sp, sp, #8
	bx	lr
	.cfi_endproc
.LFE414:
	.size	_ZNK12CIwSoundSpec7GetDataEv, .-_ZNK12CIwSoundSpec7GetDataEv
	.section	.text._ZN15CIwChannelADPCMC1Ev,"axG",%progbits,_ZN15CIwChannelADPCMC1Ev,comdat
	.align	2
	.weak	_ZN15CIwChannelADPCMC1Ev
	.hidden	_ZN15CIwChannelADPCMC1Ev
	.type	_ZN15CIwChannelADPCMC1Ev, %function
_ZN15CIwChannelADPCMC1Ev:
.LFB430:
	.file 6 "c:/users/0900391/dropbox/project impact/code/demos/demo_4_tilecollision_advaudio_ui/libs/soundengine/h/IwSoundADPCM.h"
	.loc 6 55 0
	.cfi_startproc
	@ args = 0, pretend = 0, frame = 8
	@ frame_needed = 0, uses_anonymous_args = 0
	str	lr, [sp, #-4]!
.LCFI31:
	.cfi_def_cfa_offset 4
	sub	sp, sp, #12
.LCFI32:
	.cfi_def_cfa_offset 16
	str	r0, [sp, #4]
	.loc 6 57 0
	ldr	r3, [sp, #4]
	mov	r2, #0
	str	r2, [r3, #0]
	.loc 6 58 0
	ldr	r3, .L85
	ldr	r3, [r3, #0]
	cmp	r3, #0
	bne	.L83
	.cfi_offset 14, -4
	.loc 6 59 0
	bl	_ZN15CIwChannelADPCM4InitEv
.L83:
	.loc 6 60 0
	ldr	r3, [sp, #4]
	mov	r0, r3
	add	sp, sp, #12
	ldmfd	sp!, {pc}
.L86:
	.align	2
.L85:
	.word	_ZN15CIwChannelADPCM13isInitializedE
	.cfi_endproc
.LFE430:
	.size	_ZN15CIwChannelADPCMC1Ev, .-_ZN15CIwChannelADPCMC1Ev
	.section	.text._ZN15CIwChannelADPCM15GenerateAudioCBEP20s3eSoundGenAudioInfoPS_,"axG",%progbits,_ZN15CIwChannelADPCM15GenerateAudioCBEP20s3eSoundGenAudioInfoPS_,comdat
	.align	2
	.weak	_ZN15CIwChannelADPCM15GenerateAudioCBEP20s3eSoundGenAudioInfoPS_
	.hidden	_ZN15CIwChannelADPCM15GenerateAudioCBEP20s3eSoundGenAudioInfoPS_
	.type	_ZN15CIwChannelADPCM15GenerateAudioCBEP20s3eSoundGenAudioInfoPS_, %function
_ZN15CIwChannelADPCM15GenerateAudioCBEP20s3eSoundGenAudioInfoPS_:
.LFB431:
	.loc 6 63 0
	.cfi_startproc
	@ args = 0, pretend = 0, frame = 8
	@ frame_needed = 0, uses_anonymous_args = 0
	str	lr, [sp, #-4]!
.LCFI33:
	.cfi_def_cfa_offset 4
	sub	sp, sp, #12
.LCFI34:
	.cfi_def_cfa_offset 16
	str	r0, [sp, #4]
	str	r1, [sp, #0]
	.loc 6 65 0
	ldr	r0, [sp, #0]
	ldr	r1, [sp, #4]
	.cfi_offset 14, -4
	bl	_ZN15CIwChannelADPCM13GenerateAudioEP20s3eSoundGenAudioInfo
	mov	r3, r0
	.loc 6 66 0
	mov	r0, r3
	add	sp, sp, #12
	ldmfd	sp!, {pc}
	.cfi_endproc
.LFE431:
	.size	_ZN15CIwChannelADPCM15GenerateAudioCBEP20s3eSoundGenAudioInfoPS_, .-_ZN15CIwChannelADPCM15GenerateAudioCBEP20s3eSoundGenAudioInfoPS_
	.section	.text._ZNK15CIwSoundManager16GetGroupIdentityEv,"axG",%progbits,_ZNK15CIwSoundManager16GetGroupIdentityEv,comdat
	.align	2
	.weak	_ZNK15CIwSoundManager16GetGroupIdentityEv
	.hidden	_ZNK15CIwSoundManager16GetGroupIdentityEv
	.type	_ZNK15CIwSoundManager16GetGroupIdentityEv, %function
_ZNK15CIwSoundManager16GetGroupIdentityEv:
.LFB432:
	.file 7 "c:/users/0900391/dropbox/project impact/code/demos/demo_4_tilecollision_advaudio_ui/libs/soundengine/h/IwSoundManager.h"
	.loc 7 77 0
	.cfi_startproc
	@ args = 0, pretend = 0, frame = 8
	@ frame_needed = 0, uses_anonymous_args = 0
	@ link register save eliminated.
	sub	sp, sp, #8
.LCFI35:
	.cfi_def_cfa_offset 8
	str	r0, [sp, #4]
	.loc 7 77 0
	ldr	r3, [sp, #4]
	ldr	r3, [r3, #32]
	mov	r0, r3
	add	sp, sp, #8
	bx	lr
	.cfi_endproc
.LFE432:
	.size	_ZNK15CIwSoundManager16GetGroupIdentityEv, .-_ZNK15CIwSoundManager16GetGroupIdentityEv
	.section	.text._ZNK15CIwSoundManager12GetMasterVolEv,"axG",%progbits,_ZNK15CIwSoundManager12GetMasterVolEv,comdat
	.align	2
	.weak	_ZNK15CIwSoundManager12GetMasterVolEv
	.hidden	_ZNK15CIwSoundManager12GetMasterVolEv
	.type	_ZNK15CIwSoundManager12GetMasterVolEv, %function
_ZNK15CIwSoundManager12GetMasterVolEv:
.LFB434:
	.loc 7 92 0
	.cfi_startproc
	@ args = 0, pretend = 0, frame = 8
	@ frame_needed = 0, uses_anonymous_args = 0
	@ link register save eliminated.
	sub	sp, sp, #8
.LCFI36:
	.cfi_def_cfa_offset 8
	str	r0, [sp, #4]
	.loc 7 92 0
	ldr	r3, [sp, #4]
	ldrh	r3, [r3, #24]
	mov	r3, r3, asl #16
	mov	r3, r3, asr #16
	mov	r0, r3
	add	sp, sp, #8
	bx	lr
	.cfi_endproc
.LFE434:
	.size	_ZNK15CIwSoundManager12GetMasterVolEv, .-_ZNK15CIwSoundManager12GetMasterVolEv
	.section	.text._ZNK15CIwSoundManager14GetMasterPitchEv,"axG",%progbits,_ZNK15CIwSoundManager14GetMasterPitchEv,comdat
	.align	2
	.weak	_ZNK15CIwSoundManager14GetMasterPitchEv
	.hidden	_ZNK15CIwSoundManager14GetMasterPitchEv
	.type	_ZNK15CIwSoundManager14GetMasterPitchEv, %function
_ZNK15CIwSoundManager14GetMasterPitchEv:
.LFB436:
	.loc 7 98 0
	.cfi_startproc
	@ args = 0, pretend = 0, frame = 8
	@ frame_needed = 0, uses_anonymous_args = 0
	@ link register save eliminated.
	sub	sp, sp, #8
.LCFI37:
	.cfi_def_cfa_offset 8
	str	r0, [sp, #4]
	.loc 7 98 0
	ldr	r3, [sp, #4]
	ldrh	r3, [r3, #28]
	mov	r3, r3, asl #16
	mov	r3, r3, asr #16
	mov	r0, r3
	add	sp, sp, #8
	bx	lr
	.cfi_endproc
.LFE436:
	.size	_ZNK15CIwSoundManager14GetMasterPitchEv, .-_ZNK15CIwSoundManager14GetMasterPitchEv
	.section	.text._ZNK15CIwSoundManager8IsActiveEv,"axG",%progbits,_ZNK15CIwSoundManager8IsActiveEv,comdat
	.align	2
	.weak	_ZNK15CIwSoundManager8IsActiveEv
	.hidden	_ZNK15CIwSoundManager8IsActiveEv
	.type	_ZNK15CIwSoundManager8IsActiveEv, %function
_ZNK15CIwSoundManager8IsActiveEv:
.LFB443:
	.loc 7 128 0
	.cfi_startproc
	@ args = 0, pretend = 0, frame = 8
	@ frame_needed = 0, uses_anonymous_args = 0
	@ link register save eliminated.
	sub	sp, sp, #8
.LCFI38:
	.cfi_def_cfa_offset 8
	str	r0, [sp, #4]
	.loc 7 130 0
	ldr	r3, [sp, #4]
	ldrh	r3, [r3, #30]
	and	r3, r3, #2
	cmp	r3, #0
	moveq	r3, #0
	movne	r3, #1
	and	r3, r3, #255
	.loc 7 131 0
	mov	r0, r3
	add	sp, sp, #8
	bx	lr
	.cfi_endproc
.LFE443:
	.size	_ZNK15CIwSoundManager8IsActiveEv, .-_ZNK15CIwSoundManager8IsActiveEv
	.section	.text._Z17IwGetSoundManagerv,"axG",%progbits,_Z17IwGetSoundManagerv,comdat
	.align	2
	.weak	_Z17IwGetSoundManagerv
	.hidden	_Z17IwGetSoundManagerv
	.type	_Z17IwGetSoundManagerv, %function
_Z17IwGetSoundManagerv:
.LFB446:
	.loc 7 193 0
	.cfi_startproc
	@ args = 0, pretend = 0, frame = 0
	@ frame_needed = 0, uses_anonymous_args = 0
	@ link register save eliminated.
	.loc 7 193 0
	ldr	r3, .L99
	ldr	r3, [r3, #0]
	mov	r0, r3
	bx	lr
.L100:
	.align	2
.L99:
	.word	g_IwSoundManager
	.cfi_endproc
.LFE446:
	.size	_Z17IwGetSoundManagerv, .-_Z17IwGetSoundManagerv
	.section	.text._ZNK13CIwSoundGroup6GetVolEv,"axG",%progbits,_ZNK13CIwSoundGroup6GetVolEv,comdat
	.align	2
	.weak	_ZNK13CIwSoundGroup6GetVolEv
	.hidden	_ZNK13CIwSoundGroup6GetVolEv
	.type	_ZNK13CIwSoundGroup6GetVolEv, %function
_ZNK13CIwSoundGroup6GetVolEv:
.LFB1399:
	.file 8 "c:/users/0900391/dropbox/project impact/code/demos/demo_4_tilecollision_advaudio_ui/libs/soundengine/h/IwSoundGroup.h"
	.loc 8 51 0
	.cfi_startproc
	@ args = 0, pretend = 0, frame = 8
	@ frame_needed = 0, uses_anonymous_args = 0
	@ link register save eliminated.
	sub	sp, sp, #8
.LCFI39:
	.cfi_def_cfa_offset 8
	str	r0, [sp, #4]
	.loc 8 51 0
	ldr	r3, [sp, #4]
	ldrh	r3, [r3, #16]
	mov	r3, r3, asl #16
	mov	r3, r3, asr #16
	mov	r0, r3
	add	sp, sp, #8
	bx	lr
	.cfi_endproc
.LFE1399:
	.size	_ZNK13CIwSoundGroup6GetVolEv, .-_ZNK13CIwSoundGroup6GetVolEv
	.section	.text._ZNK13CIwSoundGroup8GetPitchEv,"axG",%progbits,_ZNK13CIwSoundGroup8GetPitchEv,comdat
	.align	2
	.weak	_ZNK13CIwSoundGroup8GetPitchEv
	.hidden	_ZNK13CIwSoundGroup8GetPitchEv
	.type	_ZNK13CIwSoundGroup8GetPitchEv, %function
_ZNK13CIwSoundGroup8GetPitchEv:
.LFB1401:
	.loc 8 57 0
	.cfi_startproc
	@ args = 0, pretend = 0, frame = 8
	@ frame_needed = 0, uses_anonymous_args = 0
	@ link register save eliminated.
	sub	sp, sp, #8
.LCFI40:
	.cfi_def_cfa_offset 8
	str	r0, [sp, #4]
	.loc 8 57 0
	ldr	r3, [sp, #4]
	ldrh	r3, [r3, #20]
	mov	r3, r3, asl #16
	mov	r3, r3, asr #16
	mov	r0, r3
	add	sp, sp, #8
	bx	lr
	.cfi_endproc
.LFE1401:
	.size	_ZNK13CIwSoundGroup8GetPitchEv, .-_ZNK13CIwSoundGroup8GetPitchEv
	.section	.text._ZNK13CIwSoundGroup8GetFlagsEv,"axG",%progbits,_ZNK13CIwSoundGroup8GetFlagsEv,comdat
	.align	2
	.weak	_ZNK13CIwSoundGroup8GetFlagsEv
	.hidden	_ZNK13CIwSoundGroup8GetFlagsEv
	.type	_ZNK13CIwSoundGroup8GetFlagsEv, %function
_ZNK13CIwSoundGroup8GetFlagsEv:
.LFB1405:
	.loc 8 69 0
	.cfi_startproc
	@ args = 0, pretend = 0, frame = 8
	@ frame_needed = 0, uses_anonymous_args = 0
	@ link register save eliminated.
	sub	sp, sp, #8
.LCFI41:
	.cfi_def_cfa_offset 8
	str	r0, [sp, #4]
	.loc 8 69 0
	ldr	r3, [sp, #4]
	ldrh	r3, [r3, #26]
	mov	r0, r3
	add	sp, sp, #8
	bx	lr
	.cfi_endproc
.LFE1405:
	.size	_ZNK13CIwSoundGroup8GetFlagsEv, .-_ZNK13CIwSoundGroup8GetFlagsEv
	.section	.text._ZNK12CIwSoundInst8GetFlagsEv,"axG",%progbits,_ZNK12CIwSoundInst8GetFlagsEv,comdat
	.align	2
	.weak	_ZNK12CIwSoundInst8GetFlagsEv
	.hidden	_ZNK12CIwSoundInst8GetFlagsEv
	.type	_ZNK12CIwSoundInst8GetFlagsEv, %function
_ZNK12CIwSoundInst8GetFlagsEv:
.LFB1409:
	.file 9 "c:/users/0900391/dropbox/project impact/code/demos/demo_4_tilecollision_advaudio_ui/libs/soundengine/h/IwSoundInst.h"
	.loc 9 51 0
	.cfi_startproc
	@ args = 0, pretend = 0, frame = 8
	@ frame_needed = 0, uses_anonymous_args = 0
	@ link register save eliminated.
	sub	sp, sp, #8
.LCFI42:
	.cfi_def_cfa_offset 8
	str	r0, [sp, #4]
	.loc 9 51 0
	ldr	r3, [sp, #4]
	ldrh	r3, [r3, #10]
	mov	r0, r3
	add	sp, sp, #8
	bx	lr
	.cfi_endproc
.LFE1409:
	.size	_ZNK12CIwSoundInst8GetFlagsEv, .-_ZNK12CIwSoundInst8GetFlagsEv
	.section	.text._ZNK12CIwSoundInst7GetSpecEv,"axG",%progbits,_ZNK12CIwSoundInst7GetSpecEv,comdat
	.align	2
	.weak	_ZNK12CIwSoundInst7GetSpecEv
	.hidden	_ZNK12CIwSoundInst7GetSpecEv
	.type	_ZNK12CIwSoundInst7GetSpecEv, %function
_ZNK12CIwSoundInst7GetSpecEv:
.LFB1410:
	.loc 9 54 0
	.cfi_startproc
	@ args = 0, pretend = 0, frame = 8
	@ frame_needed = 0, uses_anonymous_args = 0
	@ link register save eliminated.
	sub	sp, sp, #8
.LCFI43:
	.cfi_def_cfa_offset 8
	str	r0, [sp, #4]
	.loc 9 54 0
	ldr	r3, [sp, #4]
	ldr	r3, [r3, #0]
	mov	r0, r3
	add	sp, sp, #8
	bx	lr
	.cfi_endproc
.LFE1410:
	.size	_ZNK12CIwSoundInst7GetSpecEv, .-_ZNK12CIwSoundInst7GetSpecEv
	.section	.text._ZNK12CIwSoundInst9GetChanIDEv,"axG",%progbits,_ZNK12CIwSoundInst9GetChanIDEv,comdat
	.align	2
	.weak	_ZNK12CIwSoundInst9GetChanIDEv
	.hidden	_ZNK12CIwSoundInst9GetChanIDEv
	.type	_ZNK12CIwSoundInst9GetChanIDEv, %function
_ZNK12CIwSoundInst9GetChanIDEv:
.LFB1411:
	.loc 9 57 0
	.cfi_startproc
	@ args = 0, pretend = 0, frame = 8
	@ frame_needed = 0, uses_anonymous_args = 0
	@ link register save eliminated.
	sub	sp, sp, #8
.LCFI44:
	.cfi_def_cfa_offset 8
	str	r0, [sp, #4]
	.loc 9 57 0
	ldr	r3, [sp, #4]
	ldrh	r3, [r3, #12]
	mov	r0, r3
	add	sp, sp, #8
	bx	lr
	.cfi_endproc
.LFE1411:
	.size	_ZNK12CIwSoundInst9GetChanIDEv, .-_ZNK12CIwSoundInst9GetChanIDEv
	.section	.text._ZNK12CIwSoundInst6GetVolEv,"axG",%progbits,_ZNK12CIwSoundInst6GetVolEv,comdat
	.align	2
	.weak	_ZNK12CIwSoundInst6GetVolEv
	.hidden	_ZNK12CIwSoundInst6GetVolEv
	.type	_ZNK12CIwSoundInst6GetVolEv, %function
_ZNK12CIwSoundInst6GetVolEv:
.LFB1412:
	.loc 9 60 0
	.cfi_startproc
	@ args = 0, pretend = 0, frame = 8
	@ frame_needed = 0, uses_anonymous_args = 0
	@ link register save eliminated.
	sub	sp, sp, #8
.LCFI45:
	.cfi_def_cfa_offset 8
	str	r0, [sp, #4]
	.loc 9 60 0
	ldr	r3, [sp, #4]
	ldrh	r3, [r3, #4]
	mov	r3, r3, asl #16
	mov	r3, r3, asr #16
	mov	r0, r3
	add	sp, sp, #8
	bx	lr
	.cfi_endproc
.LFE1412:
	.size	_ZNK12CIwSoundInst6GetVolEv, .-_ZNK12CIwSoundInst6GetVolEv
	.section	.text._ZNK12CIwSoundInst8GetPitchEv,"axG",%progbits,_ZNK12CIwSoundInst8GetPitchEv,comdat
	.align	2
	.weak	_ZNK12CIwSoundInst8GetPitchEv
	.hidden	_ZNK12CIwSoundInst8GetPitchEv
	.type	_ZNK12CIwSoundInst8GetPitchEv, %function
_ZNK12CIwSoundInst8GetPitchEv:
.LFB1414:
	.loc 9 66 0
	.cfi_startproc
	@ args = 0, pretend = 0, frame = 8
	@ frame_needed = 0, uses_anonymous_args = 0
	@ link register save eliminated.
	sub	sp, sp, #8
.LCFI46:
	.cfi_def_cfa_offset 8
	str	r0, [sp, #4]
	.loc 9 66 0
	ldr	r3, [sp, #4]
	ldrh	r3, [r3, #8]
	mov	r3, r3, asl #16
	mov	r3, r3, asr #16
	mov	r0, r3
	add	sp, sp, #8
	bx	lr
	.cfi_endproc
.LFE1414:
	.size	_ZNK12CIwSoundInst8GetPitchEv, .-_ZNK12CIwSoundInst8GetPitchEv
	.section	.text._ZNK12CIwSoundInst14GetEndSampleCBEv,"axG",%progbits,_ZNK12CIwSoundInst14GetEndSampleCBEv,comdat
	.align	2
	.weak	_ZNK12CIwSoundInst14GetEndSampleCBEv
	.hidden	_ZNK12CIwSoundInst14GetEndSampleCBEv
	.type	_ZNK12CIwSoundInst14GetEndSampleCBEv, %function
_ZNK12CIwSoundInst14GetEndSampleCBEv:
.LFB1417:
	.loc 9 96 0
	.cfi_startproc
	@ args = 0, pretend = 0, frame = 8
	@ frame_needed = 0, uses_anonymous_args = 0
	@ link register save eliminated.
	sub	sp, sp, #8
.LCFI47:
	.cfi_def_cfa_offset 8
	str	r0, [sp, #4]
	.loc 9 96 0
	ldr	r3, [sp, #4]
	ldr	r3, [r3, #20]
	mov	r0, r3
	add	sp, sp, #8
	bx	lr
	.cfi_endproc
.LFE1417:
	.size	_ZNK12CIwSoundInst14GetEndSampleCBEv, .-_ZNK12CIwSoundInst14GetEndSampleCBEv
	.section	.text._ZNK12CIwSoundData11GetRecPitchEv,"axG",%progbits,_ZNK12CIwSoundData11GetRecPitchEv,comdat
	.align	2
	.weak	_ZNK12CIwSoundData11GetRecPitchEv
	.hidden	_ZNK12CIwSoundData11GetRecPitchEv
	.type	_ZNK12CIwSoundData11GetRecPitchEv, %function
_ZNK12CIwSoundData11GetRecPitchEv:
.LFB1423:
	.file 10 "c:/users/0900391/dropbox/project impact/code/demos/demo_4_tilecollision_advaudio_ui/libs/soundengine/h/IwSoundData.h"
	.loc 10 57 0
	.cfi_startproc
	@ args = 0, pretend = 0, frame = 8
	@ frame_needed = 0, uses_anonymous_args = 0
	@ link register save eliminated.
	sub	sp, sp, #8
.LCFI48:
	.cfi_def_cfa_offset 8
	str	r0, [sp, #4]
	.loc 10 57 0
	ldr	r3, [sp, #4]
	ldr	r3, [r3, #28]
	mov	r0, r3
	add	sp, sp, #8
	bx	lr
	.cfi_endproc
.LFE1423:
	.size	_ZNK12CIwSoundData11GetRecPitchEv, .-_ZNK12CIwSoundData11GetRecPitchEv
	.hidden	g_IwSoundManager
	.global	g_IwSoundManager
	.bss
	.align	2
	.type	g_IwSoundManager, %object
	.size	g_IwSoundManager, 4
g_IwSoundManager:
	.space	4
	.section	.rodata
	.align	2
.LC5:
	.ascii	"IwSoundInit\000"
	.align	2
.LC6:
	.ascii	"UTIL\000"
	.align	2
.LC7:
	.ascii	"CIwSoundData\000"
	.align	2
.LC8:
	.ascii	"Added class factory for %s (hash 0x%08x)\000"
	.align	2
.LC9:
	.ascii	"CIwSoundDataADPCM\000"
	.align	2
.LC10:
	.ascii	"CIwSoundGroup\000"
	.align	2
.LC11:
	.ascii	"CIwSoundSpec\000"
	.section	.text._Z11IwSoundInitv,"ax",%progbits
	.align	2
	.global	_Z11IwSoundInitv
	.hidden	_Z11IwSoundInitv
	.type	_Z11IwSoundInitv, %function
_Z11IwSoundInitv:
.LFB1426:
	.file 11 "c:/users/0900391/dropbox/project impact/code/demos/demo_4_tilecollision_advaudio_ui/libs/soundengine/source/IwSoundManager.cpp"
	.loc 11 35 0
	.cfi_startproc
	@ args = 0, pretend = 0, frame = 8
	@ frame_needed = 0, uses_anonymous_args = 0
	str	lr, [sp, #-4]!
.LCFI49:
	.cfi_def_cfa_offset 4
	sub	sp, sp, #12
.LCFI50:
	.cfi_def_cfa_offset 16
.LBB4:
	.loc 11 36 0
	add	r3, sp, #4
	mov	r0, r3
	ldr	r1, .L127
	.cfi_offset 14, -4
	bl	_ZN12CIwCallStackC1EPKc
	.loc 11 38 0
	mov	r0, #40
	bl	_Znwj
	mov	r3, r0
	mov	r0, r3
	bl	_ZN15CIwSoundManagerC1Ev
	.loc 11 41 0
	ldr	r0, .L127+4
	mov	r1, #1
	bl	IwDebugTraceIsChannelOn
	mov	r3, r0
	cmp	r3, #0
	moveq	r3, #0
	movne	r3, #1
	and	r3, r3, #255
	cmp	r3, #0
	beq	.L122
	ldr	r0, .L127+4
	bl	IwDebugTraceSetTraceChannel
	ldr	r0, .L127+8
	bl	_Z12IwHashStringPKc
	mov	r3, r0
	ldr	r0, .L127+12
	ldr	r1, .L127+8
	mov	r2, r3
	bl	IwDebugTraceLinePrintf
.L122:
	bl	_Z20_GetCIwSoundDataSizev
	mov	r3, r0
	ldr	r0, .L127+8
	ldr	r1, .L127+16
	mov	r2, r3
	bl	_Z17IwClassFactoryAddPKcPFPvvEj
	.loc 11 42 0
	ldr	r0, .L127+4
	mov	r1, #1
	bl	IwDebugTraceIsChannelOn
	mov	r3, r0
	cmp	r3, #0
	moveq	r3, #0
	movne	r3, #1
	and	r3, r3, #255
	cmp	r3, #0
	beq	.L123
	ldr	r0, .L127+4
	bl	IwDebugTraceSetTraceChannel
	ldr	r0, .L127+20
	bl	_Z12IwHashStringPKc
	mov	r3, r0
	ldr	r0, .L127+12
	ldr	r1, .L127+20
	mov	r2, r3
	bl	IwDebugTraceLinePrintf
.L123:
	bl	_Z25_GetCIwSoundDataADPCMSizev
	mov	r3, r0
	ldr	r0, .L127+20
	ldr	r1, .L127+24
	mov	r2, r3
	bl	_Z17IwClassFactoryAddPKcPFPvvEj
	.loc 11 43 0
	ldr	r0, .L127+4
	mov	r1, #1
	bl	IwDebugTraceIsChannelOn
	mov	r3, r0
	cmp	r3, #0
	moveq	r3, #0
	movne	r3, #1
	and	r3, r3, #255
	cmp	r3, #0
	beq	.L124
	ldr	r0, .L127+4
	bl	IwDebugTraceSetTraceChannel
	ldr	r0, .L127+28
	bl	_Z12IwHashStringPKc
	mov	r3, r0
	ldr	r0, .L127+12
	ldr	r1, .L127+28
	mov	r2, r3
	bl	IwDebugTraceLinePrintf
.L124:
	bl	_Z21_GetCIwSoundGroupSizev
	mov	r3, r0
	ldr	r0, .L127+28
	ldr	r1, .L127+32
	mov	r2, r3
	bl	_Z17IwClassFactoryAddPKcPFPvvEj
	.loc 11 44 0
	ldr	r0, .L127+4
	mov	r1, #1
	bl	IwDebugTraceIsChannelOn
	mov	r3, r0
	cmp	r3, #0
	moveq	r3, #0
	movne	r3, #1
	and	r3, r3, #255
	cmp	r3, #0
	beq	.L125
	ldr	r0, .L127+4
	bl	IwDebugTraceSetTraceChannel
	ldr	r0, .L127+36
	bl	_Z12IwHashStringPKc
	mov	r3, r0
	ldr	r0, .L127+12
	ldr	r1, .L127+36
	mov	r2, r3
	bl	IwDebugTraceLinePrintf
.L125:
	bl	_Z20_GetCIwSoundSpecSizev
	mov	r3, r0
	ldr	r0, .L127+36
	ldr	r1, .L127+40
	mov	r2, r3
	bl	_Z17IwClassFactoryAddPKcPFPvvEj
	add	r3, sp, #4
	mov	r0, r3
	bl	_ZN12CIwCallStackD1Ev
.LBE4:
	.loc 11 45 0
	add	sp, sp, #12
	ldmfd	sp!, {pc}
.L128:
	.align	2
.L127:
	.word	.LC5
	.word	.LC6
	.word	.LC7
	.word	.LC8
	.word	_Z20_CIwSoundDataFactoryv
	.word	.LC9
	.word	_Z25_CIwSoundDataADPCMFactoryv
	.word	.LC10
	.word	_Z21_CIwSoundGroupFactoryv
	.word	.LC11
	.word	_Z20_CIwSoundSpecFactoryv
	.cfi_endproc
.LFE1426:
	.size	_Z11IwSoundInitv, .-_Z11IwSoundInitv
	.section	.rodata
	.align	2
.LC12:
	.ascii	"IwSoundTerminate\000"
	.section	.text._Z16IwSoundTerminatev,"ax",%progbits
	.align	2
	.global	_Z16IwSoundTerminatev
	.hidden	_Z16IwSoundTerminatev
	.type	_Z16IwSoundTerminatev, %function
_Z16IwSoundTerminatev:
.LFB1427:
	.loc 11 48 0
	.cfi_startproc
	@ args = 0, pretend = 0, frame = 8
	@ frame_needed = 0, uses_anonymous_args = 0
	str	lr, [sp, #-4]!
.LCFI51:
	.cfi_def_cfa_offset 4
	sub	sp, sp, #12
.LCFI52:
	.cfi_def_cfa_offset 16
.LBB5:
	.loc 11 49 0
	add	r3, sp, #4
	mov	r0, r3
	ldr	r1, .L132
	.cfi_offset 14, -4
	bl	_ZN12CIwCallStackC1EPKc
	.loc 11 51 0
	bl	_Z17IwGetSoundManagerv
	mov	r3, r0
	mov	r0, r3
	bl	_ZN15CIwSoundManager7StopAllEv
	.loc 11 53 0
	bl	_Z17IwGetSoundManagerv
	mov	r3, r0
	cmp	r3, #0
	beq	.L130
	ldr	r2, [r3, #0]
	add	r2, r2, #4
	ldr	r2, [r2, #0]
	mov	r0, r3
	blx	r2
.L130:
	add	r3, sp, #4
	mov	r0, r3
	bl	_ZN12CIwCallStackD1Ev
.LBE5:
	.loc 11 54 0
	add	sp, sp, #12
	ldmfd	sp!, {pc}
.L133:
	.align	2
.L132:
	.word	.LC12
	.cfi_endproc
.LFE1427:
	.size	_Z16IwSoundTerminatev, .-_Z16IwSoundTerminatev
	.hidden	_ZN15CIwSoundManager14s_ChannelsPCM8E
	.global	_ZN15CIwSoundManager14s_ChannelsPCM8E
	.bss
	.align	2
	.type	_ZN15CIwSoundManager14s_ChannelsPCM8E, %object
	.size	_ZN15CIwSoundManager14s_ChannelsPCM8E, 4
_ZN15CIwSoundManager14s_ChannelsPCM8E:
	.space	4
	.hidden	_ZN15CIwSoundManager15s_ChannelsPCM16E
	.global	_ZN15CIwSoundManager15s_ChannelsPCM16E
	.align	2
	.type	_ZN15CIwSoundManager15s_ChannelsPCM16E, %object
	.size	_ZN15CIwSoundManager15s_ChannelsPCM16E, 4
_ZN15CIwSoundManager15s_ChannelsPCM16E:
	.space	4
	.hidden	_ZN15CIwSoundManager15s_ChannelsADPCME
	.global	_ZN15CIwSoundManager15s_ChannelsADPCME
	.align	2
	.type	_ZN15CIwSoundManager15s_ChannelsADPCME, %object
	.size	_ZN15CIwSoundManager15s_ChannelsADPCME, 4
_ZN15CIwSoundManager15s_ChannelsADPCME:
	.space	4
	.section	.rodata
	.align	2
.LC13:
	.ascii	"CIwSoundManager::CIwSoundManager\000"
	.align	2
.LC14:
	.ascii	"CORE\000"
	.align	2
.LC15:
	.ascii	"Singleton already exists; deleting existing singlet"
	.ascii	"on\000"
	.align	2
.LC16:
	.ascii	"g_IwSoundManager == NULL\000"
	.align	2
.LC17:
	.ascii	"c:/users/0900391/dropbox/project impact/code/demos/"
	.ascii	"demo_4_tilecollision_advaudio_ui/libs/soundengine/s"
	.ascii	"ource/IwSoundManager.cpp\000"
	.align	2
.LC18:
	.ascii	"SOUND\000"
	.align	2
.LC19:
	.ascii	"MaxChannels\000"
	.section	.text._ZN15CIwSoundManagerC2Ev,"ax",%progbits
	.align	2
	.global	_ZN15CIwSoundManagerC2Ev
	.hidden	_ZN15CIwSoundManagerC2Ev
	.type	_ZN15CIwSoundManagerC2Ev, %function
_ZN15CIwSoundManagerC2Ev:
.LFB1429:
	.loc 11 63 0
	.cfi_startproc
	@ args = 0, pretend = 0, frame = 24
	@ frame_needed = 0, uses_anonymous_args = 0
	stmfd	sp!, {r4, r5, r6, lr}
.LCFI53:
	.cfi_def_cfa_offset 16
	sub	sp, sp, #24
.LCFI54:
	.cfi_def_cfa_offset 40
	str	r0, [sp, #4]
	.loc 11 63 0
	ldr	r3, [sp, #4]
	ldr	r2, .L160
	str	r2, [r3, #0]
.LBB6:
	.loc 11 65 0
	add	r3, sp, #12
	mov	r0, r3
	ldr	r1, .L160+4
	.cfi_offset 14, -4
	.cfi_offset 6, -8
	.cfi_offset 5, -12
	.cfi_offset 4, -16
	bl	_ZN12CIwCallStackC1EPKc
.LBB7:
	.loc 11 66 0
	ldr	r3, .L160+8
	ldr	r3, [r3, #0]
	cmp	r3, #0
	beq	.L135
	ldr	r0, .L160+12
	bl	IwDebugAssertIsChannelOn
	mov	r3, r0
	cmp	r3, #0
	beq	.L136
	ldr	r3, .L160+16
	ldrb	r3, [r3, #0]	@ zero_extendqisi2
	cmp	r3, #0
	bne	.L136
	mov	r3, #1
	b	.L137
.L136:
	mov	r3, #0
.L137:
	cmp	r3, #0
	beq	.L138
	ldr	r0, .L160+20
	bl	IwDebugAssertSetUID
	ldr	r0, .L160+24
	bl	IwDebugAssertSetMessage
	ldr	r0, .L160+28
	ldr	r1, .L160+32
	mov	r2, #66
	mov	r3, #1
	bl	IwDebugAssertShow
	mov	r3, r0
	cmp	r3, #1
	beq	.L140
	cmp	r3, #2
	beq	.L141
	b	.L139
.L140:
	bl	s3eDebugIsDebuggerPresent
	mov	r3, r0
	cmp	r3, #0
	moveq	r3, #0
	movne	r3, #1
	and	r3, r3, #255
	cmp	r3, #0
	beq	.L142
	bl	s3eDebugIsDebuggerPresent
	mov	r3, r0
	cmp	r3, #0
	moveq	r3, #0
	movne	r3, #1
	and	r3, r3, #255
	cmp	r3, #0
	beq	.L159
	mvn	r3, #11
	mov	r2, #0
	str	r2, [r3, #0]
	b	.L139
.L142:
	bl	_ZL11IwDebugExitv
	b	.L139
.L141:
	ldr	r3, .L160+16
	mov	r2, #1
	strb	r2, [r3, #0]
	b	.L139
.L159:
	mov	r0, r0	@ nop
.L139:
	mov	r0, #0
	bl	IwDebugAssertSetUID
.L138:
	ldr	r3, .L160+8
	ldr	r3, [r3, #0]
	cmp	r3, #0
	beq	.L135
	ldr	r3, .L160+8
	ldr	r3, [r3, #0]
	ldr	r3, [r3, #0]
	add	r3, r3, #4
	ldr	r3, [r3, #0]
	ldr	r2, .L160+8
	ldr	r2, [r2, #0]
	mov	r0, r2
	blx	r3
.L135:
.LBE7:
	ldr	r3, .L160+8
	ldr	r2, [sp, #4]
	str	r2, [r3, #0]
	.loc 11 68 0
	mov	r0, #32
	bl	_Znwj
	mov	r3, r0
	mov	r4, r3
	mov	r3, r4
	mov	r0, r3
	bl	_ZN13CIwSoundGroupC1Ev
	mov	r2, r4
	ldr	r3, [sp, #4]
	str	r2, [r3, #32]
	.loc 11 69 0
	mov	r0, #8
	bl	_Znwj
	mov	r3, r0
	mov	r4, r3
	mov	r3, r4
	mov	r0, r3
	bl	_ZN14CIwSoundParamsC1Ev
	mov	r2, r4
	ldr	r3, [sp, #4]
	str	r2, [r3, #36]
	.loc 11 70 0
	ldr	r3, [sp, #4]
	mov	r2, #0
	str	r2, [r3, #8]
	.loc 11 71 0
	ldr	r3, [sp, #4]
	mov	r2, #0
	str	r2, [r3, #12]
	.loc 11 72 0
	ldr	r3, [sp, #4]
	mov	r2, #0
	str	r2, [r3, #20]
	.loc 11 73 0
	ldr	r3, [sp, #4]
	mov	r2, #2
	strh	r2, [r3, #30]	@ movhi
	.loc 11 75 0
	ldr	r3, [sp, #4]
	mov	r2, #4096
	strh	r2, [r3, #24]	@ movhi
	.loc 11 76 0
	ldr	r3, [sp, #4]
	mov	r2, #0
	strh	r2, [r3, #26]	@ movhi
	.loc 11 77 0
	ldr	r3, [sp, #4]
	mov	r2, #4096
	strh	r2, [r3, #28]	@ movhi
	.loc 11 81 0
	mov	r3, #8
	str	r3, [sp, #8]
	.loc 11 82 0
	add	r3, sp, #8
	ldr	r0, .L160+36
	ldr	r1, .L160+40
	mov	r2, r3
	bl	s3eConfigGetInt
	.loc 11 83 0
	mov	r0, #3
	bl	s3eSoundGetInt
	mov	r3, r0
	str	r3, [sp, #16]
	.loc 11 85 0
	ldr	r2, [sp, #8]
	ldr	r3, [sp, #16]
	cmp	r2, r3
	bge	.L145
	ldr	r3, [sp, #8]
	b	.L146
.L145:
	ldr	r3, [sp, #16]
.L146:
	ldr	r2, [sp, #4]
	str	r3, [r2, #16]
	.loc 11 87 0
	ldr	r3, [sp, #4]
	ldr	r4, [r3, #16]
	mov	r3, r4
	mov	r3, r3, asl #1
	add	r3, r3, r4
	mov	r3, r3, asl #3
	mov	r0, r3
	bl	_Znaj
	mov	r3, r0
	mov	r6, r3
	mov	r3, r6
	mov	r5, r3
	sub	r3, r4, #1
	mov	r4, r3
	b	.L147
.L148:
	mov	r0, r5
	bl	_ZN13CIwChannelPCMIaEC1Ev
	add	r5, r5, #24
	sub	r4, r4, #1
.L147:
	cmn	r4, #1
	moveq	r3, #0
	movne	r3, #1
	and	r3, r3, #255
	cmp	r3, #0
	bne	.L148
	mov	r2, r6
	ldr	r3, .L160+44
	str	r2, [r3, #0]
	.loc 11 88 0
	ldr	r3, [sp, #4]
	ldr	r4, [r3, #16]
	mov	r3, r4
	mov	r3, r3, asl #1
	add	r3, r3, r4
	mov	r3, r3, asl #3
	mov	r0, r3
	bl	_Znaj
	mov	r3, r0
	mov	r6, r3
	mov	r3, r6
	mov	r5, r3
	sub	r3, r4, #1
	mov	r4, r3
	b	.L149
.L150:
	mov	r0, r5
	bl	_ZN13CIwChannelPCMIsEC1Ev
	add	r5, r5, #24
	sub	r4, r4, #1
.L149:
	cmn	r4, #1
	moveq	r3, #0
	movne	r3, #1
	and	r3, r3, #255
	cmp	r3, #0
	bne	.L150
	mov	r2, r6
	ldr	r3, .L160+48
	str	r2, [r3, #0]
	.loc 11 89 0
	ldr	r3, [sp, #4]
	ldr	r4, [r3, #16]
	ldr	r3, .L160+52
	mul	r3, r4, r3
	mov	r0, r3
	bl	_Znaj
	mov	r3, r0
	mov	r6, r3
	mov	r3, r6
	mov	r5, r3
	sub	r3, r4, #1
	mov	r4, r3
	b	.L151
.L152:
	mov	r0, r5
	bl	_ZN15CIwChannelADPCMC1Ev
	add	r3, r5, #1312
	add	r3, r3, #12
	mov	r5, r3
	sub	r4, r4, #1
.L151:
	cmn	r4, #1
	moveq	r3, #0
	movne	r3, #1
	and	r3, r3, #255
	cmp	r3, #0
	bne	.L152
	mov	r2, r6
	ldr	r3, .L160+56
	str	r2, [r3, #0]
	.loc 11 91 0
	ldr	r3, [sp, #4]
	ldr	r4, [r3, #16]
	mov	r3, r4
	mov	r3, r3, asl #1
	add	r3, r3, r4
	mov	r3, r3, asl #3
	mov	r0, r3
	bl	_Znaj
	mov	r3, r0
	mov	r6, r3
	mov	r3, r6
	mov	r5, r3
	sub	r3, r4, #1
	mov	r4, r3
	b	.L153
.L154:
	mov	r0, r5
	bl	_ZN12CIwSoundInstC1Ev
	add	r5, r5, #24
	sub	r4, r4, #1
.L153:
	cmn	r4, #1
	moveq	r3, #0
	movne	r3, #1
	and	r3, r3, #255
	cmp	r3, #0
	bne	.L154
	mov	r2, r6
	ldr	r3, [sp, #4]
	str	r2, [r3, #8]
	.loc 11 92 0
	ldr	r3, [sp, #4]
	ldr	r3, [r3, #16]
	mov	r3, r3, asl #2
	mov	r0, r3
	bl	_Znaj
	mov	r3, r0
	mov	r2, r3
	ldr	r3, [sp, #4]
	str	r2, [r3, #12]
.LBB8:
	.loc 11 93 0
	mov	r3, #0
	str	r3, [sp, #20]
	b	.L155
.L156:
	.loc 11 94 0
	ldr	r3, [sp, #4]
	ldr	r2, [r3, #12]
	ldr	r3, [sp, #20]
	mov	r3, r3, asl #2
	add	r1, r2, r3
	ldr	r3, [sp, #4]
	ldr	r0, [r3, #8]
	ldr	r2, [sp, #20]
	mov	r3, r2
	mov	r3, r3, asl #1
	add	r3, r3, r2
	mov	r3, r3, asl #3
	add	r3, r0, r3
	str	r3, [r1, #0]
	.loc 11 93 0
	ldr	r3, [sp, #20]
	add	r3, r3, #1
	str	r3, [sp, #20]
.L155:
	ldr	r3, [sp, #4]
	ldr	r2, [r3, #16]
	ldr	r3, [sp, #20]
	cmp	r2, r3
	movls	r3, #0
	movhi	r3, #1
	and	r3, r3, #255
	cmp	r3, #0
	bne	.L156
.LBE8:
	.loc 11 94 0
	add	r3, sp, #12
	mov	r0, r3
	bl	_ZN12CIwCallStackD1Ev
.LBE6:
	.loc 11 95 0
	ldr	r3, [sp, #4]
	mov	r0, r3
	add	sp, sp, #24
	ldmfd	sp!, {r4, r5, r6, pc}
.L161:
	.align	2
.L160:
	.word	_ZTV15CIwSoundManager+8
	.word	.LC13
	.word	g_IwSoundManager
	.word	.LC14
	.word	_ZZN15CIwSoundManagerC1EvE21_s_IwAssertIgnoreThis
	.word	275
	.word	.LC15
	.word	.LC16
	.word	.LC17
	.word	.LC18
	.word	.LC19
	.word	_ZN15CIwSoundManager14s_ChannelsPCM8E
	.word	_ZN15CIwSoundManager15s_ChannelsPCM16E
	.word	1324
	.word	_ZN15CIwSoundManager15s_ChannelsADPCME
	.cfi_endproc
.LFE1429:
	.size	_ZN15CIwSoundManagerC2Ev, .-_ZN15CIwSoundManagerC2Ev
	.section	.text._ZN15CIwSoundManagerC1Ev,"ax",%progbits
	.align	2
	.global	_ZN15CIwSoundManagerC1Ev
	.hidden	_ZN15CIwSoundManagerC1Ev
	.type	_ZN15CIwSoundManagerC1Ev, %function
_ZN15CIwSoundManagerC1Ev:
.LFB1430:
	.loc 11 63 0
	.cfi_startproc
	@ args = 0, pretend = 0, frame = 24
	@ frame_needed = 0, uses_anonymous_args = 0
	stmfd	sp!, {r4, r5, r6, lr}
.LCFI55:
	.cfi_def_cfa_offset 16
	sub	sp, sp, #24
.LCFI56:
	.cfi_def_cfa_offset 40
	str	r0, [sp, #4]
	.loc 11 63 0
	ldr	r3, [sp, #4]
	ldr	r2, .L188
	str	r2, [r3, #0]
.LBB9:
	.loc 11 65 0
	add	r3, sp, #12
	mov	r0, r3
	ldr	r1, .L188+4
	.cfi_offset 14, -4
	.cfi_offset 6, -8
	.cfi_offset 5, -12
	.cfi_offset 4, -16
	bl	_ZN12CIwCallStackC1EPKc
.LBB10:
	.loc 11 66 0
	ldr	r3, .L188+8
	ldr	r3, [r3, #0]
	cmp	r3, #0
	beq	.L163
	ldr	r0, .L188+12
	bl	IwDebugAssertIsChannelOn
	mov	r3, r0
	cmp	r3, #0
	beq	.L164
	ldr	r3, .L188+16
	ldrb	r3, [r3, #0]	@ zero_extendqisi2
	cmp	r3, #0
	bne	.L164
	mov	r3, #1
	b	.L165
.L164:
	mov	r3, #0
.L165:
	cmp	r3, #0
	beq	.L166
	ldr	r0, .L188+20
	bl	IwDebugAssertSetUID
	ldr	r0, .L188+24
	bl	IwDebugAssertSetMessage
	ldr	r0, .L188+28
	ldr	r1, .L188+32
	mov	r2, #66
	mov	r3, #1
	bl	IwDebugAssertShow
	mov	r3, r0
	cmp	r3, #1
	beq	.L168
	cmp	r3, #2
	beq	.L169
	b	.L167
.L168:
	bl	s3eDebugIsDebuggerPresent
	mov	r3, r0
	cmp	r3, #0
	moveq	r3, #0
	movne	r3, #1
	and	r3, r3, #255
	cmp	r3, #0
	beq	.L170
	bl	s3eDebugIsDebuggerPresent
	mov	r3, r0
	cmp	r3, #0
	moveq	r3, #0
	movne	r3, #1
	and	r3, r3, #255
	cmp	r3, #0
	beq	.L187
	mvn	r3, #11
	mov	r2, #0
	str	r2, [r3, #0]
	b	.L167
.L170:
	bl	_ZL11IwDebugExitv
	b	.L167
.L169:
	ldr	r3, .L188+16
	mov	r2, #1
	strb	r2, [r3, #0]
	b	.L167
.L187:
	mov	r0, r0	@ nop
.L167:
	mov	r0, #0
	bl	IwDebugAssertSetUID
.L166:
	ldr	r3, .L188+8
	ldr	r3, [r3, #0]
	cmp	r3, #0
	beq	.L163
	ldr	r3, .L188+8
	ldr	r3, [r3, #0]
	ldr	r3, [r3, #0]
	add	r3, r3, #4
	ldr	r3, [r3, #0]
	ldr	r2, .L188+8
	ldr	r2, [r2, #0]
	mov	r0, r2
	blx	r3
.L163:
.LBE10:
	ldr	r3, .L188+8
	ldr	r2, [sp, #4]
	str	r2, [r3, #0]
	.loc 11 68 0
	mov	r0, #32
	bl	_Znwj
	mov	r3, r0
	mov	r4, r3
	mov	r3, r4
	mov	r0, r3
	bl	_ZN13CIwSoundGroupC1Ev
	mov	r2, r4
	ldr	r3, [sp, #4]
	str	r2, [r3, #32]
	.loc 11 69 0
	mov	r0, #8
	bl	_Znwj
	mov	r3, r0
	mov	r4, r3
	mov	r3, r4
	mov	r0, r3
	bl	_ZN14CIwSoundParamsC1Ev
	mov	r2, r4
	ldr	r3, [sp, #4]
	str	r2, [r3, #36]
	.loc 11 70 0
	ldr	r3, [sp, #4]
	mov	r2, #0
	str	r2, [r3, #8]
	.loc 11 71 0
	ldr	r3, [sp, #4]
	mov	r2, #0
	str	r2, [r3, #12]
	.loc 11 72 0
	ldr	r3, [sp, #4]
	mov	r2, #0
	str	r2, [r3, #20]
	.loc 11 73 0
	ldr	r3, [sp, #4]
	mov	r2, #2
	strh	r2, [r3, #30]	@ movhi
	.loc 11 75 0
	ldr	r3, [sp, #4]
	mov	r2, #4096
	strh	r2, [r3, #24]	@ movhi
	.loc 11 76 0
	ldr	r3, [sp, #4]
	mov	r2, #0
	strh	r2, [r3, #26]	@ movhi
	.loc 11 77 0
	ldr	r3, [sp, #4]
	mov	r2, #4096
	strh	r2, [r3, #28]	@ movhi
	.loc 11 81 0
	mov	r3, #8
	str	r3, [sp, #8]
	.loc 11 82 0
	add	r3, sp, #8
	ldr	r0, .L188+36
	ldr	r1, .L188+40
	mov	r2, r3
	bl	s3eConfigGetInt
	.loc 11 83 0
	mov	r0, #3
	bl	s3eSoundGetInt
	mov	r3, r0
	str	r3, [sp, #16]
	.loc 11 85 0
	ldr	r2, [sp, #8]
	ldr	r3, [sp, #16]
	cmp	r2, r3
	bge	.L173
	ldr	r3, [sp, #8]
	b	.L174
.L173:
	ldr	r3, [sp, #16]
.L174:
	ldr	r2, [sp, #4]
	str	r3, [r2, #16]
	.loc 11 87 0
	ldr	r3, [sp, #4]
	ldr	r4, [r3, #16]
	mov	r3, r4
	mov	r3, r3, asl #1
	add	r3, r3, r4
	mov	r3, r3, asl #3
	mov	r0, r3
	bl	_Znaj
	mov	r3, r0
	mov	r6, r3
	mov	r3, r6
	mov	r5, r3
	sub	r3, r4, #1
	mov	r4, r3
	b	.L175
.L176:
	mov	r0, r5
	bl	_ZN13CIwChannelPCMIaEC1Ev
	add	r5, r5, #24
	sub	r4, r4, #1
.L175:
	cmn	r4, #1
	moveq	r3, #0
	movne	r3, #1
	and	r3, r3, #255
	cmp	r3, #0
	bne	.L176
	mov	r2, r6
	ldr	r3, .L188+44
	str	r2, [r3, #0]
	.loc 11 88 0
	ldr	r3, [sp, #4]
	ldr	r4, [r3, #16]
	mov	r3, r4
	mov	r3, r3, asl #1
	add	r3, r3, r4
	mov	r3, r3, asl #3
	mov	r0, r3
	bl	_Znaj
	mov	r3, r0
	mov	r6, r3
	mov	r3, r6
	mov	r5, r3
	sub	r3, r4, #1
	mov	r4, r3
	b	.L177
.L178:
	mov	r0, r5
	bl	_ZN13CIwChannelPCMIsEC1Ev
	add	r5, r5, #24
	sub	r4, r4, #1
.L177:
	cmn	r4, #1
	moveq	r3, #0
	movne	r3, #1
	and	r3, r3, #255
	cmp	r3, #0
	bne	.L178
	mov	r2, r6
	ldr	r3, .L188+48
	str	r2, [r3, #0]
	.loc 11 89 0
	ldr	r3, [sp, #4]
	ldr	r4, [r3, #16]
	ldr	r3, .L188+52
	mul	r3, r4, r3
	mov	r0, r3
	bl	_Znaj
	mov	r3, r0
	mov	r6, r3
	mov	r3, r6
	mov	r5, r3
	sub	r3, r4, #1
	mov	r4, r3
	b	.L179
.L180:
	mov	r0, r5
	bl	_ZN15CIwChannelADPCMC1Ev
	add	r3, r5, #1312
	add	r3, r3, #12
	mov	r5, r3
	sub	r4, r4, #1
.L179:
	cmn	r4, #1
	moveq	r3, #0
	movne	r3, #1
	and	r3, r3, #255
	cmp	r3, #0
	bne	.L180
	mov	r2, r6
	ldr	r3, .L188+56
	str	r2, [r3, #0]
	.loc 11 91 0
	ldr	r3, [sp, #4]
	ldr	r4, [r3, #16]
	mov	r3, r4
	mov	r3, r3, asl #1
	add	r3, r3, r4
	mov	r3, r3, asl #3
	mov	r0, r3
	bl	_Znaj
	mov	r3, r0
	mov	r6, r3
	mov	r3, r6
	mov	r5, r3
	sub	r3, r4, #1
	mov	r4, r3
	b	.L181
.L182:
	mov	r0, r5
	bl	_ZN12CIwSoundInstC1Ev
	add	r5, r5, #24
	sub	r4, r4, #1
.L181:
	cmn	r4, #1
	moveq	r3, #0
	movne	r3, #1
	and	r3, r3, #255
	cmp	r3, #0
	bne	.L182
	mov	r2, r6
	ldr	r3, [sp, #4]
	str	r2, [r3, #8]
	.loc 11 92 0
	ldr	r3, [sp, #4]
	ldr	r3, [r3, #16]
	mov	r3, r3, asl #2
	mov	r0, r3
	bl	_Znaj
	mov	r3, r0
	mov	r2, r3
	ldr	r3, [sp, #4]
	str	r2, [r3, #12]
.LBB11:
	.loc 11 93 0
	mov	r3, #0
	str	r3, [sp, #20]
	b	.L183
.L184:
	.loc 11 94 0
	ldr	r3, [sp, #4]
	ldr	r2, [r3, #12]
	ldr	r3, [sp, #20]
	mov	r3, r3, asl #2
	add	r1, r2, r3
	ldr	r3, [sp, #4]
	ldr	r0, [r3, #8]
	ldr	r2, [sp, #20]
	mov	r3, r2
	mov	r3, r3, asl #1
	add	r3, r3, r2
	mov	r3, r3, asl #3
	add	r3, r0, r3
	str	r3, [r1, #0]
	.loc 11 93 0
	ldr	r3, [sp, #20]
	add	r3, r3, #1
	str	r3, [sp, #20]
.L183:
	ldr	r3, [sp, #4]
	ldr	r2, [r3, #16]
	ldr	r3, [sp, #20]
	cmp	r2, r3
	movls	r3, #0
	movhi	r3, #1
	and	r3, r3, #255
	cmp	r3, #0
	bne	.L184
.LBE11:
	.loc 11 94 0
	add	r3, sp, #12
	mov	r0, r3
	bl	_ZN12CIwCallStackD1Ev
.LBE9:
	.loc 11 95 0
	ldr	r3, [sp, #4]
	mov	r0, r3
	add	sp, sp, #24
	ldmfd	sp!, {r4, r5, r6, pc}
.L189:
	.align	2
.L188:
	.word	_ZTV15CIwSoundManager+8
	.word	.LC13
	.word	g_IwSoundManager
	.word	.LC14
	.word	_ZZN15CIwSoundManagerC1EvE21_s_IwAssertIgnoreThis
	.word	275
	.word	.LC15
	.word	.LC16
	.word	.LC17
	.word	.LC18
	.word	.LC19
	.word	_ZN15CIwSoundManager14s_ChannelsPCM8E
	.word	_ZN15CIwSoundManager15s_ChannelsPCM16E
	.word	1324
	.word	_ZN15CIwSoundManager15s_ChannelsADPCME
	.cfi_endproc
.LFE1430:
	.size	_ZN15CIwSoundManagerC1Ev, .-_ZN15CIwSoundManagerC1Ev
	.section	.rodata
	.align	2
.LC20:
	.ascii	"CIwSoundManager::~CIwSoundManager\000"
	.align	2
.LC21:
	.ascii	"Singleton does not exist\000"
	.align	2
.LC22:
	.ascii	"g_IwSoundManager != __null\000"
	.section	.text._ZN15CIwSoundManagerD2Ev,"ax",%progbits
	.align	2
	.global	_ZN15CIwSoundManagerD2Ev
	.hidden	_ZN15CIwSoundManagerD2Ev
	.type	_ZN15CIwSoundManagerD2Ev, %function
_ZN15CIwSoundManagerD2Ev:
.LFB1436:
	.loc 11 97 0
	.cfi_startproc
	@ args = 0, pretend = 0, frame = 16
	@ frame_needed = 0, uses_anonymous_args = 0
	str	lr, [sp, #-4]!
.LCFI57:
	.cfi_def_cfa_offset 4
	sub	sp, sp, #20
.LCFI58:
	.cfi_def_cfa_offset 24
	str	r0, [sp, #4]
	.loc 11 97 0
	ldr	r3, [sp, #4]
	ldr	r2, .L210
	str	r2, [r3, #0]
.LBB12:
	.loc 11 99 0
	add	r3, sp, #12
	mov	r0, r3
	ldr	r1, .L210+4
	.cfi_offset 14, -4
	bl	_ZN12CIwCallStackC1EPKc
.LBB13:
	.loc 11 100 0
	ldr	r3, .L210+8
	ldr	r3, [r3, #0]
	cmp	r3, #0
	bne	.L191
	ldr	r0, .L210+12
	bl	IwDebugAssertIsChannelOn
	mov	r3, r0
	cmp	r3, #0
	beq	.L191
	ldr	r3, .L210+16
	ldrb	r3, [r3, #0]	@ zero_extendqisi2
	cmp	r3, #0
	bne	.L191
	mov	r3, #1
	b	.L192
.L191:
	mov	r3, #0
.L192:
	cmp	r3, #0
	beq	.L193
	mov	r0, #0
	bl	IwDebugAssertSetSolution
	ldr	r0, .L210+20
	bl	IwDebugAssertSetUID
	ldr	r0, .L210+24
	bl	IwDebugAssertSetMessage
	ldr	r0, .L210+28
	ldr	r1, .L210+32
	mov	r2, #100
	mov	r3, #1
	bl	IwDebugAssertShow
	mov	r3, r0
	cmp	r3, #1
	beq	.L195
	cmp	r3, #2
	beq	.L196
	b	.L194
.L195:
	bl	s3eDebugIsDebuggerPresent
	mov	r3, r0
	cmp	r3, #0
	moveq	r3, #0
	movne	r3, #1
	and	r3, r3, #255
	cmp	r3, #0
	beq	.L197
	bl	s3eDebugIsDebuggerPresent
	mov	r3, r0
	cmp	r3, #0
	moveq	r3, #0
	movne	r3, #1
	and	r3, r3, #255
	cmp	r3, #0
	beq	.L209
	mvn	r3, #11
	mov	r2, #0
	str	r2, [r3, #0]
	b	.L194
.L197:
	bl	_ZL11IwDebugExitv
	b	.L194
.L196:
	ldr	r3, .L210+16
	mov	r2, #1
	strb	r2, [r3, #0]
	b	.L194
.L209:
	mov	r0, r0	@ nop
.L194:
	mov	r0, #0
	bl	IwDebugAssertSetUID
.L193:
.LBE13:
	ldr	r3, .L210+8
	mov	r2, #0
	str	r2, [r3, #0]
	.loc 11 102 0
	ldr	r3, [sp, #4]
	ldr	r3, [r3, #32]
	cmp	r3, #0
	beq	.L200
	ldr	r3, [sp, #4]
	ldr	r3, [r3, #32]
	ldr	r3, [r3, #0]
	add	r3, r3, #4
	ldr	r3, [r3, #0]
	ldr	r2, [sp, #4]
	ldr	r2, [r2, #32]
	mov	r0, r2
	blx	r3
.L200:
	.loc 11 103 0
	ldr	r3, [sp, #4]
	ldr	r3, [r3, #36]
	mov	r0, r3
	bl	_ZdlPv
	.loc 11 104 0
	ldr	r3, [sp, #4]
	ldr	r3, [r3, #8]
	cmp	r3, #0
	beq	.L201
	ldr	r3, [sp, #4]
	ldr	r3, [r3, #8]
	mov	r0, r3
	bl	_ZdaPv
.L201:
	.loc 11 105 0
	ldr	r3, [sp, #4]
	ldr	r3, [r3, #12]
	cmp	r3, #0
	beq	.L202
	ldr	r3, [sp, #4]
	ldr	r3, [r3, #12]
	mov	r0, r3
	bl	_ZdaPv
.L202:
	.loc 11 106 0
	ldr	r3, .L210+36
	ldr	r3, [r3, #0]
	cmp	r3, #0
	beq	.L203
	ldr	r3, .L210+36
	ldr	r3, [r3, #0]
	mov	r0, r3
	bl	_ZdaPv
.L203:
	.loc 11 107 0
	ldr	r3, .L210+40
	ldr	r3, [r3, #0]
	cmp	r3, #0
	beq	.L204
	ldr	r3, .L210+40
	ldr	r3, [r3, #0]
	mov	r0, r3
	bl	_ZdaPv
.L204:
	.loc 11 108 0
	ldr	r3, .L210+44
	ldr	r3, [r3, #0]
	cmp	r3, #0
	beq	.L205
	ldr	r3, .L210+44
	ldr	r3, [r3, #0]
	mov	r0, r3
	bl	_ZdaPv
.L205:
	add	r3, sp, #12
	mov	r0, r3
	bl	_ZN12CIwCallStackD1Ev
.LBE12:
	.loc 11 109 0
	mov	r3, #0
	and	r3, r3, #255
	cmp	r3, #0
	beq	.L207
	ldr	r0, [sp, #4]
	bl	_ZdlPv
.L207:
	ldr	r3, [sp, #4]
	mov	r0, r3
	add	sp, sp, #20
	ldmfd	sp!, {pc}
.L211:
	.align	2
.L210:
	.word	_ZTV15CIwSoundManager+8
	.word	.LC20
	.word	g_IwSoundManager
	.word	.LC14
	.word	_ZZN15CIwSoundManagerD1EvE21_s_IwAssertIgnoreThis
	.word	274
	.word	.LC21
	.word	.LC22
	.word	.LC17
	.word	_ZN15CIwSoundManager14s_ChannelsPCM8E
	.word	_ZN15CIwSoundManager15s_ChannelsPCM16E
	.word	_ZN15CIwSoundManager15s_ChannelsADPCME
	.cfi_endproc
.LFE1436:
	.size	_ZN15CIwSoundManagerD2Ev, .-_ZN15CIwSoundManagerD2Ev
	.section	.text._ZN15CIwSoundManagerD1Ev,"ax",%progbits
	.align	2
	.global	_ZN15CIwSoundManagerD1Ev
	.hidden	_ZN15CIwSoundManagerD1Ev
	.type	_ZN15CIwSoundManagerD1Ev, %function
_ZN15CIwSoundManagerD1Ev:
.LFB1437:
	.loc 11 97 0
	.cfi_startproc
	@ args = 0, pretend = 0, frame = 16
	@ frame_needed = 0, uses_anonymous_args = 0
	str	lr, [sp, #-4]!
.LCFI59:
	.cfi_def_cfa_offset 4
	sub	sp, sp, #20
.LCFI60:
	.cfi_def_cfa_offset 24
	str	r0, [sp, #4]
	.loc 11 97 0
	ldr	r3, [sp, #4]
	ldr	r2, .L232
	str	r2, [r3, #0]
.LBB14:
	.loc 11 99 0
	add	r3, sp, #12
	mov	r0, r3
	ldr	r1, .L232+4
	.cfi_offset 14, -4
	bl	_ZN12CIwCallStackC1EPKc
.LBB15:
	.loc 11 100 0
	ldr	r3, .L232+8
	ldr	r3, [r3, #0]
	cmp	r3, #0
	bne	.L213
	ldr	r0, .L232+12
	bl	IwDebugAssertIsChannelOn
	mov	r3, r0
	cmp	r3, #0
	beq	.L213
	ldr	r3, .L232+16
	ldrb	r3, [r3, #0]	@ zero_extendqisi2
	cmp	r3, #0
	bne	.L213
	mov	r3, #1
	b	.L214
.L213:
	mov	r3, #0
.L214:
	cmp	r3, #0
	beq	.L215
	mov	r0, #0
	bl	IwDebugAssertSetSolution
	ldr	r0, .L232+20
	bl	IwDebugAssertSetUID
	ldr	r0, .L232+24
	bl	IwDebugAssertSetMessage
	ldr	r0, .L232+28
	ldr	r1, .L232+32
	mov	r2, #100
	mov	r3, #1
	bl	IwDebugAssertShow
	mov	r3, r0
	cmp	r3, #1
	beq	.L217
	cmp	r3, #2
	beq	.L218
	b	.L216
.L217:
	bl	s3eDebugIsDebuggerPresent
	mov	r3, r0
	cmp	r3, #0
	moveq	r3, #0
	movne	r3, #1
	and	r3, r3, #255
	cmp	r3, #0
	beq	.L219
	bl	s3eDebugIsDebuggerPresent
	mov	r3, r0
	cmp	r3, #0
	moveq	r3, #0
	movne	r3, #1
	and	r3, r3, #255
	cmp	r3, #0
	beq	.L231
	mvn	r3, #11
	mov	r2, #0
	str	r2, [r3, #0]
	b	.L216
.L219:
	bl	_ZL11IwDebugExitv
	b	.L216
.L218:
	ldr	r3, .L232+16
	mov	r2, #1
	strb	r2, [r3, #0]
	b	.L216
.L231:
	mov	r0, r0	@ nop
.L216:
	mov	r0, #0
	bl	IwDebugAssertSetUID
.L215:
.LBE15:
	ldr	r3, .L232+8
	mov	r2, #0
	str	r2, [r3, #0]
	.loc 11 102 0
	ldr	r3, [sp, #4]
	ldr	r3, [r3, #32]
	cmp	r3, #0
	beq	.L222
	ldr	r3, [sp, #4]
	ldr	r3, [r3, #32]
	ldr	r3, [r3, #0]
	add	r3, r3, #4
	ldr	r3, [r3, #0]
	ldr	r2, [sp, #4]
	ldr	r2, [r2, #32]
	mov	r0, r2
	blx	r3
.L222:
	.loc 11 103 0
	ldr	r3, [sp, #4]
	ldr	r3, [r3, #36]
	mov	r0, r3
	bl	_ZdlPv
	.loc 11 104 0
	ldr	r3, [sp, #4]
	ldr	r3, [r3, #8]
	cmp	r3, #0
	beq	.L223
	ldr	r3, [sp, #4]
	ldr	r3, [r3, #8]
	mov	r0, r3
	bl	_ZdaPv
.L223:
	.loc 11 105 0
	ldr	r3, [sp, #4]
	ldr	r3, [r3, #12]
	cmp	r3, #0
	beq	.L224
	ldr	r3, [sp, #4]
	ldr	r3, [r3, #12]
	mov	r0, r3
	bl	_ZdaPv
.L224:
	.loc 11 106 0
	ldr	r3, .L232+36
	ldr	r3, [r3, #0]
	cmp	r3, #0
	beq	.L225
	ldr	r3, .L232+36
	ldr	r3, [r3, #0]
	mov	r0, r3
	bl	_ZdaPv
.L225:
	.loc 11 107 0
	ldr	r3, .L232+40
	ldr	r3, [r3, #0]
	cmp	r3, #0
	beq	.L226
	ldr	r3, .L232+40
	ldr	r3, [r3, #0]
	mov	r0, r3
	bl	_ZdaPv
.L226:
	.loc 11 108 0
	ldr	r3, .L232+44
	ldr	r3, [r3, #0]
	cmp	r3, #0
	beq	.L227
	ldr	r3, .L232+44
	ldr	r3, [r3, #0]
	mov	r0, r3
	bl	_ZdaPv
.L227:
	add	r3, sp, #12
	mov	r0, r3
	bl	_ZN12CIwCallStackD1Ev
.LBE14:
	.loc 11 109 0
	mov	r3, #0
	and	r3, r3, #255
	cmp	r3, #0
	beq	.L229
	ldr	r0, [sp, #4]
	bl	_ZdlPv
.L229:
	ldr	r3, [sp, #4]
	mov	r0, r3
	add	sp, sp, #20
	ldmfd	sp!, {pc}
.L233:
	.align	2
.L232:
	.word	_ZTV15CIwSoundManager+8
	.word	.LC20
	.word	g_IwSoundManager
	.word	.LC14
	.word	_ZZN15CIwSoundManagerD1EvE21_s_IwAssertIgnoreThis
	.word	274
	.word	.LC21
	.word	.LC22
	.word	.LC17
	.word	_ZN15CIwSoundManager14s_ChannelsPCM8E
	.word	_ZN15CIwSoundManager15s_ChannelsPCM16E
	.word	_ZN15CIwSoundManager15s_ChannelsADPCME
	.cfi_endproc
.LFE1437:
	.size	_ZN15CIwSoundManagerD1Ev, .-_ZN15CIwSoundManagerD1Ev
	.section	.text._ZN15CIwSoundManagerD0Ev,"ax",%progbits
	.align	2
	.global	_ZN15CIwSoundManagerD0Ev
	.hidden	_ZN15CIwSoundManagerD0Ev
	.type	_ZN15CIwSoundManagerD0Ev, %function
_ZN15CIwSoundManagerD0Ev:
.LFB1438:
	.loc 11 97 0
	.cfi_startproc
	@ args = 0, pretend = 0, frame = 16
	@ frame_needed = 0, uses_anonymous_args = 0
	str	lr, [sp, #-4]!
.LCFI61:
	.cfi_def_cfa_offset 4
	sub	sp, sp, #20
.LCFI62:
	.cfi_def_cfa_offset 24
	str	r0, [sp, #4]
	.loc 11 97 0
	ldr	r3, [sp, #4]
	ldr	r2, .L254
	str	r2, [r3, #0]
.LBB16:
	.loc 11 99 0
	add	r3, sp, #12
	mov	r0, r3
	ldr	r1, .L254+4
	.cfi_offset 14, -4
	bl	_ZN12CIwCallStackC1EPKc
.LBB17:
	.loc 11 100 0
	ldr	r3, .L254+8
	ldr	r3, [r3, #0]
	cmp	r3, #0
	bne	.L235
	ldr	r0, .L254+12
	bl	IwDebugAssertIsChannelOn
	mov	r3, r0
	cmp	r3, #0
	beq	.L235
	ldr	r3, .L254+16
	ldrb	r3, [r3, #0]	@ zero_extendqisi2
	cmp	r3, #0
	bne	.L235
	mov	r3, #1
	b	.L236
.L235:
	mov	r3, #0
.L236:
	cmp	r3, #0
	beq	.L237
	mov	r0, #0
	bl	IwDebugAssertSetSolution
	ldr	r0, .L254+20
	bl	IwDebugAssertSetUID
	ldr	r0, .L254+24
	bl	IwDebugAssertSetMessage
	ldr	r0, .L254+28
	ldr	r1, .L254+32
	mov	r2, #100
	mov	r3, #1
	bl	IwDebugAssertShow
	mov	r3, r0
	cmp	r3, #1
	beq	.L239
	cmp	r3, #2
	beq	.L240
	b	.L238
.L239:
	bl	s3eDebugIsDebuggerPresent
	mov	r3, r0
	cmp	r3, #0
	moveq	r3, #0
	movne	r3, #1
	and	r3, r3, #255
	cmp	r3, #0
	beq	.L241
	bl	s3eDebugIsDebuggerPresent
	mov	r3, r0
	cmp	r3, #0
	moveq	r3, #0
	movne	r3, #1
	and	r3, r3, #255
	cmp	r3, #0
	beq	.L253
	mvn	r3, #11
	mov	r2, #0
	str	r2, [r3, #0]
	b	.L238
.L241:
	bl	_ZL11IwDebugExitv
	b	.L238
.L240:
	ldr	r3, .L254+16
	mov	r2, #1
	strb	r2, [r3, #0]
	b	.L238
.L253:
	mov	r0, r0	@ nop
.L238:
	mov	r0, #0
	bl	IwDebugAssertSetUID
.L237:
.LBE17:
	ldr	r3, .L254+8
	mov	r2, #0
	str	r2, [r3, #0]
	.loc 11 102 0
	ldr	r3, [sp, #4]
	ldr	r3, [r3, #32]
	cmp	r3, #0
	beq	.L244
	ldr	r3, [sp, #4]
	ldr	r3, [r3, #32]
	ldr	r3, [r3, #0]
	add	r3, r3, #4
	ldr	r3, [r3, #0]
	ldr	r2, [sp, #4]
	ldr	r2, [r2, #32]
	mov	r0, r2
	blx	r3
.L244:
	.loc 11 103 0
	ldr	r3, [sp, #4]
	ldr	r3, [r3, #36]
	mov	r0, r3
	bl	_ZdlPv
	.loc 11 104 0
	ldr	r3, [sp, #4]
	ldr	r3, [r3, #8]
	cmp	r3, #0
	beq	.L245
	ldr	r3, [sp, #4]
	ldr	r3, [r3, #8]
	mov	r0, r3
	bl	_ZdaPv
.L245:
	.loc 11 105 0
	ldr	r3, [sp, #4]
	ldr	r3, [r3, #12]
	cmp	r3, #0
	beq	.L246
	ldr	r3, [sp, #4]
	ldr	r3, [r3, #12]
	mov	r0, r3
	bl	_ZdaPv
.L246:
	.loc 11 106 0
	ldr	r3, .L254+36
	ldr	r3, [r3, #0]
	cmp	r3, #0
	beq	.L247
	ldr	r3, .L254+36
	ldr	r3, [r3, #0]
	mov	r0, r3
	bl	_ZdaPv
.L247:
	.loc 11 107 0
	ldr	r3, .L254+40
	ldr	r3, [r3, #0]
	cmp	r3, #0
	beq	.L248
	ldr	r3, .L254+40
	ldr	r3, [r3, #0]
	mov	r0, r3
	bl	_ZdaPv
.L248:
	.loc 11 108 0
	ldr	r3, .L254+44
	ldr	r3, [r3, #0]
	cmp	r3, #0
	beq	.L249
	ldr	r3, .L254+44
	ldr	r3, [r3, #0]
	mov	r0, r3
	bl	_ZdaPv
.L249:
	add	r3, sp, #12
	mov	r0, r3
	bl	_ZN12CIwCallStackD1Ev
.LBE16:
	.loc 11 109 0
	mov	r3, #1
	and	r3, r3, #255
	cmp	r3, #0
	beq	.L251
	ldr	r0, [sp, #4]
	bl	_ZdlPv
.L251:
	ldr	r3, [sp, #4]
	mov	r0, r3
	add	sp, sp, #20
	ldmfd	sp!, {pc}
.L255:
	.align	2
.L254:
	.word	_ZTV15CIwSoundManager+8
	.word	.LC20
	.word	g_IwSoundManager
	.word	.LC14
	.word	_ZZN15CIwSoundManagerD1EvE21_s_IwAssertIgnoreThis
	.word	274
	.word	.LC21
	.word	.LC22
	.word	.LC17
	.word	_ZN15CIwSoundManager14s_ChannelsPCM8E
	.word	_ZN15CIwSoundManager15s_ChannelsPCM16E
	.word	_ZN15CIwSoundManager15s_ChannelsADPCME
	.cfi_endproc
.LFE1438:
	.size	_ZN15CIwSoundManagerD0Ev, .-_ZN15CIwSoundManagerD0Ev
	.section	.rodata
	.align	2
.LC23:
	.ascii	"CIwSoundManager::SetMaxSoundInsts\000"
	.align	2
.LC24:
	.ascii	"DEPRECATED (max insts set via [SOUND] MaxChannels -"
	.ascii	" currently %u\000"
	.align	2
.LC25:
	.ascii	"false\000"
	.section	.text._ZN15CIwSoundManager16SetMaxSoundInstsEj,"ax",%progbits
	.align	2
	.global	_ZN15CIwSoundManager16SetMaxSoundInstsEj
	.hidden	_ZN15CIwSoundManager16SetMaxSoundInstsEj
	.type	_ZN15CIwSoundManager16SetMaxSoundInstsEj, %function
_ZN15CIwSoundManager16SetMaxSoundInstsEj:
.LFB1439:
	.loc 11 112 0
	.cfi_startproc
	@ args = 0, pretend = 0, frame = 16
	@ frame_needed = 0, uses_anonymous_args = 0
	str	lr, [sp, #-4]!
.LCFI63:
	.cfi_def_cfa_offset 4
	sub	sp, sp, #20
.LCFI64:
	.cfi_def_cfa_offset 24
	str	r0, [sp, #4]
	str	r1, [sp, #0]
.LBB18:
	.loc 11 113 0
	add	r3, sp, #12
	mov	r0, r3
	ldr	r1, .L268
	.cfi_offset 14, -4
	bl	_ZN12CIwCallStackC1EPKc
.LBB19:
	.loc 11 115 0
	ldr	r0, .L268+4
	bl	IwDebugAssertIsChannelOn
	mov	r3, r0
	cmp	r3, #0
	beq	.L257
	ldr	r3, .L268+8
	ldrb	r3, [r3, #0]	@ zero_extendqisi2
	cmp	r3, #0
	bne	.L257
	mov	r3, #1
	b	.L258
.L257:
	mov	r3, #0
.L258:
	cmp	r3, #0
	beq	.L259
	mov	r0, #0
	bl	IwDebugAssertSetSolution
	mov	r0, #0
	bl	IwDebugAssertSetUID
	ldr	r3, [sp, #4]
	ldr	r3, [r3, #16]
	ldr	r0, .L268+12
	mov	r1, r3
	bl	IwDebugAssertSetMessage
	ldr	r0, .L268+16
	ldr	r1, .L268+20
	mov	r2, #115
	mov	r3, #1
	bl	IwDebugAssertShow
	mov	r3, r0
	cmp	r3, #1
	beq	.L261
	cmp	r3, #2
	beq	.L262
	b	.L260
.L261:
	bl	s3eDebugIsDebuggerPresent
	mov	r3, r0
	cmp	r3, #0
	moveq	r3, #0
	movne	r3, #1
	and	r3, r3, #255
	cmp	r3, #0
	beq	.L263
	bl	s3eDebugIsDebuggerPresent
	mov	r3, r0
	cmp	r3, #0
	moveq	r3, #0
	movne	r3, #1
	and	r3, r3, #255
	cmp	r3, #0
	beq	.L267
	mvn	r3, #11
	mov	r2, #0
	str	r2, [r3, #0]
	b	.L260
.L263:
	bl	_ZL11IwDebugExitv
	b	.L260
.L262:
	ldr	r3, .L268+8
	mov	r2, #1
	strb	r2, [r3, #0]
	b	.L260
.L267:
	mov	r0, r0	@ nop
.L260:
	mov	r0, #0
	bl	IwDebugAssertSetUID
.L259:
.LBE19:
	add	r3, sp, #12
	mov	r0, r3
	bl	_ZN12CIwCallStackD1Ev
.LBE18:
	.loc 11 116 0
	add	sp, sp, #20
	ldmfd	sp!, {pc}
.L269:
	.align	2
.L268:
	.word	.LC23
	.word	.LC18
	.word	_ZZN15CIwSoundManager16SetMaxSoundInstsEjE21_s_IwAssertIgnoreThis
	.word	.LC24
	.word	.LC25
	.word	.LC17
	.cfi_endproc
.LFE1439:
	.size	_ZN15CIwSoundManager16SetMaxSoundInstsEj, .-_ZN15CIwSoundManager16SetMaxSoundInstsEj
	.section	.text._ZN15CIwSoundManager15UpdateCompletedEi,"ax",%progbits
	.align	2
	.global	_ZN15CIwSoundManager15UpdateCompletedEi
	.hidden	_ZN15CIwSoundManager15UpdateCompletedEi
	.type	_ZN15CIwSoundManager15UpdateCompletedEi, %function
_ZN15CIwSoundManager15UpdateCompletedEi:
.LFB1440:
	.loc 11 119 0
	.cfi_startproc
	@ args = 0, pretend = 0, frame = 16
	@ frame_needed = 0, uses_anonymous_args = 0
	str	lr, [sp, #-4]!
.LCFI65:
	.cfi_def_cfa_offset 4
	sub	sp, sp, #20
.LCFI66:
	.cfi_def_cfa_offset 24
	str	r0, [sp, #4]
	str	r1, [sp, #0]
.LBB20:
	.loc 11 120 0
	ldr	r3, [sp, #4]
	ldr	r2, [r3, #12]
	ldr	r3, [sp, #0]
	mov	r3, r3, asl #2
	add	r3, r2, r3
	ldr	r3, [r3, #0]
	str	r3, [sp, #12]
	.loc 11 122 0
	ldr	r0, [sp, #12]
	.cfi_offset 14, -4
	bl	_ZNK12CIwSoundInst7GetSpecEv
	mov	r3, r0
	mov	r0, r3
	bl	_ZNK12CIwSoundSpec8GetGroupEv
	mov	r3, r0
	cmp	r3, #0
	moveq	r3, #0
	movne	r3, #1
	and	r3, r3, #255
	cmp	r3, #0
	beq	.L271
	.loc 11 123 0
	ldr	r0, [sp, #12]
	bl	_ZNK12CIwSoundInst7GetSpecEv
	mov	r3, r0
	mov	r0, r3
	bl	_ZNK12CIwSoundSpec8GetGroupEv
	mov	r3, r0
	ldrh	r2, [r3, #24]
	sub	r2, r2, #1
	mov	r2, r2, asl #16
	mov	r2, r2, lsr #16
	strh	r2, [r3, #24]	@ movhi
.L271:
	.loc 11 125 0
	ldr	r0, [sp, #12]
	bl	_ZNK12CIwSoundInst14GetEndSampleCBEv
	mov	r3, r0
	cmp	r3, #0
	moveq	r3, #0
	movne	r3, #1
	and	r3, r3, #255
	cmp	r3, #0
	beq	.L272
	.loc 11 126 0
	ldr	r0, [sp, #12]
	bl	_ZNK12CIwSoundInst14GetEndSampleCBEv
	mov	r3, r0
	ldr	r0, [sp, #12]
	blx	r3
.L272:
	.loc 11 128 0
	ldr	r3, [sp, #12]
	ldrh	r3, [r3, #10]
	ldr	r2, .L274
	and	r2, r3, r2
	mov	r3, r2
	ldr	r2, [sp, #12]
	strh	r3, [r2, #10]	@ movhi
	.loc 11 130 0
	ldr	r0, [sp, #4]
	ldr	r1, [sp, #12]
	bl	_ZN15CIwSoundManager11SetFreeInstEP12CIwSoundInst
.LBE20:
	.loc 11 131 0
	add	sp, sp, #20
	ldmfd	sp!, {pc}
.L275:
	.align	2
.L274:
	.word	65533
	.cfi_endproc
.LFE1440:
	.size	_ZN15CIwSoundManager15UpdateCompletedEi, .-_ZN15CIwSoundManager15UpdateCompletedEi
	.section	.rodata
	.align	2
.LC26:
	.ascii	"CIwSoundManager::Update\000"
	.align	2
.LC27:
	.ascii	"IwSoundManager::Update problem.\000"
	.section	.text._ZN15CIwSoundManager6UpdateEv,"ax",%progbits
	.align	2
	.global	_ZN15CIwSoundManager6UpdateEv
	.hidden	_ZN15CIwSoundManager6UpdateEv
	.type	_ZN15CIwSoundManager6UpdateEv, %function
_ZN15CIwSoundManager6UpdateEv:
.LFB1441:
	.loc 11 134 0
	.cfi_startproc
	@ args = 0, pretend = 0, frame = 48
	@ frame_needed = 0, uses_anonymous_args = 0
	stmfd	sp!, {r4, r5, lr}
.LCFI67:
	.cfi_def_cfa_offset 12
	sub	sp, sp, #52
.LCFI68:
	.cfi_def_cfa_offset 64
	str	r0, [sp, #4]
.LBB21:
	.loc 11 135 0
	add	r3, sp, #12
	mov	r0, r3
	ldr	r1, .L313
	.cfi_offset 14, -4
	.cfi_offset 5, -8
	.cfi_offset 4, -12
	bl	_ZN12CIwCallStackC1EPKc
	.loc 11 137 0
	ldr	r0, [sp, #4]
	bl	_ZNK15CIwSoundManager8IsActiveEv
	mov	r3, r0
	eor	r3, r3, #1
	and	r3, r3, #255
	cmp	r3, #0
	beq	.L277
	mov	r4, #0
	b	.L278
.L277:
	.loc 11 140 0
	ldr	r3, [sp, #4]
	ldr	r3, [r3, #4]
	add	r2, r3, #1
	ldr	r3, [sp, #4]
	str	r2, [r3, #4]
	.loc 11 144 0
	mov	r3, #0
	str	r3, [sp, #16]
	b	.L279
.L283:
.LBB22:
	.loc 11 146 0
	ldr	r3, [sp, #4]
	ldr	r2, [r3, #12]
	ldr	r3, [sp, #16]
	mov	r3, r3, asl #2
	add	r3, r2, r3
	ldr	r3, [r3, #0]
	str	r3, [sp, #20]
	.loc 11 148 0
	ldr	r0, [sp, #20]
	bl	_ZNK12CIwSoundInst7GetSpecEv
	mov	r3, r0
	cmp	r3, #0
	movne	r3, #0
	moveq	r3, #1
	and	r3, r3, #255
	cmp	r3, #0
	bne	.L310
.L280:
	.loc 11 151 0
	ldr	r0, [sp, #20]
	bl	_ZNK12CIwSoundInst8GetFlagsEv
	mov	r3, r0
	and	r3, r3, #2
	cmp	r3, #0
	moveq	r3, #0
	movne	r3, #1
	and	r3, r3, #255
	cmp	r3, #0
	beq	.L282
	.loc 11 153 0
	ldr	r3, [sp, #16]
	ldr	r0, [sp, #4]
	mov	r1, r3
	bl	_ZN15CIwSoundManager15UpdateCompletedEi
	.loc 11 154 0
	ldr	r3, [sp, #16]
	sub	r3, r3, #1
	str	r3, [sp, #16]
	b	.L281
.L282:
	.loc 11 159 0
	ldr	r3, [sp, #20]
	ldrh	r3, [r3, #14]
	add	r3, r3, #1
	mov	r3, r3, asl #16
	mov	r2, r3, lsr #16
	ldr	r3, [sp, #20]
	strh	r2, [r3, #14]	@ movhi
	b	.L281
.L310:
	.loc 11 149 0
	mov	r0, r0	@ nop
.L281:
.LBE22:
	.loc 11 144 0
	ldr	r3, [sp, #16]
	add	r3, r3, #1
	str	r3, [sp, #16]
.L279:
	ldr	r3, [sp, #4]
	ldr	r2, [r3, #20]
	ldr	r3, [sp, #16]
	cmp	r2, r3
	movls	r3, #0
	movhi	r3, #1
	and	r3, r3, #255
	cmp	r3, #0
	bne	.L283
	.loc 11 163 0
	mov	r3, #0
	str	r3, [sp, #16]
	b	.L284
.L301:
.LBB23:
	.loc 11 165 0
	ldr	r3, [sp, #4]
	ldr	r2, [r3, #12]
	ldr	r3, [sp, #16]
	mov	r3, r3, asl #2
	add	r3, r2, r3
	ldr	r3, [r3, #0]
	str	r3, [sp, #24]
	.loc 11 166 0
	ldr	r0, [sp, #24]
	bl	_ZNK12CIwSoundInst7GetSpecEv
	mov	r3, r0
	cmp	r3, #0
	movne	r3, #0
	moveq	r3, #1
	and	r3, r3, #255
	cmp	r3, #0
	beq	.L285
.LBB24:
	.loc 11 168 0
	ldr	r0, .L313+4
	bl	IwDebugAssertIsChannelOn
	mov	r3, r0
	cmp	r3, #0
	beq	.L286
	ldr	r3, .L313+8
	ldrb	r3, [r3, #0]	@ zero_extendqisi2
	cmp	r3, #0
	bne	.L286
	mov	r3, #1
	b	.L287
.L286:
	mov	r3, #0
.L287:
	cmp	r3, #0
	beq	.L288
	mov	r0, #0
	bl	IwDebugAssertSetSolution
	mov	r0, #0
	bl	IwDebugAssertSetUID
	ldr	r0, .L313+12
	bl	IwDebugAssertSetMessage
	ldr	r0, .L313+16
	ldr	r1, .L313+20
	mov	r2, #168
	mov	r3, #1
	bl	IwDebugAssertShow
	mov	r3, r0
	cmp	r3, #1
	beq	.L290
	cmp	r3, #2
	beq	.L291
	b	.L289
.L290:
	bl	s3eDebugIsDebuggerPresent
	mov	r3, r0
	cmp	r3, #0
	moveq	r3, #0
	movne	r3, #1
	and	r3, r3, #255
	cmp	r3, #0
	beq	.L292
	bl	s3eDebugIsDebuggerPresent
	mov	r3, r0
	cmp	r3, #0
	moveq	r3, #0
	movne	r3, #1
	and	r3, r3, #255
	cmp	r3, #0
	beq	.L311
	mvn	r3, #11
	mov	r2, #0
	str	r2, [r3, #0]
	b	.L289
.L292:
	bl	_ZL11IwDebugExitv
	b	.L289
.L291:
	ldr	r3, .L313+8
	mov	r2, #1
	strb	r2, [r3, #0]
	b	.L289
.L311:
	mov	r0, r0	@ nop
.L289:
	mov	r0, #0
	bl	IwDebugAssertSetUID
.L288:
	mov	r4, #0
	b	.L278
.L285:
.LBE24:
	.loc 11 172 0
	ldr	r0, [sp, #24]
	bl	_ZNK12CIwSoundInst7GetSpecEv
	mov	r3, r0
	mov	r0, r3
	bl	_ZNK12CIwSoundSpec8GetGroupEv
	mov	r3, r0
	cmp	r3, #0
	beq	.L295
	ldr	r0, [sp, #24]
	bl	_ZNK12CIwSoundInst7GetSpecEv
	mov	r3, r0
	mov	r0, r3
	bl	_ZNK12CIwSoundSpec8GetGroupEv
	mov	r3, r0
	b	.L296
.L295:
	ldr	r0, [sp, #4]
	bl	_ZNK15CIwSoundManager16GetGroupIdentityEv
	mov	r3, r0
.L296:
	str	r3, [sp, #28]
	.loc 11 174 0
	ldr	r0, [sp, #24]
	bl	_ZNK12CIwSoundInst8GetFlagsEv
	mov	r3, r0
	and	r3, r3, #1
	and	r3, r3, #255
	cmp	r3, #0
	bne	.L297
	ldr	r0, [sp, #28]
	bl	_ZNK13CIwSoundGroup8GetFlagsEv
	mov	r3, r0
	and	r3, r3, #1
	and	r3, r3, #255
	cmp	r3, #0
	bne	.L297
	ldr	r3, [sp, #4]
	ldrh	r3, [r3, #30]
	and	r3, r3, #1
	and	r3, r3, #255
	cmp	r3, #0
	beq	.L298
.L297:
	mov	r3, #1
	b	.L299
.L298:
	mov	r3, #0
.L299:
	cmp	r3, #0
	beq	.L300
.LBB25:
	.loc 11 184 0
	ldr	r0, [sp, #24]
	bl	_ZNK12CIwSoundInst6GetVolEv
	mov	r3, r0
	mov	r3, r3, asl #16
	mov	r3, r3, lsr #16
	mov	r3, r3, asl #16
	mov	r4, r3, asr #16
	ldr	r0, [sp, #4]
	bl	_ZNK15CIwSoundManager12GetMasterVolEv
	mov	r3, r0
	mov	r3, r3, asl #16
	mov	r3, r3, lsr #16
	mov	r3, r3, asl #16
	mov	r5, r3, asr #16
	ldr	r0, [sp, #28]
	bl	_ZNK13CIwSoundGroup6GetVolEv
	mov	r3, r0
	mov	r3, r3, asl #16
	mov	r3, r3, lsr #16
	mov	r3, r3, asl #16
	mov	r3, r3, asr #16
	mov	r0, r5
	mov	r1, r3
	bl	_ZL12IW_FIXED_MULii
	mov	r3, r0
	mov	r0, r4
	mov	r1, r3
	bl	_ZL12IW_FIXED_MULii
	mov	r3, r0
	strh	r3, [sp, #32]	@ movhi
	.loc 11 186 0
	ldr	r0, [sp, #24]
	bl	_ZNK12CIwSoundInst8GetPitchEv
	mov	r3, r0
	mov	r3, r3, asl #16
	mov	r3, r3, lsr #16
	mov	r3, r3, asl #16
	mov	r4, r3, asr #16
	ldr	r0, [sp, #4]
	bl	_ZNK15CIwSoundManager14GetMasterPitchEv
	mov	r3, r0
	mov	r3, r3, asl #16
	mov	r3, r3, lsr #16
	mov	r3, r3, asl #16
	mov	r5, r3, asr #16
	ldr	r0, [sp, #28]
	bl	_ZNK13CIwSoundGroup8GetPitchEv
	mov	r3, r0
	mov	r3, r3, asl #16
	mov	r3, r3, lsr #16
	mov	r3, r3, asl #16
	mov	r3, r3, asr #16
	mov	r0, r5
	mov	r1, r3
	bl	_ZL12IW_FIXED_MULii
	mov	r3, r0
	mov	r0, r4
	mov	r1, r3
	bl	_ZL12IW_FIXED_MULii
	mov	r3, r0
	strh	r3, [sp, #34]	@ movhi
	.loc 11 189 0
	ldr	r0, [sp, #24]
	bl	_ZNK12CIwSoundInst9GetChanIDEv
	mov	r3, r0
	mov	r2, r3
	ldrsh	r3, [sp, #32]
	mov	r3, r3, asr #4
	cmp	r3, #256
	movge	r3, #256
	mov	r0, r2
	mov	r1, #3
	mov	r2, r3
	bl	s3eSoundChannelSetInt
	.loc 11 192 0
	ldrsh	r4, [sp, #34]
	ldr	r0, [sp, #24]
	bl	_ZNK12CIwSoundInst7GetSpecEv
	mov	r3, r0
	mov	r0, r3
	bl	_ZNK12CIwSoundSpec7GetDataEv
	mov	r3, r0
	mov	r0, r3
	bl	_ZNK12CIwSoundData11GetRecPitchEv
	mov	r3, r0
	mov	r0, r4
	mov	r1, r3
	bl	_ZL12IW_FIXED_MULii
	mov	r3, r0
	str	r3, [sp, #36]
	.loc 11 193 0
	ldr	r0, [sp, #24]
	bl	_ZNK12CIwSoundInst9GetChanIDEv
	mov	r3, r0
	mov	r0, r3
	mov	r1, #1
	ldr	r2, [sp, #36]
	bl	s3eSoundChannelSetInt
	.loc 11 196 0
	ldr	r3, [sp, #24]
	ldrh	r3, [r3, #10]
	ldr	r2, .L313+24
	and	r2, r3, r2
	mov	r3, r2
	ldr	r2, [sp, #24]
	strh	r3, [r2, #10]	@ movhi
.L300:
.LBE25:
.LBE23:
	.loc 11 163 0
	ldr	r3, [sp, #16]
	add	r3, r3, #1
	str	r3, [sp, #16]
.L284:
	ldr	r3, [sp, #4]
	ldr	r2, [r3, #20]
	ldr	r3, [sp, #16]
	cmp	r2, r3
	movls	r3, #0
	movhi	r3, #1
	and	r3, r3, #255
	cmp	r3, #0
	bne	.L301
	.loc 11 200 0
	mov	r3, #0
	str	r3, [sp, #16]
	b	.L302
.L305:
.LBB26:
	.loc 11 202 0
	ldr	r3, [sp, #4]
	ldr	r2, [r3, #12]
	ldr	r3, [sp, #16]
	mov	r3, r3, asl #2
	add	r3, r2, r3
	ldr	r3, [r3, #0]
	str	r3, [sp, #40]
	.loc 11 204 0
	ldr	r0, [sp, #40]
	bl	_ZNK12CIwSoundInst7GetSpecEv
	mov	r3, r0
	cmp	r3, #0
	movne	r3, #0
	moveq	r3, #1
	and	r3, r3, #255
	cmp	r3, #0
	bne	.L312
.L303:
	.loc 11 207 0
	ldr	r0, [sp, #40]
	bl	_ZNK12CIwSoundInst7GetSpecEv
	mov	r3, r0
	mov	r0, r3
	bl	_ZNK12CIwSoundSpec8GetGroupEv
	mov	r3, r0
	str	r3, [sp, #44]
	.loc 11 208 0
	ldr	r3, [sp, #44]
	cmp	r3, #0
	beq	.L304
	.loc 11 209 0
	ldr	r3, [sp, #44]
	ldrh	r3, [r3, #26]
	ldr	r2, .L313+24
	and	r2, r3, r2
	mov	r3, r2
	ldr	r2, [sp, #44]
	strh	r3, [r2, #26]	@ movhi
	b	.L304
.L312:
	.loc 11 205 0
	mov	r0, r0	@ nop
.L304:
.LBE26:
	.loc 11 200 0
	ldr	r3, [sp, #16]
	add	r3, r3, #1
	str	r3, [sp, #16]
.L302:
	ldr	r3, [sp, #4]
	ldr	r2, [r3, #20]
	ldr	r3, [sp, #16]
	cmp	r2, r3
	movls	r3, #0
	movhi	r3, #1
	and	r3, r3, #255
	cmp	r3, #0
	bne	.L305
	.loc 11 213 0
	ldr	r3, [sp, #4]
	ldrh	r3, [r3, #30]
	ldr	r2, .L313+24
	and	r2, r3, r2
	mov	r3, r2
	ldr	r2, [sp, #4]
	strh	r3, [r2, #30]	@ movhi
	mov	r4, #1
.L278:
	add	r3, sp, #12
	mov	r0, r3
	bl	_ZN12CIwCallStackD1Ev
	cmp	r4, #1
.LBE21:
	.loc 11 214 0
	add	sp, sp, #52
	ldmfd	sp!, {r4, r5, pc}
.L314:
	.align	2
.L313:
	.word	.LC26
	.word	.LC18
	.word	_ZZN15CIwSoundManager6UpdateEvE21_s_IwAssertIgnoreThis
	.word	.LC27
	.word	.LC25
	.word	.LC17
	.word	65534
	.cfi_endproc
.LFE1441:
	.size	_ZN15CIwSoundManager6UpdateEv, .-_ZN15CIwSoundManager6UpdateEv
	.section	.text._ZN15CIwSoundManager14GetFreeChannelEP12CIwSoundInst17IwSoundDataFormat,"ax",%progbits
	.align	2
	.global	_ZN15CIwSoundManager14GetFreeChannelEP12CIwSoundInst17IwSoundDataFormat
	.hidden	_ZN15CIwSoundManager14GetFreeChannelEP12CIwSoundInst17IwSoundDataFormat
	.type	_ZN15CIwSoundManager14GetFreeChannelEP12CIwSoundInst17IwSoundDataFormat, %function
_ZN15CIwSoundManager14GetFreeChannelEP12CIwSoundInst17IwSoundDataFormat:
.LFB1442:
	.loc 11 217 0
	.cfi_startproc
	@ args = 0, pretend = 0, frame = 32
	@ frame_needed = 0, uses_anonymous_args = 0
	str	lr, [sp, #-4]!
.LCFI69:
	.cfi_def_cfa_offset 4
	sub	sp, sp, #36
.LCFI70:
	.cfi_def_cfa_offset 40
	str	r0, [sp, #12]
	str	r1, [sp, #8]
	str	r2, [sp, #4]
.LBB27:
	.loc 11 218 0
	ldr	r0, [sp, #12]
	.cfi_offset 14, -4
	bl	_ZNK15CIwSoundManager8IsActiveEv
	mov	r3, r0
	eor	r3, r3, #1
	and	r3, r3, #255
	cmp	r3, #0
	beq	.L316
	.loc 11 219 0
	mvn	r3, #0
	b	.L317
.L316:
	.loc 11 222 0
	bl	s3eSoundGetFreeChannel
	mov	r3, r0
	str	r3, [sp, #16]
	.loc 11 223 0
	ldr	r3, [sp, #12]
	ldr	r3, [r3, #16]
	mov	r2, r3
	ldr	r3, [sp, #16]
	cmp	r2, r3
	bgt	.L318
	.loc 11 224 0
	mvn	r3, #0
	b	.L317
.L318:
	.loc 11 227 0
	ldr	r3, [sp, #4]
	cmp	r3, #1
	beq	.L321
	cmp	r3, #2
	beq	.L322
	cmp	r3, #0
	bne	.L319
.L320:
.LBB28:
	.loc 11 232 0
	ldr	r3, .L324
	ldr	r1, [r3, #0]
	ldr	r2, [sp, #16]
	mov	r3, r2
	mov	r3, r3, asl #1
	add	r3, r3, r2
	mov	r3, r3, asl #3
	add	r3, r1, r3
	str	r3, [sp, #20]
	.loc 11 233 0
	ldr	r3, .L324+4
	ldr	r0, [sp, #16]
	mov	r1, #1
	mov	r2, r3
	ldr	r3, [sp, #20]
	bl	s3eSoundChannelRegister
	.loc 11 234 0
	ldr	r3, [sp, #20]
	mov	r2, #0
	str	r2, [r3, #0]
	.loc 11 235 0
	ldr	r3, [sp, #20]
	ldr	r2, [sp, #8]
	str	r2, [r3, #20]
.LBE28:
	.loc 11 237 0
	b	.L319
.L321:
.LBB29:
	.loc 11 241 0
	ldr	r3, .L324+8
	ldr	r1, [r3, #0]
	ldr	r2, [sp, #16]
	mov	r3, r2
	mov	r3, r3, asl #1
	add	r3, r3, r2
	mov	r3, r3, asl #3
	add	r3, r1, r3
	str	r3, [sp, #24]
	.loc 11 242 0
	ldr	r3, .L324+12
	ldr	r0, [sp, #16]
	mov	r1, #1
	mov	r2, r3
	ldr	r3, [sp, #24]
	bl	s3eSoundChannelRegister
	.loc 11 244 0
	ldr	r3, [sp, #24]
	mov	r2, #0
	str	r2, [r3, #0]
	.loc 11 245 0
	ldr	r3, [sp, #24]
	ldr	r2, [sp, #8]
	str	r2, [r3, #20]
.LBE29:
	.loc 11 247 0
	b	.L319
.L322:
.LBB30:
	.loc 11 251 0
	ldr	r3, .L324+16
	ldr	r2, [r3, #0]
	ldr	r3, [sp, #16]
	ldr	r1, .L324+20
	mul	r3, r1, r3
	add	r3, r2, r3
	str	r3, [sp, #28]
	.loc 11 252 0
	ldr	r3, .L324+24
	ldr	r0, [sp, #16]
	mov	r1, #1
	mov	r2, r3
	ldr	r3, [sp, #28]
	bl	s3eSoundChannelRegister
	.loc 11 253 0
	ldr	r3, [sp, #28]
	mov	r2, #0
	str	r2, [r3, #0]
.L319:
.LBE30:
	.loc 11 261 0
	ldr	r3, [sp, #16]
.L317:
.LBE27:
	.loc 11 262 0
	mov	r0, r3
	add	sp, sp, #36
	ldmfd	sp!, {pc}
.L325:
	.align	2
.L324:
	.word	_ZN15CIwSoundManager14s_ChannelsPCM8E
	.word	_ZN13CIwChannelPCMIaE15GenerateAudioCBEP20s3eSoundGenAudioInfoPS0_
	.word	_ZN15CIwSoundManager15s_ChannelsPCM16E
	.word	_ZN13CIwChannelPCMIsE15GenerateAudioCBEP20s3eSoundGenAudioInfoPS0_
	.word	_ZN15CIwSoundManager15s_ChannelsADPCME
	.word	1324
	.word	_ZN15CIwChannelADPCM15GenerateAudioCBEP20s3eSoundGenAudioInfoPS_
	.cfi_endproc
.LFE1442:
	.size	_ZN15CIwSoundManager14GetFreeChannelEP12CIwSoundInst17IwSoundDataFormat, .-_ZN15CIwSoundManager14GetFreeChannelEP12CIwSoundInst17IwSoundDataFormat
	.section	.rodata
	.align	2
.LC28:
	.ascii	"CIwSoundManager::GetFreeInst\000"
	.align	2
.LC29:
	.ascii	"No free CIwSoundInst\000"
	.align	2
.LC30:
	.ascii	"m_NumActiveInsts < m_MaxInsts\000"
	.align	2
.LC31:
	.ascii	"m_SoundInstPtrs[m_NumActiveInsts - 1]->GetFlags() &"
	.ascii	" CIwSoundInst::FREE_F\000"
	.section	.text._ZN15CIwSoundManager11GetFreeInstEv,"ax",%progbits
	.align	2
	.global	_ZN15CIwSoundManager11GetFreeInstEv
	.hidden	_ZN15CIwSoundManager11GetFreeInstEv
	.type	_ZN15CIwSoundManager11GetFreeInstEv, %function
_ZN15CIwSoundManager11GetFreeInstEv:
.LFB1443:
	.loc 11 265 0
	.cfi_startproc
	@ args = 0, pretend = 0, frame = 16
	@ frame_needed = 0, uses_anonymous_args = 0
	stmfd	sp!, {r4, lr}
.LCFI71:
	.cfi_def_cfa_offset 8
	sub	sp, sp, #16
.LCFI72:
	.cfi_def_cfa_offset 24
	str	r0, [sp, #4]
.LBB31:
	.loc 11 266 0
	add	r3, sp, #8
	mov	r0, r3
	ldr	r1, .L350
	.cfi_offset 14, -4
	.cfi_offset 4, -8
	bl	_ZN12CIwCallStackC1EPKc
.LBB32:
	.loc 11 269 0
	ldr	r3, [sp, #4]
	ldr	r2, [r3, #20]
	ldr	r3, [sp, #4]
	ldr	r3, [r3, #16]
	cmp	r2, r3
	bcc	.L327
	ldr	r0, .L350+4
	bl	IwDebugAssertIsChannelOn
	mov	r3, r0
	cmp	r3, #0
	beq	.L327
	ldr	r3, .L350+8
	ldrb	r3, [r3, #0]	@ zero_extendqisi2
	cmp	r3, #0
	bne	.L327
	mov	r3, #1
	b	.L328
.L327:
	mov	r3, #0
.L328:
	cmp	r3, #0
	beq	.L329
	mov	r0, #0
	bl	IwDebugAssertSetSolution
	mov	r0, #0
	bl	IwDebugAssertSetUID
	ldr	r0, .L350+12
	bl	IwDebugAssertSetMessage
	ldr	r0, .L350+16
	ldr	r1, .L350+20
	ldr	r2, .L350+24
	mov	r3, #1
	bl	IwDebugAssertShow
	mov	r3, r0
	cmp	r3, #1
	beq	.L331
	cmp	r3, #2
	beq	.L332
	b	.L330
.L331:
	bl	s3eDebugIsDebuggerPresent
	mov	r3, r0
	cmp	r3, #0
	moveq	r3, #0
	movne	r3, #1
	and	r3, r3, #255
	cmp	r3, #0
	beq	.L333
	bl	s3eDebugIsDebuggerPresent
	mov	r3, r0
	cmp	r3, #0
	moveq	r3, #0
	movne	r3, #1
	and	r3, r3, #255
	cmp	r3, #0
	beq	.L348
	mvn	r3, #11
	mov	r2, #0
	str	r2, [r3, #0]
	b	.L330
.L333:
	bl	_ZL11IwDebugExitv
	b	.L330
.L332:
	ldr	r3, .L350+8
	mov	r2, #1
	strb	r2, [r3, #0]
	b	.L330
.L348:
	mov	r0, r0	@ nop
.L330:
	mov	r0, #0
	bl	IwDebugAssertSetUID
.L329:
.LBE32:
	.loc 11 271 0
	ldr	r3, [sp, #4]
	ldr	r2, [r3, #20]
	ldr	r3, [sp, #4]
	ldr	r3, [r3, #16]
	cmp	r2, r3
	bcc	.L336
	.loc 11 272 0
	mov	r4, #0
	b	.L337
.L336:
	.loc 11 274 0
	ldr	r3, [sp, #4]
	ldr	r3, [r3, #20]
	add	r2, r3, #1
	ldr	r3, [sp, #4]
	str	r2, [r3, #20]
	.loc 11 276 0
	ldr	r3, [sp, #4]
	ldr	r2, [r3, #12]
	ldr	r3, [sp, #4]
	ldr	r3, [r3, #20]
	sub	r3, r3, #1
	mov	r3, r3, asl #2
	add	r3, r2, r3
	ldr	r3, [r3, #0]
	str	r3, [sp, #12]
.LBB33:
	.loc 11 277 0
	ldr	r3, [sp, #4]
	ldr	r2, [r3, #12]
	ldr	r3, [sp, #4]
	ldr	r3, [r3, #20]
	sub	r3, r3, #1
	mov	r3, r3, asl #2
	add	r3, r2, r3
	ldr	r3, [r3, #0]
	mov	r0, r3
	bl	_ZNK12CIwSoundInst8GetFlagsEv
	mov	r3, r0
	and	r3, r3, #4
	cmp	r3, #0
	bne	.L338
	ldr	r0, .L350+4
	bl	IwDebugAssertIsChannelOn
	mov	r3, r0
	cmp	r3, #0
	beq	.L338
	ldr	r3, .L350+28
	ldrb	r3, [r3, #0]	@ zero_extendqisi2
	cmp	r3, #0
	bne	.L338
	mov	r3, #1
	b	.L339
.L338:
	mov	r3, #0
.L339:
	cmp	r3, #0
	beq	.L340
	mov	r0, #0
	bl	IwDebugAssertSetSolution
	mov	r0, #0
	bl	IwDebugAssertSetUID
	mov	r0, #0
	bl	IwDebugAssertSetMessage
	ldr	r0, .L350+32
	ldr	r1, .L350+20
	ldr	r2, .L350+36
	mov	r3, #1
	bl	IwDebugAssertShow
	mov	r3, r0
	cmp	r3, #1
	beq	.L342
	cmp	r3, #2
	beq	.L343
	b	.L341
.L342:
	bl	s3eDebugIsDebuggerPresent
	mov	r3, r0
	cmp	r3, #0
	moveq	r3, #0
	movne	r3, #1
	and	r3, r3, #255
	cmp	r3, #0
	beq	.L344
	bl	s3eDebugIsDebuggerPresent
	mov	r3, r0
	cmp	r3, #0
	moveq	r3, #0
	movne	r3, #1
	and	r3, r3, #255
	cmp	r3, #0
	beq	.L349
	mvn	r3, #11
	mov	r2, #0
	str	r2, [r3, #0]
	b	.L341
.L344:
	bl	_ZL11IwDebugExitv
	b	.L341
.L343:
	ldr	r3, .L350+28
	mov	r2, #1
	strb	r2, [r3, #0]
	b	.L341
.L349:
	mov	r0, r0	@ nop
.L341:
	mov	r0, #0
	bl	IwDebugAssertSetUID
.L340:
.LBE33:
	.loc 11 278 0
	ldr	r3, [sp, #12]
	ldrh	r3, [r3, #10]
	ldr	r2, .L350+40
	and	r2, r3, r2
	mov	r3, r2
	ldr	r2, [sp, #12]
	strh	r3, [r2, #10]	@ movhi
	.loc 11 280 0
	ldr	r4, [sp, #12]
.L337:
	add	r3, sp, #8
	mov	r0, r3
	bl	_ZN12CIwCallStackD1Ev
	mov	r3, r4
.LBE31:
	.loc 11 281 0
	mov	r0, r3
	add	sp, sp, #16
	ldmfd	sp!, {r4, pc}
.L351:
	.align	2
.L350:
	.word	.LC28
	.word	.LC18
	.word	_ZZN15CIwSoundManager11GetFreeInstEvE21_s_IwAssertIgnoreThis
	.word	.LC29
	.word	.LC30
	.word	.LC17
	.word	269
	.word	_ZZN15CIwSoundManager11GetFreeInstEvE21_s_IwAssertIgnoreThis_0
	.word	.LC31
	.word	277
	.word	65531
	.cfi_endproc
.LFE1443:
	.size	_ZN15CIwSoundManager11GetFreeInstEv, .-_ZN15CIwSoundManager11GetFreeInstEv
	.section	.rodata
	.align	2
.LC32:
	.ascii	"CIwSoundManager::SetFreeInst\000"
	.align	2
.LC33:
	.ascii	"Null ptr\000"
	.align	2
.LC34:
	.ascii	"pInst\000"
	.align	2
.LC35:
	.ascii	"Must have at least one active inst\000"
	.align	2
.LC36:
	.ascii	"m_NumActiveInsts > 0\000"
	.align	2
.LC37:
	.ascii	"Failed to find ptr to this inst in the list\000"
	.section	.text._ZN15CIwSoundManager11SetFreeInstEP12CIwSoundInst,"ax",%progbits
	.align	2
	.global	_ZN15CIwSoundManager11SetFreeInstEP12CIwSoundInst
	.hidden	_ZN15CIwSoundManager11SetFreeInstEP12CIwSoundInst
	.type	_ZN15CIwSoundManager11SetFreeInstEP12CIwSoundInst, %function
_ZN15CIwSoundManager11SetFreeInstEP12CIwSoundInst:
.LFB1444:
	.loc 11 284 0
	.cfi_startproc
	@ args = 0, pretend = 0, frame = 24
	@ frame_needed = 0, uses_anonymous_args = 0
	stmfd	sp!, {r4, lr}
.LCFI73:
	.cfi_def_cfa_offset 8
	sub	sp, sp, #24
.LCFI74:
	.cfi_def_cfa_offset 32
	str	r0, [sp, #4]
	str	r1, [sp, #0]
.LBB34:
	.loc 11 285 0
	add	r3, sp, #12
	mov	r0, r3
	ldr	r1, .L392
	.cfi_offset 14, -4
	.cfi_offset 4, -8
	bl	_ZN12CIwCallStackC1EPKc
.LBB35:
	.loc 11 286 0
	ldr	r3, [sp, #0]
	cmp	r3, #0
	bne	.L353
	ldr	r0, .L392+4
	bl	IwDebugAssertIsChannelOn
	mov	r3, r0
	cmp	r3, #0
	beq	.L353
	ldr	r3, .L392+8
	ldrb	r3, [r3, #0]	@ zero_extendqisi2
	cmp	r3, #0
	bne	.L353
	mov	r3, #1
	b	.L354
.L353:
	mov	r3, #0
.L354:
	cmp	r3, #0
	beq	.L355
	mov	r0, #0
	bl	IwDebugAssertSetSolution
	mov	r0, #0
	bl	IwDebugAssertSetUID
	ldr	r0, .L392+12
	bl	IwDebugAssertSetMessage
	ldr	r0, .L392+16
	ldr	r1, .L392+20
	ldr	r2, .L392+24
	mov	r3, #1
	bl	IwDebugAssertShow
	mov	r3, r0
	cmp	r3, #1
	beq	.L357
	cmp	r3, #2
	beq	.L358
	b	.L356
.L357:
	bl	s3eDebugIsDebuggerPresent
	mov	r3, r0
	cmp	r3, #0
	moveq	r3, #0
	movne	r3, #1
	and	r3, r3, #255
	cmp	r3, #0
	beq	.L359
	bl	s3eDebugIsDebuggerPresent
	mov	r3, r0
	cmp	r3, #0
	moveq	r3, #0
	movne	r3, #1
	and	r3, r3, #255
	cmp	r3, #0
	beq	.L389
	mvn	r3, #11
	mov	r2, #0
	str	r2, [r3, #0]
	b	.L356
.L359:
	bl	_ZL11IwDebugExitv
	b	.L356
.L358:
	ldr	r3, .L392+8
	mov	r2, #1
	strb	r2, [r3, #0]
	b	.L356
.L389:
	mov	r0, r0	@ nop
.L356:
	mov	r0, #0
	bl	IwDebugAssertSetUID
.L355:
.LBE35:
.LBB36:
	.loc 11 288 0
	ldr	r3, [sp, #4]
	ldr	r3, [r3, #20]
	cmp	r3, #0
	bne	.L362
	ldr	r0, .L392+4
	bl	IwDebugAssertIsChannelOn
	mov	r3, r0
	cmp	r3, #0
	beq	.L363
	ldr	r3, .L392+28
	ldrb	r3, [r3, #0]	@ zero_extendqisi2
	cmp	r3, #0
	bne	.L363
	mov	r3, #1
	b	.L364
.L363:
	mov	r3, #0
.L364:
	cmp	r3, #0
	beq	.L365
	mov	r0, #0
	bl	IwDebugAssertSetUID
	ldr	r0, .L392+32
	bl	IwDebugAssertSetMessage
	ldr	r0, .L392+36
	ldr	r1, .L392+20
	mov	r2, #288
	mov	r3, #1
	bl	IwDebugAssertShow
	mov	r3, r0
	cmp	r3, #1
	beq	.L367
	cmp	r3, #2
	beq	.L368
	b	.L366
.L367:
	bl	s3eDebugIsDebuggerPresent
	mov	r3, r0
	cmp	r3, #0
	moveq	r3, #0
	movne	r3, #1
	and	r3, r3, #255
	cmp	r3, #0
	beq	.L369
	bl	s3eDebugIsDebuggerPresent
	mov	r3, r0
	cmp	r3, #0
	moveq	r3, #0
	movne	r3, #1
	and	r3, r3, #255
	cmp	r3, #0
	beq	.L390
	mvn	r3, #11
	mov	r2, #0
	str	r2, [r3, #0]
	b	.L366
.L369:
	bl	_ZL11IwDebugExitv
	b	.L366
.L368:
	ldr	r3, .L392+28
	mov	r2, #1
	strb	r2, [r3, #0]
	b	.L366
.L390:
	mov	r0, r0	@ nop
.L366:
	mov	r0, #0
	bl	IwDebugAssertSetUID
.L365:
	mov	r4, #0
	b	.L372
.L362:
.LBE36:
	.loc 11 291 0
	ldr	r3, [sp, #0]
	ldrh	r3, [r3, #10]
	orr	r3, r3, #4
	mov	r3, r3, asl #16
	mov	r2, r3, lsr #16
	ldr	r3, [sp, #0]
	strh	r2, [r3, #10]	@ movhi
	.loc 11 292 0
	ldr	r3, [sp, #0]
	ldrh	r3, [r3, #16]
	add	r3, r3, #1
	mov	r3, r3, asl #16
	mov	r2, r3, lsr #16
	ldr	r3, [sp, #0]
	strh	r2, [r3, #16]	@ movhi
	.loc 11 295 0
	ldr	r3, [sp, #4]
	ldr	r2, [r3, #12]
	ldr	r3, [sp, #4]
	ldr	r3, [r3, #20]
	sub	r3, r3, #1
	mov	r3, r3, asl #2
	add	r3, r2, r3
	str	r3, [sp, #16]
	.loc 11 298 0
	ldr	r3, [sp, #4]
	ldr	r3, [r3, #12]
	str	r3, [sp, #20]
	.loc 11 299 0
	b	.L373
.L375:
	.loc 11 301 0
	ldr	r3, [sp, #20]
	ldr	r2, [r3, #0]
	ldr	r3, [sp, #0]
	cmp	r2, r3
	bne	.L374
	.loc 11 303 0
	ldr	r3, [sp, #16]
	ldr	r2, [r3, #0]
	ldr	r3, [sp, #20]
	str	r2, [r3, #0]
	.loc 11 304 0
	ldr	r3, [sp, #16]
	ldr	r2, [sp, #0]
	str	r2, [r3, #0]
	.loc 11 305 0
	ldr	r3, [sp, #4]
	ldr	r3, [r3, #20]
	sub	r2, r3, #1
	ldr	r3, [sp, #4]
	str	r2, [r3, #20]
	mov	r4, #0
	b	.L372
.L374:
	.loc 11 308 0
	ldr	r3, [sp, #20]
	add	r3, r3, #4
	str	r3, [sp, #20]
.L373:
	.loc 11 299 0
	ldr	r2, [sp, #20]
	ldr	r3, [sp, #16]
	cmp	r2, r3
	movhi	r3, #0
	movls	r3, #1
	and	r3, r3, #255
	cmp	r3, #0
	bne	.L375
.LBB37:
	.loc 11 310 0
	ldr	r0, .L392+4
	bl	IwDebugAssertIsChannelOn
	mov	r3, r0
	cmp	r3, #0
	beq	.L376
	ldr	r3, .L392+40
	ldrb	r3, [r3, #0]	@ zero_extendqisi2
	cmp	r3, #0
	bne	.L376
	mov	r3, #1
	b	.L377
.L376:
	mov	r3, #0
.L377:
	cmp	r3, #0
	beq	.L378
	mov	r0, #0
	bl	IwDebugAssertSetSolution
	mov	r0, #0
	bl	IwDebugAssertSetUID
	ldr	r0, .L392+44
	bl	IwDebugAssertSetMessage
	ldr	r0, .L392+48
	ldr	r1, .L392+20
	ldr	r2, .L392+52
	mov	r3, #1
	bl	IwDebugAssertShow
	mov	r3, r0
	cmp	r3, #1
	beq	.L380
	cmp	r3, #2
	beq	.L381
	b	.L379
.L380:
	bl	s3eDebugIsDebuggerPresent
	mov	r3, r0
	cmp	r3, #0
	moveq	r3, #0
	movne	r3, #1
	and	r3, r3, #255
	cmp	r3, #0
	beq	.L382
	bl	s3eDebugIsDebuggerPresent
	mov	r3, r0
	cmp	r3, #0
	moveq	r3, #0
	movne	r3, #1
	and	r3, r3, #255
	cmp	r3, #0
	beq	.L391
	mvn	r3, #11
	mov	r2, #0
	str	r2, [r3, #0]
	b	.L379
.L382:
	bl	_ZL11IwDebugExitv
	b	.L379
.L381:
	ldr	r3, .L392+40
	mov	r2, #1
	strb	r2, [r3, #0]
	b	.L379
.L391:
	mov	r0, r0	@ nop
.L379:
	mov	r0, #0
	bl	IwDebugAssertSetUID
.L378:
	mov	r4, #1
.L372:
.LBE37:
	add	r3, sp, #12
	mov	r0, r3
	bl	_ZN12CIwCallStackD1Ev
	cmp	r4, #1
.LBE34:
	.loc 11 311 0
	add	sp, sp, #24
	ldmfd	sp!, {r4, pc}
.L393:
	.align	2
.L392:
	.word	.LC32
	.word	.LC18
	.word	_ZZN15CIwSoundManager11SetFreeInstEP12CIwSoundInstE21_s_IwAssertIgnoreThis
	.word	.LC33
	.word	.LC34
	.word	.LC17
	.word	286
	.word	_ZZN15CIwSoundManager11SetFreeInstEP12CIwSoundInstE21_s_IwAssertIgnoreThis_0
	.word	.LC35
	.word	.LC36
	.word	_ZZN15CIwSoundManager11SetFreeInstEP12CIwSoundInstE21_s_IwAssertIgnoreThis_1
	.word	.LC37
	.word	.LC25
	.word	310
	.cfi_endproc
.LFE1444:
	.size	_ZN15CIwSoundManager11SetFreeInstEP12CIwSoundInst, .-_ZN15CIwSoundManager11SetFreeInstEP12CIwSoundInst
	.section	.rodata
	.align	2
.LC38:
	.ascii	"CIwSoundManager::StopAll\000"
	.section	.text._ZN15CIwSoundManager7StopAllEv,"ax",%progbits
	.align	2
	.global	_ZN15CIwSoundManager7StopAllEv
	.hidden	_ZN15CIwSoundManager7StopAllEv
	.type	_ZN15CIwSoundManager7StopAllEv, %function
_ZN15CIwSoundManager7StopAllEv:
.LFB1445:
	.loc 11 314 0
	.cfi_startproc
	@ args = 0, pretend = 0, frame = 24
	@ frame_needed = 0, uses_anonymous_args = 0
	str	lr, [sp, #-4]!
.LCFI75:
	.cfi_def_cfa_offset 4
	sub	sp, sp, #28
.LCFI76:
	.cfi_def_cfa_offset 32
	str	r0, [sp, #4]
.LBB38:
	.loc 11 315 0
	add	r3, sp, #12
	mov	r0, r3
	ldr	r1, .L398
	.cfi_offset 14, -4
	bl	_ZN12CIwCallStackC1EPKc
.LBB39:
	.loc 11 316 0
	mov	r3, #0
	str	r3, [sp, #16]
	b	.L395
.L396:
.LBB40:
	.loc 11 318 0
	ldr	r3, [sp, #4]
	ldr	r2, [r3, #12]
	ldr	r3, [sp, #16]
	mov	r3, r3, asl #2
	add	r3, r2, r3
	ldr	r3, [r3, #0]
	str	r3, [sp, #20]
	.loc 11 319 0
	ldr	r0, [sp, #20]
	bl	_ZN12CIwSoundInst4StopEv
.LBE40:
	.loc 11 316 0
	ldr	r3, [sp, #16]
	add	r3, r3, #1
	str	r3, [sp, #16]
.L395:
	ldr	r3, [sp, #4]
	ldr	r2, [r3, #20]
	ldr	r3, [sp, #16]
	cmp	r2, r3
	movls	r3, #0
	movhi	r3, #1
	and	r3, r3, #255
	cmp	r3, #0
	bne	.L396
.LBE39:
	.loc 11 322 0
	ldr	r0, [sp, #4]
	bl	_ZN15CIwSoundManager6UpdateEv
	.loc 11 324 0
	mov	r0, #50
	bl	s3eDeviceYield
	add	r3, sp, #12
	mov	r0, r3
	bl	_ZN12CIwCallStackD1Ev
.LBE38:
	.loc 11 325 0
	add	sp, sp, #28
	ldmfd	sp!, {pc}
.L399:
	.align	2
.L398:
	.word	.LC38
	.cfi_endproc
.LFE1445:
	.size	_ZN15CIwSoundManager7StopAllEv, .-_ZN15CIwSoundManager7StopAllEv
	.section	.rodata
	.align	2
.LC39:
	.ascii	"CIwSoundManager::StopSoundSpec\000"
	.section	.text._ZN15CIwSoundManager13StopSoundSpecEP12CIwSoundSpec,"ax",%progbits
	.align	2
	.global	_ZN15CIwSoundManager13StopSoundSpecEP12CIwSoundSpec
	.hidden	_ZN15CIwSoundManager13StopSoundSpecEP12CIwSoundSpec
	.type	_ZN15CIwSoundManager13StopSoundSpecEP12CIwSoundSpec, %function
_ZN15CIwSoundManager13StopSoundSpecEP12CIwSoundSpec:
.LFB1446:
	.loc 11 328 0
	.cfi_startproc
	@ args = 0, pretend = 0, frame = 24
	@ frame_needed = 0, uses_anonymous_args = 0
	stmfd	sp!, {r4, lr}
.LCFI77:
	.cfi_def_cfa_offset 8
	sub	sp, sp, #24
.LCFI78:
	.cfi_def_cfa_offset 32
	str	r0, [sp, #4]
	str	r1, [sp, #0]
.LBB41:
	.loc 11 329 0
	add	r3, sp, #12
	mov	r0, r3
	ldr	r1, .L410
	.cfi_offset 14, -4
	.cfi_offset 4, -8
	bl	_ZN12CIwCallStackC1EPKc
	.loc 11 330 0
	ldr	r3, [sp, #0]
	cmp	r3, #0
	bne	.L401
	mov	r4, #0
	b	.L402
.L401:
.LBB42:
	.loc 11 332 0
	ldr	r3, [sp, #4]
	ldr	r3, [r3, #20]
	sub	r3, r3, #1
	str	r3, [sp, #16]
	b	.L403
.L405:
.LBB43:
	.loc 11 334 0
	ldr	r3, [sp, #4]
	ldr	r2, [r3, #12]
	ldr	r3, [sp, #16]
	mov	r3, r3, asl #2
	add	r3, r2, r3
	ldr	r3, [r3, #0]
	str	r3, [sp, #20]
	.loc 11 335 0
	ldr	r0, [sp, #20]
	bl	_ZNK12CIwSoundInst7GetSpecEv
	mov	r2, r0
	ldr	r3, [sp, #0]
	cmp	r2, r3
	movne	r3, #0
	moveq	r3, #1
	and	r3, r3, #255
	cmp	r3, #0
	beq	.L404
	.loc 11 337 0
	ldr	r0, [sp, #20]
	bl	_ZN12CIwSoundInst4StopEv
	.loc 11 338 0
	ldr	r0, [sp, #4]
	ldr	r1, [sp, #16]
	bl	_ZN15CIwSoundManager15UpdateCompletedEi
.L404:
.LBE43:
	.loc 11 332 0
	ldr	r3, [sp, #16]
	sub	r3, r3, #1
	str	r3, [sp, #16]
.L403:
	ldr	r3, [sp, #16]
	mvn	r3, r3
	mov	r3, r3, lsr #31
	and	r3, r3, #255
	cmp	r3, #0
	bne	.L405
.LBE42:
	.loc 11 342 0
	mov	r0, #50
	bl	s3eDeviceYield
	mov	r4, #1
.L402:
	add	r3, sp, #12
	mov	r0, r3
	bl	_ZN12CIwCallStackD1Ev
	cmp	r4, #1
.LBE41:
	.loc 11 343 0
	add	sp, sp, #24
	ldmfd	sp!, {r4, pc}
.L411:
	.align	2
.L410:
	.word	.LC39
	.cfi_endproc
.LFE1446:
	.size	_ZN15CIwSoundManager13StopSoundSpecEP12CIwSoundSpec, .-_ZN15CIwSoundManager13StopSoundSpecEP12CIwSoundSpec
	.section	.rodata
	.align	2
.LC40:
	.ascii	"CIwSoundManager::PauseAll\000"
	.section	.text._ZN15CIwSoundManager8PauseAllEv,"ax",%progbits
	.align	2
	.global	_ZN15CIwSoundManager8PauseAllEv
	.hidden	_ZN15CIwSoundManager8PauseAllEv
	.type	_ZN15CIwSoundManager8PauseAllEv, %function
_ZN15CIwSoundManager8PauseAllEv:
.LFB1447:
	.loc 11 346 0
	.cfi_startproc
	@ args = 0, pretend = 0, frame = 24
	@ frame_needed = 0, uses_anonymous_args = 0
	str	lr, [sp, #-4]!
.LCFI79:
	.cfi_def_cfa_offset 4
	sub	sp, sp, #28
.LCFI80:
	.cfi_def_cfa_offset 32
	str	r0, [sp, #4]
.LBB44:
	.loc 11 347 0
	add	r3, sp, #12
	mov	r0, r3
	ldr	r1, .L416
	.cfi_offset 14, -4
	bl	_ZN12CIwCallStackC1EPKc
.LBB45:
	.loc 11 348 0
	mov	r3, #0
	str	r3, [sp, #16]
	b	.L413
.L414:
.LBB46:
	.loc 11 350 0
	ldr	r3, [sp, #4]
	ldr	r2, [r3, #12]
	ldr	r3, [sp, #16]
	mov	r3, r3, asl #2
	add	r3, r2, r3
	ldr	r3, [r3, #0]
	str	r3, [sp, #20]
	.loc 11 351 0
	ldr	r0, [sp, #20]
	bl	_ZN12CIwSoundInst5PauseEv
.LBE46:
	.loc 11 348 0
	ldr	r3, [sp, #16]
	add	r3, r3, #1
	str	r3, [sp, #16]
.L413:
	ldr	r3, [sp, #4]
	ldr	r2, [r3, #20]
	ldr	r3, [sp, #16]
	cmp	r2, r3
	movls	r3, #0
	movhi	r3, #1
	and	r3, r3, #255
	cmp	r3, #0
	bne	.L414
.LBE45:
	.loc 11 352 0
	add	r3, sp, #12
	mov	r0, r3
	bl	_ZN12CIwCallStackD1Ev
.LBE44:
	.loc 11 353 0
	add	sp, sp, #28
	ldmfd	sp!, {pc}
.L417:
	.align	2
.L416:
	.word	.LC40
	.cfi_endproc
.LFE1447:
	.size	_ZN15CIwSoundManager8PauseAllEv, .-_ZN15CIwSoundManager8PauseAllEv
	.section	.rodata
	.align	2
.LC41:
	.ascii	"CIwSoundManager::ResumeAll\000"
	.section	.text._ZN15CIwSoundManager9ResumeAllEv,"ax",%progbits
	.align	2
	.global	_ZN15CIwSoundManager9ResumeAllEv
	.hidden	_ZN15CIwSoundManager9ResumeAllEv
	.type	_ZN15CIwSoundManager9ResumeAllEv, %function
_ZN15CIwSoundManager9ResumeAllEv:
.LFB1448:
	.loc 11 356 0
	.cfi_startproc
	@ args = 0, pretend = 0, frame = 24
	@ frame_needed = 0, uses_anonymous_args = 0
	str	lr, [sp, #-4]!
.LCFI81:
	.cfi_def_cfa_offset 4
	sub	sp, sp, #28
.LCFI82:
	.cfi_def_cfa_offset 32
	str	r0, [sp, #4]
.LBB47:
	.loc 11 357 0
	add	r3, sp, #12
	mov	r0, r3
	ldr	r1, .L422
	.cfi_offset 14, -4
	bl	_ZN12CIwCallStackC1EPKc
.LBB48:
	.loc 11 358 0
	mov	r3, #0
	str	r3, [sp, #16]
	b	.L419
.L420:
.LBB49:
	.loc 11 360 0
	ldr	r3, [sp, #4]
	ldr	r2, [r3, #12]
	ldr	r3, [sp, #16]
	mov	r3, r3, asl #2
	add	r3, r2, r3
	ldr	r3, [r3, #0]
	str	r3, [sp, #20]
	.loc 11 361 0
	ldr	r0, [sp, #20]
	bl	_ZN12CIwSoundInst6ResumeEv
.LBE49:
	.loc 11 358 0
	ldr	r3, [sp, #16]
	add	r3, r3, #1
	str	r3, [sp, #16]
.L419:
	ldr	r3, [sp, #4]
	ldr	r2, [r3, #20]
	ldr	r3, [sp, #16]
	cmp	r2, r3
	movls	r3, #0
	movhi	r3, #1
	and	r3, r3, #255
	cmp	r3, #0
	bne	.L420
.LBE48:
	.loc 11 362 0
	add	r3, sp, #12
	mov	r0, r3
	bl	_ZN12CIwCallStackD1Ev
.LBE47:
	.loc 11 363 0
	add	sp, sp, #28
	ldmfd	sp!, {pc}
.L423:
	.align	2
.L422:
	.word	.LC41
	.cfi_endproc
.LFE1448:
	.size	_ZN15CIwSoundManager9ResumeAllEv, .-_ZN15CIwSoundManager9ResumeAllEv
	.section	.rodata
	.align	2
.LC42:
	.ascii	"CIwMenuItemSound::Select\000"
	.align	2
.LC43:
	.ascii	"IwSound\000"
	.align	2
.LC44:
	.ascii	"NumActiveInsts\000"
	.section	.text._ZN16CIwMenuItemSound6SelectEv,"ax",%progbits
	.align	2
	.global	_ZN16CIwMenuItemSound6SelectEv
	.hidden	_ZN16CIwMenuItemSound6SelectEv
	.type	_ZN16CIwMenuItemSound6SelectEv, %function
_ZN16CIwMenuItemSound6SelectEv:
.LFB1449:
	.loc 11 398 0
	.cfi_startproc
	@ args = 0, pretend = 0, frame = 16
	@ frame_needed = 0, uses_anonymous_args = 0
	stmfd	sp!, {r4, r5, r6, lr}
.LCFI83:
	.cfi_def_cfa_offset 16
	sub	sp, sp, #32
.LCFI84:
	.cfi_def_cfa_offset 48
	str	r0, [sp, #20]
.LBB50:
	.loc 11 399 0
	add	r3, sp, #24
	mov	r0, r3
	ldr	r1, .L426+8
	.cfi_offset 14, -4
	.cfi_offset 6, -8
	.cfi_offset 5, -12
	.cfi_offset 4, -16
	bl	_ZN12CIwCallStackC1EPKc
	.loc 11 402 0
	mov	r0, #52
	bl	_Znwj
	mov	r3, r0
	mov	r4, r3
	mov	r3, r4
	mov	r0, r3
	mvn	r1, #0
	mvn	r2, #0
	mov	r3, #0
	bl	_ZN7CIwMenuC1Eiij
	str	r4, [sp, #28]
	.loc 11 403 0
	ldr	r3, [sp, #28]
	ldr	r3, [r3, #0]
	add	r3, r3, #24
	ldr	r5, [r3, #0]
	mov	r0, #68
	bl	_Znwj
	mov	r3, r0
	mov	r4, r3
	mov	r3, r4
	mov	r0, r3
	ldr	r1, .L426+12
	bl	_ZN16CIwMenuItemTitleC1EPKc
	mov	r3, r4
	ldr	r0, [sp, #28]
	mov	r1, r3
	mvn	r2, #0
	blx	r5
	.loc 11 404 0
	ldr	r3, [sp, #28]
	ldr	r3, [r3, #0]
	add	r3, r3, #24
	ldr	r5, [r3, #0]
	bl	_Z17IwGetSoundManagerv
	mov	r3, r0
	add	r6, r3, #20
	mov	r0, #92
	bl	_Znwj
	mov	r3, r0
	mov	r4, r3
	mov	r3, r4
	flds	s15, .L426
	fsts	s15, [sp, #0]
	flds	s15, .L426+4
	fsts	s15, [sp, #4]
	flds	s15, .L426
	fsts	s15, [sp, #8]
	mov	r0, r3
	ldr	r1, .L426+16
	mov	r2, r6
	ldr	r3, .L426	@ float
	bl	_ZN21CIwMenuItemEditUInt32C1EPKcPjffff
	mov	r3, r4
	ldr	r0, [sp, #28]
	mov	r1, r3
	mvn	r2, #0
	blx	r5
	.loc 11 407 0
	ldr	r3, [sp, #28]
	ldr	r3, [r3, #0]
	add	r3, r3, #36
	ldr	r3, [r3, #0]
	ldr	r0, [sp, #28]
	mov	r1, #1
	blx	r3
	.loc 11 408 0
	bl	_Z16IwGetMenuManagerv
	mov	r3, r0
	mov	r0, r3
	ldr	r1, [sp, #28]
	bl	_ZN14CIwMenuManager7AddMenuEP7CIwMenu
	add	r3, sp, #24
	mov	r0, r3
	bl	_ZN12CIwCallStackD1Ev
.LBE50:
	.loc 11 409 0
	add	sp, sp, #32
	ldmfd	sp!, {r4, r5, r6, pc}
.L427:
	.align	2
.L426:
	.word	0
	.word	1199570688
	.word	.LC42
	.word	.LC43
	.word	.LC44
	.cfi_endproc
.LFE1449:
	.size	_ZN16CIwMenuItemSound6SelectEv, .-_ZN16CIwMenuItemSound6SelectEv
	.section	.text._ZN13CIwChannelPCMIaEC1Ev,"axG",%progbits,_ZN13CIwChannelPCMIaEC1Ev,comdat
	.align	2
	.weak	_ZN13CIwChannelPCMIaEC1Ev
	.hidden	_ZN13CIwChannelPCMIaEC1Ev
	.type	_ZN13CIwChannelPCMIaEC1Ev, %function
_ZN13CIwChannelPCMIaEC1Ev:
.LFB1524:
	.file 12 "c:/users/0900391/dropbox/project impact/code/demos/demo_4_tilecollision_advaudio_ui/libs/soundengine/h/IwSoundPCM.h"
	.loc 12 101 0
	.cfi_startproc
	@ args = 0, pretend = 0, frame = 8
	@ frame_needed = 0, uses_anonymous_args = 0
	@ link register save eliminated.
	sub	sp, sp, #8
.LCFI85:
	.cfi_def_cfa_offset 8
	str	r0, [sp, #4]
	.loc 12 105 0
	ldr	r3, [sp, #4]
	mov	r2, #0
	str	r2, [r3, #0]
	ldr	r3, [sp, #4]
	mov	r2, #0
	str	r2, [r3, #8]
	ldr	r3, [sp, #4]
	mov	r2, #0
	str	r2, [r3, #12]
	ldr	r3, [sp, #4]
	mov	r2, #0
	str	r2, [r3, #20]
	.loc 12 106 0
	ldr	r3, [sp, #4]
	.loc 12 107 0
	mov	r0, r3
	add	sp, sp, #8
	bx	lr
	.cfi_endproc
.LFE1524:
	.size	_ZN13CIwChannelPCMIaEC1Ev, .-_ZN13CIwChannelPCMIaEC1Ev
	.section	.text._ZN13CIwChannelPCMIsEC1Ev,"axG",%progbits,_ZN13CIwChannelPCMIsEC1Ev,comdat
	.align	2
	.weak	_ZN13CIwChannelPCMIsEC1Ev
	.hidden	_ZN13CIwChannelPCMIsEC1Ev
	.type	_ZN13CIwChannelPCMIsEC1Ev, %function
_ZN13CIwChannelPCMIsEC1Ev:
.LFB1527:
	.loc 12 101 0
	.cfi_startproc
	@ args = 0, pretend = 0, frame = 8
	@ frame_needed = 0, uses_anonymous_args = 0
	@ link register save eliminated.
	sub	sp, sp, #8
.LCFI86:
	.cfi_def_cfa_offset 8
	str	r0, [sp, #4]
	.loc 12 105 0
	ldr	r3, [sp, #4]
	mov	r2, #0
	str	r2, [r3, #0]
	ldr	r3, [sp, #4]
	mov	r2, #0
	str	r2, [r3, #8]
	ldr	r3, [sp, #4]
	mov	r2, #0
	str	r2, [r3, #12]
	ldr	r3, [sp, #4]
	mov	r2, #0
	str	r2, [r3, #20]
	.loc 12 106 0
	ldr	r3, [sp, #4]
	.loc 12 107 0
	mov	r0, r3
	add	sp, sp, #8
	bx	lr
	.cfi_endproc
.LFE1527:
	.size	_ZN13CIwChannelPCMIsEC1Ev, .-_ZN13CIwChannelPCMIsEC1Ev
	.section	.text._ZN13CIwChannelPCMIaE15GenerateAudioCBEP20s3eSoundGenAudioInfoPS0_,"axG",%progbits,_ZN13CIwChannelPCMIaE15GenerateAudioCBEP20s3eSoundGenAudioInfoPS0_,comdat
	.align	2
	.weak	_ZN13CIwChannelPCMIaE15GenerateAudioCBEP20s3eSoundGenAudioInfoPS0_
	.hidden	_ZN13CIwChannelPCMIaE15GenerateAudioCBEP20s3eSoundGenAudioInfoPS0_
	.type	_ZN13CIwChannelPCMIaE15GenerateAudioCBEP20s3eSoundGenAudioInfoPS0_, %function
_ZN13CIwChannelPCMIaE15GenerateAudioCBEP20s3eSoundGenAudioInfoPS0_:
.LFB1528:
	.loc 12 57 0
	.cfi_startproc
	@ args = 0, pretend = 0, frame = 8
	@ frame_needed = 0, uses_anonymous_args = 0
	str	lr, [sp, #-4]!
.LCFI87:
	.cfi_def_cfa_offset 4
	sub	sp, sp, #12
.LCFI88:
	.cfi_def_cfa_offset 16
	str	r0, [sp, #4]
	str	r1, [sp, #0]
	.loc 12 59 0
	ldr	r0, [sp, #0]
	ldr	r1, [sp, #4]
	.cfi_offset 14, -4
	bl	_ZN13CIwChannelPCMIaE13GenerateAudioEP20s3eSoundGenAudioInfo
	mov	r3, r0
	.loc 12 60 0
	mov	r0, r3
	add	sp, sp, #12
	ldmfd	sp!, {pc}
	.cfi_endproc
.LFE1528:
	.size	_ZN13CIwChannelPCMIaE15GenerateAudioCBEP20s3eSoundGenAudioInfoPS0_, .-_ZN13CIwChannelPCMIaE15GenerateAudioCBEP20s3eSoundGenAudioInfoPS0_
	.section	.text._ZN13CIwChannelPCMIsE15GenerateAudioCBEP20s3eSoundGenAudioInfoPS0_,"axG",%progbits,_ZN13CIwChannelPCMIsE15GenerateAudioCBEP20s3eSoundGenAudioInfoPS0_,comdat
	.align	2
	.weak	_ZN13CIwChannelPCMIsE15GenerateAudioCBEP20s3eSoundGenAudioInfoPS0_
	.hidden	_ZN13CIwChannelPCMIsE15GenerateAudioCBEP20s3eSoundGenAudioInfoPS0_
	.type	_ZN13CIwChannelPCMIsE15GenerateAudioCBEP20s3eSoundGenAudioInfoPS0_, %function
_ZN13CIwChannelPCMIsE15GenerateAudioCBEP20s3eSoundGenAudioInfoPS0_:
.LFB1529:
	.loc 12 57 0
	.cfi_startproc
	@ args = 0, pretend = 0, frame = 8
	@ frame_needed = 0, uses_anonymous_args = 0
	str	lr, [sp, #-4]!
.LCFI89:
	.cfi_def_cfa_offset 4
	sub	sp, sp, #12
.LCFI90:
	.cfi_def_cfa_offset 16
	str	r0, [sp, #4]
	str	r1, [sp, #0]
	.loc 12 59 0
	ldr	r0, [sp, #0]
	ldr	r1, [sp, #4]
	.cfi_offset 14, -4
	bl	_ZN13CIwChannelPCMIsE13GenerateAudioEP20s3eSoundGenAudioInfo
	mov	r3, r0
	.loc 12 60 0
	mov	r0, r3
	add	sp, sp, #12
	ldmfd	sp!, {pc}
	.cfi_endproc
.LFE1529:
	.size	_ZN13CIwChannelPCMIsE15GenerateAudioCBEP20s3eSoundGenAudioInfoPS0_, .-_ZN13CIwChannelPCMIsE15GenerateAudioCBEP20s3eSoundGenAudioInfoPS0_
	.global	__aeabi_idiv
	.section	.rodata
	.align	2
.LC45:
	.ascii	"end_pos >= pos\000"
	.align	2
.LC46:
	.ascii	"c:/users/0900391/dropbox/project impact/code/demos/"
	.ascii	"demo_4_tilecollision_advaudio_ui/libs/soundengine/h"
	.ascii	"/IwSoundPCM.h\000"
	.align	2
.LC47:
	.ascii	"pos != __null\000"
	.section	.text._ZN13CIwChannelPCMIaE13GenerateAudioEP20s3eSoundGenAudioInfo,"axG",%progbits,_ZN13CIwChannelPCMIaE13GenerateAudioEP20s3eSoundGenAudioInfo,comdat
	.align	2
	.weak	_ZN13CIwChannelPCMIaE13GenerateAudioEP20s3eSoundGenAudioInfo
	.hidden	_ZN13CIwChannelPCMIaE13GenerateAudioEP20s3eSoundGenAudioInfo
	.type	_ZN13CIwChannelPCMIaE13GenerateAudioEP20s3eSoundGenAudioInfo, %function
_ZN13CIwChannelPCMIaE13GenerateAudioEP20s3eSoundGenAudioInfo:
.LFB1562:
	.loc 12 112 0
	.cfi_startproc
	@ args = 0, pretend = 0, frame = 48
	@ frame_needed = 0, uses_anonymous_args = 0
	stmfd	sp!, {r4, lr}
.LCFI91:
	.cfi_def_cfa_offset 8
	sub	sp, sp, #64
.LCFI92:
	.cfi_def_cfa_offset 72
	str	r0, [sp, #20]
	str	r1, [sp, #16]
.LBB51:
	.loc 12 114 0
	ldr	r3, [sp, #16]
	ldr	r3, [r3, #4]
	str	r3, [sp, #32]
	.loc 12 115 0
	ldr	r3, [sp, #16]
	ldr	r3, [r3, #8]
	str	r3, [sp, #36]
	.loc 12 116 0
	ldr	r3, [sp, #16]
	ldr	r3, [r3, #12]
	str	r3, [sp, #40]
	.loc 12 118 0
	ldr	r3, [sp, #20]
	ldr	r3, [r3, #0]
	cmp	r3, #0
	bne	.L439
	.cfi_offset 14, -4
	.cfi_offset 4, -8
	.loc 12 123 0
	ldr	r3, [sp, #16]
	ldr	r3, [r3, #16]
	mov	r2, r3
	ldr	r3, [sp, #20]
	str	r2, [r3, #0]
	.loc 12 124 0
	ldr	r3, [sp, #16]
	ldr	r3, [r3, #16]
	mov	r2, r3
	ldr	r3, [sp, #16]
	ldr	r3, [r3, #20]
	mov	r3, r3, asl #1
	add	r2, r2, r3
	ldr	r3, [sp, #20]
	str	r2, [r3, #8]
	.loc 12 125 0
	ldr	r3, [sp, #20]
	mov	r2, #0
	str	r2, [r3, #12]
.L439:
	.loc 12 128 0
	ldr	r3, [sp, #16]
	ldr	r3, [r3, #0]
	mov	r0, r3
	mov	r1, #1
	bl	s3eSoundChannelGetInt
	mov	r3, r0
	mov	r4, r3, asl #12
	mov	r0, #1
	bl	s3eSoundGetInt
	mov	r3, r0
	mov	r0, r4
	mov	r1, r3
	bl	__aeabi_idiv
	mov	r3, r0
	str	r3, [sp, #44]
	.loc 12 129 0
	ldr	r3, [sp, #16]
	ldr	r3, [r3, #0]
	mov	r0, r3
	mov	r1, #3
	bl	s3eSoundChannelGetInt
	mov	r3, r0
	str	r3, [sp, #48]
	.loc 12 131 0
	ldr	r3, [sp, #44]
	cmp	r3, #4096
	beq	.L440
.LBB52:
	.loc 12 133 0
	mov	r3, #0
	str	r3, [sp, #28]
	.loc 12 134 0
	ldr	r3, [sp, #48]
	str	r3, [sp, #0]
	ldr	r3, [sp, #40]
	str	r3, [sp, #4]
	add	r3, sp, #28
	str	r3, [sp, #8]
	ldr	r0, [sp, #20]
	ldr	r1, [sp, #32]
	ldr	r2, [sp, #36]
	ldr	r3, [sp, #44]
	bl	_ZN13CIwChannelPCMIaE17GenerateAudioFastEPsiiiiPi
	mov	r3, r0
	str	r3, [sp, #52]
	.loc 12 135 0
	ldr	r3, [sp, #28]
	cmp	r3, #0
	beq	.L441
	.loc 12 137 0
	ldr	r3, [sp, #16]
	mov	r2, #1
	strb	r2, [r3, #28]
	.loc 12 138 0
	ldr	r3, [sp, #20]
	mov	r2, #0
	str	r2, [r3, #0]
.L441:
	.loc 12 140 0
	ldr	r3, [sp, #52]
	b	.L442
.L440:
.LBE52:
.LBB53:
.LBB54:
	.loc 12 143 0
	ldr	r3, [sp, #20]
	ldr	r2, [r3, #8]
	ldr	r3, [sp, #20]
	ldr	r3, [r3, #0]
	cmp	r2, r3
	bcs	.L443
	ldr	r0, .L475
	bl	IwDebugAssertIsChannelOn
	mov	r3, r0
	cmp	r3, #0
	beq	.L443
	ldr	r3, .L475+4
	ldrb	r3, [r3, #0]	@ zero_extendqisi2
	cmp	r3, #0
	bne	.L443
	mov	r3, #1
	b	.L444
.L443:
	mov	r3, #0
.L444:
	cmp	r3, #0
	beq	.L445
	mov	r0, #0
	bl	IwDebugAssertSetSolution
	mov	r0, #0
	bl	IwDebugAssertSetUID
	mov	r0, #0
	bl	IwDebugAssertSetMessage
	ldr	r0, .L475+8
	ldr	r1, .L475+12
	mov	r2, #143
	mov	r3, #1
	bl	IwDebugAssertShow
	mov	r3, r0
	cmp	r3, #1
	beq	.L447
	cmp	r3, #2
	beq	.L448
	b	.L446
.L447:
	bl	s3eDebugIsDebuggerPresent
	mov	r3, r0
	cmp	r3, #0
	moveq	r3, #0
	movne	r3, #1
	and	r3, r3, #255
	cmp	r3, #0
	beq	.L449
	bl	s3eDebugIsDebuggerPresent
	mov	r3, r0
	cmp	r3, #0
	moveq	r3, #0
	movne	r3, #1
	and	r3, r3, #255
	cmp	r3, #0
	beq	.L473
	mvn	r3, #11
	mov	r2, #0
	str	r2, [r3, #0]
	b	.L446
.L449:
	bl	_ZL11IwDebugExitv
	b	.L446
.L448:
	ldr	r3, .L475+4
	mov	r2, #1
	strb	r2, [r3, #0]
	b	.L446
.L473:
	mov	r0, r0	@ nop
.L446:
	mov	r0, #0
	bl	IwDebugAssertSetUID
.L445:
.LBE54:
.LBB55:
	.loc 12 144 0
	ldr	r3, [sp, #20]
	ldr	r3, [r3, #0]
	cmp	r3, #0
	bne	.L452
	ldr	r0, .L475
	bl	IwDebugAssertIsChannelOn
	mov	r3, r0
	cmp	r3, #0
	beq	.L452
	ldr	r3, .L475+16
	ldrb	r3, [r3, #0]	@ zero_extendqisi2
	cmp	r3, #0
	bne	.L452
	mov	r3, #1
	b	.L453
.L452:
	mov	r3, #0
.L453:
	cmp	r3, #0
	beq	.L454
	mov	r0, #0
	bl	IwDebugAssertSetSolution
	mov	r0, #0
	bl	IwDebugAssertSetUID
	mov	r0, #0
	bl	IwDebugAssertSetMessage
	ldr	r0, .L475+20
	ldr	r1, .L475+12
	mov	r2, #144
	mov	r3, #1
	bl	IwDebugAssertShow
	mov	r3, r0
	cmp	r3, #1
	beq	.L456
	cmp	r3, #2
	beq	.L457
	b	.L455
.L456:
	bl	s3eDebugIsDebuggerPresent
	mov	r3, r0
	cmp	r3, #0
	moveq	r3, #0
	movne	r3, #1
	and	r3, r3, #255
	cmp	r3, #0
	beq	.L458
	bl	s3eDebugIsDebuggerPresent
	mov	r3, r0
	cmp	r3, #0
	moveq	r3, #0
	movne	r3, #1
	and	r3, r3, #255
	cmp	r3, #0
	beq	.L474
	mvn	r3, #11
	mov	r2, #0
	str	r2, [r3, #0]
	b	.L455
.L458:
	bl	_ZL11IwDebugExitv
	b	.L455
.L457:
	ldr	r3, .L475+16
	mov	r2, #1
	strb	r2, [r3, #0]
	b	.L455
.L474:
	mov	r0, r0	@ nop
.L455:
	mov	r0, #0
	bl	IwDebugAssertSetUID
.L454:
.LBE55:
	.loc 12 146 0
	ldr	r3, [sp, #20]
	ldr	r3, [r3, #8]
	mov	r2, r3
	ldr	r3, [sp, #20]
	ldr	r3, [r3, #0]
	rsb	r3, r3, r2
	str	r3, [sp, #56]
	.loc 12 147 0
	ldr	r2, [sp, #56]
	ldr	r3, [sp, #36]
	cmp	r2, r3
	bge	.L461
	ldr	r3, [sp, #56]
	b	.L462
.L461:
	ldr	r3, [sp, #36]
.L462:
	str	r3, [sp, #60]
	.loc 12 148 0
	ldr	r2, [sp, #36]
	ldr	r3, [sp, #60]
	rsb	r3, r3, r2
	str	r3, [sp, #36]
	.loc 12 150 0
	ldr	r3, [sp, #48]
	cmp	r3, #0
	bne	.L463
	.loc 12 152 0
	ldr	r3, [sp, #40]
	cmp	r3, #0
	bne	.L464
	.loc 12 153 0
	ldr	r3, [sp, #60]
	mov	r3, r3, asl #1
	ldr	r0, [sp, #32]
	mov	r1, #0
	mov	r2, r3
	bl	memset
.L464:
	.loc 12 154 0
	ldr	r3, [sp, #20]
	ldr	r2, [r3, #0]
	ldr	r3, [sp, #60]
	add	r2, r2, r3
	ldr	r3, [sp, #20]
	str	r2, [r3, #0]
	ldr	r3, [sp, #60]
	mov	r3, r3, asl #1
	ldr	r2, [sp, #32]
	add	r3, r2, r3
	str	r3, [sp, #32]
	mov	r3, #0
	str	r3, [sp, #60]
	b	.L465
.L463:
	.loc 12 158 0
	ldr	r3, [sp, #40]
	cmp	r3, #0
	beq	.L469
	.loc 12 159 0
	b	.L467
.L468:
	.loc 12 160 0
	ldr	r3, [sp, #32]
	ldrh	r3, [r3, #0]
	mov	r3, r3, asl #16
	mov	r2, r3, lsr #16
	ldr	r3, [sp, #20]
	ldr	r3, [r3, #0]
	ldrb	r3, [r3, #0]	@ zero_extendqisi2
	mov	r3, r3, asl #24
	mov	r3, r3, asr #24
	ldr	r1, [sp, #48]
	mul	r3, r1, r3
	mov	r3, r3, asr #8
	mov	r3, r3, asl #16
	mov	r3, r3, lsr #16
	add	r3, r2, r3
	mov	r3, r3, asl #16
	mov	r3, r3, lsr #16
	mov	r2, r3
	ldr	r3, [sp, #32]
	strh	r2, [r3, #0]	@ movhi
	.loc 12 159 0
	ldr	r3, [sp, #60]
	sub	r3, r3, #1
	str	r3, [sp, #60]
	ldr	r3, [sp, #20]
	ldr	r3, [r3, #0]
	add	r2, r3, #1
	ldr	r3, [sp, #20]
	str	r2, [r3, #0]
	ldr	r3, [sp, #32]
	add	r3, r3, #2
	str	r3, [sp, #32]
.L467:
	ldr	r3, [sp, #60]
	cmp	r3, #0
	moveq	r3, #0
	movne	r3, #1
	and	r3, r3, #255
	cmp	r3, #0
	bne	.L468
	b	.L465
.L470:
	.loc 12 163 0
	ldr	r3, [sp, #20]
	ldr	r3, [r3, #0]
	ldrb	r3, [r3, #0]	@ zero_extendqisi2
	mov	r3, r3, asl #24
	mov	r3, r3, asr #24
	ldr	r2, [sp, #48]
	mul	r3, r2, r3
	mov	r3, r3, asr #8
	mov	r3, r3, asl #16
	mov	r2, r3, lsr #16
	ldr	r3, [sp, #32]
	strh	r2, [r3, #0]	@ movhi
	.loc 12 162 0
	ldr	r3, [sp, #60]
	sub	r3, r3, #1
	str	r3, [sp, #60]
	ldr	r3, [sp, #20]
	ldr	r3, [r3, #0]
	add	r2, r3, #1
	ldr	r3, [sp, #20]
	str	r2, [r3, #0]
	ldr	r3, [sp, #32]
	add	r3, r3, #2
	str	r3, [sp, #32]
.L469:
	ldr	r3, [sp, #60]
	cmp	r3, #0
	moveq	r3, #0
	movne	r3, #1
	and	r3, r3, #255
	cmp	r3, #0
	bne	.L470
.L465:
	.loc 12 166 0
	ldr	r3, [sp, #20]
	ldr	r2, [r3, #0]
	ldr	r3, [sp, #20]
	ldr	r3, [r3, #8]
	cmp	r2, r3
	bne	.L471
	.loc 12 169 0
	ldr	r3, [sp, #20]
	mov	r2, #0
	str	r2, [r3, #0]
	.loc 12 170 0
	ldr	r3, [sp, #16]
	mov	r2, #1
	strb	r2, [r3, #28]
	.loc 12 171 0
	ldr	r3, [sp, #16]
	ldr	r2, [r3, #8]
	ldr	r3, [sp, #36]
	rsb	r3, r3, r2
	b	.L442
.L471:
.LBE53:
	.loc 12 142 0
	ldr	r3, [sp, #36]
	cmp	r3, #0
	moveq	r3, #0
	movne	r3, #1
	and	r3, r3, #255
	cmp	r3, #0
	bne	.L440
	.loc 12 175 0
	ldr	r3, [sp, #16]
	ldr	r3, [r3, #8]
.L442:
.LBE51:
	.loc 12 176 0
	mov	r0, r3
	add	sp, sp, #64
	ldmfd	sp!, {r4, pc}
.L476:
	.align	2
.L475:
	.word	.LC18
	.word	_ZZN13CIwChannelPCMIaE13GenerateAudioEP20s3eSoundGenAudioInfoE21_s_IwAssertIgnoreThis
	.word	.LC45
	.word	.LC46
	.word	_ZZN13CIwChannelPCMIaE13GenerateAudioEP20s3eSoundGenAudioInfoE21_s_IwAssertIgnoreThis_0
	.word	.LC47
	.cfi_endproc
.LFE1562:
	.size	_ZN13CIwChannelPCMIaE13GenerateAudioEP20s3eSoundGenAudioInfo, .-_ZN13CIwChannelPCMIaE13GenerateAudioEP20s3eSoundGenAudioInfo
	.section	.text._ZN13CIwChannelPCMIsE13GenerateAudioEP20s3eSoundGenAudioInfo,"axG",%progbits,_ZN13CIwChannelPCMIsE13GenerateAudioEP20s3eSoundGenAudioInfo,comdat
	.align	2
	.weak	_ZN13CIwChannelPCMIsE13GenerateAudioEP20s3eSoundGenAudioInfo
	.hidden	_ZN13CIwChannelPCMIsE13GenerateAudioEP20s3eSoundGenAudioInfo
	.type	_ZN13CIwChannelPCMIsE13GenerateAudioEP20s3eSoundGenAudioInfo, %function
_ZN13CIwChannelPCMIsE13GenerateAudioEP20s3eSoundGenAudioInfo:
.LFB1563:
	.loc 12 112 0
	.cfi_startproc
	@ args = 0, pretend = 0, frame = 48
	@ frame_needed = 0, uses_anonymous_args = 0
	stmfd	sp!, {r4, lr}
.LCFI93:
	.cfi_def_cfa_offset 8
	sub	sp, sp, #64
.LCFI94:
	.cfi_def_cfa_offset 72
	str	r0, [sp, #20]
	str	r1, [sp, #16]
.LBB56:
	.loc 12 114 0
	ldr	r3, [sp, #16]
	ldr	r3, [r3, #4]
	str	r3, [sp, #32]
	.loc 12 115 0
	ldr	r3, [sp, #16]
	ldr	r3, [r3, #8]
	str	r3, [sp, #36]
	.loc 12 116 0
	ldr	r3, [sp, #16]
	ldr	r3, [r3, #12]
	str	r3, [sp, #40]
	.loc 12 118 0
	ldr	r3, [sp, #20]
	ldr	r3, [r3, #0]
	cmp	r3, #0
	bne	.L478
	.cfi_offset 14, -4
	.cfi_offset 4, -8
	.loc 12 123 0
	ldr	r3, [sp, #16]
	ldr	r2, [r3, #16]
	ldr	r3, [sp, #20]
	str	r2, [r3, #0]
	.loc 12 124 0
	ldr	r3, [sp, #16]
	ldr	r2, [r3, #16]
	ldr	r3, [sp, #16]
	ldr	r3, [r3, #20]
	mov	r3, r3, asl #1
	add	r2, r2, r3
	ldr	r3, [sp, #20]
	str	r2, [r3, #8]
	.loc 12 125 0
	ldr	r3, [sp, #20]
	mov	r2, #0
	str	r2, [r3, #12]
.L478:
	.loc 12 128 0
	ldr	r3, [sp, #16]
	ldr	r3, [r3, #0]
	mov	r0, r3
	mov	r1, #1
	bl	s3eSoundChannelGetInt
	mov	r3, r0
	mov	r4, r3, asl #12
	mov	r0, #1
	bl	s3eSoundGetInt
	mov	r3, r0
	mov	r0, r4
	mov	r1, r3
	bl	__aeabi_idiv
	mov	r3, r0
	str	r3, [sp, #44]
	.loc 12 129 0
	ldr	r3, [sp, #16]
	ldr	r3, [r3, #0]
	mov	r0, r3
	mov	r1, #3
	bl	s3eSoundChannelGetInt
	mov	r3, r0
	str	r3, [sp, #48]
	.loc 12 131 0
	ldr	r3, [sp, #44]
	cmp	r3, #4096
	beq	.L479
.LBB57:
	.loc 12 133 0
	mov	r3, #0
	str	r3, [sp, #28]
	.loc 12 134 0
	ldr	r3, [sp, #48]
	str	r3, [sp, #0]
	ldr	r3, [sp, #40]
	str	r3, [sp, #4]
	add	r3, sp, #28
	str	r3, [sp, #8]
	ldr	r0, [sp, #20]
	ldr	r1, [sp, #32]
	ldr	r2, [sp, #36]
	ldr	r3, [sp, #44]
	bl	_ZN13CIwChannelPCMIsE17GenerateAudioFastEPsiiiiPi
	mov	r3, r0
	str	r3, [sp, #52]
	.loc 12 135 0
	ldr	r3, [sp, #28]
	cmp	r3, #0
	beq	.L480
	.loc 12 137 0
	ldr	r3, [sp, #16]
	mov	r2, #1
	strb	r2, [r3, #28]
	.loc 12 138 0
	ldr	r3, [sp, #20]
	mov	r2, #0
	str	r2, [r3, #0]
.L480:
	.loc 12 140 0
	ldr	r3, [sp, #52]
	b	.L481
.L479:
.LBE57:
.LBB58:
.LBB59:
	.loc 12 143 0
	ldr	r3, [sp, #20]
	ldr	r2, [r3, #8]
	ldr	r3, [sp, #20]
	ldr	r3, [r3, #0]
	cmp	r2, r3
	bcs	.L482
	ldr	r0, .L514
	bl	IwDebugAssertIsChannelOn
	mov	r3, r0
	cmp	r3, #0
	beq	.L482
	ldr	r3, .L514+4
	ldrb	r3, [r3, #0]	@ zero_extendqisi2
	cmp	r3, #0
	bne	.L482
	mov	r3, #1
	b	.L483
.L482:
	mov	r3, #0
.L483:
	cmp	r3, #0
	beq	.L484
	mov	r0, #0
	bl	IwDebugAssertSetSolution
	mov	r0, #0
	bl	IwDebugAssertSetUID
	mov	r0, #0
	bl	IwDebugAssertSetMessage
	ldr	r0, .L514+8
	ldr	r1, .L514+12
	mov	r2, #143
	mov	r3, #1
	bl	IwDebugAssertShow
	mov	r3, r0
	cmp	r3, #1
	beq	.L486
	cmp	r3, #2
	beq	.L487
	b	.L485
.L486:
	bl	s3eDebugIsDebuggerPresent
	mov	r3, r0
	cmp	r3, #0
	moveq	r3, #0
	movne	r3, #1
	and	r3, r3, #255
	cmp	r3, #0
	beq	.L488
	bl	s3eDebugIsDebuggerPresent
	mov	r3, r0
	cmp	r3, #0
	moveq	r3, #0
	movne	r3, #1
	and	r3, r3, #255
	cmp	r3, #0
	beq	.L512
	mvn	r3, #11
	mov	r2, #0
	str	r2, [r3, #0]
	b	.L485
.L488:
	bl	_ZL11IwDebugExitv
	b	.L485
.L487:
	ldr	r3, .L514+4
	mov	r2, #1
	strb	r2, [r3, #0]
	b	.L485
.L512:
	mov	r0, r0	@ nop
.L485:
	mov	r0, #0
	bl	IwDebugAssertSetUID
.L484:
.LBE59:
.LBB60:
	.loc 12 144 0
	ldr	r3, [sp, #20]
	ldr	r3, [r3, #0]
	cmp	r3, #0
	bne	.L491
	ldr	r0, .L514
	bl	IwDebugAssertIsChannelOn
	mov	r3, r0
	cmp	r3, #0
	beq	.L491
	ldr	r3, .L514+16
	ldrb	r3, [r3, #0]	@ zero_extendqisi2
	cmp	r3, #0
	bne	.L491
	mov	r3, #1
	b	.L492
.L491:
	mov	r3, #0
.L492:
	cmp	r3, #0
	beq	.L493
	mov	r0, #0
	bl	IwDebugAssertSetSolution
	mov	r0, #0
	bl	IwDebugAssertSetUID
	mov	r0, #0
	bl	IwDebugAssertSetMessage
	ldr	r0, .L514+20
	ldr	r1, .L514+12
	mov	r2, #144
	mov	r3, #1
	bl	IwDebugAssertShow
	mov	r3, r0
	cmp	r3, #1
	beq	.L495
	cmp	r3, #2
	beq	.L496
	b	.L494
.L495:
	bl	s3eDebugIsDebuggerPresent
	mov	r3, r0
	cmp	r3, #0
	moveq	r3, #0
	movne	r3, #1
	and	r3, r3, #255
	cmp	r3, #0
	beq	.L497
	bl	s3eDebugIsDebuggerPresent
	mov	r3, r0
	cmp	r3, #0
	moveq	r3, #0
	movne	r3, #1
	and	r3, r3, #255
	cmp	r3, #0
	beq	.L513
	mvn	r3, #11
	mov	r2, #0
	str	r2, [r3, #0]
	b	.L494
.L497:
	bl	_ZL11IwDebugExitv
	b	.L494
.L496:
	ldr	r3, .L514+16
	mov	r2, #1
	strb	r2, [r3, #0]
	b	.L494
.L513:
	mov	r0, r0	@ nop
.L494:
	mov	r0, #0
	bl	IwDebugAssertSetUID
.L493:
.LBE60:
	.loc 12 146 0
	ldr	r3, [sp, #20]
	ldr	r3, [r3, #8]
	mov	r2, r3
	ldr	r3, [sp, #20]
	ldr	r3, [r3, #0]
	rsb	r3, r3, r2
	mov	r3, r3, asr #1
	str	r3, [sp, #56]
	.loc 12 147 0
	ldr	r2, [sp, #56]
	ldr	r3, [sp, #36]
	cmp	r2, r3
	bge	.L500
	ldr	r3, [sp, #56]
	b	.L501
.L500:
	ldr	r3, [sp, #36]
.L501:
	str	r3, [sp, #60]
	.loc 12 148 0
	ldr	r2, [sp, #36]
	ldr	r3, [sp, #60]
	rsb	r3, r3, r2
	str	r3, [sp, #36]
	.loc 12 150 0
	ldr	r3, [sp, #48]
	cmp	r3, #0
	bne	.L502
	.loc 12 152 0
	ldr	r3, [sp, #40]
	cmp	r3, #0
	bne	.L503
	.loc 12 153 0
	ldr	r3, [sp, #60]
	mov	r3, r3, asl #1
	ldr	r0, [sp, #32]
	mov	r1, #0
	mov	r2, r3
	bl	memset
.L503:
	.loc 12 154 0
	ldr	r3, [sp, #20]
	ldr	r2, [r3, #0]
	ldr	r3, [sp, #60]
	mov	r3, r3, asl #1
	add	r2, r2, r3
	ldr	r3, [sp, #20]
	str	r2, [r3, #0]
	ldr	r3, [sp, #60]
	mov	r3, r3, asl #1
	ldr	r2, [sp, #32]
	add	r3, r2, r3
	str	r3, [sp, #32]
	mov	r3, #0
	str	r3, [sp, #60]
	b	.L504
.L502:
	.loc 12 158 0
	ldr	r3, [sp, #40]
	cmp	r3, #0
	beq	.L508
	.loc 12 159 0
	b	.L506
.L507:
	.loc 12 160 0
	ldr	r3, [sp, #32]
	ldrh	r3, [r3, #0]
	mov	r3, r3, asl #16
	mov	r2, r3, lsr #16
	ldr	r3, [sp, #20]
	ldr	r3, [r3, #0]
	ldrh	r3, [r3, #0]
	mov	r3, r3, asl #16
	mov	r3, r3, asr #16
	ldr	r1, [sp, #48]
	mul	r3, r1, r3
	mov	r3, r3, asr #8
	mov	r3, r3, asl #16
	mov	r3, r3, lsr #16
	add	r3, r2, r3
	mov	r3, r3, asl #16
	mov	r3, r3, lsr #16
	mov	r2, r3
	ldr	r3, [sp, #32]
	strh	r2, [r3, #0]	@ movhi
	.loc 12 159 0
	ldr	r3, [sp, #60]
	sub	r3, r3, #1
	str	r3, [sp, #60]
	ldr	r3, [sp, #20]
	ldr	r3, [r3, #0]
	add	r2, r3, #2
	ldr	r3, [sp, #20]
	str	r2, [r3, #0]
	ldr	r3, [sp, #32]
	add	r3, r3, #2
	str	r3, [sp, #32]
.L506:
	ldr	r3, [sp, #60]
	cmp	r3, #0
	moveq	r3, #0
	movne	r3, #1
	and	r3, r3, #255
	cmp	r3, #0
	bne	.L507
	b	.L504
.L509:
	.loc 12 163 0
	ldr	r3, [sp, #20]
	ldr	r3, [r3, #0]
	ldrh	r3, [r3, #0]
	mov	r3, r3, asl #16
	mov	r3, r3, asr #16
	ldr	r2, [sp, #48]
	mul	r3, r2, r3
	mov	r3, r3, asr #8
	mov	r3, r3, asl #16
	mov	r2, r3, lsr #16
	ldr	r3, [sp, #32]
	strh	r2, [r3, #0]	@ movhi
	.loc 12 162 0
	ldr	r3, [sp, #60]
	sub	r3, r3, #1
	str	r3, [sp, #60]
	ldr	r3, [sp, #20]
	ldr	r3, [r3, #0]
	add	r2, r3, #2
	ldr	r3, [sp, #20]
	str	r2, [r3, #0]
	ldr	r3, [sp, #32]
	add	r3, r3, #2
	str	r3, [sp, #32]
.L508:
	ldr	r3, [sp, #60]
	cmp	r3, #0
	moveq	r3, #0
	movne	r3, #1
	and	r3, r3, #255
	cmp	r3, #0
	bne	.L509
.L504:
	.loc 12 166 0
	ldr	r3, [sp, #20]
	ldr	r2, [r3, #0]
	ldr	r3, [sp, #20]
	ldr	r3, [r3, #8]
	cmp	r2, r3
	bne	.L510
	.loc 12 169 0
	ldr	r3, [sp, #20]
	mov	r2, #0
	str	r2, [r3, #0]
	.loc 12 170 0
	ldr	r3, [sp, #16]
	mov	r2, #1
	strb	r2, [r3, #28]
	.loc 12 171 0
	ldr	r3, [sp, #16]
	ldr	r2, [r3, #8]
	ldr	r3, [sp, #36]
	rsb	r3, r3, r2
	b	.L481
.L510:
.LBE58:
	.loc 12 142 0
	ldr	r3, [sp, #36]
	cmp	r3, #0
	moveq	r3, #0
	movne	r3, #1
	and	r3, r3, #255
	cmp	r3, #0
	bne	.L479
	.loc 12 175 0
	ldr	r3, [sp, #16]
	ldr	r3, [r3, #8]
.L481:
.LBE56:
	.loc 12 176 0
	mov	r0, r3
	add	sp, sp, #64
	ldmfd	sp!, {r4, pc}
.L515:
	.align	2
.L514:
	.word	.LC18
	.word	_ZZN13CIwChannelPCMIsE13GenerateAudioEP20s3eSoundGenAudioInfoE21_s_IwAssertIgnoreThis
	.word	.LC45
	.word	.LC46
	.word	_ZZN13CIwChannelPCMIsE13GenerateAudioEP20s3eSoundGenAudioInfoE21_s_IwAssertIgnoreThis_0
	.word	.LC47
	.cfi_endproc
.LFE1563:
	.size	_ZN13CIwChannelPCMIsE13GenerateAudioEP20s3eSoundGenAudioInfo, .-_ZN13CIwChannelPCMIsE13GenerateAudioEP20s3eSoundGenAudioInfo
	.section	.text._ZN13CIwChannelPCMIaE17GenerateAudioFastEPsiiiiPi,"axG",%progbits,_ZN13CIwChannelPCMIaE17GenerateAudioFastEPsiiiiPi,comdat
	.align	2
	.weak	_ZN13CIwChannelPCMIaE17GenerateAudioFastEPsiiiiPi
	.hidden	_ZN13CIwChannelPCMIaE17GenerateAudioFastEPsiiiiPi
	.type	_ZN13CIwChannelPCMIaE17GenerateAudioFastEPsiiiiPi, %function
_ZN13CIwChannelPCMIaE17GenerateAudioFastEPsiiiiPi:
.LFB1579:
	.loc 12 181 0
	.cfi_startproc
	@ args = 12, pretend = 0, frame = 88
	@ frame_needed = 0, uses_anonymous_args = 0
	stmfd	sp!, {r4, lr}
.LCFI95:
	.cfi_def_cfa_offset 8
	sub	sp, sp, #88
.LCFI96:
	.cfi_def_cfa_offset 96
	str	r0, [sp, #12]
	str	r1, [sp, #8]
	str	r2, [sp, #4]
	str	r3, [sp, #0]
.LBB61:
	.loc 12 184 0
	ldr	r3, [sp, #4]
	cmp	r3, #0
	bne	.L517
	.cfi_offset 14, -4
	.cfi_offset 4, -8
	.loc 12 185 0
	ldr	r3, [sp, #100]
	b	.L518
.L517:
.LBB62:
	.loc 12 187 0
	ldr	r3, [sp, #8]
	str	r3, [sp, #16]
	.loc 12 188 0
	ldr	r3, [sp, #12]
	ldr	r3, [r3, #0]
	str	r3, [sp, #20]
	.loc 12 190 0
	ldr	r3, [sp, #12]
	ldr	r3, [r3, #12]
	str	r3, [sp, #24]
	.loc 12 192 0
	ldr	r3, [sp, #12]
	ldr	r3, [r3, #8]
	sub	r3, r3, #1
	str	r3, [sp, #28]
	.loc 12 193 0
	ldr	r4, .L546
	.loc 12 194 0
	ldr	r3, [sp, #100]
	cmp	r3, #0
	beq	.L532
	.loc 12 197 0
	b	.L521
.L520:
	b	.L521
.L524:
	.loc 12 199 0
	ldr	r3, [sp, #4]
	cmp	r3, #0
	beq	.L542
.LBB63:
	.loc 12 201 0
	ldr	r3, [sp, #20]
	ldrb	r3, [r3, #0]	@ zero_extendqisi2
	mov	r3, r3, asl #24
	mov	r3, r3, asr #24
	str	r3, [sp, #32]
	.loc 12 202 0
	ldr	r3, [sp, #20]
	ldrb	r3, [r3, #0]	@ zero_extendqisi2
	mov	r3, r3, asl #24
	mov	r3, r3, asr #24
	str	r3, [sp, #36]
	.loc 12 204 0
	ldr	r3, [sp, #8]
	ldrh	r3, [r3, #0]
	mov	r3, r3, asl #16
	mov	r3, r3, asr #16
	str	r3, [sp, #40]
	.loc 12 205 0
	ldr	r2, [sp, #36]
	ldr	r3, [sp, #32]
	rsb	r3, r3, r2
	ldr	r2, [sp, #24]
	mul	r3, r2, r3
	mov	r2, r3, asr #12
	ldr	r3, [sp, #32]
	add	r3, r2, r3
	str	r3, [sp, #44]
	.loc 12 207 0
	ldr	r3, [sp, #44]
	ldr	r2, [sp, #96]
	mul	r3, r2, r3
	mov	r2, r3, asr #8
	ldr	r3, [sp, #40]
	add	r3, r2, r3
	mov	r0, r3
	bl	_ZN13CIwChannelPCMIaE13clip_to_int16Ei
	mov	r3, r0
	mov	r3, r3, asl #16
	mov	r2, r3, lsr #16
	ldr	r3, [sp, #8]
	strh	r2, [r3, #0]	@ movhi
	ldr	r3, [sp, #8]
	add	r3, r3, #2
	str	r3, [sp, #8]
	.loc 12 209 0
	ldr	r2, [sp, #24]
	ldr	r3, [sp, #0]
	add	r3, r2, r3
	str	r3, [sp, #24]
	.loc 12 210 0
	ldr	r3, [sp, #24]
	mov	r3, r3, asr #12
	ldr	r2, [sp, #20]
	add	r3, r2, r3
	str	r3, [sp, #20]
	.loc 12 211 0
	ldr	r3, [sp, #24]
	and	r3, r3, r4
	str	r3, [sp, #24]
	.loc 12 212 0
	ldr	r3, [sp, #4]
	sub	r3, r3, #1
	str	r3, [sp, #4]
.L521:
.LBE63:
	.loc 12 197 0
	ldr	r2, [sp, #20]
	ldr	r3, [sp, #28]
	cmp	r2, r3
	movne	r3, #0
	moveq	r3, #1
	and	r3, r3, #255
	cmp	r3, #0
	bne	.L524
	.loc 12 217 0
	ldr	r2, [sp, #20]
	ldr	r3, [sp, #28]
	cmp	r2, r3
	bls	.L525
	.loc 12 221 0
	ldr	r3, [sp, #104]
	mov	r2, #1
	str	r2, [r3, #0]
	.loc 12 222 0
	b	.L523
.L525:
	.loc 12 225 0
	ldr	r3, [sp, #4]
	cmp	r3, #0
	beq	.L543
.L526:
	.loc 12 228 0
	ldr	r3, [sp, #96]
	cmp	r3, #0
	beq	.L527
.L529:
.LBB64:
	.loc 12 231 0
	ldr	r3, [sp, #20]
	ldrb	r3, [r3, #0]	@ zero_extendqisi2
	mov	r3, r3, asl #24
	mov	r3, r3, asr #24
	str	r3, [sp, #48]
	.loc 12 232 0
	ldr	r3, [sp, #20]
	add	r3, r3, #1
	ldrb	r3, [r3, #0]	@ zero_extendqisi2
	mov	r3, r3, asl #24
	mov	r3, r3, asr #24
	str	r3, [sp, #52]
	.loc 12 233 0
	ldr	r3, [sp, #8]
	ldrh	r3, [r3, #0]
	mov	r3, r3, asl #16
	mov	r3, r3, asr #16
	str	r3, [sp, #56]
	.loc 12 234 0
	ldr	r2, [sp, #52]
	ldr	r3, [sp, #48]
	rsb	r3, r3, r2
	ldr	r2, [sp, #24]
	mul	r3, r2, r3
	mov	r2, r3, asr #12
	ldr	r3, [sp, #48]
	add	r3, r2, r3
	str	r3, [sp, #60]
	.loc 12 237 0
	ldr	r3, [sp, #60]
	ldr	r2, [sp, #96]
	mul	r3, r2, r3
	mov	r2, r3, asr #8
	ldr	r3, [sp, #56]
	add	r3, r2, r3
	mov	r0, r3
	bl	_ZN13CIwChannelPCMIaE13clip_to_int16Ei
	mov	r3, r0
	mov	r3, r3, asl #16
	mov	r2, r3, lsr #16
	ldr	r3, [sp, #8]
	strh	r2, [r3, #0]	@ movhi
	ldr	r3, [sp, #8]
	add	r3, r3, #2
	str	r3, [sp, #8]
	.loc 12 239 0
	ldr	r2, [sp, #24]
	ldr	r3, [sp, #0]
	add	r3, r2, r3
	str	r3, [sp, #24]
	.loc 12 240 0
	ldr	r3, [sp, #24]
	mov	r3, r3, asr #12
	ldr	r2, [sp, #20]
	add	r3, r2, r3
	str	r3, [sp, #20]
	.loc 12 241 0
	ldr	r3, [sp, #24]
	and	r3, r3, r4
	str	r3, [sp, #24]
	.loc 12 242 0
	ldr	r3, [sp, #4]
	sub	r3, r3, #1
	str	r3, [sp, #4]
	.loc 12 244 0
	ldr	r2, [sp, #20]
	ldr	r3, [sp, #28]
	cmp	r2, r3
	bcc	.L528
	.loc 12 245 0
	b	.L520
.L528:
.LBE64:
	.loc 12 230 0
	ldr	r3, [sp, #4]
	cmp	r3, #0
	moveq	r3, #0
	movne	r3, #1
	and	r3, r3, #255
	cmp	r3, #0
	bne	.L529
	.loc 12 251 0
	b	.L523
.L527:
	.loc 12 252 0
	ldr	r3, [sp, #8]
	add	r3, r3, #2
	str	r3, [sp, #8]
	.loc 12 253 0
	ldr	r2, [sp, #24]
	ldr	r3, [sp, #0]
	add	r3, r2, r3
	str	r3, [sp, #24]
	.loc 12 254 0
	ldr	r3, [sp, #24]
	mov	r3, r3, asr #12
	ldr	r2, [sp, #20]
	add	r3, r2, r3
	str	r3, [sp, #20]
	.loc 12 255 0
	ldr	r3, [sp, #24]
	and	r3, r3, r4
	str	r3, [sp, #24]
	.loc 12 256 0
	ldr	r3, [sp, #4]
	sub	r3, r3, #1
	str	r3, [sp, #4]
	.loc 12 257 0
	ldr	r2, [sp, #20]
	ldr	r3, [sp, #28]
	cmp	r2, r3
	bcc	.L531
	.loc 12 258 0
	b	.L520
.L531:
	.loc 12 251 0
	ldr	r3, [sp, #4]
	cmp	r3, #0
	moveq	r3, #0
	movne	r3, #1
	and	r3, r3, #255
	cmp	r3, #0
	bne	.L527
	b	.L523
.L519:
	.loc 12 265 0
	b	.L532
.L534:
	.loc 12 267 0
	ldr	r3, [sp, #4]
	cmp	r3, #0
	beq	.L544
.LBB65:
	.loc 12 269 0
	ldr	r3, [sp, #20]
	ldrb	r3, [r3, #0]	@ zero_extendqisi2
	mov	r3, r3, asl #24
	mov	r3, r3, asr #24
	str	r3, [sp, #64]
	.loc 12 270 0
	ldr	r3, [sp, #20]
	ldrb	r3, [r3, #0]	@ zero_extendqisi2
	mov	r3, r3, asl #24
	mov	r3, r3, asr #24
	str	r3, [sp, #68]
	.loc 12 272 0
	ldr	r2, [sp, #68]
	ldr	r3, [sp, #64]
	rsb	r3, r3, r2
	ldr	r2, [sp, #24]
	mul	r3, r2, r3
	mov	r2, r3, asr #12
	ldr	r3, [sp, #64]
	add	r3, r2, r3
	str	r3, [sp, #72]
	.loc 12 274 0
	ldr	r3, [sp, #72]
	ldr	r2, [sp, #96]
	mul	r3, r2, r3
	mov	r3, r3, asr #8
	mov	r3, r3, asl #16
	mov	r2, r3, lsr #16
	ldr	r3, [sp, #8]
	strh	r2, [r3, #0]	@ movhi
	ldr	r3, [sp, #8]
	add	r3, r3, #2
	str	r3, [sp, #8]
	.loc 12 275 0
	ldr	r2, [sp, #24]
	ldr	r3, [sp, #0]
	add	r3, r2, r3
	str	r3, [sp, #24]
	.loc 12 276 0
	ldr	r3, [sp, #24]
	mov	r3, r3, asr #12
	ldr	r2, [sp, #20]
	add	r3, r2, r3
	str	r3, [sp, #20]
	.loc 12 277 0
	ldr	r3, [sp, #24]
	and	r3, r3, r4
	str	r3, [sp, #24]
	.loc 12 278 0
	ldr	r3, [sp, #4]
	sub	r3, r3, #1
	str	r3, [sp, #4]
.L532:
.LBE65:
	.loc 12 265 0
	ldr	r2, [sp, #20]
	ldr	r3, [sp, #28]
	cmp	r2, r3
	movne	r3, #0
	moveq	r3, #1
	and	r3, r3, #255
	cmp	r3, #0
	bne	.L534
	.loc 12 283 0
	ldr	r2, [sp, #20]
	ldr	r3, [sp, #28]
	cmp	r2, r3
	bls	.L535
	.loc 12 285 0
	ldr	r3, [sp, #104]
	mov	r2, #1
	str	r2, [r3, #0]
	.loc 12 286 0
	b	.L523
.L535:
	.loc 12 288 0
	ldr	r3, [sp, #4]
	cmp	r3, #0
	beq	.L545
.L536:
	.loc 12 291 0
	ldr	r3, [sp, #96]
	cmp	r3, #0
	beq	.L537
.L539:
.LBB66:
	.loc 12 294 0
	ldr	r3, [sp, #20]
	ldrb	r3, [r3, #0]	@ zero_extendqisi2
	mov	r3, r3, asl #24
	mov	r3, r3, asr #24
	str	r3, [sp, #76]
	.loc 12 295 0
	ldr	r3, [sp, #20]
	add	r3, r3, #1
	ldrb	r3, [r3, #0]	@ zero_extendqisi2
	mov	r3, r3, asl #24
	mov	r3, r3, asr #24
	str	r3, [sp, #80]
	.loc 12 296 0
	ldr	r2, [sp, #80]
	ldr	r3, [sp, #76]
	rsb	r3, r3, r2
	ldr	r2, [sp, #24]
	mul	r3, r2, r3
	mov	r2, r3, asr #12
	ldr	r3, [sp, #76]
	add	r3, r2, r3
	str	r3, [sp, #84]
	.loc 12 298 0
	ldr	r3, [sp, #84]
	ldr	r2, [sp, #96]
	mul	r3, r2, r3
	mov	r3, r3, asr #8
	mov	r3, r3, asl #16
	mov	r2, r3, lsr #16
	ldr	r3, [sp, #8]
	strh	r2, [r3, #0]	@ movhi
	ldr	r3, [sp, #8]
	add	r3, r3, #2
	str	r3, [sp, #8]
	.loc 12 300 0
	ldr	r2, [sp, #24]
	ldr	r3, [sp, #0]
	add	r3, r2, r3
	str	r3, [sp, #24]
	.loc 12 301 0
	ldr	r3, [sp, #24]
	mov	r3, r3, asr #12
	ldr	r2, [sp, #20]
	add	r3, r2, r3
	str	r3, [sp, #20]
	.loc 12 302 0
	ldr	r3, [sp, #24]
	and	r3, r3, r4
	str	r3, [sp, #24]
	.loc 12 303 0
	ldr	r3, [sp, #4]
	sub	r3, r3, #1
	str	r3, [sp, #4]
	.loc 12 305 0
	ldr	r2, [sp, #20]
	ldr	r3, [sp, #28]
	cmp	r2, r3
	bcc	.L538
	.loc 12 306 0
	b	.L519
.L538:
.LBE66:
	.loc 12 293 0
	ldr	r3, [sp, #4]
	cmp	r3, #0
	moveq	r3, #0
	movne	r3, #1
	and	r3, r3, #255
	cmp	r3, #0
	bne	.L539
	b	.L523
.L537:
	.loc 12 313 0
	ldr	r3, [sp, #8]
	mov	r2, #0
	strh	r2, [r3, #0]	@ movhi
	ldr	r3, [sp, #8]
	add	r3, r3, #2
	str	r3, [sp, #8]
	.loc 12 314 0
	ldr	r2, [sp, #24]
	ldr	r3, [sp, #0]
	add	r3, r2, r3
	str	r3, [sp, #24]
	.loc 12 315 0
	ldr	r3, [sp, #24]
	mov	r3, r3, asr #12
	ldr	r2, [sp, #20]
	add	r3, r2, r3
	str	r3, [sp, #20]
	.loc 12 316 0
	ldr	r3, [sp, #24]
	and	r3, r3, r4
	str	r3, [sp, #24]
	.loc 12 317 0
	ldr	r3, [sp, #4]
	sub	r3, r3, #1
	str	r3, [sp, #4]
	.loc 12 318 0
	ldr	r2, [sp, #20]
	ldr	r3, [sp, #28]
	cmp	r2, r3
	bcc	.L540
	.loc 12 319 0
	b	.L519
.L540:
	.loc 12 312 0
	ldr	r3, [sp, #4]
	cmp	r3, #0
	moveq	r3, #0
	movne	r3, #1
	and	r3, r3, #255
	cmp	r3, #0
	bne	.L537
	b	.L523
.L542:
	.loc 12 215 0
	mov	r0, r0	@ nop
	b	.L523
.L543:
	.loc 12 226 0
	mov	r0, r0	@ nop
	b	.L523
.L544:
	.loc 12 281 0
	mov	r0, r0	@ nop
	b	.L523
.L545:
	.loc 12 289 0
	mov	r0, r0	@ nop
.L523:
	.loc 12 326 0
	ldr	r3, [sp, #12]
	ldr	r2, [sp, #20]
	str	r2, [r3, #0]
	.loc 12 327 0
	ldr	r3, [sp, #12]
	ldr	r2, [sp, #24]
	str	r2, [r3, #12]
	.loc 12 330 0
	ldr	r2, [sp, #8]
	ldr	r3, [sp, #16]
	rsb	r3, r3, r2
	mov	r3, r3, asr #1
.L518:
.LBE62:
.LBE61:
	.loc 12 332 0
	mov	r0, r3
	add	sp, sp, #88
	ldmfd	sp!, {r4, pc}
.L547:
	.align	2
.L546:
	.word	4095
	.cfi_endproc
.LFE1579:
	.size	_ZN13CIwChannelPCMIaE17GenerateAudioFastEPsiiiiPi, .-_ZN13CIwChannelPCMIaE17GenerateAudioFastEPsiiiiPi
	.section	.text._ZN13CIwChannelPCMIsE17GenerateAudioFastEPsiiiiPi,"axG",%progbits,_ZN13CIwChannelPCMIsE17GenerateAudioFastEPsiiiiPi,comdat
	.align	2
	.weak	_ZN13CIwChannelPCMIsE17GenerateAudioFastEPsiiiiPi
	.hidden	_ZN13CIwChannelPCMIsE17GenerateAudioFastEPsiiiiPi
	.type	_ZN13CIwChannelPCMIsE17GenerateAudioFastEPsiiiiPi, %function
_ZN13CIwChannelPCMIsE17GenerateAudioFastEPsiiiiPi:
.LFB1580:
	.loc 12 181 0
	.cfi_startproc
	@ args = 12, pretend = 0, frame = 88
	@ frame_needed = 0, uses_anonymous_args = 0
	stmfd	sp!, {r4, lr}
.LCFI97:
	.cfi_def_cfa_offset 8
	sub	sp, sp, #88
.LCFI98:
	.cfi_def_cfa_offset 96
	str	r0, [sp, #12]
	str	r1, [sp, #8]
	str	r2, [sp, #4]
	str	r3, [sp, #0]
.LBB67:
	.loc 12 184 0
	ldr	r3, [sp, #4]
	cmp	r3, #0
	bne	.L549
	.cfi_offset 14, -4
	.cfi_offset 4, -8
	.loc 12 185 0
	ldr	r3, [sp, #100]
	b	.L550
.L549:
.LBB68:
	.loc 12 187 0
	ldr	r3, [sp, #8]
	str	r3, [sp, #16]
	.loc 12 188 0
	ldr	r3, [sp, #12]
	ldr	r3, [r3, #0]
	str	r3, [sp, #20]
	.loc 12 190 0
	ldr	r3, [sp, #12]
	ldr	r3, [r3, #12]
	str	r3, [sp, #24]
	.loc 12 192 0
	ldr	r3, [sp, #12]
	ldr	r3, [r3, #8]
	sub	r3, r3, #2
	str	r3, [sp, #28]
	.loc 12 193 0
	ldr	r4, .L578
	.loc 12 194 0
	ldr	r3, [sp, #100]
	cmp	r3, #0
	beq	.L564
	.loc 12 197 0
	b	.L553
.L552:
	b	.L553
.L556:
	.loc 12 199 0
	ldr	r3, [sp, #4]
	cmp	r3, #0
	beq	.L574
.LBB69:
	.loc 12 201 0
	ldr	r3, [sp, #20]
	ldrh	r3, [r3, #0]
	mov	r3, r3, asl #16
	mov	r3, r3, asr #16
	str	r3, [sp, #32]
	.loc 12 202 0
	ldr	r3, [sp, #20]
	ldrh	r3, [r3, #0]
	mov	r3, r3, asl #16
	mov	r3, r3, asr #16
	str	r3, [sp, #36]
	.loc 12 204 0
	ldr	r3, [sp, #8]
	ldrh	r3, [r3, #0]
	mov	r3, r3, asl #16
	mov	r3, r3, asr #16
	str	r3, [sp, #40]
	.loc 12 205 0
	ldr	r2, [sp, #36]
	ldr	r3, [sp, #32]
	rsb	r3, r3, r2
	ldr	r2, [sp, #24]
	mul	r3, r2, r3
	mov	r2, r3, asr #12
	ldr	r3, [sp, #32]
	add	r3, r2, r3
	str	r3, [sp, #44]
	.loc 12 207 0
	ldr	r3, [sp, #44]
	ldr	r2, [sp, #96]
	mul	r3, r2, r3
	mov	r2, r3, asr #8
	ldr	r3, [sp, #40]
	add	r3, r2, r3
	mov	r0, r3
	bl	_ZN13CIwChannelPCMIsE13clip_to_int16Ei
	mov	r3, r0
	mov	r3, r3, asl #16
	mov	r2, r3, lsr #16
	ldr	r3, [sp, #8]
	strh	r2, [r3, #0]	@ movhi
	ldr	r3, [sp, #8]
	add	r3, r3, #2
	str	r3, [sp, #8]
	.loc 12 209 0
	ldr	r2, [sp, #24]
	ldr	r3, [sp, #0]
	add	r3, r2, r3
	str	r3, [sp, #24]
	.loc 12 210 0
	ldr	r3, [sp, #24]
	mov	r3, r3, asr #12
	mov	r3, r3, asl #1
	ldr	r2, [sp, #20]
	add	r3, r2, r3
	str	r3, [sp, #20]
	.loc 12 211 0
	ldr	r3, [sp, #24]
	and	r3, r3, r4
	str	r3, [sp, #24]
	.loc 12 212 0
	ldr	r3, [sp, #4]
	sub	r3, r3, #1
	str	r3, [sp, #4]
.L553:
.LBE69:
	.loc 12 197 0
	ldr	r2, [sp, #20]
	ldr	r3, [sp, #28]
	cmp	r2, r3
	movne	r3, #0
	moveq	r3, #1
	and	r3, r3, #255
	cmp	r3, #0
	bne	.L556
	.loc 12 217 0
	ldr	r2, [sp, #20]
	ldr	r3, [sp, #28]
	cmp	r2, r3
	bls	.L557
	.loc 12 221 0
	ldr	r3, [sp, #104]
	mov	r2, #1
	str	r2, [r3, #0]
	.loc 12 222 0
	b	.L555
.L557:
	.loc 12 225 0
	ldr	r3, [sp, #4]
	cmp	r3, #0
	beq	.L575
.L558:
	.loc 12 228 0
	ldr	r3, [sp, #96]
	cmp	r3, #0
	beq	.L559
.L561:
.LBB70:
	.loc 12 231 0
	ldr	r3, [sp, #20]
	ldrh	r3, [r3, #0]
	mov	r3, r3, asl #16
	mov	r3, r3, asr #16
	str	r3, [sp, #48]
	.loc 12 232 0
	ldr	r3, [sp, #20]
	add	r3, r3, #2
	ldrh	r3, [r3, #0]
	mov	r3, r3, asl #16
	mov	r3, r3, asr #16
	str	r3, [sp, #52]
	.loc 12 233 0
	ldr	r3, [sp, #8]
	ldrh	r3, [r3, #0]
	mov	r3, r3, asl #16
	mov	r3, r3, asr #16
	str	r3, [sp, #56]
	.loc 12 234 0
	ldr	r2, [sp, #52]
	ldr	r3, [sp, #48]
	rsb	r3, r3, r2
	ldr	r2, [sp, #24]
	mul	r3, r2, r3
	mov	r2, r3, asr #12
	ldr	r3, [sp, #48]
	add	r3, r2, r3
	str	r3, [sp, #60]
	.loc 12 237 0
	ldr	r3, [sp, #60]
	ldr	r2, [sp, #96]
	mul	r3, r2, r3
	mov	r2, r3, asr #8
	ldr	r3, [sp, #56]
	add	r3, r2, r3
	mov	r0, r3
	bl	_ZN13CIwChannelPCMIsE13clip_to_int16Ei
	mov	r3, r0
	mov	r3, r3, asl #16
	mov	r2, r3, lsr #16
	ldr	r3, [sp, #8]
	strh	r2, [r3, #0]	@ movhi
	ldr	r3, [sp, #8]
	add	r3, r3, #2
	str	r3, [sp, #8]
	.loc 12 239 0
	ldr	r2, [sp, #24]
	ldr	r3, [sp, #0]
	add	r3, r2, r3
	str	r3, [sp, #24]
	.loc 12 240 0
	ldr	r3, [sp, #24]
	mov	r3, r3, asr #12
	mov	r3, r3, asl #1
	ldr	r2, [sp, #20]
	add	r3, r2, r3
	str	r3, [sp, #20]
	.loc 12 241 0
	ldr	r3, [sp, #24]
	and	r3, r3, r4
	str	r3, [sp, #24]
	.loc 12 242 0
	ldr	r3, [sp, #4]
	sub	r3, r3, #1
	str	r3, [sp, #4]
	.loc 12 244 0
	ldr	r2, [sp, #20]
	ldr	r3, [sp, #28]
	cmp	r2, r3
	bcc	.L560
	.loc 12 245 0
	b	.L552
.L560:
.LBE70:
	.loc 12 230 0
	ldr	r3, [sp, #4]
	cmp	r3, #0
	moveq	r3, #0
	movne	r3, #1
	and	r3, r3, #255
	cmp	r3, #0
	bne	.L561
	.loc 12 251 0
	b	.L555
.L559:
	.loc 12 252 0
	ldr	r3, [sp, #8]
	add	r3, r3, #2
	str	r3, [sp, #8]
	.loc 12 253 0
	ldr	r2, [sp, #24]
	ldr	r3, [sp, #0]
	add	r3, r2, r3
	str	r3, [sp, #24]
	.loc 12 254 0
	ldr	r3, [sp, #24]
	mov	r3, r3, asr #12
	mov	r3, r3, asl #1
	ldr	r2, [sp, #20]
	add	r3, r2, r3
	str	r3, [sp, #20]
	.loc 12 255 0
	ldr	r3, [sp, #24]
	and	r3, r3, r4
	str	r3, [sp, #24]
	.loc 12 256 0
	ldr	r3, [sp, #4]
	sub	r3, r3, #1
	str	r3, [sp, #4]
	.loc 12 257 0
	ldr	r2, [sp, #20]
	ldr	r3, [sp, #28]
	cmp	r2, r3
	bcc	.L563
	.loc 12 258 0
	b	.L552
.L563:
	.loc 12 251 0
	ldr	r3, [sp, #4]
	cmp	r3, #0
	moveq	r3, #0
	movne	r3, #1
	and	r3, r3, #255
	cmp	r3, #0
	bne	.L559
	b	.L555
.L551:
	.loc 12 265 0
	b	.L564
.L566:
	.loc 12 267 0
	ldr	r3, [sp, #4]
	cmp	r3, #0
	beq	.L576
.LBB71:
	.loc 12 269 0
	ldr	r3, [sp, #20]
	ldrh	r3, [r3, #0]
	mov	r3, r3, asl #16
	mov	r3, r3, asr #16
	str	r3, [sp, #64]
	.loc 12 270 0
	ldr	r3, [sp, #20]
	ldrh	r3, [r3, #0]
	mov	r3, r3, asl #16
	mov	r3, r3, asr #16
	str	r3, [sp, #68]
	.loc 12 272 0
	ldr	r2, [sp, #68]
	ldr	r3, [sp, #64]
	rsb	r3, r3, r2
	ldr	r2, [sp, #24]
	mul	r3, r2, r3
	mov	r2, r3, asr #12
	ldr	r3, [sp, #64]
	add	r3, r2, r3
	str	r3, [sp, #72]
	.loc 12 274 0
	ldr	r3, [sp, #72]
	ldr	r2, [sp, #96]
	mul	r3, r2, r3
	mov	r3, r3, asr #8
	mov	r3, r3, asl #16
	mov	r2, r3, lsr #16
	ldr	r3, [sp, #8]
	strh	r2, [r3, #0]	@ movhi
	ldr	r3, [sp, #8]
	add	r3, r3, #2
	str	r3, [sp, #8]
	.loc 12 275 0
	ldr	r2, [sp, #24]
	ldr	r3, [sp, #0]
	add	r3, r2, r3
	str	r3, [sp, #24]
	.loc 12 276 0
	ldr	r3, [sp, #24]
	mov	r3, r3, asr #12
	mov	r3, r3, asl #1
	ldr	r2, [sp, #20]
	add	r3, r2, r3
	str	r3, [sp, #20]
	.loc 12 277 0
	ldr	r3, [sp, #24]
	and	r3, r3, r4
	str	r3, [sp, #24]
	.loc 12 278 0
	ldr	r3, [sp, #4]
	sub	r3, r3, #1
	str	r3, [sp, #4]
.L564:
.LBE71:
	.loc 12 265 0
	ldr	r2, [sp, #20]
	ldr	r3, [sp, #28]
	cmp	r2, r3
	movne	r3, #0
	moveq	r3, #1
	and	r3, r3, #255
	cmp	r3, #0
	bne	.L566
	.loc 12 283 0
	ldr	r2, [sp, #20]
	ldr	r3, [sp, #28]
	cmp	r2, r3
	bls	.L567
	.loc 12 285 0
	ldr	r3, [sp, #104]
	mov	r2, #1
	str	r2, [r3, #0]
	.loc 12 286 0
	b	.L555
.L567:
	.loc 12 288 0
	ldr	r3, [sp, #4]
	cmp	r3, #0
	beq	.L577
.L568:
	.loc 12 291 0
	ldr	r3, [sp, #96]
	cmp	r3, #0
	beq	.L569
.L571:
.LBB72:
	.loc 12 294 0
	ldr	r3, [sp, #20]
	ldrh	r3, [r3, #0]
	mov	r3, r3, asl #16
	mov	r3, r3, asr #16
	str	r3, [sp, #76]
	.loc 12 295 0
	ldr	r3, [sp, #20]
	add	r3, r3, #2
	ldrh	r3, [r3, #0]
	mov	r3, r3, asl #16
	mov	r3, r3, asr #16
	str	r3, [sp, #80]
	.loc 12 296 0
	ldr	r2, [sp, #80]
	ldr	r3, [sp, #76]
	rsb	r3, r3, r2
	ldr	r2, [sp, #24]
	mul	r3, r2, r3
	mov	r2, r3, asr #12
	ldr	r3, [sp, #76]
	add	r3, r2, r3
	str	r3, [sp, #84]
	.loc 12 298 0
	ldr	r3, [sp, #84]
	ldr	r2, [sp, #96]
	mul	r3, r2, r3
	mov	r3, r3, asr #8
	mov	r3, r3, asl #16
	mov	r2, r3, lsr #16
	ldr	r3, [sp, #8]
	strh	r2, [r3, #0]	@ movhi
	ldr	r3, [sp, #8]
	add	r3, r3, #2
	str	r3, [sp, #8]
	.loc 12 300 0
	ldr	r2, [sp, #24]
	ldr	r3, [sp, #0]
	add	r3, r2, r3
	str	r3, [sp, #24]
	.loc 12 301 0
	ldr	r3, [sp, #24]
	mov	r3, r3, asr #12
	mov	r3, r3, asl #1
	ldr	r2, [sp, #20]
	add	r3, r2, r3
	str	r3, [sp, #20]
	.loc 12 302 0
	ldr	r3, [sp, #24]
	and	r3, r3, r4
	str	r3, [sp, #24]
	.loc 12 303 0
	ldr	r3, [sp, #4]
	sub	r3, r3, #1
	str	r3, [sp, #4]
	.loc 12 305 0
	ldr	r2, [sp, #20]
	ldr	r3, [sp, #28]
	cmp	r2, r3
	bcc	.L570
	.loc 12 306 0
	b	.L551
.L570:
.LBE72:
	.loc 12 293 0
	ldr	r3, [sp, #4]
	cmp	r3, #0
	moveq	r3, #0
	movne	r3, #1
	and	r3, r3, #255
	cmp	r3, #0
	bne	.L571
	b	.L555
.L569:
	.loc 12 313 0
	ldr	r3, [sp, #8]
	mov	r2, #0
	strh	r2, [r3, #0]	@ movhi
	ldr	r3, [sp, #8]
	add	r3, r3, #2
	str	r3, [sp, #8]
	.loc 12 314 0
	ldr	r2, [sp, #24]
	ldr	r3, [sp, #0]
	add	r3, r2, r3
	str	r3, [sp, #24]
	.loc 12 315 0
	ldr	r3, [sp, #24]
	mov	r3, r3, asr #12
	mov	r3, r3, asl #1
	ldr	r2, [sp, #20]
	add	r3, r2, r3
	str	r3, [sp, #20]
	.loc 12 316 0
	ldr	r3, [sp, #24]
	and	r3, r3, r4
	str	r3, [sp, #24]
	.loc 12 317 0
	ldr	r3, [sp, #4]
	sub	r3, r3, #1
	str	r3, [sp, #4]
	.loc 12 318 0
	ldr	r2, [sp, #20]
	ldr	r3, [sp, #28]
	cmp	r2, r3
	bcc	.L572
	.loc 12 319 0
	b	.L551
.L572:
	.loc 12 312 0
	ldr	r3, [sp, #4]
	cmp	r3, #0
	moveq	r3, #0
	movne	r3, #1
	and	r3, r3, #255
	cmp	r3, #0
	bne	.L569
	b	.L555
.L574:
	.loc 12 215 0
	mov	r0, r0	@ nop
	b	.L555
.L575:
	.loc 12 226 0
	mov	r0, r0	@ nop
	b	.L555
.L576:
	.loc 12 281 0
	mov	r0, r0	@ nop
	b	.L555
.L577:
	.loc 12 289 0
	mov	r0, r0	@ nop
.L555:
	.loc 12 326 0
	ldr	r3, [sp, #12]
	ldr	r2, [sp, #20]
	str	r2, [r3, #0]
	.loc 12 327 0
	ldr	r3, [sp, #12]
	ldr	r2, [sp, #24]
	str	r2, [r3, #12]
	.loc 12 330 0
	ldr	r2, [sp, #8]
	ldr	r3, [sp, #16]
	rsb	r3, r3, r2
	mov	r3, r3, asr #1
.L550:
.LBE68:
.LBE67:
	.loc 12 332 0
	mov	r0, r3
	add	sp, sp, #88
	ldmfd	sp!, {r4, pc}
.L579:
	.align	2
.L578:
	.word	4095
	.cfi_endproc
.LFE1580:
	.size	_ZN13CIwChannelPCMIsE17GenerateAudioFastEPsiiiiPi, .-_ZN13CIwChannelPCMIsE17GenerateAudioFastEPsiiiiPi
	.section	.rodata
	.align	2
.LC48:
	.ascii	"sval >= minval\000"
	.align	2
.LC49:
	.ascii	"sval <= maxval\000"
	.section	.text._ZN13CIwChannelPCMIaE13clip_to_int16Ei,"axG",%progbits,_ZN13CIwChannelPCMIaE13clip_to_int16Ei,comdat
	.align	2
	.weak	_ZN13CIwChannelPCMIaE13clip_to_int16Ei
	.hidden	_ZN13CIwChannelPCMIaE13clip_to_int16Ei
	.type	_ZN13CIwChannelPCMIaE13clip_to_int16Ei, %function
_ZN13CIwChannelPCMIaE13clip_to_int16Ei:
.LFB1590:
	.loc 12 63 0
	.cfi_startproc
	@ args = 0, pretend = 0, frame = 8
	@ frame_needed = 0, uses_anonymous_args = 0
	str	lr, [sp, #-4]!
.LCFI99:
	.cfi_def_cfa_offset 4
	sub	sp, sp, #12
.LCFI100:
	.cfi_def_cfa_offset 16
	str	r0, [sp, #4]
.LBB73:
	.loc 12 69 0
	ldr	r3, [sp, #4]
	add	r3, r3, #32768
	mov	r3, r3, lsr #16
	mov	r3, r3, asl #16
	cmp	r3, #0
	beq	.L581
	.cfi_offset 14, -4
	.loc 12 72 0
	ldr	r2, [sp, #4]
	ldr	r3, .L614
	cmp	r2, r3
	ble	.L582
	.loc 12 73 0
	ldr	r3, .L614
	str	r3, [sp, #4]
	b	.L581
.L582:
	.loc 12 75 0
	ldr	r3, [sp, #4]
	cmn	r3, #32768
	bge	.L583
	.loc 12 76 0
	ldr	r3, .L614+4
	str	r3, [sp, #4]
	b	.L581
.L583:
.LBB74:
	.loc 12 79 0
	ldr	r0, .L614+8
	bl	IwDebugAssertIsChannelOn
	mov	r3, r0
	cmp	r3, #0
	beq	.L584
	ldr	r3, .L614+12
	ldrb	r3, [r3, #0]	@ zero_extendqisi2
	cmp	r3, #0
	bne	.L584
	mov	r3, #1
	b	.L585
.L584:
	mov	r3, #0
.L585:
	cmp	r3, #0
	beq	.L581
	mov	r0, #0
	bl	IwDebugAssertSetSolution
	mov	r0, #0
	bl	IwDebugAssertSetUID
	mov	r0, #0
	bl	IwDebugAssertSetMessage
	ldr	r0, .L614+16
	ldr	r1, .L614+20
	mov	r2, #79
	mov	r3, #1
	bl	IwDebugAssertShow
	mov	r3, r0
	cmp	r3, #1
	beq	.L587
	cmp	r3, #2
	beq	.L588
	b	.L586
.L587:
	bl	s3eDebugIsDebuggerPresent
	mov	r3, r0
	cmp	r3, #0
	moveq	r3, #0
	movne	r3, #1
	and	r3, r3, #255
	cmp	r3, #0
	beq	.L589
	bl	s3eDebugIsDebuggerPresent
	mov	r3, r0
	cmp	r3, #0
	moveq	r3, #0
	movne	r3, #1
	and	r3, r3, #255
	cmp	r3, #0
	beq	.L611
	mvn	r3, #11
	mov	r2, #0
	str	r2, [r3, #0]
	b	.L586
.L589:
	bl	_ZL11IwDebugExitv
	b	.L586
.L588:
	ldr	r3, .L614+12
	mov	r2, #1
	strb	r2, [r3, #0]
	b	.L586
.L611:
	mov	r0, r0	@ nop
.L586:
	mov	r0, #0
	bl	IwDebugAssertSetUID
.L581:
.LBE74:
.LBB75:
	.loc 12 83 0
	ldr	r3, [sp, #4]
	cmn	r3, #32768
	bge	.L592
	ldr	r0, .L614+8
	bl	IwDebugAssertIsChannelOn
	mov	r3, r0
	cmp	r3, #0
	beq	.L592
	ldr	r3, .L614+24
	ldrb	r3, [r3, #0]	@ zero_extendqisi2
	cmp	r3, #0
	bne	.L592
	mov	r3, #1
	b	.L593
.L592:
	mov	r3, #0
.L593:
	cmp	r3, #0
	beq	.L594
	mov	r0, #0
	bl	IwDebugAssertSetSolution
	mov	r0, #0
	bl	IwDebugAssertSetUID
	mov	r0, #0
	bl	IwDebugAssertSetMessage
	ldr	r0, .L614+28
	ldr	r1, .L614+20
	mov	r2, #83
	mov	r3, #1
	bl	IwDebugAssertShow
	mov	r3, r0
	cmp	r3, #1
	beq	.L596
	cmp	r3, #2
	beq	.L597
	b	.L595
.L596:
	bl	s3eDebugIsDebuggerPresent
	mov	r3, r0
	cmp	r3, #0
	moveq	r3, #0
	movne	r3, #1
	and	r3, r3, #255
	cmp	r3, #0
	beq	.L598
	bl	s3eDebugIsDebuggerPresent
	mov	r3, r0
	cmp	r3, #0
	moveq	r3, #0
	movne	r3, #1
	and	r3, r3, #255
	cmp	r3, #0
	beq	.L612
	mvn	r3, #11
	mov	r2, #0
	str	r2, [r3, #0]
	b	.L595
.L598:
	bl	_ZL11IwDebugExitv
	b	.L595
.L597:
	ldr	r3, .L614+24
	mov	r2, #1
	strb	r2, [r3, #0]
	b	.L595
.L612:
	mov	r0, r0	@ nop
.L595:
	mov	r0, #0
	bl	IwDebugAssertSetUID
.L594:
.LBE75:
.LBB76:
	.loc 12 84 0
	ldr	r2, [sp, #4]
	ldr	r3, .L614
	cmp	r2, r3
	ble	.L601
	ldr	r0, .L614+8
	bl	IwDebugAssertIsChannelOn
	mov	r3, r0
	cmp	r3, #0
	beq	.L601
	ldr	r3, .L614+32
	ldrb	r3, [r3, #0]	@ zero_extendqisi2
	cmp	r3, #0
	bne	.L601
	mov	r3, #1
	b	.L602
.L601:
	mov	r3, #0
.L602:
	cmp	r3, #0
	beq	.L603
	mov	r0, #0
	bl	IwDebugAssertSetSolution
	mov	r0, #0
	bl	IwDebugAssertSetUID
	mov	r0, #0
	bl	IwDebugAssertSetMessage
	ldr	r0, .L614+36
	ldr	r1, .L614+20
	mov	r2, #84
	mov	r3, #1
	bl	IwDebugAssertShow
	mov	r3, r0
	cmp	r3, #1
	beq	.L605
	cmp	r3, #2
	beq	.L606
	b	.L604
.L605:
	bl	s3eDebugIsDebuggerPresent
	mov	r3, r0
	cmp	r3, #0
	moveq	r3, #0
	movne	r3, #1
	and	r3, r3, #255
	cmp	r3, #0
	beq	.L607
	bl	s3eDebugIsDebuggerPresent
	mov	r3, r0
	cmp	r3, #0
	moveq	r3, #0
	movne	r3, #1
	and	r3, r3, #255
	cmp	r3, #0
	beq	.L613
	mvn	r3, #11
	mov	r2, #0
	str	r2, [r3, #0]
	b	.L604
.L607:
	bl	_ZL11IwDebugExitv
	b	.L604
.L606:
	ldr	r3, .L614+32
	mov	r2, #1
	strb	r2, [r3, #0]
	b	.L604
.L613:
	mov	r0, r0	@ nop
.L604:
	mov	r0, #0
	bl	IwDebugAssertSetUID
.L603:
.LBE76:
	.loc 12 86 0
	ldr	r3, [sp, #4]
	mov	r3, r3, asl #16
	mov	r3, r3, lsr #16
	mov	r3, r3, asl #16
	mov	r3, r3, asr #16
.LBE73:
	.loc 12 87 0
	mov	r0, r3
	add	sp, sp, #12
	ldmfd	sp!, {pc}
.L615:
	.align	2
.L614:
	.word	32767
	.word	-32768
	.word	.LC18
	.word	_ZZN13CIwChannelPCMIaE13clip_to_int16EiE21_s_IwAssertIgnoreThis
	.word	.LC25
	.word	.LC46
	.word	_ZZN13CIwChannelPCMIaE13clip_to_int16EiE21_s_IwAssertIgnoreThis_0
	.word	.LC48
	.word	_ZZN13CIwChannelPCMIaE13clip_to_int16EiE21_s_IwAssertIgnoreThis_1
	.word	.LC49
	.cfi_endproc
.LFE1590:
	.size	_ZN13CIwChannelPCMIaE13clip_to_int16Ei, .-_ZN13CIwChannelPCMIaE13clip_to_int16Ei
	.section	.text._ZN13CIwChannelPCMIsE13clip_to_int16Ei,"axG",%progbits,_ZN13CIwChannelPCMIsE13clip_to_int16Ei,comdat
	.align	2
	.weak	_ZN13CIwChannelPCMIsE13clip_to_int16Ei
	.hidden	_ZN13CIwChannelPCMIsE13clip_to_int16Ei
	.type	_ZN13CIwChannelPCMIsE13clip_to_int16Ei, %function
_ZN13CIwChannelPCMIsE13clip_to_int16Ei:
.LFB1591:
	.loc 12 63 0
	.cfi_startproc
	@ args = 0, pretend = 0, frame = 8
	@ frame_needed = 0, uses_anonymous_args = 0
	str	lr, [sp, #-4]!
.LCFI101:
	.cfi_def_cfa_offset 4
	sub	sp, sp, #12
.LCFI102:
	.cfi_def_cfa_offset 16
	str	r0, [sp, #4]
.LBB77:
	.loc 12 69 0
	ldr	r3, [sp, #4]
	add	r3, r3, #32768
	mov	r3, r3, lsr #16
	mov	r3, r3, asl #16
	cmp	r3, #0
	beq	.L617
	.cfi_offset 14, -4
	.loc 12 72 0
	ldr	r2, [sp, #4]
	ldr	r3, .L650
	cmp	r2, r3
	ble	.L618
	.loc 12 73 0
	ldr	r3, .L650
	str	r3, [sp, #4]
	b	.L617
.L618:
	.loc 12 75 0
	ldr	r3, [sp, #4]
	cmn	r3, #32768
	bge	.L619
	.loc 12 76 0
	ldr	r3, .L650+4
	str	r3, [sp, #4]
	b	.L617
.L619:
.LBB78:
	.loc 12 79 0
	ldr	r0, .L650+8
	bl	IwDebugAssertIsChannelOn
	mov	r3, r0
	cmp	r3, #0
	beq	.L620
	ldr	r3, .L650+12
	ldrb	r3, [r3, #0]	@ zero_extendqisi2
	cmp	r3, #0
	bne	.L620
	mov	r3, #1
	b	.L621
.L620:
	mov	r3, #0
.L621:
	cmp	r3, #0
	beq	.L617
	mov	r0, #0
	bl	IwDebugAssertSetSolution
	mov	r0, #0
	bl	IwDebugAssertSetUID
	mov	r0, #0
	bl	IwDebugAssertSetMessage
	ldr	r0, .L650+16
	ldr	r1, .L650+20
	mov	r2, #79
	mov	r3, #1
	bl	IwDebugAssertShow
	mov	r3, r0
	cmp	r3, #1
	beq	.L623
	cmp	r3, #2
	beq	.L624
	b	.L622
.L623:
	bl	s3eDebugIsDebuggerPresent
	mov	r3, r0
	cmp	r3, #0
	moveq	r3, #0
	movne	r3, #1
	and	r3, r3, #255
	cmp	r3, #0
	beq	.L625
	bl	s3eDebugIsDebuggerPresent
	mov	r3, r0
	cmp	r3, #0
	moveq	r3, #0
	movne	r3, #1
	and	r3, r3, #255
	cmp	r3, #0
	beq	.L647
	mvn	r3, #11
	mov	r2, #0
	str	r2, [r3, #0]
	b	.L622
.L625:
	bl	_ZL11IwDebugExitv
	b	.L622
.L624:
	ldr	r3, .L650+12
	mov	r2, #1
	strb	r2, [r3, #0]
	b	.L622
.L647:
	mov	r0, r0	@ nop
.L622:
	mov	r0, #0
	bl	IwDebugAssertSetUID
.L617:
.LBE78:
.LBB79:
	.loc 12 83 0
	ldr	r3, [sp, #4]
	cmn	r3, #32768
	bge	.L628
	ldr	r0, .L650+8
	bl	IwDebugAssertIsChannelOn
	mov	r3, r0
	cmp	r3, #0
	beq	.L628
	ldr	r3, .L650+24
	ldrb	r3, [r3, #0]	@ zero_extendqisi2
	cmp	r3, #0
	bne	.L628
	mov	r3, #1
	b	.L629
.L628:
	mov	r3, #0
.L629:
	cmp	r3, #0
	beq	.L630
	mov	r0, #0
	bl	IwDebugAssertSetSolution
	mov	r0, #0
	bl	IwDebugAssertSetUID
	mov	r0, #0
	bl	IwDebugAssertSetMessage
	ldr	r0, .L650+28
	ldr	r1, .L650+20
	mov	r2, #83
	mov	r3, #1
	bl	IwDebugAssertShow
	mov	r3, r0
	cmp	r3, #1
	beq	.L632
	cmp	r3, #2
	beq	.L633
	b	.L631
.L632:
	bl	s3eDebugIsDebuggerPresent
	mov	r3, r0
	cmp	r3, #0
	moveq	r3, #0
	movne	r3, #1
	and	r3, r3, #255
	cmp	r3, #0
	beq	.L634
	bl	s3eDebugIsDebuggerPresent
	mov	r3, r0
	cmp	r3, #0
	moveq	r3, #0
	movne	r3, #1
	and	r3, r3, #255
	cmp	r3, #0
	beq	.L648
	mvn	r3, #11
	mov	r2, #0
	str	r2, [r3, #0]
	b	.L631
.L634:
	bl	_ZL11IwDebugExitv
	b	.L631
.L633:
	ldr	r3, .L650+24
	mov	r2, #1
	strb	r2, [r3, #0]
	b	.L631
.L648:
	mov	r0, r0	@ nop
.L631:
	mov	r0, #0
	bl	IwDebugAssertSetUID
.L630:
.LBE79:
.LBB80:
	.loc 12 84 0
	ldr	r2, [sp, #4]
	ldr	r3, .L650
	cmp	r2, r3
	ble	.L637
	ldr	r0, .L650+8
	bl	IwDebugAssertIsChannelOn
	mov	r3, r0
	cmp	r3, #0
	beq	.L637
	ldr	r3, .L650+32
	ldrb	r3, [r3, #0]	@ zero_extendqisi2
	cmp	r3, #0
	bne	.L637
	mov	r3, #1
	b	.L638
.L637:
	mov	r3, #0
.L638:
	cmp	r3, #0
	beq	.L639
	mov	r0, #0
	bl	IwDebugAssertSetSolution
	mov	r0, #0
	bl	IwDebugAssertSetUID
	mov	r0, #0
	bl	IwDebugAssertSetMessage
	ldr	r0, .L650+36
	ldr	r1, .L650+20
	mov	r2, #84
	mov	r3, #1
	bl	IwDebugAssertShow
	mov	r3, r0
	cmp	r3, #1
	beq	.L641
	cmp	r3, #2
	beq	.L642
	b	.L640
.L641:
	bl	s3eDebugIsDebuggerPresent
	mov	r3, r0
	cmp	r3, #0
	moveq	r3, #0
	movne	r3, #1
	and	r3, r3, #255
	cmp	r3, #0
	beq	.L643
	bl	s3eDebugIsDebuggerPresent
	mov	r3, r0
	cmp	r3, #0
	moveq	r3, #0
	movne	r3, #1
	and	r3, r3, #255
	cmp	r3, #0
	beq	.L649
	mvn	r3, #11
	mov	r2, #0
	str	r2, [r3, #0]
	b	.L640
.L643:
	bl	_ZL11IwDebugExitv
	b	.L640
.L642:
	ldr	r3, .L650+32
	mov	r2, #1
	strb	r2, [r3, #0]
	b	.L640
.L649:
	mov	r0, r0	@ nop
.L640:
	mov	r0, #0
	bl	IwDebugAssertSetUID
.L639:
.LBE80:
	.loc 12 86 0
	ldr	r3, [sp, #4]
	mov	r3, r3, asl #16
	mov	r3, r3, lsr #16
	mov	r3, r3, asl #16
	mov	r3, r3, asr #16
.LBE77:
	.loc 12 87 0
	mov	r0, r3
	add	sp, sp, #12
	ldmfd	sp!, {pc}
.L651:
	.align	2
.L650:
	.word	32767
	.word	-32768
	.word	.LC18
	.word	_ZZN13CIwChannelPCMIsE13clip_to_int16EiE21_s_IwAssertIgnoreThis
	.word	.LC25
	.word	.LC46
	.word	_ZZN13CIwChannelPCMIsE13clip_to_int16EiE21_s_IwAssertIgnoreThis_0
	.word	.LC48
	.word	_ZZN13CIwChannelPCMIsE13clip_to_int16EiE21_s_IwAssertIgnoreThis_1
	.word	.LC49
	.cfi_endproc
.LFE1591:
	.size	_ZN13CIwChannelPCMIsE13clip_to_int16Ei, .-_ZN13CIwChannelPCMIsE13clip_to_int16Ei
	.hidden	_ZTV16CIwMenuItemSound
	.global	_ZTV16CIwMenuItemSound
	.section	.rodata
	.align	3
	.type	_ZTV16CIwMenuItemSound, %object
	.size	_ZTV16CIwMenuItemSound, 52
_ZTV16CIwMenuItemSound:
	.word	0
	.word	_ZTI16CIwMenuItemSound
	.word	_ZN16CIwMenuItemSoundD1Ev
	.word	_ZN16CIwMenuItemSoundD0Ev
	.word	_ZN11CIwMenuItem6UpdateEb
	.word	_ZN11CIwMenuItem6RenderEii
	.word	_ZN11CIwMenuItem5EnterEv
	.word	_ZN11CIwMenuItem4ExitEv
	.word	_ZN16CIwMenuItemSound6SelectEv
	.word	_ZN11CIwMenuItem4BackEv
	.word	_ZN11CIwMenuItem3RunEv
	.word	_ZN11CIwMenuItem4PlusEv
	.word	_ZN11CIwMenuItem5MinusEv
	.hidden	_ZTV15CIwSoundManager
	.global	_ZTV15CIwSoundManager
	.align	3
	.type	_ZTV15CIwSoundManager, %object
	.size	_ZTV15CIwSoundManager, 16
_ZTV15CIwSoundManager:
	.word	0
	.word	_ZTI15CIwSoundManager
	.word	_ZN15CIwSoundManagerD1Ev
	.word	_ZN15CIwSoundManagerD0Ev
	.hidden	_ZTV16CIwMenuItemTitle
	.weak	_ZTV16CIwMenuItemTitle
	.section	.rodata._ZTV16CIwMenuItemTitle,"aG",%progbits,_ZTV16CIwMenuItemTitle,comdat
	.align	3
	.type	_ZTV16CIwMenuItemTitle, %object
	.size	_ZTV16CIwMenuItemTitle, 52
_ZTV16CIwMenuItemTitle:
	.word	0
	.word	_ZTI16CIwMenuItemTitle
	.word	_ZN16CIwMenuItemTitleD1Ev
	.word	_ZN16CIwMenuItemTitleD0Ev
	.word	_ZN11CIwMenuItem6UpdateEb
	.word	_ZN11CIwMenuItem6RenderEii
	.word	_ZN11CIwMenuItem5EnterEv
	.word	_ZN11CIwMenuItem4ExitEv
	.word	_ZN11CIwMenuItem6SelectEv
	.word	_ZN11CIwMenuItem4BackEv
	.word	_ZN11CIwMenuItem3RunEv
	.word	_ZN11CIwMenuItem4PlusEv
	.word	_ZN11CIwMenuItem5MinusEv
	.hidden	_ZTV21CIwMenuItemEditUInt32
	.weak	_ZTV21CIwMenuItemEditUInt32
	.section	.rodata._ZTV21CIwMenuItemEditUInt32,"aG",%progbits,_ZTV21CIwMenuItemEditUInt32,comdat
	.align	3
	.type	_ZTV21CIwMenuItemEditUInt32, %object
	.size	_ZTV21CIwMenuItemEditUInt32, 56
_ZTV21CIwMenuItemEditUInt32:
	.word	0
	.word	_ZTI21CIwMenuItemEditUInt32
	.word	_ZN21CIwMenuItemEditUInt32D1Ev
	.word	_ZN21CIwMenuItemEditUInt32D0Ev
	.word	_ZN11CIwMenuItem6UpdateEb
	.word	_ZN20CIwMenuItemEditValue6RenderEii
	.word	_ZN11CIwMenuItem5EnterEv
	.word	_ZN11CIwMenuItem4ExitEv
	.word	_ZN11CIwMenuItem6SelectEv
	.word	_ZN20CIwMenuItemEditValue4BackEv
	.word	_ZN11CIwMenuItem3RunEv
	.word	_ZN20CIwMenuItemEditValue4PlusEv
	.word	_ZN20CIwMenuItemEditValue5MinusEv
	.word	_ZN20CIwMenuItemEditValue10EditMemberEf
	.hidden	_ZTI16CIwMenuItemSound
	.global	_ZTI16CIwMenuItemSound
	.section	.rodata
	.align	2
	.type	_ZTI16CIwMenuItemSound, %object
	.size	_ZTI16CIwMenuItemSound, 12
_ZTI16CIwMenuItemSound:
	.word	_ZTVN10__cxxabiv120__si_class_type_infoE+8
	.word	_ZTS16CIwMenuItemSound
	.word	_ZTI11CIwMenuItem
	.hidden	_ZTS16CIwMenuItemSound
	.global	_ZTS16CIwMenuItemSound
	.align	2
	.type	_ZTS16CIwMenuItemSound, %object
	.size	_ZTS16CIwMenuItemSound, 19
_ZTS16CIwMenuItemSound:
	.ascii	"16CIwMenuItemSound\000"
	.hidden	_ZTI15CIwSoundManager
	.global	_ZTI15CIwSoundManager
	.align	2
	.type	_ZTI15CIwSoundManager, %object
	.size	_ZTI15CIwSoundManager, 8
_ZTI15CIwSoundManager:
	.word	_ZTVN10__cxxabiv117__class_type_infoE+8
	.word	_ZTS15CIwSoundManager
	.hidden	_ZTS15CIwSoundManager
	.global	_ZTS15CIwSoundManager
	.align	2
	.type	_ZTS15CIwSoundManager, %object
	.size	_ZTS15CIwSoundManager, 18
_ZTS15CIwSoundManager:
	.ascii	"15CIwSoundManager\000"
	.hidden	_ZTS16CIwMenuItemTitle
	.weak	_ZTS16CIwMenuItemTitle
	.section	.rodata._ZTS16CIwMenuItemTitle,"aG",%progbits,_ZTS16CIwMenuItemTitle,comdat
	.align	2
	.type	_ZTS16CIwMenuItemTitle, %object
	.size	_ZTS16CIwMenuItemTitle, 19
_ZTS16CIwMenuItemTitle:
	.ascii	"16CIwMenuItemTitle\000"
	.hidden	_ZTI16CIwMenuItemTitle
	.weak	_ZTI16CIwMenuItemTitle
	.section	.rodata._ZTI16CIwMenuItemTitle,"aG",%progbits,_ZTI16CIwMenuItemTitle,comdat
	.align	2
	.type	_ZTI16CIwMenuItemTitle, %object
	.size	_ZTI16CIwMenuItemTitle, 12
_ZTI16CIwMenuItemTitle:
	.word	_ZTVN10__cxxabiv120__si_class_type_infoE+8
	.word	_ZTS16CIwMenuItemTitle
	.word	_ZTI11CIwMenuItem
	.hidden	_ZTS21CIwMenuItemEditUInt32
	.weak	_ZTS21CIwMenuItemEditUInt32
	.section	.rodata._ZTS21CIwMenuItemEditUInt32,"aG",%progbits,_ZTS21CIwMenuItemEditUInt32,comdat
	.align	2
	.type	_ZTS21CIwMenuItemEditUInt32, %object
	.size	_ZTS21CIwMenuItemEditUInt32, 24
_ZTS21CIwMenuItemEditUInt32:
	.ascii	"21CIwMenuItemEditUInt32\000"
	.hidden	_ZTI21CIwMenuItemEditUInt32
	.weak	_ZTI21CIwMenuItemEditUInt32
	.section	.rodata._ZTI21CIwMenuItemEditUInt32,"aG",%progbits,_ZTI21CIwMenuItemEditUInt32,comdat
	.align	2
	.type	_ZTI21CIwMenuItemEditUInt32, %object
	.size	_ZTI21CIwMenuItemEditUInt32, 12
_ZTI21CIwMenuItemEditUInt32:
	.word	_ZTVN10__cxxabiv120__si_class_type_infoE+8
	.word	_ZTS21CIwMenuItemEditUInt32
	.word	_ZTI20CIwMenuItemEditValue
	.section	.text._ZN16CIwMenuItemSoundD1Ev,"axG",%progbits,_ZN16CIwMenuItemSoundD1Ev,comdat
	.align	2
	.weak	_ZN16CIwMenuItemSoundD1Ev
	.hidden	_ZN16CIwMenuItemSoundD1Ev
	.type	_ZN16CIwMenuItemSoundD1Ev, %function
_ZN16CIwMenuItemSoundD1Ev:
.LFB1607:
	.loc 7 201 0
	.cfi_startproc
	@ args = 0, pretend = 0, frame = 8
	@ frame_needed = 0, uses_anonymous_args = 0
	str	lr, [sp, #-4]!
.LCFI103:
	.cfi_def_cfa_offset 4
	sub	sp, sp, #12
.LCFI104:
	.cfi_def_cfa_offset 16
	str	r0, [sp, #4]
	.loc 7 201 0
	ldr	r3, [sp, #4]
	ldr	r2, .L656
	str	r2, [r3, #0]
	ldr	r3, [sp, #4]
	mov	r0, r3
	.cfi_offset 14, -4
	bl	_ZN11CIwMenuItemD2Ev
	mov	r3, #0
	and	r3, r3, #255
	cmp	r3, #0
	beq	.L654
	ldr	r0, [sp, #4]
	bl	_ZdlPv
.L654:
	ldr	r3, [sp, #4]
	mov	r0, r3
	add	sp, sp, #12
	ldmfd	sp!, {pc}
.L657:
	.align	2
.L656:
	.word	_ZTV16CIwMenuItemSound+8
	.cfi_endproc
.LFE1607:
	.size	_ZN16CIwMenuItemSoundD1Ev, .-_ZN16CIwMenuItemSoundD1Ev
	.section	.text._ZN16CIwMenuItemSoundD0Ev,"axG",%progbits,_ZN16CIwMenuItemSoundD0Ev,comdat
	.align	2
	.weak	_ZN16CIwMenuItemSoundD0Ev
	.hidden	_ZN16CIwMenuItemSoundD0Ev
	.type	_ZN16CIwMenuItemSoundD0Ev, %function
_ZN16CIwMenuItemSoundD0Ev:
.LFB1608:
	.loc 7 201 0
	.cfi_startproc
	@ args = 0, pretend = 0, frame = 8
	@ frame_needed = 0, uses_anonymous_args = 0
	str	lr, [sp, #-4]!
.LCFI105:
	.cfi_def_cfa_offset 4
	sub	sp, sp, #12
.LCFI106:
	.cfi_def_cfa_offset 16
	str	r0, [sp, #4]
	.loc 7 201 0
	ldr	r3, [sp, #4]
	ldr	r2, .L662
	str	r2, [r3, #0]
	ldr	r3, [sp, #4]
	mov	r0, r3
	.cfi_offset 14, -4
	bl	_ZN11CIwMenuItemD2Ev
	mov	r3, #1
	and	r3, r3, #255
	cmp	r3, #0
	beq	.L660
	ldr	r0, [sp, #4]
	bl	_ZdlPv
.L660:
	ldr	r3, [sp, #4]
	mov	r0, r3
	add	sp, sp, #12
	ldmfd	sp!, {pc}
.L663:
	.align	2
.L662:
	.word	_ZTV16CIwMenuItemSound+8
	.cfi_endproc
.LFE1608:
	.size	_ZN16CIwMenuItemSoundD0Ev, .-_ZN16CIwMenuItemSoundD0Ev
	.section	.text._ZN16CIwMenuItemTitleD1Ev,"axG",%progbits,_ZN16CIwMenuItemTitleD1Ev,comdat
	.align	2
	.weak	_ZN16CIwMenuItemTitleD1Ev
	.hidden	_ZN16CIwMenuItemTitleD1Ev
	.type	_ZN16CIwMenuItemTitleD1Ev, %function
_ZN16CIwMenuItemTitleD1Ev:
.LFB1643:
	.loc 4 699 0
	.cfi_startproc
	@ args = 0, pretend = 0, frame = 8
	@ frame_needed = 0, uses_anonymous_args = 0
	str	lr, [sp, #-4]!
.LCFI107:
	.cfi_def_cfa_offset 4
	sub	sp, sp, #12
.LCFI108:
	.cfi_def_cfa_offset 16
	str	r0, [sp, #4]
	.loc 4 699 0
	ldr	r3, [sp, #4]
	ldr	r2, .L668
	str	r2, [r3, #0]
	ldr	r3, [sp, #4]
	mov	r0, r3
	.cfi_offset 14, -4
	bl	_ZN11CIwMenuItemD2Ev
	mov	r3, #0
	and	r3, r3, #255
	cmp	r3, #0
	beq	.L666
	ldr	r0, [sp, #4]
	bl	_ZdlPv
.L666:
	ldr	r3, [sp, #4]
	mov	r0, r3
	add	sp, sp, #12
	ldmfd	sp!, {pc}
.L669:
	.align	2
.L668:
	.word	_ZTV16CIwMenuItemTitle+8
	.cfi_endproc
.LFE1643:
	.size	_ZN16CIwMenuItemTitleD1Ev, .-_ZN16CIwMenuItemTitleD1Ev
	.section	.text._ZN16CIwMenuItemTitleD0Ev,"axG",%progbits,_ZN16CIwMenuItemTitleD0Ev,comdat
	.align	2
	.weak	_ZN16CIwMenuItemTitleD0Ev
	.hidden	_ZN16CIwMenuItemTitleD0Ev
	.type	_ZN16CIwMenuItemTitleD0Ev, %function
_ZN16CIwMenuItemTitleD0Ev:
.LFB1644:
	.loc 4 699 0
	.cfi_startproc
	@ args = 0, pretend = 0, frame = 8
	@ frame_needed = 0, uses_anonymous_args = 0
	str	lr, [sp, #-4]!
.LCFI109:
	.cfi_def_cfa_offset 4
	sub	sp, sp, #12
.LCFI110:
	.cfi_def_cfa_offset 16
	str	r0, [sp, #4]
	.loc 4 699 0
	ldr	r3, [sp, #4]
	ldr	r2, .L674
	str	r2, [r3, #0]
	ldr	r3, [sp, #4]
	mov	r0, r3
	.cfi_offset 14, -4
	bl	_ZN11CIwMenuItemD2Ev
	mov	r3, #1
	and	r3, r3, #255
	cmp	r3, #0
	beq	.L672
	ldr	r0, [sp, #4]
	bl	_ZdlPv
.L672:
	ldr	r3, [sp, #4]
	mov	r0, r3
	add	sp, sp, #12
	ldmfd	sp!, {pc}
.L675:
	.align	2
.L674:
	.word	_ZTV16CIwMenuItemTitle+8
	.cfi_endproc
.LFE1644:
	.size	_ZN16CIwMenuItemTitleD0Ev, .-_ZN16CIwMenuItemTitleD0Ev
	.bss
_ZZN15CIwSoundManager11SetFreeInstEP12CIwSoundInstE21_s_IwAssertIgnoreThis:
	.space	1
_ZZN15CIwSoundManager11SetFreeInstEP12CIwSoundInstE21_s_IwAssertIgnoreThis_0:
	.space	1
_ZZN15CIwSoundManager11SetFreeInstEP12CIwSoundInstE21_s_IwAssertIgnoreThis_1:
	.space	1
_ZZN15CIwSoundManager11GetFreeInstEvE21_s_IwAssertIgnoreThis:
	.space	1
_ZZN15CIwSoundManager11GetFreeInstEvE21_s_IwAssertIgnoreThis_0:
	.space	1
	.hidden	_ZZN13CIwChannelPCMIsE13GenerateAudioEP20s3eSoundGenAudioInfoE21_s_IwAssertIgnoreThis
	.weak	_ZZN13CIwChannelPCMIsE13GenerateAudioEP20s3eSoundGenAudioInfoE21_s_IwAssertIgnoreThis
	.section	.bss._ZZN13CIwChannelPCMIsE13GenerateAudioEP20s3eSoundGenAudioInfoE21_s_IwAssertIgnoreThis,"awG",%nobits,_ZZN13CIwChannelPCMIsE13GenerateAudioEP20s3eSoundGenAudioInfoE21_s_IwAssertIgnoreThis,comdat
	.type	_ZZN13CIwChannelPCMIsE13GenerateAudioEP20s3eSoundGenAudioInfoE21_s_IwAssertIgnoreThis, %object
	.size	_ZZN13CIwChannelPCMIsE13GenerateAudioEP20s3eSoundGenAudioInfoE21_s_IwAssertIgnoreThis, 1
_ZZN13CIwChannelPCMIsE13GenerateAudioEP20s3eSoundGenAudioInfoE21_s_IwAssertIgnoreThis:
	.space	1
	.hidden	_ZZN13CIwChannelPCMIsE13GenerateAudioEP20s3eSoundGenAudioInfoE21_s_IwAssertIgnoreThis_0
	.weak	_ZZN13CIwChannelPCMIsE13GenerateAudioEP20s3eSoundGenAudioInfoE21_s_IwAssertIgnoreThis_0
	.section	.bss._ZZN13CIwChannelPCMIsE13GenerateAudioEP20s3eSoundGenAudioInfoE21_s_IwAssertIgnoreThis_0,"awG",%nobits,_ZZN13CIwChannelPCMIsE13GenerateAudioEP20s3eSoundGenAudioInfoE21_s_IwAssertIgnoreThis_0,comdat
	.type	_ZZN13CIwChannelPCMIsE13GenerateAudioEP20s3eSoundGenAudioInfoE21_s_IwAssertIgnoreThis_0, %object
	.size	_ZZN13CIwChannelPCMIsE13GenerateAudioEP20s3eSoundGenAudioInfoE21_s_IwAssertIgnoreThis_0, 1
_ZZN13CIwChannelPCMIsE13GenerateAudioEP20s3eSoundGenAudioInfoE21_s_IwAssertIgnoreThis_0:
	.space	1
	.hidden	_ZZN13CIwChannelPCMIsE13clip_to_int16EiE21_s_IwAssertIgnoreThis
	.weak	_ZZN13CIwChannelPCMIsE13clip_to_int16EiE21_s_IwAssertIgnoreThis
	.section	.bss._ZZN13CIwChannelPCMIsE13clip_to_int16EiE21_s_IwAssertIgnoreThis,"awG",%nobits,_ZZN13CIwChannelPCMIsE13clip_to_int16EiE21_s_IwAssertIgnoreThis,comdat
	.type	_ZZN13CIwChannelPCMIsE13clip_to_int16EiE21_s_IwAssertIgnoreThis, %object
	.size	_ZZN13CIwChannelPCMIsE13clip_to_int16EiE21_s_IwAssertIgnoreThis, 1
_ZZN13CIwChannelPCMIsE13clip_to_int16EiE21_s_IwAssertIgnoreThis:
	.space	1
	.hidden	_ZZN13CIwChannelPCMIsE13clip_to_int16EiE21_s_IwAssertIgnoreThis_0
	.weak	_ZZN13CIwChannelPCMIsE13clip_to_int16EiE21_s_IwAssertIgnoreThis_0
	.section	.bss._ZZN13CIwChannelPCMIsE13clip_to_int16EiE21_s_IwAssertIgnoreThis_0,"awG",%nobits,_ZZN13CIwChannelPCMIsE13clip_to_int16EiE21_s_IwAssertIgnoreThis_0,comdat
	.type	_ZZN13CIwChannelPCMIsE13clip_to_int16EiE21_s_IwAssertIgnoreThis_0, %object
	.size	_ZZN13CIwChannelPCMIsE13clip_to_int16EiE21_s_IwAssertIgnoreThis_0, 1
_ZZN13CIwChannelPCMIsE13clip_to_int16EiE21_s_IwAssertIgnoreThis_0:
	.space	1
	.hidden	_ZZN13CIwChannelPCMIsE13clip_to_int16EiE21_s_IwAssertIgnoreThis_1
	.weak	_ZZN13CIwChannelPCMIsE13clip_to_int16EiE21_s_IwAssertIgnoreThis_1
	.section	.bss._ZZN13CIwChannelPCMIsE13clip_to_int16EiE21_s_IwAssertIgnoreThis_1,"awG",%nobits,_ZZN13CIwChannelPCMIsE13clip_to_int16EiE21_s_IwAssertIgnoreThis_1,comdat
	.type	_ZZN13CIwChannelPCMIsE13clip_to_int16EiE21_s_IwAssertIgnoreThis_1, %object
	.size	_ZZN13CIwChannelPCMIsE13clip_to_int16EiE21_s_IwAssertIgnoreThis_1, 1
_ZZN13CIwChannelPCMIsE13clip_to_int16EiE21_s_IwAssertIgnoreThis_1:
	.space	1
	.hidden	_ZZN13CIwChannelPCMIaE13GenerateAudioEP20s3eSoundGenAudioInfoE21_s_IwAssertIgnoreThis
	.weak	_ZZN13CIwChannelPCMIaE13GenerateAudioEP20s3eSoundGenAudioInfoE21_s_IwAssertIgnoreThis
	.section	.bss._ZZN13CIwChannelPCMIaE13GenerateAudioEP20s3eSoundGenAudioInfoE21_s_IwAssertIgnoreThis,"awG",%nobits,_ZZN13CIwChannelPCMIaE13GenerateAudioEP20s3eSoundGenAudioInfoE21_s_IwAssertIgnoreThis,comdat
	.type	_ZZN13CIwChannelPCMIaE13GenerateAudioEP20s3eSoundGenAudioInfoE21_s_IwAssertIgnoreThis, %object
	.size	_ZZN13CIwChannelPCMIaE13GenerateAudioEP20s3eSoundGenAudioInfoE21_s_IwAssertIgnoreThis, 1
_ZZN13CIwChannelPCMIaE13GenerateAudioEP20s3eSoundGenAudioInfoE21_s_IwAssertIgnoreThis:
	.space	1
	.hidden	_ZZN13CIwChannelPCMIaE13GenerateAudioEP20s3eSoundGenAudioInfoE21_s_IwAssertIgnoreThis_0
	.weak	_ZZN13CIwChannelPCMIaE13GenerateAudioEP20s3eSoundGenAudioInfoE21_s_IwAssertIgnoreThis_0
	.section	.bss._ZZN13CIwChannelPCMIaE13GenerateAudioEP20s3eSoundGenAudioInfoE21_s_IwAssertIgnoreThis_0,"awG",%nobits,_ZZN13CIwChannelPCMIaE13GenerateAudioEP20s3eSoundGenAudioInfoE21_s_IwAssertIgnoreThis_0,comdat
	.type	_ZZN13CIwChannelPCMIaE13GenerateAudioEP20s3eSoundGenAudioInfoE21_s_IwAssertIgnoreThis_0, %object
	.size	_ZZN13CIwChannelPCMIaE13GenerateAudioEP20s3eSoundGenAudioInfoE21_s_IwAssertIgnoreThis_0, 1
_ZZN13CIwChannelPCMIaE13GenerateAudioEP20s3eSoundGenAudioInfoE21_s_IwAssertIgnoreThis_0:
	.space	1
	.hidden	_ZZN13CIwChannelPCMIaE13clip_to_int16EiE21_s_IwAssertIgnoreThis
	.weak	_ZZN13CIwChannelPCMIaE13clip_to_int16EiE21_s_IwAssertIgnoreThis
	.section	.bss._ZZN13CIwChannelPCMIaE13clip_to_int16EiE21_s_IwAssertIgnoreThis,"awG",%nobits,_ZZN13CIwChannelPCMIaE13clip_to_int16EiE21_s_IwAssertIgnoreThis,comdat
	.type	_ZZN13CIwChannelPCMIaE13clip_to_int16EiE21_s_IwAssertIgnoreThis, %object
	.size	_ZZN13CIwChannelPCMIaE13clip_to_int16EiE21_s_IwAssertIgnoreThis, 1
_ZZN13CIwChannelPCMIaE13clip_to_int16EiE21_s_IwAssertIgnoreThis:
	.space	1
	.hidden	_ZZN13CIwChannelPCMIaE13clip_to_int16EiE21_s_IwAssertIgnoreThis_0
	.weak	_ZZN13CIwChannelPCMIaE13clip_to_int16EiE21_s_IwAssertIgnoreThis_0
	.section	.bss._ZZN13CIwChannelPCMIaE13clip_to_int16EiE21_s_IwAssertIgnoreThis_0,"awG",%nobits,_ZZN13CIwChannelPCMIaE13clip_to_int16EiE21_s_IwAssertIgnoreThis_0,comdat
	.type	_ZZN13CIwChannelPCMIaE13clip_to_int16EiE21_s_IwAssertIgnoreThis_0, %object
	.size	_ZZN13CIwChannelPCMIaE13clip_to_int16EiE21_s_IwAssertIgnoreThis_0, 1
_ZZN13CIwChannelPCMIaE13clip_to_int16EiE21_s_IwAssertIgnoreThis_0:
	.space	1
	.hidden	_ZZN13CIwChannelPCMIaE13clip_to_int16EiE21_s_IwAssertIgnoreThis_1
	.weak	_ZZN13CIwChannelPCMIaE13clip_to_int16EiE21_s_IwAssertIgnoreThis_1
	.section	.bss._ZZN13CIwChannelPCMIaE13clip_to_int16EiE21_s_IwAssertIgnoreThis_1,"awG",%nobits,_ZZN13CIwChannelPCMIaE13clip_to_int16EiE21_s_IwAssertIgnoreThis_1,comdat
	.type	_ZZN13CIwChannelPCMIaE13clip_to_int16EiE21_s_IwAssertIgnoreThis_1, %object
	.size	_ZZN13CIwChannelPCMIaE13clip_to_int16EiE21_s_IwAssertIgnoreThis_1, 1
_ZZN13CIwChannelPCMIaE13clip_to_int16EiE21_s_IwAssertIgnoreThis_1:
	.space	1
	.bss
_ZZN15CIwSoundManager6UpdateEvE21_s_IwAssertIgnoreThis:
	.space	1
_ZZL12IW_FIXED_MULiiE21_s_IwAssertIgnoreThis:
	.space	1
_ZZN15CIwSoundManager16SetMaxSoundInstsEjE21_s_IwAssertIgnoreThis:
	.space	1
_ZZN15CIwSoundManagerD1EvE21_s_IwAssertIgnoreThis:
	.space	1
_ZZN15CIwSoundManagerC1EvE21_s_IwAssertIgnoreThis:
	.space	1
	.text
.Letext0: