	.arch armv5te
	.eabi_attribute 27, 3
	.fpu vfp
	.eabi_attribute 20, 1
	.eabi_attribute 21, 1
	.eabi_attribute 23, 3
	.eabi_attribute 24, 1
	.eabi_attribute 25, 1
	.eabi_attribute 26, 2
	.eabi_attribute 30, 6
	.eabi_attribute 18, 2
	.file	"resmgr.cpp"
	.text
.Ltext0:
	.cfi_sections	.debug_frame
	.bss
	.align	2
_ZN4_STLL8_LocInitE:
	.space	1
	.align	2
_ZN4_STLL8_IosInitE:
	.space	1
	.section	.text._Z41__static_initialization_and_destruction_0ii,"ax",%progbits
	.align	2
	.type	_Z41__static_initialization_and_destruction_0ii, %function
_Z41__static_initialization_and_destruction_0ii:
.LFB3296:
	.file 1 "c:/marmalade/6.2/modules/iwgx/h/IwResHandlerMTL.h"
	.loc 1 65 0
	.cfi_startproc
	@ args = 0, pretend = 0, frame = 8
	@ frame_needed = 0, uses_anonymous_args = 0
	str	lr, [sp, #-4]!
.LCFI0:
	.cfi_def_cfa_offset 4
	sub	sp, sp, #12
.LCFI1:
	.cfi_def_cfa_offset 16
	str	r0, [sp, #4]
	str	r1, [sp, #0]
	.loc 1 65 0
	ldr	r3, [sp, #4]
	cmp	r3, #1
	bne	.L3
	.cfi_offset 14, -4
	ldr	r2, [sp, #0]
	ldr	r3, .L4
	cmp	r2, r3
	bne	.L3
	.file 2 "c:/marmalade/6.2/s3e/h/std/c++/iostream"
	.loc 2 69 0
	ldr	r0, .L4+4
	bl	_ZN4_STL8ios_base9_Loc_initC1Ev
	ldr	r3, .L4+8
	ldr	r0, .L4+4
	mov	r1, r3
	ldr	r2, .L4+12
	bl	__aeabi_atexit
	.loc 2 75 0
	ldr	r0, .L4+16
	bl	_ZN4_STL8ios_base4InitC1Ev
	ldr	r3, .L4+20
	ldr	r0, .L4+16
	mov	r1, r3
	ldr	r2, .L4+12
	bl	__aeabi_atexit
.L3:
	.loc 1 65 0
	add	sp, sp, #12
	ldmfd	sp!, {pc}
.L5:
	.align	2
.L4:
	.word	65535
	.word	_ZN4_STLL8_LocInitE
	.word	_ZN4_STL8ios_base9_Loc_initD1Ev
	.word	__dso_handle
	.word	_ZN4_STLL8_IosInitE
	.word	_ZN4_STL8ios_base4InitD1Ev
	.cfi_endproc
.LFE3296:
	.size	_Z41__static_initialization_and_destruction_0ii, .-_Z41__static_initialization_and_destruction_0ii
	.section	.text._GLOBAL__I_resmgr.cpp,"ax",%progbits
	.align	2
	.type	_GLOBAL__I_resmgr.cpp, %function
_GLOBAL__I_resmgr.cpp:
.LFB3373:
	.loc 1 65 0
	.cfi_startproc
	@ args = 0, pretend = 0, frame = 0
	@ frame_needed = 0, uses_anonymous_args = 0
	stmfd	sp!, {r3, lr}
.LCFI2:
	.cfi_def_cfa_offset 8
	.loc 1 65 0
	mov	r0, #1
	ldr	r1, .L8
	.cfi_offset 14, -4
	.cfi_offset 3, -8
	bl	_Z41__static_initialization_and_destruction_0ii
	ldmfd	sp!, {r3, pc}
.L9:
	.align	2
.L8:
	.word	65535
	.cfi_endproc
.LFE3373:
	.size	_GLOBAL__I_resmgr.cpp, .-_GLOBAL__I_resmgr.cpp
	.section	.init_array,"aw",%init_array
	.align	2
	.word	_GLOBAL__I_resmgr.cpp(target1)
	.text
.Letext0: