	.arch armv5te
	.eabi_attribute 27, 3
	.fpu vfp
	.eabi_attribute 20, 1
	.eabi_attribute 21, 1
	.eabi_attribute 23, 3
	.eabi_attribute 24, 1
	.eabi_attribute 25, 1
	.eabi_attribute 26, 2
	.eabi_attribute 30, 6
	.eabi_attribute 18, 2
	.file	"game.cpp"
	.text
.Ltext0:
	.cfi_sections	.debug_frame
	.section	.text._ZL11IwDebugExitv,"ax",%progbits
	.align	2
	.type	_ZL11IwDebugExitv, %function
_ZL11IwDebugExitv:
.LFB0:
	.file 1 "c:/marmalade/6.2/modules/iwutil/h/IwDebug.h"
	.loc 1 354 0
	.cfi_startproc
	@ args = 0, pretend = 0, frame = 0
	@ frame_needed = 0, uses_anonymous_args = 0
	stmfd	sp!, {r3, lr}
.LCFI0:
	.cfi_def_cfa_offset 8
	.loc 1 355 0
	.cfi_offset 14, -4
	.cfi_offset 3, -8
	bl	abort
	.cfi_endproc
.LFE0:
	.size	_ZL11IwDebugExitv, .-_ZL11IwDebugExitv
	.section	.text._ZN8CIwSVec2C1Ev,"axG",%progbits,_ZN8CIwSVec2C1Ev,comdat
	.align	2
	.weak	_ZN8CIwSVec2C1Ev
	.hidden	_ZN8CIwSVec2C1Ev
	.type	_ZN8CIwSVec2C1Ev, %function
_ZN8CIwSVec2C1Ev:
.LFB128:
	.file 2 "c:/marmalade/6.2/modules/iwgeom/h/IwGeomSVec2.h"
	.loc 2 65 0
	.cfi_startproc
	@ args = 0, pretend = 0, frame = 8
	@ frame_needed = 0, uses_anonymous_args = 0
	@ link register save eliminated.
	sub	sp, sp, #8
.LCFI1:
	.cfi_def_cfa_offset 8
	str	r0, [sp, #4]
	.loc 2 65 0
	ldr	r3, [sp, #4]
	mov	r0, r3
	add	sp, sp, #8
	bx	lr
	.cfi_endproc
.LFE128:
	.size	_ZN8CIwSVec2C1Ev, .-_ZN8CIwSVec2C1Ev
	.section	.text._ZN8CIwSVec2C1Ess,"axG",%progbits,_ZN8CIwSVec2C1Ess,comdat
	.align	2
	.weak	_ZN8CIwSVec2C1Ess
	.hidden	_ZN8CIwSVec2C1Ess
	.type	_ZN8CIwSVec2C1Ess, %function
_ZN8CIwSVec2C1Ess:
.LFB131:
	.loc 2 72 0
	.cfi_startproc
	@ args = 0, pretend = 0, frame = 8
	@ frame_needed = 0, uses_anonymous_args = 0
	@ link register save eliminated.
	sub	sp, sp, #8
.LCFI2:
	.cfi_def_cfa_offset 8
	str	r0, [sp, #4]
	mov	r3, r2
	strh	r1, [sp, #2]	@ movhi
	strh	r3, [sp, #0]	@ movhi
	.loc 2 72 0
	ldr	r3, [sp, #4]
	ldrh	r2, [sp, #2]	@ movhi
	strh	r2, [r3, #0]	@ movhi
	ldr	r3, [sp, #4]
	ldrh	r2, [sp, #0]	@ movhi
	strh	r2, [r3, #2]	@ movhi
	ldr	r3, [sp, #4]
	mov	r0, r3
	add	sp, sp, #8
	bx	lr
	.cfi_endproc
.LFE131:
	.size	_ZN8CIwSVec2C1Ess, .-_ZN8CIwSVec2C1Ess
	.section	.text._ZN8CIwFVec2C1Ev,"axG",%progbits,_ZN8CIwFVec2C1Ev,comdat
	.align	2
	.weak	_ZN8CIwFVec2C1Ev
	.hidden	_ZN8CIwFVec2C1Ev
	.type	_ZN8CIwFVec2C1Ev, %function
_ZN8CIwFVec2C1Ev:
.LFB192:
	.file 3 "c:/marmalade/6.2/modules/iwgeom/h/IwGeomFVec2.h"
	.loc 3 65 0
	.cfi_startproc
	@ args = 0, pretend = 0, frame = 8
	@ frame_needed = 0, uses_anonymous_args = 0
	@ link register save eliminated.
	sub	sp, sp, #8
.LCFI3:
	.cfi_def_cfa_offset 8
	str	r0, [sp, #4]
	.loc 3 65 0
	ldr	r3, [sp, #4]
	mov	r0, r3
	add	sp, sp, #8
	bx	lr
	.cfi_endproc
.LFE192:
	.size	_ZN8CIwFVec2C1Ev, .-_ZN8CIwFVec2C1Ev
	.section	.text._ZN8CIwFVec2C1Eff,"axG",%progbits,_ZN8CIwFVec2C1Eff,comdat
	.align	2
	.weak	_ZN8CIwFVec2C1Eff
	.hidden	_ZN8CIwFVec2C1Eff
	.type	_ZN8CIwFVec2C1Eff, %function
_ZN8CIwFVec2C1Eff:
.LFB195:
	.loc 3 72 0
	.cfi_startproc
	@ args = 0, pretend = 0, frame = 16
	@ frame_needed = 0, uses_anonymous_args = 0
	@ link register save eliminated.
	sub	sp, sp, #16
.LCFI4:
	.cfi_def_cfa_offset 16
	str	r0, [sp, #12]
	str	r1, [sp, #8]	@ float
	str	r2, [sp, #4]	@ float
	.loc 3 72 0
	ldr	r3, [sp, #12]
	flds	s15, [sp, #8]
	fsts	s15, [r3, #0]
	ldr	r3, [sp, #12]
	flds	s15, [sp, #4]
	fsts	s15, [r3, #4]
	ldr	r3, [sp, #12]
	mov	r0, r3
	add	sp, sp, #16
	bx	lr
	.cfi_endproc
.LFE195:
	.size	_ZN8CIwFVec2C1Eff, .-_ZN8CIwFVec2C1Eff
	.section	.text._ZN8CIwFVec2aSERKS_,"axG",%progbits,_ZN8CIwFVec2aSERKS_,comdat
	.align	2
	.weak	_ZN8CIwFVec2aSERKS_
	.hidden	_ZN8CIwFVec2aSERKS_
	.type	_ZN8CIwFVec2aSERKS_, %function
_ZN8CIwFVec2aSERKS_:
.LFB198:
	.loc 3 285 0
	.cfi_startproc
	@ args = 0, pretend = 0, frame = 8
	@ frame_needed = 0, uses_anonymous_args = 0
	@ link register save eliminated.
	sub	sp, sp, #8
.LCFI5:
	.cfi_def_cfa_offset 8
	str	r0, [sp, #4]
	str	r1, [sp, #0]
	.loc 3 286 0
	ldr	r3, [sp, #0]
	flds	s15, [r3, #0]
	ldr	r3, [sp, #4]
	fsts	s15, [r3, #0]
	.loc 3 287 0
	ldr	r3, [sp, #0]
	flds	s15, [r3, #4]
	ldr	r3, [sp, #4]
	fsts	s15, [r3, #4]
	.loc 3 288 0
	ldr	r3, [sp, #4]
	.loc 3 289 0
	mov	r0, r3
	add	sp, sp, #8
	bx	lr
	.cfi_endproc
.LFE198:
	.size	_ZN8CIwFVec2aSERKS_, .-_ZN8CIwFVec2aSERKS_
	.section	.text._ZNK8CIwFVec2plERKS_,"axG",%progbits,_ZNK8CIwFVec2plERKS_,comdat
	.align	2
	.weak	_ZNK8CIwFVec2plERKS_
	.hidden	_ZNK8CIwFVec2plERKS_
	.type	_ZNK8CIwFVec2plERKS_, %function
_ZNK8CIwFVec2plERKS_:
.LFB199:
	.loc 3 295 0
	.cfi_startproc
	@ args = 0, pretend = 0, frame = 8
	@ frame_needed = 0, uses_anonymous_args = 0
	stmfd	sp!, {r4, lr}
.LCFI6:
	.cfi_def_cfa_offset 8
	sub	sp, sp, #8
.LCFI7:
	.cfi_def_cfa_offset 16
	mov	r4, r0
	.cfi_offset 14, -4
	.cfi_offset 4, -8
	str	r1, [sp, #4]
	str	r2, [sp, #0]
	.loc 3 299 0
	ldr	r3, [sp, #4]
	flds	s14, [r3, #0]
	ldr	r3, [sp, #0]
	flds	s15, [r3, #0]
	fadds	s13, s14, s15
	ldr	r3, [sp, #4]
	flds	s14, [r3, #4]
	ldr	r3, [sp, #0]
	flds	s15, [r3, #4]
	fadds	s15, s14, s15
	mov	r0, r4
	fmrs	r1, s13
	fmrs	r2, s15
	bl	_ZN8CIwFVec2C1Eff
	.loc 3 300 0
	mov	r0, r4
	add	sp, sp, #8
	ldmfd	sp!, {r4, pc}
	.cfi_endproc
.LFE199:
	.size	_ZNK8CIwFVec2plERKS_, .-_ZNK8CIwFVec2plERKS_
	.section	.text._ZN8CIwFVec2pLERKS_,"axG",%progbits,_ZN8CIwFVec2pLERKS_,comdat
	.align	2
	.weak	_ZN8CIwFVec2pLERKS_
	.hidden	_ZN8CIwFVec2pLERKS_
	.type	_ZN8CIwFVec2pLERKS_, %function
_ZN8CIwFVec2pLERKS_:
.LFB200:
	.loc 3 306 0
	.cfi_startproc
	@ args = 0, pretend = 0, frame = 8
	@ frame_needed = 0, uses_anonymous_args = 0
	@ link register save eliminated.
	sub	sp, sp, #8
.LCFI8:
	.cfi_def_cfa_offset 8
	str	r0, [sp, #4]
	str	r1, [sp, #0]
	.loc 3 307 0
	ldr	r3, [sp, #4]
	flds	s14, [r3, #0]
	ldr	r3, [sp, #0]
	flds	s15, [r3, #0]
	fadds	s15, s14, s15
	ldr	r3, [sp, #4]
	fsts	s15, [r3, #0]
	.loc 3 308 0
	ldr	r3, [sp, #4]
	flds	s14, [r3, #4]
	ldr	r3, [sp, #0]
	flds	s15, [r3, #4]
	fadds	s15, s14, s15
	ldr	r3, [sp, #4]
	fsts	s15, [r3, #4]
	.loc 3 309 0
	ldr	r3, [sp, #4]
	.loc 3 310 0
	mov	r0, r3
	add	sp, sp, #8
	bx	lr
	.cfi_endproc
.LFE200:
	.size	_ZN8CIwFVec2pLERKS_, .-_ZN8CIwFVec2pLERKS_
	.section	.text._ZNK8CIwFVec2miERKS_,"axG",%progbits,_ZNK8CIwFVec2miERKS_,comdat
	.align	2
	.weak	_ZNK8CIwFVec2miERKS_
	.hidden	_ZNK8CIwFVec2miERKS_
	.type	_ZNK8CIwFVec2miERKS_, %function
_ZNK8CIwFVec2miERKS_:
.LFB201:
	.loc 3 316 0
	.cfi_startproc
	@ args = 0, pretend = 0, frame = 8
	@ frame_needed = 0, uses_anonymous_args = 0
	stmfd	sp!, {r4, lr}
.LCFI9:
	.cfi_def_cfa_offset 8
	sub	sp, sp, #8
.LCFI10:
	.cfi_def_cfa_offset 16
	mov	r4, r0
	.cfi_offset 14, -4
	.cfi_offset 4, -8
	str	r1, [sp, #4]
	str	r2, [sp, #0]
	.loc 3 320 0
	ldr	r3, [sp, #4]
	flds	s14, [r3, #0]
	ldr	r3, [sp, #0]
	flds	s15, [r3, #0]
	fsubs	s13, s14, s15
	ldr	r3, [sp, #4]
	flds	s14, [r3, #4]
	ldr	r3, [sp, #0]
	flds	s15, [r3, #4]
	fsubs	s15, s14, s15
	mov	r0, r4
	fmrs	r1, s13
	fmrs	r2, s15
	bl	_ZN8CIwFVec2C1Eff
	.loc 3 321 0
	mov	r0, r4
	add	sp, sp, #8
	ldmfd	sp!, {r4, pc}
	.cfi_endproc
.LFE201:
	.size	_ZNK8CIwFVec2miERKS_, .-_ZNK8CIwFVec2miERKS_
	.section	.text._ZNK8CIwFVec2mlEf,"axG",%progbits,_ZNK8CIwFVec2mlEf,comdat
	.align	2
	.weak	_ZNK8CIwFVec2mlEf
	.hidden	_ZNK8CIwFVec2mlEf
	.type	_ZNK8CIwFVec2mlEf, %function
_ZNK8CIwFVec2mlEf:
.LFB206:
	.loc 3 371 0
	.cfi_startproc
	@ args = 0, pretend = 0, frame = 8
	@ frame_needed = 0, uses_anonymous_args = 0
	stmfd	sp!, {r4, lr}
.LCFI11:
	.cfi_def_cfa_offset 8
	sub	sp, sp, #8
.LCFI12:
	.cfi_def_cfa_offset 16
	mov	r4, r0
	.cfi_offset 14, -4
	.cfi_offset 4, -8
	str	r1, [sp, #4]
	str	r2, [sp, #0]	@ float
	.loc 3 375 0
	ldr	r3, [sp, #4]
	flds	s14, [r3, #0]
	flds	s15, [sp, #0]
	fmuls	s14, s14, s15
	ldr	r3, [sp, #4]
	flds	s13, [r3, #4]
	flds	s15, [sp, #0]
	fmuls	s15, s13, s15
	mov	r0, r4
	fmrs	r1, s14
	fmrs	r2, s15
	bl	_ZN8CIwFVec2C1Eff
	.loc 3 376 0
	mov	r0, r4
	add	sp, sp, #8
	ldmfd	sp!, {r4, pc}
	.cfi_endproc
.LFE206:
	.size	_ZNK8CIwFVec2mlEf, .-_ZNK8CIwFVec2mlEf
	.section	.text._ZnwjPv,"axG",%progbits,_ZnwjPv,comdat
	.align	2
	.weak	_ZnwjPv
	.hidden	_ZnwjPv
	.type	_ZnwjPv, %function
_ZnwjPv:
.LFB993:
	.file 4 "c:/marmalade/6.2/s3e/h/std/c++/new.h"
	.loc 4 52 0
	.cfi_startproc
	@ args = 0, pretend = 0, frame = 8
	@ frame_needed = 0, uses_anonymous_args = 0
	@ link register save eliminated.
	sub	sp, sp, #8
.LCFI13:
	.cfi_def_cfa_offset 8
	str	r0, [sp, #4]
	str	r1, [sp, #0]
	.loc 4 52 0
	ldr	r3, [sp, #0]
	mov	r0, r3
	add	sp, sp, #8
	bx	lr
	.cfi_endproc
.LFE993:
	.size	_ZnwjPv, .-_ZnwjPv
	.section	.text._ZN4_STL14__copy_trivialEPKvS1_Pv,"axG",%progbits,_ZN4_STL14__copy_trivialEPKvS1_Pv,comdat
	.align	2
	.weak	_ZN4_STL14__copy_trivialEPKvS1_Pv
	.hidden	_ZN4_STL14__copy_trivialEPKvS1_Pv
	.type	_ZN4_STL14__copy_trivialEPKvS1_Pv, %function
_ZN4_STL14__copy_trivialEPKvS1_Pv:
.LFB2099:
	.file 5 "c:/marmalade/6.2/s3e/h/std/c++/stl/_algobase.h"
	.loc 5 147 0
	.cfi_startproc
	@ args = 0, pretend = 0, frame = 16
	@ frame_needed = 0, uses_anonymous_args = 0
	str	lr, [sp, #-4]!
.LCFI14:
	.cfi_def_cfa_offset 4
	sub	sp, sp, #20
.LCFI15:
	.cfi_def_cfa_offset 24
	str	r0, [sp, #12]
	str	r1, [sp, #8]
	str	r2, [sp, #4]
	.loc 5 150 0
	ldr	r2, [sp, #8]
	ldr	r3, [sp, #12]
	cmp	r2, r3
	beq	.L28
	.cfi_offset 14, -4
	ldr	r2, [sp, #8]
	ldr	r3, [sp, #12]
	rsb	r3, r3, r2
	ldr	r0, [sp, #4]
	ldr	r1, [sp, #12]
	mov	r2, r3
	bl	memmove
	mov	r3, r0
	mov	r2, r3
	ldr	r1, [sp, #8]
	ldr	r3, [sp, #12]
	rsb	r3, r3, r1
	add	r3, r2, r3
	b	.L29
.L28:
	ldr	r3, [sp, #4]
.L29:
	.loc 5 151 0
	mov	r0, r3
	add	sp, sp, #20
	ldmfd	sp!, {pc}
	.cfi_endproc
.LFE2099:
	.size	_ZN4_STL14__copy_trivialEPKvS1_Pv, .-_ZN4_STL14__copy_trivialEPKvS1_Pv
	.section	.text._ZN4_STL8_DestroyEPcS0_,"axG",%progbits,_ZN4_STL8_DestroyEPcS0_,comdat
	.align	2
	.weak	_ZN4_STL8_DestroyEPcS0_
	.hidden	_ZN4_STL8_DestroyEPcS0_
	.type	_ZN4_STL8_DestroyEPcS0_, %function
_ZN4_STL8_DestroyEPcS0_:
.LFB2227:
	.file 6 "c:/marmalade/6.2/s3e/h/std/c++/stl/_construct.h"
	.loc 6 142 0
	.cfi_startproc
	@ args = 0, pretend = 0, frame = 8
	@ frame_needed = 0, uses_anonymous_args = 0
	@ link register save eliminated.
	sub	sp, sp, #8
.LCFI16:
	.cfi_def_cfa_offset 8
	str	r0, [sp, #4]
	str	r1, [sp, #0]
	.loc 6 142 0
	add	sp, sp, #8
	bx	lr
	.cfi_endproc
.LFE2227:
	.size	_ZN4_STL8_DestroyEPcS0_, .-_ZN4_STL8_DestroyEPcS0_
	.section	.text._ZN4_STL18uninitialized_copyEPKcS1_Pc,"axG",%progbits,_ZN4_STL18uninitialized_copyEPKcS1_Pc,comdat
	.align	2
	.weak	_ZN4_STL18uninitialized_copyEPKcS1_Pc
	.hidden	_ZN4_STL18uninitialized_copyEPKcS1_Pc
	.type	_ZN4_STL18uninitialized_copyEPKcS1_Pc, %function
_ZN4_STL18uninitialized_copyEPKcS1_Pc:
.LFB2266:
	.file 7 "c:/marmalade/6.2/s3e/h/std/c++/stl/_uninitialized.h"
	.loc 7 83 0
	.cfi_startproc
	@ args = 0, pretend = 0, frame = 16
	@ frame_needed = 0, uses_anonymous_args = 0
	str	lr, [sp, #-4]!
.LCFI17:
	.cfi_def_cfa_offset 4
	sub	sp, sp, #20
.LCFI18:
	.cfi_def_cfa_offset 24
	str	r0, [sp, #12]
	str	r1, [sp, #8]
	str	r2, [sp, #4]
	.loc 7 84 0
	ldr	r0, [sp, #12]
	ldr	r1, [sp, #8]
	ldr	r2, [sp, #4]
	.cfi_offset 14, -4
	bl	_ZN4_STL14__copy_trivialEPKvS1_Pv
	mov	r3, r0
	.loc 7 85 0
	mov	r0, r3
	add	sp, sp, #20
	ldmfd	sp!, {pc}
	.cfi_endproc
.LFE2266:
	.size	_ZN4_STL18uninitialized_copyEPKcS1_Pc, .-_ZN4_STL18uninitialized_copyEPKcS1_Pc
	.section	.text._ZN8ObstacleD1Ev,"axG",%progbits,_ZN8ObstacleD1Ev,comdat
	.align	2
	.weak	_ZN8ObstacleD1Ev
	.hidden	_ZN8ObstacleD1Ev
	.type	_ZN8ObstacleD1Ev, %function
_ZN8ObstacleD1Ev:
.LFB2467:
	.file 8 "c:/users/1106786/dropbox/dropbox/pg life/project impact/code/demos/o-demo_7_indicator/h/obstacle.h"
	.loc 8 13 0
	.cfi_startproc
	@ args = 0, pretend = 0, frame = 8
	@ frame_needed = 0, uses_anonymous_args = 0
	@ link register save eliminated.
	sub	sp, sp, #8
.LCFI19:
	.cfi_def_cfa_offset 8
	str	r0, [sp, #4]
	.loc 8 13 0
	ldr	r3, [sp, #4]
	mov	r0, r3
	add	sp, sp, #8
	bx	lr
	.cfi_endproc
.LFE2467:
	.size	_ZN8ObstacleD1Ev, .-_ZN8ObstacleD1Ev
	.section	.text._ZN12TileObstacleC1Ev,"axG",%progbits,_ZN12TileObstacleC1Ev,comdat
	.align	2
	.weak	_ZN12TileObstacleC1Ev
	.hidden	_ZN12TileObstacleC1Ev
	.type	_ZN12TileObstacleC1Ev, %function
_ZN12TileObstacleC1Ev:
.LFB2470:
	.file 9 "c:/users/1106786/dropbox/dropbox/pg life/project impact/code/demos/o-demo_7_indicator/h/tileobstacle.h"
	.loc 9 16 0
	.cfi_startproc
	@ args = 0, pretend = 0, frame = 16
	@ frame_needed = 0, uses_anonymous_args = 0
	stmfd	sp!, {r4, lr}
.LCFI20:
	.cfi_def_cfa_offset 8
	sub	sp, sp, #16
.LCFI21:
	.cfi_def_cfa_offset 24
	str	r0, [sp, #4]
	.loc 9 16 0
	ldr	r3, [sp, #4]
	mov	r0, r3
	.cfi_offset 14, -4
	.cfi_offset 4, -8
	bl	_ZN8CIwFVec2C1Ev
	ldr	r3, [sp, #4]
	add	r4, r3, #24
	add	r3, sp, #12
	mov	r0, r3
	bl	_ZN4_STL9allocatorI8ObstacleEC1Ev
	add	r3, sp, #12
	mov	r0, r4
	mov	r1, r3
	bl	_ZN4_STL6vectorI8ObstacleNS_9allocatorIS1_EEEC1ERKS3_
	add	r3, sp, #12
	mov	r0, r3
	bl	_ZN4_STL9allocatorI8ObstacleED1Ev
	ldr	r3, [sp, #4]
	add	r3, r3, #36
	mov	r0, r3
	bl	_ZN8CIwSVec2C1Ev
	ldr	r3, [sp, #4]
	mov	r0, r3
	add	sp, sp, #16
	ldmfd	sp!, {r4, pc}
	.cfi_endproc
.LFE2470:
	.size	_ZN12TileObstacleC1Ev, .-_ZN12TileObstacleC1Ev
	.section	.text._ZN12TileObstacleD1Ev,"axG",%progbits,_ZN12TileObstacleD1Ev,comdat
	.align	2
	.weak	_ZN12TileObstacleD1Ev
	.hidden	_ZN12TileObstacleD1Ev
	.type	_ZN12TileObstacleD1Ev, %function
_ZN12TileObstacleD1Ev:
.LFB2473:
	.loc 9 17 0
	.cfi_startproc
	@ args = 0, pretend = 0, frame = 8
	@ frame_needed = 0, uses_anonymous_args = 0
	str	lr, [sp, #-4]!
.LCFI22:
	.cfi_def_cfa_offset 4
	sub	sp, sp, #12
.LCFI23:
	.cfi_def_cfa_offset 16
	str	r0, [sp, #4]
	.loc 9 17 0
	ldr	r3, [sp, #4]
	add	r3, r3, #24
	mov	r0, r3
	.cfi_offset 14, -4
	bl	_ZN4_STL6vectorI8ObstacleNS_9allocatorIS1_EEED1Ev
	ldr	r3, [sp, #4]
	mov	r0, r3
	add	sp, sp, #12
	ldmfd	sp!, {pc}
	.cfi_endproc
.LFE2473:
	.size	_ZN12TileObstacleD1Ev, .-_ZN12TileObstacleD1Ev
	.section	.text._ZN5PanelD1Ev,"axG",%progbits,_ZN5PanelD1Ev,comdat
	.align	2
	.weak	_ZN5PanelD1Ev
	.hidden	_ZN5PanelD1Ev
	.type	_ZN5PanelD1Ev, %function
_ZN5PanelD1Ev:
.LFB2510:
	.file 10 "c:/users/1106786/dropbox/dropbox/pg life/project impact/code/demos/o-demo_7_indicator/h/panel.h"
	.loc 10 10 0
	.cfi_startproc
	@ args = 0, pretend = 0, frame = 8
	@ frame_needed = 0, uses_anonymous_args = 0
	str	lr, [sp, #-4]!
.LCFI24:
	.cfi_def_cfa_offset 4
	sub	sp, sp, #12
.LCFI25:
	.cfi_def_cfa_offset 16
	str	r0, [sp, #4]
	.loc 10 10 0
	ldr	r3, [sp, #4]
	add	r3, r3, #20
	mov	r0, r3
	.cfi_offset 14, -4
	bl	_ZN8CIwArrayIP10CIw2DImage12CIwAllocatorIS1_15CIwMallocRouterIS1_EE17ReallocateDefaultIS1_S5_EE15clear_optimisedEv
	ldr	r3, [sp, #4]
	add	r3, r3, #20
	mov	r0, r3
	bl	_ZN8CIwArrayIP10CIw2DImage12CIwAllocatorIS1_15CIwMallocRouterIS1_EE17ReallocateDefaultIS1_S5_EED1Ev
	ldr	r3, [sp, #4]
	mov	r0, r3
	bl	_ZN8CIwArrayIP6Button12CIwAllocatorIS1_15CIwMallocRouterIS1_EE17ReallocateDefaultIS1_S5_EED1Ev
	ldr	r3, [sp, #4]
	mov	r0, r3
	add	sp, sp, #12
	ldmfd	sp!, {pc}
	.cfi_endproc
.LFE2510:
	.size	_ZN5PanelD1Ev, .-_ZN5PanelD1Ev
	.section	.text._ZN3MapC1Ev,"axG",%progbits,_ZN3MapC1Ev,comdat
	.align	2
	.weak	_ZN3MapC1Ev
	.hidden	_ZN3MapC1Ev
	.type	_ZN3MapC1Ev, %function
_ZN3MapC1Ev:
.LFB2516:
	.file 11 "c:/users/1106786/dropbox/dropbox/pg life/project impact/code/demos/o-demo_7_indicator/h/map.h"
	.loc 11 15 0
	.cfi_startproc
	@ args = 0, pretend = 0, frame = 8
	@ frame_needed = 0, uses_anonymous_args = 0
	str	lr, [sp, #-4]!
.LCFI26:
	.cfi_def_cfa_offset 4
	sub	sp, sp, #12
.LCFI27:
	.cfi_def_cfa_offset 16
	str	r0, [sp, #4]
	.loc 11 15 0
	ldr	r3, [sp, #4]
	mov	r0, r3
	.cfi_offset 14, -4
	bl	_ZN8CIwFVec2C1Ev
	ldr	r3, [sp, #4]
	add	r3, r3, #8
	mov	r0, r3
	bl	_ZN8CIwFVec2C1Ev
	ldr	r3, [sp, #4]
	add	r3, r3, #24
	mov	r0, r3
	mov	r1, #0
	bl	_ZN8CIwArrayIi12CIwAllocatorIi15CIwMallocRouterIiEE17ReallocateDefaultIiS3_EEC1Ej
	ldr	r3, [sp, #4]
	add	r3, r3, #64
	mov	r0, r3
	bl	_ZN8CIwSVec2C1Ev
	ldr	r3, [sp, #4]
	add	r3, r3, #116
	mov	r0, r3
	mov	r1, #0
	bl	_ZN8CIwArrayIi12CIwAllocatorIi15CIwMallocRouterIiEE17ReallocateDefaultIiS3_EEC1Ej
	ldr	r3, [sp, #4]
	add	r3, r3, #132
	mov	r0, r3
	mov	r1, #0
	bl	_ZN8CIwArrayI12TileObstacle12CIwAllocatorIS0_15CIwMallocRouterIS0_EE17ReallocateDefaultIS0_S4_EEC1Ej
	ldr	r3, [sp, #4]
	add	r3, r3, #164
	mov	r0, r3
	mov	r1, #0
	bl	_ZN8CIwArrayIi12CIwAllocatorIi15CIwMallocRouterIiEE17ReallocateDefaultIiS3_EEC1Ej
	ldr	r3, [sp, #4]
	add	r3, r3, #192
	mov	r0, r3
	mov	r1, #0
	bl	_ZN8CIwArrayIi12CIwAllocatorIi15CIwMallocRouterIiEE17ReallocateDefaultIiS3_EEC1Ej
	ldr	r3, [sp, #4]
	add	r3, r3, #208
	mov	r0, r3
	mov	r1, #0
	bl	_ZN8CIwArrayIi12CIwAllocatorIi15CIwMallocRouterIiEE17ReallocateDefaultIiS3_EEC1Ej
	ldr	r3, [sp, #4]
	add	r3, r3, #224
	mov	r0, r3
	mov	r1, #0
	bl	_ZN8CIwArrayIi12CIwAllocatorIi15CIwMallocRouterIiEE17ReallocateDefaultIiS3_EEC1Ej
	ldr	r3, [sp, #4]
	add	r3, r3, #240
	mov	r0, r3
	mov	r1, #0
	bl	_ZN8CIwArrayIi12CIwAllocatorIi15CIwMallocRouterIiEE17ReallocateDefaultIiS3_EEC1Ej
	ldr	r3, [sp, #4]
	add	r3, r3, #256
	mov	r0, r3
	mov	r1, #0
	bl	_ZN8CIwArrayIP3NPC12CIwAllocatorIS1_15CIwMallocRouterIS1_EE17ReallocateDefaultIS1_S5_EEC1Ej
	ldr	r3, [sp, #4]
	add	r3, r3, #292
	mov	r0, r3
	mov	r1, #0
	bl	_ZN8CIwArrayIi12CIwAllocatorIi15CIwMallocRouterIiEE17ReallocateDefaultIiS3_EEC1Ej
	ldr	r3, [sp, #4]
	add	r3, r3, #308
	mov	r0, r3
	mov	r1, #0
	bl	_ZN8CIwArrayIi12CIwAllocatorIi15CIwMallocRouterIiEE17ReallocateDefaultIiS3_EEC1Ej
	ldr	r3, [sp, #4]
	add	r3, r3, #324
	mov	r0, r3
	mov	r1, #0
	bl	_ZN8CIwArrayIi12CIwAllocatorIi15CIwMallocRouterIiEE17ReallocateDefaultIiS3_EEC1Ej
	ldr	r3, [sp, #4]
	add	r3, r3, #340
	mov	r0, r3
	mov	r1, #0
	bl	_ZN8CIwArrayIPc12CIwAllocatorIS0_15CIwMallocRouterIS0_EE17ReallocateDefaultIS0_S4_EEC1Ej
	ldr	r3, [sp, #4]
	mov	r0, r3
	add	sp, sp, #12
	ldmfd	sp!, {pc}
	.cfi_endproc
.LFE2516:
	.size	_ZN3MapC1Ev, .-_ZN3MapC1Ev
	.section	.text._ZN3Map10GetMapSizeEv,"axG",%progbits,_ZN3Map10GetMapSizeEv,comdat
	.align	2
	.weak	_ZN3Map10GetMapSizeEv
	.hidden	_ZN3Map10GetMapSizeEv
	.type	_ZN3Map10GetMapSizeEv, %function
_ZN3Map10GetMapSizeEv:
.LFB2517:
	.loc 11 23 0
	.cfi_startproc
	@ args = 0, pretend = 0, frame = 16
	@ frame_needed = 0, uses_anonymous_args = 0
	@ link register save eliminated.
	sub	sp, sp, #16
.LCFI28:
	.cfi_def_cfa_offset 16
	str	r0, [sp, #4]
	.loc 11 23 0
	ldr	r3, [sp, #4]
	ldr	r3, [r3, #64]
	str	r3, [sp, #12]
	mov	r3, #0
	ldrh	r2, [sp, #12]
	mov	r2, r2, asl #16
	mov	r3, r3, lsr #16
	orr	r3, r3, r2
	mov	r3, r3, ror #16
	ldrh	r2, [sp, #14]
	mov	r2, r2, asl #16
	mov	r3, r3, asl #16
	mov	r3, r3, lsr #16
	orr	r3, r3, r2
	mov	r0, r3
	add	sp, sp, #16
	bx	lr
	.cfi_endproc
.LFE2517:
	.size	_ZN3Map10GetMapSizeEv, .-_ZN3Map10GetMapSizeEv
	.section	.text._ZN9CharacterC1Ev,"axG",%progbits,_ZN9CharacterC1Ev,comdat
	.align	2
	.weak	_ZN9CharacterC1Ev
	.hidden	_ZN9CharacterC1Ev
	.type	_ZN9CharacterC1Ev, %function
_ZN9CharacterC1Ev:
.LFB2524:
	.file 12 "c:/users/1106786/dropbox/dropbox/pg life/project impact/code/demos/o-demo_7_indicator/h/character.h"
	.loc 12 27 0
	.cfi_startproc
	@ args = 0, pretend = 0, frame = 8
	@ frame_needed = 0, uses_anonymous_args = 0
	str	lr, [sp, #-4]!
.LCFI29:
	.cfi_def_cfa_offset 4
	sub	sp, sp, #12
.LCFI30:
	.cfi_def_cfa_offset 16
	str	r0, [sp, #4]
	.loc 12 27 0
	ldr	r3, [sp, #4]
	mov	r0, r3
	.cfi_offset 14, -4
	bl	_ZN8CIwFVec2C1Ev
	ldr	r3, [sp, #4]
	add	r3, r3, #8
	mov	r0, r3
	bl	_ZN8CIwFVec2C1Ev
	ldr	r3, [sp, #4]
	add	r3, r3, #16
	mov	r0, r3
	bl	_ZN8CIwFVec2C1Ev
	ldr	r3, [sp, #4]
	add	r3, r3, #24
	mov	r0, r3
	bl	_ZN8CIwFVec2C1Ev
	ldr	r3, [sp, #4]
	add	r3, r3, #32
	mov	r0, r3
	bl	_ZN8CIwFVec2C1Ev
	ldr	r3, [sp, #4]
	add	r3, r3, #40
	mov	r0, r3
	bl	_ZN8CIwSVec2C1Ev
	ldr	r3, [sp, #4]
	mov	r0, r3
	add	sp, sp, #12
	ldmfd	sp!, {pc}
	.cfi_endproc
.LFE2524:
	.size	_ZN9CharacterC1Ev, .-_ZN9CharacterC1Ev
	.section	.text._ZN9CharacterD1Ev,"axG",%progbits,_ZN9CharacterD1Ev,comdat
	.align	2
	.weak	_ZN9CharacterD1Ev
	.hidden	_ZN9CharacterD1Ev
	.type	_ZN9CharacterD1Ev, %function
_ZN9CharacterD1Ev:
.LFB2527:
	.loc 12 29 0
	.cfi_startproc
	@ args = 0, pretend = 0, frame = 8
	@ frame_needed = 0, uses_anonymous_args = 0
	@ link register save eliminated.
	sub	sp, sp, #8
.LCFI31:
	.cfi_def_cfa_offset 8
	str	r0, [sp, #4]
	.loc 12 29 0
	ldr	r3, [sp, #4]
	mov	r0, r3
	add	sp, sp, #8
	bx	lr
	.cfi_endproc
.LFE2527:
	.size	_ZN9CharacterD1Ev, .-_ZN9CharacterD1Ev
	.section	.text._Z17IwGetSoundManagerv,"axG",%progbits,_Z17IwGetSoundManagerv,comdat
	.align	2
	.weak	_Z17IwGetSoundManagerv
	.hidden	_Z17IwGetSoundManagerv
	.type	_Z17IwGetSoundManagerv, %function
_Z17IwGetSoundManagerv:
.LFB2562:
	.file 13 "c:/users/1106786/dropbox/dropbox/pg life/project impact/code/demos/o-demo_7_indicator/libs/soundengine/h/IwSoundManager.h"
	.loc 13 193 0
	.cfi_startproc
	@ args = 0, pretend = 0, frame = 0
	@ frame_needed = 0, uses_anonymous_args = 0
	@ link register save eliminated.
	.loc 13 193 0
	ldr	r3, .L60
	ldr	r3, [r3, #0]
	mov	r0, r3
	bx	lr
.L61:
	.align	2
.L60:
	.word	g_IwSoundManager
	.cfi_endproc
.LFE2562:
	.size	_Z17IwGetSoundManagerv, .-_Z17IwGetSoundManagerv
	.section	.text._ZN5AudioC2Ev,"axG",%progbits,_ZN5AudioC2Ev,comdat
	.align	2
	.weak	_ZN5AudioC2Ev
	.hidden	_ZN5AudioC2Ev
	.type	_ZN5AudioC2Ev, %function
_ZN5AudioC2Ev:
.LFB2594:
	.file 14 "c:/users/1106786/dropbox/dropbox/pg life/project impact/code/demos/o-demo_7_indicator/h/audio.h"
	.loc 14 17 0
	.cfi_startproc
	@ args = 0, pretend = 0, frame = 8
	@ frame_needed = 0, uses_anonymous_args = 0
	@ link register save eliminated.
	sub	sp, sp, #8
.LCFI32:
	.cfi_def_cfa_offset 8
	str	r0, [sp, #4]
	.loc 14 17 0
	ldr	r3, [sp, #4]
	ldr	r2, .L65
	str	r2, [r3, #0]
	ldr	r3, [sp, #4]
	mov	r0, r3
	add	sp, sp, #8
	bx	lr
.L66:
	.align	2
.L65:
	.word	_ZTV5Audio+8
	.cfi_endproc
.LFE2594:
	.size	_ZN5AudioC2Ev, .-_ZN5AudioC2Ev
	.section	.text._ZN2SEC1Ev,"axG",%progbits,_ZN2SEC1Ev,comdat
	.align	2
	.weak	_ZN2SEC1Ev
	.hidden	_ZN2SEC1Ev
	.type	_ZN2SEC1Ev, %function
_ZN2SEC1Ev:
.LFB2598:
	.file 15 "c:/users/1106786/dropbox/dropbox/pg life/project impact/code/demos/o-demo_7_indicator/h/SE.h"
	.loc 15 9 0
	.cfi_startproc
	@ args = 0, pretend = 0, frame = 8
	@ frame_needed = 0, uses_anonymous_args = 0
	@ link register save eliminated.
	sub	sp, sp, #8
.LCFI33:
	.cfi_def_cfa_offset 8
	str	r0, [sp, #4]
	.loc 15 9 0
	ldr	r3, [sp, #4]
	mov	r0, r3
	add	sp, sp, #8
	bx	lr
	.cfi_endproc
.LFE2598:
	.size	_ZN2SEC1Ev, .-_ZN2SEC1Ev
	.section	.text._ZN2SED1Ev,"axG",%progbits,_ZN2SED1Ev,comdat
	.align	2
	.weak	_ZN2SED1Ev
	.hidden	_ZN2SED1Ev
	.type	_ZN2SED1Ev, %function
_ZN2SED1Ev:
.LFB2601:
	.loc 15 10 0
	.cfi_startproc
	@ args = 0, pretend = 0, frame = 8
	@ frame_needed = 0, uses_anonymous_args = 0
	str	lr, [sp, #-4]!
.LCFI34:
	.cfi_def_cfa_offset 4
	sub	sp, sp, #12
.LCFI35:
	.cfi_def_cfa_offset 16
	str	r0, [sp, #4]
	.loc 15 10 0
	ldr	r3, [sp, #4]
	ldr	r3, [r3, #0]
	mov	r0, r3
	.cfi_offset 14, -4
	bl	_ZdlPv
	ldr	r3, [sp, #4]
	ldr	r3, [r3, #4]
	mov	r0, r3
	bl	_ZdlPv
	ldr	r3, [sp, #4]
	ldr	r3, [r3, #8]
	mov	r0, r3
	bl	_ZdlPv
	ldr	r3, [sp, #4]
	ldr	r3, [r3, #12]
	cmp	r3, #0
	beq	.L71
	ldr	r3, [sp, #4]
	ldr	r3, [r3, #12]
	ldr	r3, [r3, #0]
	add	r3, r3, #4
	ldr	r3, [r3, #0]
	ldr	r2, [sp, #4]
	ldr	r2, [r2, #12]
	mov	r0, r2
	blx	r3
.L71:
	ldr	r3, [sp, #4]
	ldr	r3, [r3, #16]
	cmp	r3, #0
	beq	.L72
	ldr	r3, [sp, #4]
	ldr	r3, [r3, #16]
	ldr	r3, [r3, #0]
	add	r3, r3, #4
	ldr	r3, [r3, #0]
	ldr	r2, [sp, #4]
	ldr	r2, [r2, #16]
	mov	r0, r2
	blx	r3
.L72:
	ldr	r3, [sp, #4]
	ldr	r3, [r3, #20]
	cmp	r3, #0
	beq	.L73
	ldr	r3, [sp, #4]
	ldr	r3, [r3, #20]
	ldr	r3, [r3, #0]
	add	r3, r3, #4
	ldr	r3, [r3, #0]
	ldr	r2, [sp, #4]
	ldr	r2, [r2, #20]
	mov	r0, r2
	blx	r3
.L73:
	ldr	r3, [sp, #4]
	mov	r0, r3
	add	sp, sp, #12
	ldmfd	sp!, {pc}
	.cfi_endproc
.LFE2601:
	.size	_ZN2SED1Ev, .-_ZN2SED1Ev
	.section	.text._ZN2UIC1Ev,"axG",%progbits,_ZN2UIC1Ev,comdat
	.align	2
	.weak	_ZN2UIC1Ev
	.hidden	_ZN2UIC1Ev
	.type	_ZN2UIC1Ev, %function
_ZN2UIC1Ev:
.LFB2604:
	.file 16 "c:/users/1106786/dropbox/dropbox/pg life/project impact/code/demos/o-demo_7_indicator/h/ui.h"
	.loc 16 18 0
	.cfi_startproc
	@ args = 0, pretend = 0, frame = 8
	@ frame_needed = 0, uses_anonymous_args = 0
	@ link register save eliminated.
	sub	sp, sp, #8
.LCFI36:
	.cfi_def_cfa_offset 8
	str	r0, [sp, #4]
	.loc 16 18 0
	ldr	r3, [sp, #4]
	mov	r0, r3
	add	sp, sp, #8
	bx	lr
	.cfi_endproc
.LFE2604:
	.size	_ZN2UIC1Ev, .-_ZN2UIC1Ev
	.section	.text._ZN2UID1Ev,"axG",%progbits,_ZN2UID1Ev,comdat
	.align	2
	.weak	_ZN2UID1Ev
	.hidden	_ZN2UID1Ev
	.type	_ZN2UID1Ev, %function
_ZN2UID1Ev:
.LFB2607:
	.loc 16 19 0
	.cfi_startproc
	@ args = 0, pretend = 0, frame = 8
	@ frame_needed = 0, uses_anonymous_args = 0
	stmfd	sp!, {r4, lr}
.LCFI37:
	.cfi_def_cfa_offset 8
	sub	sp, sp, #8
.LCFI38:
	.cfi_def_cfa_offset 16
	str	r0, [sp, #4]
	.loc 16 19 0
	ldr	r3, [sp, #4]
	ldr	r4, [r3, #0]
	.cfi_offset 14, -4
	.cfi_offset 4, -8
	cmp	r4, #0
	beq	.L79
	mov	r0, r4
	bl	_ZN5PanelD1Ev
	mov	r0, r4
	bl	_ZdlPv
.L79:
	ldr	r3, [sp, #4]
	mov	r0, r3
	add	sp, sp, #8
	ldmfd	sp!, {r4, pc}
	.cfi_endproc
.LFE2607:
	.size	_ZN2UID1Ev, .-_ZN2UID1Ev
	.section	.text._ZN4_STL11char_traitsIcE11to_int_typeERKc,"axG",%progbits,_ZN4_STL11char_traitsIcE11to_int_typeERKc,comdat
	.align	2
	.weak	_ZN4_STL11char_traitsIcE11to_int_typeERKc
	.hidden	_ZN4_STL11char_traitsIcE11to_int_typeERKc
	.type	_ZN4_STL11char_traitsIcE11to_int_typeERKc, %function
_ZN4_STL11char_traitsIcE11to_int_typeERKc:
.LFB2637:
	.file 17 "c:/marmalade/6.2/s3e/h/std/c++/stl/char_traits.h"
	.loc 17 231 0
	.cfi_startproc
	@ args = 0, pretend = 0, frame = 8
	@ frame_needed = 0, uses_anonymous_args = 0
	@ link register save eliminated.
	sub	sp, sp, #8
.LCFI39:
	.cfi_def_cfa_offset 8
	str	r0, [sp, #4]
	.loc 17 232 0
	ldr	r3, [sp, #4]
	ldrb	r3, [r3, #0]	@ zero_extendqisi2
	.loc 17 233 0
	mov	r0, r3
	add	sp, sp, #8
	bx	lr
	.cfi_endproc
.LFE2637:
	.size	_ZN4_STL11char_traitsIcE11to_int_typeERKc, .-_ZN4_STL11char_traitsIcE11to_int_typeERKc
	.section	.text._ZN4_STL11char_traitsIcE6lengthEPKc,"axG",%progbits,_ZN4_STL11char_traitsIcE6lengthEPKc,comdat
	.align	2
	.weak	_ZN4_STL11char_traitsIcE6lengthEPKc
	.hidden	_ZN4_STL11char_traitsIcE6lengthEPKc
	.type	_ZN4_STL11char_traitsIcE6lengthEPKc, %function
_ZN4_STL11char_traitsIcE6lengthEPKc:
.LFB2639:
	.loc 17 238 0
	.cfi_startproc
	@ args = 0, pretend = 0, frame = 8
	@ frame_needed = 0, uses_anonymous_args = 0
	str	lr, [sp, #-4]!
.LCFI40:
	.cfi_def_cfa_offset 4
	sub	sp, sp, #12
.LCFI41:
	.cfi_def_cfa_offset 16
	str	r0, [sp, #4]
	.loc 17 238 0
	ldr	r0, [sp, #4]
	.cfi_offset 14, -4
	bl	strlen
	mov	r3, r0
	mov	r0, r3
	add	sp, sp, #12
	ldmfd	sp!, {pc}
	.cfi_endproc
.LFE2639:
	.size	_ZN4_STL11char_traitsIcE6lengthEPKc, .-_ZN4_STL11char_traitsIcE6lengthEPKc
	.section	.text._ZNK4_STL5ctypeIcE5widenEc,"axG",%progbits,_ZNK4_STL5ctypeIcE5widenEc,comdat
	.align	2
	.weak	_ZNK4_STL5ctypeIcE5widenEc
	.hidden	_ZNK4_STL5ctypeIcE5widenEc
	.type	_ZNK4_STL5ctypeIcE5widenEc, %function
_ZNK4_STL5ctypeIcE5widenEc:
.LFB3027:
	.file 18 "c:/marmalade/6.2/s3e/h/std/c++/stl/_ctype.h"
	.loc 18 102 0
	.cfi_startproc
	@ args = 0, pretend = 0, frame = 8
	@ frame_needed = 0, uses_anonymous_args = 0
	str	lr, [sp, #-4]!
.LCFI42:
	.cfi_def_cfa_offset 4
	sub	sp, sp, #12
.LCFI43:
	.cfi_def_cfa_offset 16
	str	r0, [sp, #4]
	mov	r3, r1
	strb	r3, [sp, #3]
	.loc 18 102 0
	ldr	r3, [sp, #4]
	ldr	r3, [r3, #0]
	add	r3, r3, #24
	ldr	r3, [r3, #0]
	ldrb	r2, [sp, #3]	@ zero_extendqisi2
	ldr	r0, [sp, #4]
	mov	r1, r2
	.cfi_offset 14, -4
	blx	r3
	mov	r3, r0
	mov	r0, r3
	add	sp, sp, #12
	ldmfd	sp!, {pc}
	.cfi_endproc
.LFE3027:
	.size	_ZNK4_STL5ctypeIcE5widenEc, .-_ZNK4_STL5ctypeIcE5widenEc
	.section	.text._ZNK4_STL8ios_base5flagsEv,"axG",%progbits,_ZNK4_STL8ios_base5flagsEv,comdat
	.align	2
	.weak	_ZNK4_STL8ios_base5flagsEv
	.hidden	_ZNK4_STL8ios_base5flagsEv
	.type	_ZNK4_STL8ios_base5flagsEv, %function
_ZNK4_STL8ios_base5flagsEv:
.LFB3075:
	.file 19 "c:/marmalade/6.2/s3e/h/std/c++/stl/_ios_base.h"
	.loc 19 115 0
	.cfi_startproc
	@ args = 0, pretend = 0, frame = 8
	@ frame_needed = 0, uses_anonymous_args = 0
	@ link register save eliminated.
	sub	sp, sp, #8
.LCFI44:
	.cfi_def_cfa_offset 8
	str	r0, [sp, #4]
	.loc 19 115 0
	ldr	r3, [sp, #4]
	ldr	r3, [r3, #4]
	mov	r0, r3
	add	sp, sp, #8
	bx	lr
	.cfi_endproc
.LFE3075:
	.size	_ZNK4_STL8ios_base5flagsEv, .-_ZNK4_STL8ios_base5flagsEv
	.section	.text._ZNK4_STL8ios_base5widthEv,"axG",%progbits,_ZNK4_STL8ios_base5widthEv,comdat
	.align	2
	.weak	_ZNK4_STL8ios_base5widthEv
	.hidden	_ZNK4_STL8ios_base5widthEv
	.type	_ZNK4_STL8ios_base5widthEv, %function
_ZNK4_STL8ios_base5widthEv:
.LFB3082:
	.loc 19 142 0
	.cfi_startproc
	@ args = 0, pretend = 0, frame = 8
	@ frame_needed = 0, uses_anonymous_args = 0
	@ link register save eliminated.
	sub	sp, sp, #8
.LCFI45:
	.cfi_def_cfa_offset 8
	str	r0, [sp, #4]
	.loc 19 142 0
	ldr	r3, [sp, #4]
	ldr	r3, [r3, #28]
	mov	r0, r3
	add	sp, sp, #8
	bx	lr
	.cfi_endproc
.LFE3082:
	.size	_ZNK4_STL8ios_base5widthEv, .-_ZNK4_STL8ios_base5widthEv
	.section	.text._ZN4_STL8ios_base5widthEi,"axG",%progbits,_ZN4_STL8ios_base5widthEi,comdat
	.align	2
	.weak	_ZN4_STL8ios_base5widthEi
	.hidden	_ZN4_STL8ios_base5widthEi
	.type	_ZN4_STL8ios_base5widthEi, %function
_ZN4_STL8ios_base5widthEi:
.LFB3083:
	.loc 19 143 0
	.cfi_startproc
	@ args = 0, pretend = 0, frame = 16
	@ frame_needed = 0, uses_anonymous_args = 0
	@ link register save eliminated.
	sub	sp, sp, #16
.LCFI46:
	.cfi_def_cfa_offset 16
	str	r0, [sp, #4]
	str	r1, [sp, #0]
.LBB2:
	.loc 19 144 0
	ldr	r3, [sp, #4]
	ldr	r3, [r3, #28]
	str	r3, [sp, #12]
	.loc 19 145 0
	ldr	r3, [sp, #4]
	ldr	r2, [sp, #0]
	str	r2, [r3, #28]
	.loc 19 146 0
	ldr	r3, [sp, #12]
.LBE2:
	.loc 19 147 0
	mov	r0, r3
	add	sp, sp, #16
	bx	lr
	.cfi_endproc
.LFE3083:
	.size	_ZN4_STL8ios_base5widthEi, .-_ZN4_STL8ios_base5widthEi
	.section	.text._ZNK4_STL8ios_base7rdstateEv,"axG",%progbits,_ZNK4_STL8ios_base7rdstateEv,comdat
	.align	2
	.weak	_ZNK4_STL8ios_base7rdstateEv
	.hidden	_ZNK4_STL8ios_base7rdstateEv
	.type	_ZNK4_STL8ios_base7rdstateEv, %function
_ZNK4_STL8ios_base7rdstateEv:
.LFB3087:
	.loc 19 178 0
	.cfi_startproc
	@ args = 0, pretend = 0, frame = 8
	@ frame_needed = 0, uses_anonymous_args = 0
	@ link register save eliminated.
	sub	sp, sp, #8
.LCFI47:
	.cfi_def_cfa_offset 8
	str	r0, [sp, #4]
	.loc 19 178 0
	ldr	r3, [sp, #4]
	ldr	r3, [r3, #8]
	mov	r0, r3
	add	sp, sp, #8
	bx	lr
	.cfi_endproc
.LFE3087:
	.size	_ZNK4_STL8ios_base7rdstateEv, .-_ZNK4_STL8ios_base7rdstateEv
	.section	.text._ZNK4_STL8ios_base4goodEv,"axG",%progbits,_ZNK4_STL8ios_base4goodEv,comdat
	.align	2
	.weak	_ZNK4_STL8ios_base4goodEv
	.hidden	_ZNK4_STL8ios_base4goodEv
	.type	_ZNK4_STL8ios_base4goodEv, %function
_ZNK4_STL8ios_base4goodEv:
.LFB3088:
	.loc 19 180 0
	.cfi_startproc
	@ args = 0, pretend = 0, frame = 8
	@ frame_needed = 0, uses_anonymous_args = 0
	@ link register save eliminated.
	sub	sp, sp, #8
.LCFI48:
	.cfi_def_cfa_offset 8
	str	r0, [sp, #4]
	.loc 19 180 0
	ldr	r3, [sp, #4]
	ldr	r3, [r3, #8]
	cmp	r3, #0
	movne	r3, #0
	moveq	r3, #1
	and	r3, r3, #255
	mov	r0, r3
	add	sp, sp, #8
	bx	lr
	.cfi_endproc
.LFE3088:
	.size	_ZNK4_STL8ios_base4goodEv, .-_ZNK4_STL8ios_base4goodEv
	.section	.text._ZN4_STL8ios_base16_M_clear_nothrowEi,"axG",%progbits,_ZN4_STL8ios_base16_M_clear_nothrowEi,comdat
	.align	2
	.weak	_ZN4_STL8ios_base16_M_clear_nothrowEi
	.hidden	_ZN4_STL8ios_base16_M_clear_nothrowEi
	.type	_ZN4_STL8ios_base16_M_clear_nothrowEi, %function
_ZN4_STL8ios_base16_M_clear_nothrowEi:
.LFB3093:
	.loc 19 194 0
	.cfi_startproc
	@ args = 0, pretend = 0, frame = 8
	@ frame_needed = 0, uses_anonymous_args = 0
	@ link register save eliminated.
	sub	sp, sp, #8
.LCFI49:
	.cfi_def_cfa_offset 8
	str	r0, [sp, #4]
	str	r1, [sp, #0]
	.loc 19 194 0
	ldr	r3, [sp, #4]
	ldr	r2, [sp, #0]
	str	r2, [r3, #8]
	add	sp, sp, #8
	bx	lr
	.cfi_endproc
.LFE3093:
	.size	_ZN4_STL8ios_base16_M_clear_nothrowEi, .-_ZN4_STL8ios_base16_M_clear_nothrowEi
	.section	.text._ZN4_STL8ios_base23_M_check_exception_maskEv,"axG",%progbits,_ZN4_STL8ios_base23_M_check_exception_maskEv,comdat
	.align	2
	.weak	_ZN4_STL8ios_base23_M_check_exception_maskEv
	.hidden	_ZN4_STL8ios_base23_M_check_exception_maskEv
	.type	_ZN4_STL8ios_base23_M_check_exception_maskEv, %function
_ZN4_STL8ios_base23_M_check_exception_maskEv:
.LFB3096:
	.loc 19 197 0
	.cfi_startproc
	@ args = 0, pretend = 0, frame = 8
	@ frame_needed = 0, uses_anonymous_args = 0
	str	lr, [sp, #-4]!
.LCFI50:
	.cfi_def_cfa_offset 4
	sub	sp, sp, #12
.LCFI51:
	.cfi_def_cfa_offset 16
	str	r0, [sp, #4]
	.loc 19 198 0
	ldr	r3, [sp, #4]
	ldr	r2, [r3, #8]
	ldr	r3, [sp, #4]
	ldr	r3, [r3, #20]
	and	r3, r2, r3
	cmp	r3, #0
	beq	.L101
	.cfi_offset 14, -4
	.loc 19 199 0
	ldr	r0, [sp, #4]
	bl	_ZN4_STL8ios_base16_M_throw_failureEv
.L101:
	.loc 19 200 0
	add	sp, sp, #12
	ldmfd	sp!, {pc}
	.cfi_endproc
.LFE3096:
	.size	_ZN4_STL8ios_base23_M_check_exception_maskEv, .-_ZN4_STL8ios_base23_M_check_exception_maskEv
	.section	.text._ZNK4_STL8ios_base14_M_ctype_facetEv,"axG",%progbits,_ZNK4_STL8ios_base14_M_ctype_facetEv,comdat
	.align	2
	.weak	_ZNK4_STL8ios_base14_M_ctype_facetEv
	.hidden	_ZNK4_STL8ios_base14_M_ctype_facetEv
	.type	_ZNK4_STL8ios_base14_M_ctype_facetEv, %function
_ZNK4_STL8ios_base14_M_ctype_facetEv:
.LFB3097:
	.loc 19 250 0
	.cfi_startproc
	@ args = 0, pretend = 0, frame = 8
	@ frame_needed = 0, uses_anonymous_args = 0
	@ link register save eliminated.
	sub	sp, sp, #8
.LCFI52:
	.cfi_def_cfa_offset 8
	str	r0, [sp, #4]
	.loc 19 250 0
	ldr	r3, [sp, #4]
	ldr	r3, [r3, #64]
	mov	r0, r3
	add	sp, sp, #8
	bx	lr
	.cfi_endproc
.LFE3097:
	.size	_ZNK4_STL8ios_base14_M_ctype_facetEv, .-_ZNK4_STL8ios_base14_M_ctype_facetEv
	.bss
	.align	2
_ZN4_STLL8_LocInitE:
	.space	1
	.align	2
_ZN4_STLL8_IosInitE:
	.space	1
	.section	.text._ZN5MusicD1Ev,"axG",%progbits,_ZN5MusicD1Ev,comdat
	.align	2
	.weak	_ZN5MusicD1Ev
	.hidden	_ZN5MusicD1Ev
	.type	_ZN5MusicD1Ev, %function
_ZN5MusicD1Ev:
.LFB3489:
	.file 20 "c:/users/1106786/dropbox/dropbox/pg life/project impact/code/demos/o-demo_7_indicator/h/music.h"
	.loc 20 5 0
	.cfi_startproc
	@ args = 0, pretend = 0, frame = 8
	@ frame_needed = 0, uses_anonymous_args = 0
	str	lr, [sp, #-4]!
.LCFI53:
	.cfi_def_cfa_offset 4
	sub	sp, sp, #12
.LCFI54:
	.cfi_def_cfa_offset 16
	str	r0, [sp, #4]
	.loc 20 5 0
	ldr	r3, [sp, #4]
	ldr	r2, .L108
	str	r2, [r3, #0]
	ldr	r3, [sp, #4]
	mov	r0, r3
	.cfi_offset 14, -4
	bl	_ZN5AudioD2Ev
	mov	r3, #0
	and	r3, r3, #255
	cmp	r3, #0
	beq	.L106
	ldr	r0, [sp, #4]
	bl	_ZdlPv
.L106:
	ldr	r3, [sp, #4]
	mov	r0, r3
	add	sp, sp, #12
	ldmfd	sp!, {pc}
.L109:
	.align	2
.L108:
	.word	_ZTV5Music+8
	.cfi_endproc
.LFE3489:
	.size	_ZN5MusicD1Ev, .-_ZN5MusicD1Ev
	.section	.text._ZN5MusicD0Ev,"axG",%progbits,_ZN5MusicD0Ev,comdat
	.align	2
	.weak	_ZN5MusicD0Ev
	.hidden	_ZN5MusicD0Ev
	.type	_ZN5MusicD0Ev, %function
_ZN5MusicD0Ev:
.LFB3490:
	.loc 20 5 0
	.cfi_startproc
	@ args = 0, pretend = 0, frame = 8
	@ frame_needed = 0, uses_anonymous_args = 0
	str	lr, [sp, #-4]!
.LCFI55:
	.cfi_def_cfa_offset 4
	sub	sp, sp, #12
.LCFI56:
	.cfi_def_cfa_offset 16
	str	r0, [sp, #4]
	.loc 20 5 0
	ldr	r3, [sp, #4]
	ldr	r2, .L114
	str	r2, [r3, #0]
	ldr	r3, [sp, #4]
	mov	r0, r3
	.cfi_offset 14, -4
	bl	_ZN5AudioD2Ev
	mov	r3, #1
	and	r3, r3, #255
	cmp	r3, #0
	beq	.L112
	ldr	r0, [sp, #4]
	bl	_ZdlPv
.L112:
	ldr	r3, [sp, #4]
	mov	r0, r3
	add	sp, sp, #12
	ldmfd	sp!, {pc}
.L115:
	.align	2
.L114:
	.word	_ZTV5Music+8
	.cfi_endproc
.LFE3490:
	.size	_ZN5MusicD0Ev, .-_ZN5MusicD0Ev
	.section	.text._ZN5CGameD2Ev,"ax",%progbits
	.align	2
	.global	_ZN5CGameD2Ev
	.hidden	_ZN5CGameD2Ev
	.type	_ZN5CGameD2Ev, %function
_ZN5CGameD2Ev:
.LFB3491:
	.file 21 "c:/users/1106786/dropbox/dropbox/pg life/project impact/code/demos/o-demo_7_indicator/src/game.cpp"
	.loc 21 10 0
	.cfi_startproc
	@ args = 0, pretend = 0, frame = 8
	@ frame_needed = 0, uses_anonymous_args = 0
	stmfd	sp!, {r4, lr}
.LCFI57:
	.cfi_def_cfa_offset 8
	sub	sp, sp, #8
.LCFI58:
	.cfi_def_cfa_offset 16
	str	r0, [sp, #4]
	.loc 21 12 0
	ldr	r3, [sp, #4]
	ldr	r4, [r3, #20]
	.cfi_offset 14, -4
	.cfi_offset 4, -8
	cmp	r4, #0
	beq	.L117
	mov	r0, r4
	bl	_ZN9CharacterD1Ev
	mov	r0, r4
	bl	_ZdlPv
.L117:
	.loc 21 13 0
	ldr	r3, [sp, #4]
	ldr	r3, [r3, #24]
	cmp	r3, #0
	beq	.L118
	ldr	r3, [sp, #4]
	ldr	r3, [r3, #24]
	ldr	r3, [r3, #0]
	add	r3, r3, #4
	ldr	r3, [r3, #0]
	ldr	r2, [sp, #4]
	ldr	r2, [r2, #24]
	mov	r0, r2
	blx	r3
.L118:
	.loc 21 14 0
	ldr	r3, [sp, #4]
	ldr	r4, [r3, #32]
	cmp	r4, #0
	beq	.L119
	mov	r0, r4
	bl	_ZN2SED1Ev
	mov	r0, r4
	bl	_ZdlPv
.L119:
	.loc 21 15 0
	ldr	r3, [sp, #4]
	ldr	r4, [r3, #36]
	cmp	r4, #0
	beq	.L120
	mov	r0, r4
	bl	_ZN2UID1Ev
	mov	r0, r4
	bl	_ZdlPv
.L120:
	.loc 21 16 0
	ldr	r3, [sp, #4]
	ldr	r3, [r3, #28]
	cmp	r3, #0
	beq	.L121
	ldr	r3, [sp, #4]
	ldr	r3, [r3, #28]
	ldr	r3, [r3, #0]
	add	r3, r3, #16
	ldr	r3, [r3, #0]
	ldr	r2, [sp, #4]
	ldr	r2, [r2, #28]
	mov	r0, r2
	blx	r3
.L121:
	.loc 21 17 0
	ldr	r3, [sp, #4]
	mov	r0, r3
	bl	_ZN8CIwArrayIP3Map12CIwAllocatorIS1_15CIwMallocRouterIS1_EE17ReallocateDefaultIS1_S5_EE15clear_optimisedEv
	.loc 21 18 0
	ldr	r3, [sp, #4]
	mov	r0, r3
	bl	_ZN8CIwArrayIP3Map12CIwAllocatorIS1_15CIwMallocRouterIS1_EE17ReallocateDefaultIS1_S5_EED1Ev
	ldr	r3, [sp, #4]
	mov	r0, r3
	add	sp, sp, #8
	ldmfd	sp!, {r4, pc}
	.cfi_endproc
.LFE3491:
	.size	_ZN5CGameD2Ev, .-_ZN5CGameD2Ev
	.section	.text._ZN5CGameD1Ev,"ax",%progbits
	.align	2
	.global	_ZN5CGameD1Ev
	.hidden	_ZN5CGameD1Ev
	.type	_ZN5CGameD1Ev, %function
_ZN5CGameD1Ev:
.LFB3492:
	.loc 21 10 0
	.cfi_startproc
	@ args = 0, pretend = 0, frame = 8
	@ frame_needed = 0, uses_anonymous_args = 0
	stmfd	sp!, {r4, lr}
.LCFI59:
	.cfi_def_cfa_offset 8
	sub	sp, sp, #8
.LCFI60:
	.cfi_def_cfa_offset 16
	str	r0, [sp, #4]
	.loc 21 12 0
	ldr	r3, [sp, #4]
	ldr	r4, [r3, #20]
	.cfi_offset 14, -4
	.cfi_offset 4, -8
	cmp	r4, #0
	beq	.L125
	mov	r0, r4
	bl	_ZN9CharacterD1Ev
	mov	r0, r4
	bl	_ZdlPv
.L125:
	.loc 21 13 0
	ldr	r3, [sp, #4]
	ldr	r3, [r3, #24]
	cmp	r3, #0
	beq	.L126
	ldr	r3, [sp, #4]
	ldr	r3, [r3, #24]
	ldr	r3, [r3, #0]
	add	r3, r3, #4
	ldr	r3, [r3, #0]
	ldr	r2, [sp, #4]
	ldr	r2, [r2, #24]
	mov	r0, r2
	blx	r3
.L126:
	.loc 21 14 0
	ldr	r3, [sp, #4]
	ldr	r4, [r3, #32]
	cmp	r4, #0
	beq	.L127
	mov	r0, r4
	bl	_ZN2SED1Ev
	mov	r0, r4
	bl	_ZdlPv
.L127:
	.loc 21 15 0
	ldr	r3, [sp, #4]
	ldr	r4, [r3, #36]
	cmp	r4, #0
	beq	.L128
	mov	r0, r4
	bl	_ZN2UID1Ev
	mov	r0, r4
	bl	_ZdlPv
.L128:
	.loc 21 16 0
	ldr	r3, [sp, #4]
	ldr	r3, [r3, #28]
	cmp	r3, #0
	beq	.L129
	ldr	r3, [sp, #4]
	ldr	r3, [r3, #28]
	ldr	r3, [r3, #0]
	add	r3, r3, #16
	ldr	r3, [r3, #0]
	ldr	r2, [sp, #4]
	ldr	r2, [r2, #28]
	mov	r0, r2
	blx	r3
.L129:
	.loc 21 17 0
	ldr	r3, [sp, #4]
	mov	r0, r3
	bl	_ZN8CIwArrayIP3Map12CIwAllocatorIS1_15CIwMallocRouterIS1_EE17ReallocateDefaultIS1_S5_EE15clear_optimisedEv
	.loc 21 18 0
	ldr	r3, [sp, #4]
	mov	r0, r3
	bl	_ZN8CIwArrayIP3Map12CIwAllocatorIS1_15CIwMallocRouterIS1_EE17ReallocateDefaultIS1_S5_EED1Ev
	ldr	r3, [sp, #4]
	mov	r0, r3
	add	sp, sp, #8
	ldmfd	sp!, {r4, pc}
	.cfi_endproc
.LFE3492:
	.size	_ZN5CGameD1Ev, .-_ZN5CGameD1Ev
	.section	.text._ZN5MusicC1Ev,"axG",%progbits,_ZN5MusicC1Ev,comdat
	.align	2
	.weak	_ZN5MusicC1Ev
	.hidden	_ZN5MusicC1Ev
	.type	_ZN5MusicC1Ev, %function
_ZN5MusicC1Ev:
.LFB3496:
	.loc 20 5 0
	.cfi_startproc
	@ args = 0, pretend = 0, frame = 8
	@ frame_needed = 0, uses_anonymous_args = 0
	str	lr, [sp, #-4]!
.LCFI61:
	.cfi_def_cfa_offset 4
	sub	sp, sp, #12
.LCFI62:
	.cfi_def_cfa_offset 16
	str	r0, [sp, #4]
	.loc 20 5 0
	ldr	r3, [sp, #4]
	mov	r0, r3
	.cfi_offset 14, -4
	bl	_ZN5AudioC2Ev
	ldr	r3, [sp, #4]
	ldr	r2, .L135
	str	r2, [r3, #0]
	ldr	r3, [sp, #4]
	mov	r0, r3
	add	sp, sp, #12
	ldmfd	sp!, {pc}
.L136:
	.align	2
.L135:
	.word	_ZTV5Music+8
	.cfi_endproc
.LFE3496:
	.size	_ZN5MusicC1Ev, .-_ZN5MusicC1Ev
	.section	.rodata
	.align	2
.LC0:
	.ascii	"tuttext\000"
	.align	2
.LC1:
	.ascii	"audios/music1.mp3\000"
	.align	2
.LC2:
	.ascii	"footstep_L1\000"
	.align	2
.LC3:
	.ascii	"footstep_R1\000"
	.align	2
.LC4:
	.ascii	"noise_2\000"
	.section	.text._ZN5CGame7LoadResEv,"ax",%progbits
	.align	2
	.global	_ZN5CGame7LoadResEv
	.hidden	_ZN5CGame7LoadResEv
	.type	_ZN5CGame7LoadResEv, %function
_ZN5CGame7LoadResEv:
.LFB3493:
	.loc 21 21 0
	.cfi_startproc
	@ args = 0, pretend = 0, frame = 16
	@ frame_needed = 0, uses_anonymous_args = 0
	stmfd	sp!, {r4, r5, lr}
.LCFI63:
	.cfi_def_cfa_offset 12
	sub	sp, sp, #20
.LCFI64:
	.cfi_def_cfa_offset 32
	str	r0, [sp, #4]
	.loc 21 22 0
	ldr	r3, [sp, #4]
	mov	r2, #0
	str	r2, [r3, #40]
	.loc 21 23 0
	ldr	r3, [sp, #4]
	mov	r2, #1
	strb	r2, [r3, #48]
	.loc 21 24 0
	ldr	r0, .L139
	.cfi_offset 14, -4
	.cfi_offset 5, -8
	.cfi_offset 4, -12
	bl	_Z23Iw2DCreateImageResourcePKc
	.loc 21 25 0
	ldr	r3, [sp, #4]
	mov	r2, #0
	str	r2, [r3, #52]
	.loc 21 26 0
	mov	r0, #60
	bl	_Znwj
	mov	r3, r0
	mov	r4, r3
	mov	r3, r4
	mov	r0, r3
	bl	_ZN9CharacterC1Ev
	mov	r2, r4
	ldr	r3, [sp, #4]
	str	r2, [r3, #20]
	.loc 21 27 0
	mov	r0, #32
	bl	_Znwj
	mov	r3, r0
	mov	r4, r3
	mov	r3, r4
	mov	r0, r3
	bl	_ZN5MusicC1Ev
	mov	r2, r4
	ldr	r3, [sp, #4]
	str	r2, [r3, #24]
	.loc 21 28 0
	mov	r0, #32
	bl	_Znwj
	mov	r3, r0
	mov	r4, r3
	mov	r3, r4
	mov	r0, r3
	bl	_ZN2SEC1Ev
	mov	r2, r4
	ldr	r3, [sp, #4]
	str	r2, [r3, #32]
	.loc 21 29 0
	mov	r0, #16
	bl	_Znwj
	mov	r3, r0
	mov	r4, r3
	mov	r3, r4
	mov	r0, r3
	bl	_ZN2UIC1Ev
	mov	r2, r4
	ldr	r3, [sp, #4]
	str	r2, [r3, #36]
	.loc 21 31 0
	ldr	r5, [sp, #4]
	mov	r0, #356
	bl	_Znwj
	mov	r3, r0
	mov	r4, r3
	mov	r3, r4
	mov	r0, r3
	bl	_ZN3MapC1Ev
	mov	r3, r4
	str	r3, [sp, #12]
	add	r3, sp, #12
	mov	r0, r5
	mov	r1, r3
	bl	_ZN8CIwArrayIP3Map12CIwAllocatorIS1_15CIwMallocRouterIS1_EE17ReallocateDefaultIS1_S5_EE6appendERKS1_
	.loc 21 32 0
	ldr	r3, [sp, #4]
	mov	r0, r3
	mov	r1, #0
	bl	_ZNK8CIwArrayIP3Map12CIwAllocatorIS1_15CIwMallocRouterIS1_EE17ReallocateDefaultIS1_S5_EEixEi
	mov	r3, r0
	ldr	r3, [r3, #0]
	mov	r0, r3
	mov	r1, #0
	bl	_ZN3Map4LoadEi
	.loc 21 33 0
	ldr	r3, [sp, #4]
	mov	r0, r3
	mov	r1, #0
	bl	_ZNK8CIwArrayIP3Map12CIwAllocatorIS1_15CIwMallocRouterIS1_EE17ReallocateDefaultIS1_S5_EEixEi
	mov	r3, r0
	ldr	r3, [r3, #0]
	mov	r0, r3
	bl	_ZN3Map4InitEv
	.loc 21 35 0
	ldr	r3, [sp, #4]
	ldr	r3, [r3, #20]
	mov	r0, r3
	bl	_ZN9Character4LoadEv
	.loc 21 36 0
	ldr	r2, [sp, #4]
	ldr	r3, [sp, #4]
	ldr	r3, [r3, #40]
	mov	r0, r2
	mov	r1, r3
	bl	_ZNK8CIwArrayIP3Map12CIwAllocatorIS1_15CIwMallocRouterIS1_EE17ReallocateDefaultIS1_S5_EEixEi
	mov	r3, r0
	ldr	r2, [r3, #0]
	ldr	r3, [sp, #4]
	str	r2, [r3, #16]
	.loc 21 37 0
	ldr	r3, [sp, #4]
	ldr	r2, [r3, #20]
	ldr	r3, [sp, #4]
	ldr	r3, [r3, #16]
	add	r3, r3, #16
	mov	r0, r2
	mov	r1, r3
	bl	_ZN9Character4InitEPi
	.loc 21 38 0
	ldr	r3, [sp, #4]
	ldr	r3, [r3, #16]
	mov	r0, r3
	bl	_ZN3Map4InitEv
	.loc 21 39 0
	ldr	r3, [sp, #4]
	ldr	r3, [r3, #24]
	mov	r0, r3
	ldr	r1, .L139+4
	bl	_ZN5Audio4InitEPc
	.loc 21 41 0
	ldr	r3, [sp, #4]
	ldr	r3, [r3, #32]
	mov	r0, r3
	ldr	r1, .L139+8
	ldr	r2, .L139+12
	ldr	r3, .L139+16
	bl	_ZN2SE4InitEPcS0_S0_
	.loc 21 42 0
	ldr	r3, [sp, #4]
	ldr	r3, [r3, #36]
	mov	r0, r3
	bl	_ZN2UI4LoadEv
	.loc 21 43 0
	ldr	r3, [sp, #4]
	mov	r2, #1
	str	r2, [r3, #44]
	.loc 21 44 0
	add	sp, sp, #20
	ldmfd	sp!, {r4, r5, pc}
.L140:
	.align	2
.L139:
	.word	.LC0
	.word	.LC1
	.word	.LC2
	.word	.LC3
	.word	.LC4
	.cfi_endproc
.LFE3493:
	.size	_ZN5CGame7LoadResEv, .-_ZN5CGame7LoadResEv
	.section	.text._ZN5CGame10EnterLevelEi,"ax",%progbits
	.align	2
	.global	_ZN5CGame10EnterLevelEi
	.hidden	_ZN5CGame10EnterLevelEi
	.type	_ZN5CGame10EnterLevelEi, %function
_ZN5CGame10EnterLevelEi:
.LFB3497:
	.loc 21 46 0
	.cfi_startproc
	@ args = 0, pretend = 0, frame = 16
	@ frame_needed = 0, uses_anonymous_args = 0
	stmfd	sp!, {r4, r5, lr}
.LCFI65:
	.cfi_def_cfa_offset 12
	sub	sp, sp, #20
.LCFI66:
	.cfi_def_cfa_offset 32
	str	r0, [sp, #4]
	str	r1, [sp, #0]
	.loc 21 47 0
	ldr	r3, [sp, #4]
	ldr	r2, [sp, #0]
	str	r2, [r3, #40]
	.loc 21 48 0
	ldr	r5, [sp, #4]
	.cfi_offset 14, -4
	.cfi_offset 5, -8
	.cfi_offset 4, -12
	mov	r0, #356
	bl	_Znwj
	mov	r3, r0
	mov	r4, r3
	mov	r3, r4
	mov	r0, r3
	bl	_ZN3MapC1Ev
	mov	r3, r4
	str	r3, [sp, #12]
	add	r3, sp, #12
	mov	r0, r5
	mov	r1, r3
	bl	_ZN8CIwArrayIP3Map12CIwAllocatorIS1_15CIwMallocRouterIS1_EE17ReallocateDefaultIS1_S5_EE6appendERKS1_
	.loc 21 49 0
	ldr	r4, [sp, #4]
	ldr	r3, [sp, #4]
	mov	r0, r3
	bl	_ZNK8CIwArrayIP3Map12CIwAllocatorIS1_15CIwMallocRouterIS1_EE17ReallocateDefaultIS1_S5_EE4sizeEv
	mov	r3, r0
	sub	r3, r3, #1
	mov	r0, r4
	mov	r1, r3
	bl	_ZNK8CIwArrayIP3Map12CIwAllocatorIS1_15CIwMallocRouterIS1_EE17ReallocateDefaultIS1_S5_EEixEi
	mov	r3, r0
	ldr	r2, [r3, #0]
	ldr	r3, [sp, #4]
	ldr	r3, [r3, #40]
	mov	r0, r2
	mov	r1, r3
	bl	_ZN3Map4LoadEi
	.loc 21 50 0
	ldr	r4, [sp, #4]
	ldr	r3, [sp, #4]
	mov	r0, r3
	bl	_ZNK8CIwArrayIP3Map12CIwAllocatorIS1_15CIwMallocRouterIS1_EE17ReallocateDefaultIS1_S5_EE4sizeEv
	mov	r3, r0
	sub	r3, r3, #1
	mov	r0, r4
	mov	r1, r3
	bl	_ZNK8CIwArrayIP3Map12CIwAllocatorIS1_15CIwMallocRouterIS1_EE17ReallocateDefaultIS1_S5_EEixEi
	mov	r3, r0
	ldr	r3, [r3, #0]
	mov	r0, r3
	bl	_ZN3Map4InitEv
	.loc 21 52 0
	ldr	r4, [sp, #4]
	ldr	r3, [sp, #4]
	mov	r0, r3
	bl	_ZNK8CIwArrayIP3Map12CIwAllocatorIS1_15CIwMallocRouterIS1_EE17ReallocateDefaultIS1_S5_EE4sizeEv
	mov	r3, r0
	sub	r3, r3, #1
	mov	r0, r4
	mov	r1, r3
	bl	_ZNK8CIwArrayIP3Map12CIwAllocatorIS1_15CIwMallocRouterIS1_EE17ReallocateDefaultIS1_S5_EEixEi
	mov	r3, r0
	ldr	r2, [r3, #0]
	ldr	r3, [sp, #4]
	str	r2, [r3, #16]
	.loc 21 53 0
	ldr	r3, [sp, #4]
	ldr	r2, [r3, #20]
	ldr	r3, [sp, #4]
	ldr	r3, [r3, #16]
	add	r3, r3, #16
	mov	r0, r2
	mov	r1, r3
	bl	_ZN9Character4InitEPi
	.loc 21 54 0
	ldr	r3, [sp, #4]
	ldr	r2, [r3, #16]
	ldr	r3, [sp, #4]
	ldr	r3, [r3, #20]
	mov	r0, r2
	add	r3, r3, #8
	ldmia	r3, {r1, r2}
	bl	_ZN3Map17SetCharacterIndexE8CIwFVec2
	.loc 21 55 0
	ldr	r3, [sp, #4]
	ldr	r3, [r3, #16]
	mov	r0, r3
	bl	_ZN3Map4InitEv
	.loc 21 56 0
	add	sp, sp, #20
	ldmfd	sp!, {r4, r5, pc}
	.cfi_endproc
.LFE3497:
	.size	_ZN5CGame10EnterLevelEi, .-_ZN5CGame10EnterLevelEi
	.section	.rodata
	.align	2
.LC5:
	.ascii	"Touched\000"
	.global	__aeabi_idivmod
	.global	__aeabi_idiv
	.align	2
.LC6:
	.ascii	"error Audio support\000"
	.section	.text._ZN5CGame6UpdateEi,"ax",%progbits
	.align	2
	.global	_ZN5CGame6UpdateEi
	.hidden	_ZN5CGame6UpdateEi
	.type	_ZN5CGame6UpdateEi, %function
_ZN5CGame6UpdateEi:
.LFB3498:
	.loc 21 58 0
	.cfi_startproc
	@ args = 0, pretend = 0, frame = 96
	@ frame_needed = 0, uses_anonymous_args = 0
	stmfd	sp!, {r4, lr}
.LCFI67:
	.cfi_def_cfa_offset 8
	fstmfdd	sp!, {d8}
.LCFI68:
	.cfi_def_cfa_offset 16
	sub	sp, sp, #112
.LCFI69:
	.cfi_def_cfa_offset 128
	str	r0, [sp, #28]
	str	r1, [sp, #24]
.LBB3:
	.loc 21 59 0
	ldr	r3, [sp, #28]
	ldrb	r3, [r3, #48]	@ zero_extendqisi2
	cmp	r3, #0
	beq	.L144
	.cfi_offset 80, -16
	.cfi_offset 14, -4
	.cfi_offset 4, -8
	.loc 21 61 0
	ldr	r3, [sp, #28]
	ldr	r2, [r3, #52]
	ldr	r3, [sp, #24]
	add	r2, r2, r3
	ldr	r3, [sp, #28]
	str	r2, [r3, #52]
	.loc 21 62 0
	ldr	r3, [sp, #28]
	ldr	r2, [r3, #52]
	ldr	r3, .L179+4
	cmp	r2, r3
	ble	.L144
	.loc 21 63 0
	ldr	r3, [sp, #28]
	mov	r2, #0
	strb	r2, [r3, #48]
.L144:
	.loc 21 65 0
	ldr	r3, [sp, #28]
	ldr	r3, [r3, #20]
	mov	r2, #0
	str	r2, [r3, #48]
	.loc 21 66 0
	ldr	r0, [sp, #24]
	bl	_Z11UpdateInputi
	.loc 21 67 0
	ldr	r3, [sp, #28]
	ldr	r3, [r3, #36]
	mov	r0, r3
	bl	_ZN2UI9IsTouchedEv
	mov	r3, r0
	str	r3, [sp, #96]
	.loc 21 68 0
	ldr	r3, [sp, #96]
	cmp	r3, #0
	blt	.L145
	.loc 21 70 0
	ldr	r0, .L179+8
	ldr	r1, .L179+12
	bl	_ZN4_STLlsINS_11char_traitsIcEEEERNS_13basic_ostreamIcT_EES6_PKc
	mov	r3, r0
	mov	r0, r3
	ldr	r1, .L179+16
	bl	_ZN4_STL13basic_ostreamIcNS_11char_traitsIcEEElsEPFRS3_S4_E
	.loc 21 71 0
	ldr	r3, [sp, #96]
	cmp	r3, #0
	bne	.L146
	ldr	r3, [sp, #28]
	ldr	r3, [r3, #44]
	cmp	r3, #1
	bne	.L146
	.loc 21 72 0
	ldr	r3, [sp, #28]
	mov	r2, #2
	str	r2, [r3, #44]
	.loc 21 71 0
	b	.L145
.L146:
	.loc 21 73 0
	ldr	r3, [sp, #96]
	cmp	r3, #0
	bne	.L147
	ldr	r3, [sp, #28]
	ldr	r3, [r3, #44]
	cmp	r3, #2
	bne	.L147
	.loc 21 74 0
	ldr	r3, [sp, #28]
	mov	r2, #1
	str	r2, [r3, #44]
	.loc 21 73 0
	b	.L145
.L147:
	.loc 21 75 0
	ldr	r3, [sp, #96]
	cmp	r3, #3
	bne	.L148
	.loc 21 76 0
	ldr	r3, [sp, #28]
	mov	r2, #1
	str	r2, [r3, #44]
	b	.L145
.L148:
	.loc 21 77 0
	ldr	r3, [sp, #96]
	cmp	r3, #2
	bne	.L149
	.loc 21 78 0
	ldr	r3, [sp, #28]
	mov	r2, #4
	str	r2, [r3, #44]
	b	.L145
.L149:
	.loc 21 79 0
	ldr	r3, [sp, #96]
	cmp	r3, #5
	bne	.L150
	.loc 21 80 0
	ldr	r3, [sp, #28]
	mov	r2, #4
	str	r2, [r3, #44]
	b	.L145
.L150:
	.loc 21 81 0
	ldr	r3, [sp, #96]
	cmp	r3, #6
	bne	.L151
	.loc 21 82 0
	ldr	r3, [sp, #28]
	mov	r2, #1
	str	r2, [r3, #44]
	b	.L145
.L151:
	.loc 21 83 0
	ldr	r3, [sp, #96]
	cmp	r3, #1
	bne	.L152
	.loc 21 84 0
	ldr	r3, [sp, #28]
	mov	r2, #1
	str	r2, [r3, #44]
	b	.L145
.L152:
	.loc 21 85 0
	ldr	r3, [sp, #96]
	cmp	r3, #4
	bne	.L145
	.loc 21 86 0
	ldr	r3, [sp, #28]
	mov	r2, #5
	str	r2, [r3, #44]
.L145:
	.loc 21 89 0
	ldr	r3, [sp, #28]
	ldr	r3, [r3, #44]
	cmp	r3, #5
	bne	.L153
	.loc 21 91 0
	ldr	r3, [sp, #28]
	mov	r0, r3
	bl	_ZNK8CIwArrayIP3Map12CIwAllocatorIS1_15CIwMallocRouterIS1_EE17ReallocateDefaultIS1_S5_EE4sizeEv
	mov	r3, r0
	cmp	r3, #0
	beq	.L154
	ldr	r3, [sp, #28]
	ldr	r3, [r3, #40]
	cmp	r3, #0
	beq	.L154
	mov	r3, #1
	b	.L155
.L154:
	mov	r3, #0
.L155:
	cmp	r3, #0
	beq	.L156
	.loc 21 93 0
	ldr	r4, [sp, #28]
	ldr	r3, [sp, #28]
	mov	r0, r3
	bl	_ZNK8CIwArrayIP3Map12CIwAllocatorIS1_15CIwMallocRouterIS1_EE17ReallocateDefaultIS1_S5_EE4sizeEv
	mov	r3, r0
	sub	r3, r3, #1
	mov	r0, r4
	mov	r1, r3
	bl	_ZNK8CIwArrayIP3Map12CIwAllocatorIS1_15CIwMallocRouterIS1_EE17ReallocateDefaultIS1_S5_EEixEi
	mov	r3, r0
	ldr	r4, [r3, #0]
	cmp	r4, #0
	beq	.L157
	mov	r0, r4
	bl	_ZN3MapD1Ev
	mov	r0, r4
	bl	_ZdlPv
.L157:
	.loc 21 94 0
	ldr	r3, [sp, #28]
	mov	r0, r3
	bl	_ZN8CIwArrayIP3Map12CIwAllocatorIS1_15CIwMallocRouterIS1_EE17ReallocateDefaultIS1_S5_EE8pop_backEv
.L156:
	.loc 21 96 0
	ldr	r3, [sp, #28]
	mov	r2, #0
	str	r2, [r3, #40]
	.loc 21 97 0
	ldr	r2, [sp, #28]
	ldr	r3, [sp, #28]
	ldr	r3, [r3, #40]
	mov	r0, r2
	mov	r1, r3
	bl	_ZNK8CIwArrayIP3Map12CIwAllocatorIS1_15CIwMallocRouterIS1_EE17ReallocateDefaultIS1_S5_EEixEi
	mov	r3, r0
	ldr	r2, [r3, #0]
	ldr	r3, [sp, #28]
	str	r2, [r3, #16]
	.loc 21 98 0
	ldr	r3, [sp, #28]
	ldr	r2, [r3, #20]
	ldr	r3, [sp, #28]
	ldr	r3, [r3, #16]
	add	r3, r3, #16
	mov	r0, r2
	mov	r1, r3
	bl	_ZN9Character4InitEPi
	.loc 21 99 0
	ldr	r3, [sp, #28]
	ldr	r2, [r3, #16]
	ldr	r3, [sp, #28]
	ldr	r3, [r3, #20]
	mov	r0, r2
	add	r3, r3, #8
	ldmia	r3, {r1, r2}
	bl	_ZN3Map17SetCharacterIndexE8CIwFVec2
	.loc 21 100 0
	ldr	r3, [sp, #28]
	ldr	r3, [r3, #16]
	mov	r0, r3
	bl	_ZN3Map4InitEv
	.loc 21 101 0
	ldr	r3, [sp, #28]
	mov	r2, #1
	str	r2, [r3, #44]
.L153:
	.loc 21 103 0
	ldr	r3, [sp, #28]
	ldr	r3, [r3, #44]
	cmp	r3, #4
	bne	.L158
	.loc 21 105 0
	ldr	r3, [sp, #28]
	ldr	r2, [r3, #20]
	ldr	r3, [sp, #28]
	ldr	r3, [r3, #16]
	add	r3, r3, #16
	mov	r0, r2
	mov	r1, r3
	bl	_ZN9Character4InitEPi
	.loc 21 106 0
	ldr	r3, [sp, #28]
	ldr	r2, [r3, #16]
	ldr	r3, [sp, #28]
	ldr	r3, [r3, #20]
	mov	r0, r2
	add	r3, r3, #8
	ldmia	r3, {r1, r2}
	bl	_ZN3Map17SetCharacterIndexE8CIwFVec2
	.loc 21 107 0
	ldr	r3, [sp, #28]
	ldr	r3, [r3, #16]
	mov	r0, r3
	bl	_ZN3Map4InitEv
	.loc 21 108 0
	ldr	r3, [sp, #28]
	mov	r2, #1
	str	r2, [r3, #44]
.L158:
	.loc 21 111 0
	ldr	r3, [sp, #28]
	ldr	r3, [r3, #44]
	cmp	r3, #1
	bne	.L159
	.loc 21 114 0
	ldr	r3, [sp, #28]
	ldr	r3, [r3, #16]
	ldrb	r3, [r3, #44]	@ zero_extendqisi2
	cmp	r3, #0
	beq	.L160
	.loc 21 115 0
	ldr	r3, [sp, #28]
	ldr	r3, [r3, #32]
	mov	r0, r3
	bl	_ZN2SE10TileRotateEv
.L160:
	.loc 21 116 0
	ldr	r3, .L179+20
	ldr	r3, [r3, #0]
	cmp	r3, #2
	bne	.L161
	.loc 21 119 0
	ldr	r3, [sp, #28]
	ldr	r3, [r3, #20]
	add	r4, r3, #32
	add	r3, sp, #56
	mov	r0, r3
	mov	r1, #2
	bl	_Z10GetTouches15s3ePointerState
	add	r3, sp, #56
	mov	r0, r4
	mov	r1, r3
	bl	_ZN8CIwFVec2aSERKS_
	.loc 21 120 0
	ldr	r3, [sp, #28]
	ldr	r3, [r3, #20]
	mov	r4, r3
	ldr	r3, [sp, #28]
	ldr	r3, [r3, #20]
	add	r2, r3, #32
	ldr	r3, [sp, #28]
	ldr	r3, [r3, #16]
	add	r1, sp, #64
	mov	r0, r1
	mov	r1, r2
	mov	r2, r3
	bl	_ZNK8CIwFVec2plERKS_
	add	r3, sp, #64
	mov	r0, r4
	mov	r1, r3
	bl	_ZN8CIwFVec2aSERKS_
.L161:
	.loc 21 123 0
	ldr	r3, [sp, #28]
	ldr	r2, [r3, #16]
	ldr	r3, [sp, #28]
	ldr	r3, [r3, #20]
	mov	r0, r2
	add	r3, r3, #8
	ldmia	r3, {r1, r2}
	bl	_ZN3Map17SetCharacterIndexE8CIwFVec2
	.loc 21 124 0
	ldr	r3, [sp, #28]
	ldr	r3, [r3, #16]
	mov	r0, r3
	bl	_ZN3Map10CheckBlockEv
	mov	r3, r0
	cmp	r3, #0
	beq	.L162
	.loc 21 126 0
	ldr	r3, [sp, #28]
	ldr	r3, [r3, #16]
	mov	r0, r3
	bl	_ZN3Map13CheckMazePathEv
	mov	r3, r0
	eor	r3, r3, #1
	and	r3, r3, #255
	cmp	r3, #0
	bne	.L177
.L162:
	.loc 21 129 0
	ldr	r3, [sp, #28]
	ldr	r3, [r3, #16]
	mov	r0, r3
	bl	_ZN3Map13CheckEndPointEv
	mov	r3, r0
	cmp	r3, #0
	beq	.L164
.LBB4:
	.loc 21 131 0
	ldr	r3, [sp, #28]
	ldr	r3, [r3, #36]
	ldr	r3, [r3, #4]
	mov	r0, r3
	mov	r1, #1
	bl	_ZN5Panel10SetVisibleEb
	.loc 21 132 0
	ldr	r3, [sp, #28]
	ldr	r3, [r3, #36]
	mov	r0, r3
	bl	_ZN2UI9IsTouchedEv
	mov	r3, r0
	str	r3, [sp, #100]
	.loc 21 133 0
	ldr	r3, [sp, #100]
	cmp	r3, #6
	bne	.L178
.LBB5:
	.loc 21 135 0
	ldr	r4, [sp, #28]
	ldr	r3, [sp, #28]
	mov	r0, r3
	bl	_ZNK8CIwArrayIP3Map12CIwAllocatorIS1_15CIwMallocRouterIS1_EE17ReallocateDefaultIS1_S5_EE4sizeEv
	mov	r3, r0
	sub	r3, r3, #1
	mov	r0, r4
	mov	r1, r3
	bl	_ZNK8CIwArrayIP3Map12CIwAllocatorIS1_15CIwMallocRouterIS1_EE17ReallocateDefaultIS1_S5_EEixEi
	mov	r3, r0
	ldr	r4, [r3, #0]
	cmp	r4, #0
	beq	.L166
	mov	r0, r4
	bl	_ZN3MapD1Ev
	mov	r0, r4
	bl	_ZdlPv
.L166:
	.loc 21 136 0
	ldr	r3, [sp, #28]
	mov	r0, r3
	bl	_ZN8CIwArrayIP3Map12CIwAllocatorIS1_15CIwMallocRouterIS1_EE17ReallocateDefaultIS1_S5_EE8pop_backEv
	.loc 21 137 0
	ldr	r3, [sp, #28]
	mov	r0, r3
	mov	r1, #0
	bl	_ZNK8CIwArrayIP3Map12CIwAllocatorIS1_15CIwMallocRouterIS1_EE17ReallocateDefaultIS1_S5_EEixEi
	mov	r3, r0
	ldr	r3, [r3, #0]
	add	r2, r3, #24
	ldr	r3, [sp, #28]
	ldr	r3, [r3, #40]
	sub	r3, r3, #1
	mov	r0, r2
	mov	r1, r3
	bl	_ZNK8CIwArrayIi12CIwAllocatorIi15CIwMallocRouterIiEE17ReallocateDefaultIiS3_EEixEi
	mov	r3, r0
	ldr	r3, [r3, #0]
	str	r3, [sp, #104]
	.loc 21 139 0
	ldr	r3, [sp, #28]
	mov	r2, #0
	str	r2, [r3, #40]
	.loc 21 141 0
	ldr	r2, [sp, #28]
	ldr	r3, [sp, #28]
	ldr	r3, [r3, #40]
	mov	r0, r2
	mov	r1, r3
	bl	_ZNK8CIwArrayIP3Map12CIwAllocatorIS1_15CIwMallocRouterIS1_EE17ReallocateDefaultIS1_S5_EEixEi
	mov	r3, r0
	ldr	r2, [r3, #0]
	ldr	r3, [sp, #28]
	str	r2, [r3, #16]
	.loc 21 142 0
	ldr	r3, [sp, #28]
	ldr	r3, [r3, #16]
	ldr	r3, [r3, #52]
	ldr	r2, [sp, #104]
	mov	r0, r2
	mov	r1, r3
	bl	__aeabi_idivmod
	mov	r3, r1
	add	r3, r3, #1
	str	r3, [sp, #48]
	ldr	r3, [sp, #28]
	ldr	r3, [r3, #16]
	ldr	r3, [r3, #52]
	ldr	r0, [sp, #104]
	mov	r1, r3
	bl	__aeabi_idiv
	mov	r3, r0
	add	r3, r3, #2
	str	r3, [sp, #52]
	.loc 21 144 0
	ldr	r3, [sp, #28]
	ldr	r2, [r3, #20]
	add	r3, sp, #48
	mov	r0, r2
	mov	r1, r3
	bl	_ZN9Character4InitEPi
	.loc 21 145 0
	ldr	r3, [sp, #28]
	ldr	r2, [r3, #16]
	ldr	r3, [sp, #28]
	ldr	r3, [r3, #20]
	mov	r0, r2
	add	r3, r3, #8
	ldmia	r3, {r1, r2}
	bl	_ZN3Map17SetCharacterIndexE8CIwFVec2
	.loc 21 147 0
	ldr	r3, [sp, #28]
	ldr	r2, [r3, #16]
	add	r3, sp, #48
	mov	r0, r2
	mov	r1, r3
	bl	_ZN3Map4InitEPi
.L164:
.LBE5:
.LBE4:
	.loc 21 152 0
	ldr	r3, [sp, #28]
	ldr	r3, [r3, #40]
	cmp	r3, #0
	bne	.L167
.LBB6:
	.loc 21 154 0
	ldr	r3, [sp, #28]
	ldr	r3, [r3, #16]
	mov	r0, r3
	bl	_ZN3Map9CheckDoorEv
	mov	r3, r0
	add	r3, r3, #1
	str	r3, [sp, #108]
	.loc 21 156 0
	ldr	r3, [sp, #108]
	cmp	r3, #0
	ble	.L167
	.loc 21 157 0
	ldr	r0, [sp, #28]
	ldr	r1, [sp, #108]
	bl	_ZN5CGame10EnterLevelEi
.L167:
.LBE6:
	.loc 21 160 0
	ldr	r3, [sp, #28]
	ldr	r3, [r3, #20]
	mov	r0, r3
	bl	_ZN9Character19GetDistanceToTargetEv
	fmsr	s14, r0
	flds	s15, .L179
	fcmpes	s14, s15
	fmstat
	movle	r3, #0
	movgt	r3, #1
	and	r3, r3, #255
	cmp	r3, #0
	beq	.L168
	.loc 21 162 0
	ldr	r3, [sp, #28]
	ldr	r3, [r3, #20]
	mov	r2, #1
	str	r2, [r3, #48]
	.loc 21 163 0
	ldr	r3, [sp, #28]
	ldr	r3, [r3, #16]
	mov	r0, r3
	bl	_ZN3Map12CheckMapEdgeEv
	mov	r3, r0
	eor	r3, r3, #1
	and	r3, r3, #255
	cmp	r3, #0
	beq	.L169
	.loc 21 164 0
	ldr	r3, [sp, #28]
	ldr	r3, [r3, #20]
	mov	r2, r3
	ldr	r3, [sp, #28]
	ldr	r3, [r3, #20]
	add	r3, r3, #8
	mov	r0, r2
	mov	r1, r3
	bl	_ZN8CIwFVec2aSERKS_
	b	.L168
.L180:
	.align	2
.L179:
	.word	1065353216
	.word	2999
	.word	_ZN4_STL4coutE
	.word	.LC5
	.word	_ZN4_STL4endlIcNS_11char_traitsIcEEEERNS_13basic_ostreamIT_T0_EES7_
	.word	current_States
	.word	1028443341
	.word	.LC6
.L169:
.LBB7:
	.loc 21 168 0
	ldr	r3, [sp, #28]
	ldr	r3, [r3, #20]
	flds	s14, [r3, #0]
	ldr	r3, [sp, #28]
	ldr	r3, [r3, #20]
	flds	s13, [r3, #8]
	ldr	r3, [sp, #28]
	ldr	r3, [r3, #16]
	flds	s15, [r3, #0]
	fsubs	s15, s13, s15
	fcmpes	s14, s15
	fmstat
	movpl	r3, #0
	movmi	r3, #1
	and	r3, r3, #255
	cmp	r3, #0
	beq	.L170
	.loc 21 169 0
	ldr	r3, [sp, #28]
	ldr	r3, [r3, #20]
	ldr	r2, [sp, #28]
	ldr	r2, [r2, #20]
	flds	s14, [r2, #8]
	ldr	r2, [sp, #28]
	ldr	r2, [r2, #16]
	flds	s15, [r2, #0]
	fsubs	s15, s14, s15
	fsts	s15, [r3, #0]
.L170:
	.loc 21 170 0
	ldr	r3, [sp, #28]
	ldr	r3, [r3, #20]
	flds	s14, [r3, #4]
	ldr	r3, [sp, #28]
	ldr	r3, [r3, #20]
	flds	s13, [r3, #12]
	ldr	r3, [sp, #28]
	ldr	r3, [r3, #16]
	flds	s15, [r3, #4]
	fsubs	s15, s13, s15
	fcmpes	s14, s15
	fmstat
	movpl	r3, #0
	movmi	r3, #1
	and	r3, r3, #255
	cmp	r3, #0
	beq	.L171
	.loc 21 171 0
	ldr	r3, [sp, #28]
	ldr	r3, [r3, #20]
	ldr	r2, [sp, #28]
	ldr	r2, [r2, #20]
	flds	s14, [r2, #12]
	ldr	r2, [sp, #28]
	ldr	r2, [r2, #16]
	flds	s15, [r2, #4]
	fsubs	s15, s14, s15
	fsts	s15, [r3, #4]
.L171:
	.loc 21 173 0
	ldr	r3, [sp, #28]
	ldr	r3, [r3, #20]
	flds	s16, [r3, #0]
	ldr	r3, [sp, #28]
	ldr	r3, [r3, #20]
	flds	s17, [r3, #8]
	ldr	r3, [sp, #28]
	ldr	r3, [r3, #16]
	mov	r0, r3
	bl	_ZN3Map10GetMapSizeEv
	strh	r0, [sp, #16]	@ movhi
	mov	r3, r0, lsr #16
	strh	r3, [sp, #18]	@ movhi
	ldr	r3, [sp, #16]
	str	r3, [sp, #72]
	ldrh	r3, [sp, #72]
	mov	r3, r3, asl #16
	mov	r3, r3, asr #16
	fmsr	s15, r3	@ int
	fsitos	s15, s15
	fadds	s17, s17, s15
	bl	_Z19Iw2DGetSurfaceWidthv
	fmsr	s15, r0	@ int
	fsitos	s15, s15
	fsubs	s14, s17, s15
	ldr	r3, [sp, #28]
	ldr	r3, [r3, #16]
	flds	s15, [r3, #0]
	fsubs	s15, s14, s15
	fcmpes	s16, s15
	fmstat
	movle	r3, #0
	movgt	r3, #1
	and	r3, r3, #255
	cmp	r3, #0
	beq	.L172
	.loc 21 174 0
	ldr	r3, [sp, #28]
	ldr	r4, [r3, #20]
	ldr	r3, [sp, #28]
	ldr	r3, [r3, #20]
	flds	s16, [r3, #8]
	ldr	r3, [sp, #28]
	ldr	r3, [r3, #16]
	mov	r0, r3
	bl	_ZN3Map10GetMapSizeEv
	strh	r0, [sp, #16]	@ movhi
	mov	r3, r0, lsr #16
	strh	r3, [sp, #18]	@ movhi
	ldr	r3, [sp, #16]
	str	r3, [sp, #76]
	ldrh	r3, [sp, #76]
	mov	r3, r3, asl #16
	mov	r3, r3, asr #16
	fmsr	s15, r3	@ int
	fsitos	s15, s15
	fadds	s16, s16, s15
	bl	_Z19Iw2DGetSurfaceWidthv
	fmsr	s15, r0	@ int
	fsitos	s15, s15
	fsubs	s14, s16, s15
	ldr	r3, [sp, #28]
	ldr	r3, [r3, #16]
	flds	s15, [r3, #0]
	fsubs	s15, s14, s15
	fsts	s15, [r4, #0]
.L172:
	.loc 21 175 0
	ldr	r3, [sp, #28]
	ldr	r3, [r3, #20]
	flds	s16, [r3, #4]
	ldr	r3, [sp, #28]
	ldr	r3, [r3, #20]
	flds	s17, [r3, #12]
	ldr	r3, [sp, #28]
	ldr	r3, [r3, #16]
	mov	r0, r3
	bl	_ZN3Map10GetMapSizeEv
	strh	r0, [sp, #16]	@ movhi
	mov	r3, r0, lsr #16
	strh	r3, [sp, #18]	@ movhi
	ldr	r3, [sp, #16]
	str	r3, [sp, #80]
	ldrh	r3, [sp, #82]
	mov	r3, r3, asl #16
	mov	r3, r3, asr #16
	fmsr	s15, r3	@ int
	fsitos	s15, s15
	fadds	s17, s17, s15
	bl	_Z20Iw2DGetSurfaceHeightv
	fmsr	s15, r0	@ int
	fsitos	s15, s15
	fsubs	s14, s17, s15
	ldr	r3, [sp, #28]
	ldr	r3, [r3, #16]
	flds	s15, [r3, #4]
	fsubs	s15, s14, s15
	fcmpes	s16, s15
	fmstat
	movle	r3, #0
	movgt	r3, #1
	and	r3, r3, #255
	cmp	r3, #0
	beq	.L173
	.loc 21 176 0
	ldr	r3, [sp, #28]
	ldr	r4, [r3, #20]
	ldr	r3, [sp, #28]
	ldr	r3, [r3, #20]
	flds	s16, [r3, #12]
	ldr	r3, [sp, #28]
	ldr	r3, [r3, #16]
	mov	r0, r3
	bl	_ZN3Map10GetMapSizeEv
	strh	r0, [sp, #16]	@ movhi
	mov	r3, r0, lsr #16
	strh	r3, [sp, #18]	@ movhi
	ldr	r3, [sp, #16]
	str	r3, [sp, #84]
	ldrh	r3, [sp, #86]
	mov	r3, r3, asl #16
	mov	r3, r3, asr #16
	fmsr	s15, r3	@ int
	fsitos	s15, s15
	fadds	s16, s16, s15
	bl	_Z20Iw2DGetSurfaceHeightv
	fmsr	s15, r0	@ int
	fsitos	s15, s15
	fsubs	s14, s16, s15
	ldr	r3, [sp, #28]
	ldr	r3, [r3, #16]
	flds	s15, [r3, #4]
	fsubs	s15, s14, s15
	fsts	s15, [r4, #4]
.L173:
	.loc 21 178 0
	ldr	r3, [sp, #28]
	ldr	r3, [r3, #20]
	mov	r2, r3
	ldr	r3, [sp, #28]
	ldr	r3, [r3, #20]
	add	r3, r3, #8
	add	r1, sp, #40
	mov	r0, r1
	mov	r1, r2
	mov	r2, r3
	bl	_ZNK8CIwFVec2miERKS_
	.loc 21 179 0
	add	r2, sp, #32
	add	r3, sp, #40
	mov	r0, r2
	mov	r1, r3
	ldr	r2, .L179+24	@ float
	bl	_ZNK8CIwFVec2mlEf
	.loc 21 181 0
	ldr	r3, [sp, #28]
	ldr	r3, [r3, #20]
	add	r2, r3, #8
	add	r3, sp, #32
	mov	r0, r2
	mov	r1, r3
	bl	_ZN8CIwFVec2pLERKS_
	.loc 21 182 0
	ldr	r3, [sp, #28]
	ldr	r3, [r3, #16]
	mov	r2, r3
	add	r3, sp, #32
	mov	r0, r2
	mov	r1, r3
	bl	_ZN8CIwFVec2pLERKS_
	.loc 21 183 0
	ldr	r3, [sp, #28]
	ldr	r3, [r3, #32]
	mov	r0, r3
	mov	r1, #1
	bl	_ZN2SE6UpdateEb
	mov	r3, r0
	eor	r3, r3, #1
	and	r3, r3, #255
	cmp	r3, #0
	beq	.L174
	.loc 21 184 0
	mov	r0, #300
	mov	r1, #100
	ldr	r2, .L179+28
	mov	r3, #0
	bl	s3eDebugPrint
.L174:
	.loc 21 185 0
	ldr	r3, [sp, #28]
	ldr	ip, [r3, #16]
	ldr	r3, [sp, #28]
	ldr	r2, [r3, #20]
	ldr	r3, [sp, #28]
	ldr	r3, [r3, #20]
	ldr	r1, [sp, #28]
	ldr	r1, [r1, #20]
	mov	r0, r1
	ldr	r1, [sp, #28]
	ldr	r1, [r1, #20]
	str	r0, [sp, #0]
	add	lr, sp, #4
	add	r1, r1, #16
	ldmia	r1, {r0, r1}
	stmia	lr, {r0, r1}
	mov	r0, ip
	add	r2, r2, #8
	ldmia	r2, {r1, r2}
	ldr	r3, [r3, #40]
	bl	_ZN3Map14CheckCollisionE8CIwFVec28CIwSVec2RS0_S0_
	mov	r3, r0
	cmp	r3, #0
	beq	.L168
	.loc 21 187 0
	ldr	r3, [sp, #28]
	ldr	r3, [r3, #20]
	add	r2, r3, #8
	ldr	r3, [sp, #28]
	ldr	r3, [r3, #20]
	add	r3, r3, #16
	mov	r0, r2
	mov	r1, r3
	bl	_ZN8CIwFVec2aSERKS_
	.loc 21 188 0
	ldr	r3, [sp, #28]
	ldr	r3, [r3, #16]
	mov	r2, r3
	ldr	r3, [sp, #28]
	ldr	r3, [r3, #16]
	add	r3, r3, #8
	mov	r0, r2
	mov	r1, r3
	bl	_ZN8CIwFVec2aSERKS_
.L168:
.LBE7:
	.loc 21 195 0
	ldr	r3, [sp, #28]
	ldr	r3, [r3, #20]
	add	r4, r3, #32
	ldr	r3, [sp, #28]
	ldr	r3, [r3, #20]
	mov	r2, r3
	ldr	r3, [sp, #28]
	ldr	r3, [r3, #16]
	add	r1, sp, #88
	mov	r0, r1
	mov	r1, r2
	mov	r2, r3
	bl	_ZNK8CIwFVec2miERKS_
	add	r3, sp, #88
	mov	r0, r4
	mov	r1, r3
	bl	_ZN8CIwFVec2aSERKS_
	.loc 21 196 0
	ldr	r3, [sp, #28]
	ldr	r3, [r3, #20]
	add	r2, r3, #16
	ldr	r3, [sp, #28]
	ldr	r3, [r3, #20]
	add	r3, r3, #8
	mov	r0, r2
	mov	r1, r3
	bl	_ZN8CIwFVec2aSERKS_
	.loc 21 197 0
	ldr	r3, [sp, #28]
	ldr	r3, [r3, #16]
	add	r2, r3, #8
	ldr	r3, [sp, #28]
	ldr	r3, [r3, #16]
	mov	r0, r2
	mov	r1, r3
	bl	_ZN8CIwFVec2aSERKS_
.L159:
	.loc 21 202 0
	ldr	r3, [sp, #28]
	ldr	r3, [r3, #20]
	mov	r0, r3
	ldr	r1, [sp, #24]
	bl	_ZN9Character6UpdateEi
	.loc 21 203 0
	ldr	r3, [sp, #28]
	ldr	r3, [r3, #24]
	mov	r2, r3
	ldr	r3, [sp, #28]
	ldr	r3, [r3, #36]
	ldrb	r3, [r3, #12]	@ zero_extendqisi2
	mov	r0, r2
	mov	r1, r3
	bl	_ZN5Audio6UpdateEb
	mov	r3, r0
	eor	r3, r3, #1
	and	r3, r3, #255
	cmp	r3, #0
	beq	.L175
	.loc 21 204 0
	mov	r0, #300
	mov	r1, #100
	ldr	r2, .L179+28
	mov	r3, #0
	bl	s3eDebugPrint
.L175:
	.loc 21 207 0
	bl	_Z17IwGetSoundManagerv
	mov	r3, r0
	mov	r0, r3
	bl	_ZN15CIwSoundManager6UpdateEv
	b	.L176
.L177:
	.loc 21 127 0
	mov	r0, r0	@ nop
	b	.L176
.L178:
.LBB8:
	.loc 21 150 0
	mov	r0, r0	@ nop
.L176:
.LBE8:
.LBE3:
	.loc 21 209 0
	add	sp, sp, #112
	fldmfdd	sp!, {d8}
	ldmfd	sp!, {r4, pc}
	.cfi_endproc
.LFE3498:
	.size	_ZN5CGame6UpdateEi, .-_ZN5CGame6UpdateEi
	.section	.rodata
	.align	2
.LC7:
	.ascii	"MI \000"
	.align	2
.LC8:
	.ascii	"MI\000"
	.section	.text._ZN5CGame6RenderEv,"ax",%progbits
	.align	2
	.global	_ZN5CGame6RenderEv
	.hidden	_ZN5CGame6RenderEv
	.type	_ZN5CGame6RenderEv, %function
_ZN5CGame6RenderEv:
.LFB3499:
	.loc 21 213 0
	.cfi_startproc
	@ args = 0, pretend = 0, frame = 32
	@ frame_needed = 0, uses_anonymous_args = 0
	stmfd	sp!, {r4, lr}
.LCFI70:
	.cfi_def_cfa_offset 8
	sub	sp, sp, #32
.LCFI71:
	.cfi_def_cfa_offset 40
	str	r0, [sp, #4]
.LBB9:
	.loc 21 215 0
	ldr	r0, .L184
	.cfi_offset 14, -4
	.cfi_offset 4, -8
	bl	_Z16Iw2DSurfaceClearj
	.loc 21 216 0
	mvn	r0, #0
	bl	_Z13Iw2DSetColourj
	.loc 21 217 0
	add	r3, sp, #24
	mov	r0, r3
	bl	_ZN4_STL9allocatorIcEC1Ev
	add	r2, sp, #12
	add	r3, sp, #24
	mov	r0, r2
	ldr	r1, .L184+4
	mov	r2, r3
	bl	_ZN4_STL12basic_stringIcNS_11char_traitsIcEENS_9allocatorIcEEEC1EPKcRKS4_
	add	r3, sp, #24
	mov	r0, r3
	bl	_ZN4_STL9allocatorIcED1Ev
	.loc 21 227 0
	ldr	r0, .L184+8
	mov	r1, #10
	ldr	r2, .L184+12
	mov	r3, #1
	bl	_Z15IwGxPrintStringiiPKcb
	.loc 21 229 0
	ldr	r3, [sp, #4]
	ldr	r2, [r3, #16]
	ldr	r3, [sp, #4]
	ldr	r3, [r3, #20]
	mov	r0, r2
	ldr	r1, [r3, #40]
	bl	_ZN3Map6RenderE8CIwSVec2
	.loc 21 230 0
	ldr	r3, [sp, #4]
	ldr	r2, [r3, #20]
	ldr	r3, [sp, #4]
	ldr	r3, [r3, #16]
	mov	r0, r2
	ldmia	r3, {r1, r2}
	bl	_ZN9Character6RenderE8CIwFVec2
	.loc 21 231 0
	ldr	r3, [sp, #4]
	ldr	r3, [r3, #36]
	mov	r0, r3
	bl	_ZN2UI6RenderEv
	.loc 21 232 0
	ldr	r3, [sp, #4]
	ldrb	r3, [r3, #48]	@ zero_extendqisi2
	cmp	r3, #0
	beq	.L182
	.loc 21 233 0
	ldr	r3, [sp, #4]
	ldr	r4, [r3, #28]
	add	r3, sp, #28
	mov	r0, r3
	mov	r1, #300
	mov	r2, #300
	bl	_ZN8CIwSVec2C1Ess
	mov	r0, r4
	ldr	r1, [sp, #28]
	bl	_Z13Iw2DDrawImageP10CIw2DImage8CIwSVec2
.L182:
	.loc 21 235 0
	bl	_Z15Iw2DSurfaceShowv
	add	r3, sp, #12
	mov	r0, r3
	bl	_ZN4_STL12basic_stringIcNS_11char_traitsIcEENS_9allocatorIcEEED1Ev
.LBE9:
	.loc 21 236 0
	add	sp, sp, #32
	ldmfd	sp!, {r4, pc}
.L185:
	.align	2
.L184:
	.word	15523583
	.word	.LC7
	.word	630
	.word	.LC8
	.cfi_endproc
.LFE3499:
	.size	_ZN5CGame6RenderEv, .-_ZN5CGame6RenderEv
	.section	.text._ZN4_STL9allocatorI8ObstacleEC1Ev,"axG",%progbits,_ZN4_STL9allocatorI8ObstacleEC1Ev,comdat
	.align	2
	.weak	_ZN4_STL9allocatorI8ObstacleEC1Ev
	.hidden	_ZN4_STL9allocatorI8ObstacleEC1Ev
	.type	_ZN4_STL9allocatorI8ObstacleEC1Ev, %function
_ZN4_STL9allocatorI8ObstacleEC1Ev:
.LFB3585:
	.file 22 "c:/marmalade/6.2/s3e/h/std/c++/stl/_alloc.h"
	.loc 22 345 0
	.cfi_startproc
	@ args = 0, pretend = 0, frame = 8
	@ frame_needed = 0, uses_anonymous_args = 0
	@ link register save eliminated.
	sub	sp, sp, #8
.LCFI72:
	.cfi_def_cfa_offset 8
	str	r0, [sp, #4]
	.loc 22 345 0
	ldr	r3, [sp, #4]
	mov	r0, r3
	add	sp, sp, #8
	bx	lr
	.cfi_endproc
.LFE3585:
	.size	_ZN4_STL9allocatorI8ObstacleEC1Ev, .-_ZN4_STL9allocatorI8ObstacleEC1Ev
	.section	.text._ZN4_STL9allocatorI8ObstacleED2Ev,"axG",%progbits,_ZN4_STL9allocatorI8ObstacleED2Ev,comdat
	.align	2
	.weak	_ZN4_STL9allocatorI8ObstacleED2Ev
	.hidden	_ZN4_STL9allocatorI8ObstacleED2Ev
	.type	_ZN4_STL9allocatorI8ObstacleED2Ev, %function
_ZN4_STL9allocatorI8ObstacleED2Ev:
.LFB3587:
	.loc 22 350 0
	.cfi_startproc
	@ args = 0, pretend = 0, frame = 8
	@ frame_needed = 0, uses_anonymous_args = 0
	@ link register save eliminated.
	sub	sp, sp, #8
.LCFI73:
	.cfi_def_cfa_offset 8
	str	r0, [sp, #4]
	.loc 22 350 0
	ldr	r3, [sp, #4]
	mov	r0, r3
	add	sp, sp, #8
	bx	lr
	.cfi_endproc
.LFE3587:
	.size	_ZN4_STL9allocatorI8ObstacleED2Ev, .-_ZN4_STL9allocatorI8ObstacleED2Ev
	.section	.text._ZN4_STL9allocatorI8ObstacleED1Ev,"axG",%progbits,_ZN4_STL9allocatorI8ObstacleED1Ev,comdat
	.align	2
	.weak	_ZN4_STL9allocatorI8ObstacleED1Ev
	.hidden	_ZN4_STL9allocatorI8ObstacleED1Ev
	.type	_ZN4_STL9allocatorI8ObstacleED1Ev, %function
_ZN4_STL9allocatorI8ObstacleED1Ev:
.LFB3588:
	.loc 22 350 0
	.cfi_startproc
	@ args = 0, pretend = 0, frame = 8
	@ frame_needed = 0, uses_anonymous_args = 0
	@ link register save eliminated.
	sub	sp, sp, #8
.LCFI74:
	.cfi_def_cfa_offset 8
	str	r0, [sp, #4]
	.loc 22 350 0
	ldr	r3, [sp, #4]
	mov	r0, r3
	add	sp, sp, #8
	bx	lr
	.cfi_endproc
.LFE3588:
	.size	_ZN4_STL9allocatorI8ObstacleED1Ev, .-_ZN4_STL9allocatorI8ObstacleED1Ev
	.section	.text._ZN4_STL6vectorI8ObstacleNS_9allocatorIS1_EEEC1ERKS3_,"axG",%progbits,_ZN4_STL6vectorI8ObstacleNS_9allocatorIS1_EEEC1ERKS3_,comdat
	.align	2
	.weak	_ZN4_STL6vectorI8ObstacleNS_9allocatorIS1_EEEC1ERKS3_
	.hidden	_ZN4_STL6vectorI8ObstacleNS_9allocatorIS1_EEEC1ERKS3_
	.type	_ZN4_STL6vectorI8ObstacleNS_9allocatorIS1_EEEC1ERKS3_, %function
_ZN4_STL6vectorI8ObstacleNS_9allocatorIS1_EEEC1ERKS3_:
.LFB3591:
	.file 23 "c:/marmalade/6.2/s3e/h/std/c++/stl/_vector.h"
	.loc 23 198 0
	.cfi_startproc
	@ args = 0, pretend = 0, frame = 8
	@ frame_needed = 0, uses_anonymous_args = 0
	str	lr, [sp, #-4]!
.LCFI75:
	.cfi_def_cfa_offset 4
	sub	sp, sp, #12
.LCFI76:
	.cfi_def_cfa_offset 16
	str	r0, [sp, #4]
	str	r1, [sp, #0]
	.loc 23 199 0
	ldr	r3, [sp, #4]
	mov	r0, r3
	ldr	r1, [sp, #0]
	.cfi_offset 14, -4
	bl	_ZN4_STL12_Vector_baseI8ObstacleNS_9allocatorIS1_EEEC2ERKS3_
	ldr	r3, [sp, #4]
	mov	r0, r3
	add	sp, sp, #12
	ldmfd	sp!, {pc}
	.cfi_endproc
.LFE3591:
	.size	_ZN4_STL6vectorI8ObstacleNS_9allocatorIS1_EEEC1ERKS3_, .-_ZN4_STL6vectorI8ObstacleNS_9allocatorIS1_EEEC1ERKS3_
	.section	.text._ZN4_STL6vectorI8ObstacleNS_9allocatorIS1_EEED1Ev,"axG",%progbits,_ZN4_STL6vectorI8ObstacleNS_9allocatorIS1_EEED1Ev,comdat
	.align	2
	.weak	_ZN4_STL6vectorI8ObstacleNS_9allocatorIS1_EEED1Ev
	.hidden	_ZN4_STL6vectorI8ObstacleNS_9allocatorIS1_EEED1Ev
	.type	_ZN4_STL6vectorI8ObstacleNS_9allocatorIS1_EEED1Ev, %function
_ZN4_STL6vectorI8ObstacleNS_9allocatorIS1_EEED1Ev:
.LFB3594:
	.loc 23 258 0
	.cfi_startproc
	@ args = 0, pretend = 0, frame = 8
	@ frame_needed = 0, uses_anonymous_args = 0
	str	lr, [sp, #-4]!
.LCFI77:
	.cfi_def_cfa_offset 4
	sub	sp, sp, #12
.LCFI78:
	.cfi_def_cfa_offset 16
	str	r0, [sp, #4]
	.loc 23 258 0
	ldr	r3, [sp, #4]
	ldr	r2, [r3, #0]
	ldr	r3, [sp, #4]
	ldr	r3, [r3, #4]
	mov	r0, r2
	mov	r1, r3
	.cfi_offset 14, -4
	bl	_ZN4_STL8_DestroyIP8ObstacleEEvT_S3_
	ldr	r3, [sp, #4]
	mov	r0, r3
	bl	_ZN4_STL12_Vector_baseI8ObstacleNS_9allocatorIS1_EEED2Ev
	ldr	r3, [sp, #4]
	mov	r0, r3
	add	sp, sp, #12
	ldmfd	sp!, {pc}
	.cfi_endproc
.LFE3594:
	.size	_ZN4_STL6vectorI8ObstacleNS_9allocatorIS1_EEED1Ev, .-_ZN4_STL6vectorI8ObstacleNS_9allocatorIS1_EEED1Ev
	.section	.text._ZN8CIwArrayIi12CIwAllocatorIi15CIwMallocRouterIiEE17ReallocateDefaultIiS3_EEC1Ej,"axG",%progbits,_ZN8CIwArrayIi12CIwAllocatorIi15CIwMallocRouterIiEE17ReallocateDefaultIiS3_EEC1Ej,comdat
	.align	2
	.weak	_ZN8CIwArrayIi12CIwAllocatorIi15CIwMallocRouterIiEE17ReallocateDefaultIiS3_EEC1Ej
	.hidden	_ZN8CIwArrayIi12CIwAllocatorIi15CIwMallocRouterIiEE17ReallocateDefaultIiS3_EEC1Ej
	.type	_ZN8CIwArrayIi12CIwAllocatorIi15CIwMallocRouterIiEE17ReallocateDefaultIiS3_EEC1Ej, %function
_ZN8CIwArrayIi12CIwAllocatorIi15CIwMallocRouterIiEE17ReallocateDefaultIiS3_EEC1Ej:
.LFB3597:
	.file 24 "c:/marmalade/6.2/modules/iwutil/h/IwArray.h"
	.loc 24 131 0
	.cfi_startproc
	@ args = 0, pretend = 0, frame = 8
	@ frame_needed = 0, uses_anonymous_args = 0
	str	lr, [sp, #-4]!
.LCFI79:
	.cfi_def_cfa_offset 4
	sub	sp, sp, #12
.LCFI80:
	.cfi_def_cfa_offset 16
	str	r0, [sp, #4]
	str	r1, [sp, #0]
	.loc 24 131 0
	ldr	r3, [sp, #4]
	mov	r2, #0
	str	r2, [r3, #0]
	ldr	r3, [sp, #4]
	mov	r2, #0
	str	r2, [r3, #4]
	ldr	r3, [sp, #4]
	mov	r2, #0
	str	r2, [r3, #8]
	ldr	r2, [sp, #4]
	ldrb	r3, [r2, #12]
	bic	r3, r3, #1
	strb	r3, [r2, #12]
	ldr	r2, [sp, #4]
	ldrb	r3, [r2, #12]
	bic	r3, r3, #2
	strb	r3, [r2, #12]
	.loc 24 133 0
	ldr	r0, [sp, #4]
	ldr	r1, [sp, #0]
	.cfi_offset 14, -4
	bl	_ZN8CIwArrayIi12CIwAllocatorIi15CIwMallocRouterIiEE17ReallocateDefaultIiS3_EE6resizeEj
	.loc 24 134 0
	ldr	r0, [sp, #4]
	bl	_ZN8CIwArrayIi12CIwAllocatorIi15CIwMallocRouterIiEE17ReallocateDefaultIiS3_EE5clearEv
	ldr	r3, [sp, #4]
	.loc 24 135 0
	mov	r0, r3
	add	sp, sp, #12
	ldmfd	sp!, {pc}
	.cfi_endproc
.LFE3597:
	.size	_ZN8CIwArrayIi12CIwAllocatorIi15CIwMallocRouterIiEE17ReallocateDefaultIiS3_EEC1Ej, .-_ZN8CIwArrayIi12CIwAllocatorIi15CIwMallocRouterIiEE17ReallocateDefaultIiS3_EEC1Ej
	.section	.text._ZN8CIwArrayIP6Button12CIwAllocatorIS1_15CIwMallocRouterIS1_EE17ReallocateDefaultIS1_S5_EED1Ev,"axG",%progbits,_ZN8CIwArrayIP6Button12CIwAllocatorIS1_15CIwMallocRouterIS1_EE17ReallocateDefaultIS1_S5_EED1Ev,comdat
	.align	2
	.weak	_ZN8CIwArrayIP6Button12CIwAllocatorIS1_15CIwMallocRouterIS1_EE17ReallocateDefaultIS1_S5_EED1Ev
	.hidden	_ZN8CIwArrayIP6Button12CIwAllocatorIS1_15CIwMallocRouterIS1_EE17ReallocateDefaultIS1_S5_EED1Ev
	.type	_ZN8CIwArrayIP6Button12CIwAllocatorIS1_15CIwMallocRouterIS1_EE17ReallocateDefaultIS1_S5_EED1Ev, %function
_ZN8CIwArrayIP6Button12CIwAllocatorIS1_15CIwMallocRouterIS1_EE17ReallocateDefaultIS1_S5_EED1Ev:
.LFB3621:
	.loc 24 137 0
	.cfi_startproc
	@ args = 0, pretend = 0, frame = 16
	@ frame_needed = 0, uses_anonymous_args = 0
	str	lr, [sp, #-4]!
.LCFI81:
	.cfi_def_cfa_offset 4
	sub	sp, sp, #20
.LCFI82:
	.cfi_def_cfa_offset 24
	str	r0, [sp, #4]
.LBB10:
	.loc 24 139 0
	mov	r3, #0
	str	r3, [sp, #12]
	b	.L205
	.cfi_offset 14, -4
.L206:
	ldr	r3, [sp, #12]
	add	r3, r3, #1
	str	r3, [sp, #12]
.L205:
	ldr	r3, [sp, #4]
	ldr	r2, [r3, #4]
	ldr	r3, [sp, #12]
	cmp	r2, r3
	movls	r3, #0
	movhi	r3, #1
	and	r3, r3, #255
	cmp	r3, #0
	bne	.L206
.LBE10:
	.loc 24 141 0
	ldr	r3, [sp, #4]
	ldrb	r3, [r3, #12]
	and	r3, r3, #1
	and	r3, r3, #255
	eor	r3, r3, #1
	and	r3, r3, #255
	cmp	r3, #0
	beq	.L207
	.loc 24 143 0
	ldr	r3, [sp, #4]
	add	r1, r3, #13
	ldr	r3, [sp, #4]
	ldr	r2, [r3, #0]
	ldr	r3, [sp, #4]
	ldr	r3, [r3, #4]
	mov	r0, r1
	mov	r1, r2
	mov	r2, r3
	bl	_ZN12CIwAllocatorIP6Button15CIwMallocRouterIS1_EE10deallocateEPS1_j
	.loc 24 144 0
	ldr	r3, [sp, #4]
	mov	r2, #0
	str	r2, [r3, #0]
.L207:
	ldr	r3, [sp, #4]
	.loc 24 146 0
	mov	r0, r3
	add	sp, sp, #20
	ldmfd	sp!, {pc}
	.cfi_endproc
.LFE3621:
	.size	_ZN8CIwArrayIP6Button12CIwAllocatorIS1_15CIwMallocRouterIS1_EE17ReallocateDefaultIS1_S5_EED1Ev, .-_ZN8CIwArrayIP6Button12CIwAllocatorIS1_15CIwMallocRouterIS1_EE17ReallocateDefaultIS1_S5_EED1Ev
	.section	.text._ZN8CIwArrayIP10CIw2DImage12CIwAllocatorIS1_15CIwMallocRouterIS1_EE17ReallocateDefaultIS1_S5_EED1Ev,"axG",%progbits,_ZN8CIwArrayIP10CIw2DImage12CIwAllocatorIS1_15CIwMallocRouterIS1_EE17ReallocateDefaultIS1_S5_EED1Ev,comdat
	.align	2
	.weak	_ZN8CIwArrayIP10CIw2DImage12CIwAllocatorIS1_15CIwMallocRouterIS1_EE17ReallocateDefaultIS1_S5_EED1Ev
	.hidden	_ZN8CIwArrayIP10CIw2DImage12CIwAllocatorIS1_15CIwMallocRouterIS1_EE17ReallocateDefaultIS1_S5_EED1Ev
	.type	_ZN8CIwArrayIP10CIw2DImage12CIwAllocatorIS1_15CIwMallocRouterIS1_EE17ReallocateDefaultIS1_S5_EED1Ev, %function
_ZN8CIwArrayIP10CIw2DImage12CIwAllocatorIS1_15CIwMallocRouterIS1_EE17ReallocateDefaultIS1_S5_EED1Ev:
.LFB3627:
	.loc 24 137 0
	.cfi_startproc
	@ args = 0, pretend = 0, frame = 16
	@ frame_needed = 0, uses_anonymous_args = 0
	str	lr, [sp, #-4]!
.LCFI83:
	.cfi_def_cfa_offset 4
	sub	sp, sp, #20
.LCFI84:
	.cfi_def_cfa_offset 24
	str	r0, [sp, #4]
.LBB11:
	.loc 24 139 0
	mov	r3, #0
	str	r3, [sp, #12]
	b	.L210
	.cfi_offset 14, -4
.L211:
	ldr	r3, [sp, #12]
	add	r3, r3, #1
	str	r3, [sp, #12]
.L210:
	ldr	r3, [sp, #4]
	ldr	r2, [r3, #4]
	ldr	r3, [sp, #12]
	cmp	r2, r3
	movls	r3, #0
	movhi	r3, #1
	and	r3, r3, #255
	cmp	r3, #0
	bne	.L211
.LBE11:
	.loc 24 141 0
	ldr	r3, [sp, #4]
	ldrb	r3, [r3, #12]
	and	r3, r3, #1
	and	r3, r3, #255
	eor	r3, r3, #1
	and	r3, r3, #255
	cmp	r3, #0
	beq	.L212
	.loc 24 143 0
	ldr	r3, [sp, #4]
	add	r1, r3, #13
	ldr	r3, [sp, #4]
	ldr	r2, [r3, #0]
	ldr	r3, [sp, #4]
	ldr	r3, [r3, #4]
	mov	r0, r1
	mov	r1, r2
	mov	r2, r3
	bl	_ZN12CIwAllocatorIP10CIw2DImage15CIwMallocRouterIS1_EE10deallocateEPS1_j
	.loc 24 144 0
	ldr	r3, [sp, #4]
	mov	r2, #0
	str	r2, [r3, #0]
.L212:
	ldr	r3, [sp, #4]
	.loc 24 146 0
	mov	r0, r3
	add	sp, sp, #20
	ldmfd	sp!, {pc}
	.cfi_endproc
.LFE3627:
	.size	_ZN8CIwArrayIP10CIw2DImage12CIwAllocatorIS1_15CIwMallocRouterIS1_EE17ReallocateDefaultIS1_S5_EED1Ev, .-_ZN8CIwArrayIP10CIw2DImage12CIwAllocatorIS1_15CIwMallocRouterIS1_EE17ReallocateDefaultIS1_S5_EED1Ev
	.section	.text._ZN8CIwArrayIP10CIw2DImage12CIwAllocatorIS1_15CIwMallocRouterIS1_EE17ReallocateDefaultIS1_S5_EE15clear_optimisedEv,"axG",%progbits,_ZN8CIwArrayIP10CIw2DImage12CIwAllocatorIS1_15CIwMallocRouterIS1_EE17ReallocateDefaultIS1_S5_EE15clear_optimisedEv,comdat
	.align	2
	.weak	_ZN8CIwArrayIP10CIw2DImage12CIwAllocatorIS1_15CIwMallocRouterIS1_EE17ReallocateDefaultIS1_S5_EE15clear_optimisedEv
	.hidden	_ZN8CIwArrayIP10CIw2DImage12CIwAllocatorIS1_15CIwMallocRouterIS1_EE17ReallocateDefaultIS1_S5_EE15clear_optimisedEv
	.type	_ZN8CIwArrayIP10CIw2DImage12CIwAllocatorIS1_15CIwMallocRouterIS1_EE17ReallocateDefaultIS1_S5_EE15clear_optimisedEv, %function
_ZN8CIwArrayIP10CIw2DImage12CIwAllocatorIS1_15CIwMallocRouterIS1_EE17ReallocateDefaultIS1_S5_EE15clear_optimisedEv:
.LFB3628:
	.loc 24 209 0
	.cfi_startproc
	@ args = 0, pretend = 0, frame = 8
	@ frame_needed = 0, uses_anonymous_args = 0
	str	lr, [sp, #-4]!
.LCFI85:
	.cfi_def_cfa_offset 4
	sub	sp, sp, #12
.LCFI86:
	.cfi_def_cfa_offset 16
	str	r0, [sp, #4]
	.loc 24 211 0
	ldr	r0, [sp, #4]
	mov	r1, #0
	.cfi_offset 14, -4
	bl	_ZN8CIwArrayIP10CIw2DImage12CIwAllocatorIS1_15CIwMallocRouterIS1_EE17ReallocateDefaultIS1_S5_EE8truncateEj
	.loc 24 212 0
	ldr	r0, [sp, #4]
	mov	r1, #0
	bl	_ZN8CIwArrayIP10CIw2DImage12CIwAllocatorIS1_15CIwMallocRouterIS1_EE17ReallocateDefaultIS1_S5_EE12set_capacityEj
	.loc 24 213 0
	add	sp, sp, #12
	ldmfd	sp!, {pc}
	.cfi_endproc
.LFE3628:
	.size	_ZN8CIwArrayIP10CIw2DImage12CIwAllocatorIS1_15CIwMallocRouterIS1_EE17ReallocateDefaultIS1_S5_EE15clear_optimisedEv, .-_ZN8CIwArrayIP10CIw2DImage12CIwAllocatorIS1_15CIwMallocRouterIS1_EE17ReallocateDefaultIS1_S5_EE15clear_optimisedEv
	.section	.text._ZN8CIwArrayI12TileObstacle12CIwAllocatorIS0_15CIwMallocRouterIS0_EE17ReallocateDefaultIS0_S4_EEC1Ej,"axG",%progbits,_ZN8CIwArrayI12TileObstacle12CIwAllocatorIS0_15CIwMallocRouterIS0_EE17ReallocateDefaultIS0_S4_EEC1Ej,comdat
	.align	2
	.weak	_ZN8CIwArrayI12TileObstacle12CIwAllocatorIS0_15CIwMallocRouterIS0_EE17ReallocateDefaultIS0_S4_EEC1Ej
	.hidden	_ZN8CIwArrayI12TileObstacle12CIwAllocatorIS0_15CIwMallocRouterIS0_EE17ReallocateDefaultIS0_S4_EEC1Ej
	.type	_ZN8CIwArrayI12TileObstacle12CIwAllocatorIS0_15CIwMallocRouterIS0_EE17ReallocateDefaultIS0_S4_EEC1Ej, %function
_ZN8CIwArrayI12TileObstacle12CIwAllocatorIS0_15CIwMallocRouterIS0_EE17ReallocateDefaultIS0_S4_EEC1Ej:
.LFB3635:
	.loc 24 131 0
	.cfi_startproc
	@ args = 0, pretend = 0, frame = 8
	@ frame_needed = 0, uses_anonymous_args = 0
	str	lr, [sp, #-4]!
.LCFI87:
	.cfi_def_cfa_offset 4
	sub	sp, sp, #12
.LCFI88:
	.cfi_def_cfa_offset 16
	str	r0, [sp, #4]
	str	r1, [sp, #0]
	.loc 24 131 0
	ldr	r3, [sp, #4]
	mov	r2, #0
	str	r2, [r3, #0]
	ldr	r3, [sp, #4]
	mov	r2, #0
	str	r2, [r3, #4]
	ldr	r3, [sp, #4]
	mov	r2, #0
	str	r2, [r3, #8]
	ldr	r2, [sp, #4]
	ldrb	r3, [r2, #12]
	bic	r3, r3, #1
	strb	r3, [r2, #12]
	ldr	r2, [sp, #4]
	ldrb	r3, [r2, #12]
	bic	r3, r3, #2
	strb	r3, [r2, #12]
	.loc 24 133 0
	ldr	r0, [sp, #4]
	ldr	r1, [sp, #0]
	.cfi_offset 14, -4
	bl	_ZN8CIwArrayI12TileObstacle12CIwAllocatorIS0_15CIwMallocRouterIS0_EE17ReallocateDefaultIS0_S4_EE6resizeEj
	.loc 24 134 0
	ldr	r0, [sp, #4]
	bl	_ZN8CIwArrayI12TileObstacle12CIwAllocatorIS0_15CIwMallocRouterIS0_EE17ReallocateDefaultIS0_S4_EE5clearEv
	ldr	r3, [sp, #4]
	.loc 24 135 0
	mov	r0, r3
	add	sp, sp, #12
	ldmfd	sp!, {pc}
	.cfi_endproc
.LFE3635:
	.size	_ZN8CIwArrayI12TileObstacle12CIwAllocatorIS0_15CIwMallocRouterIS0_EE17ReallocateDefaultIS0_S4_EEC1Ej, .-_ZN8CIwArrayI12TileObstacle12CIwAllocatorIS0_15CIwMallocRouterIS0_EE17ReallocateDefaultIS0_S4_EEC1Ej
	.section	.text._ZN8CIwArrayIP3NPC12CIwAllocatorIS1_15CIwMallocRouterIS1_EE17ReallocateDefaultIS1_S5_EEC1Ej,"axG",%progbits,_ZN8CIwArrayIP3NPC12CIwAllocatorIS1_15CIwMallocRouterIS1_EE17ReallocateDefaultIS1_S5_EEC1Ej,comdat
	.align	2
	.weak	_ZN8CIwArrayIP3NPC12CIwAllocatorIS1_15CIwMallocRouterIS1_EE17ReallocateDefaultIS1_S5_EEC1Ej
	.hidden	_ZN8CIwArrayIP3NPC12CIwAllocatorIS1_15CIwMallocRouterIS1_EE17ReallocateDefaultIS1_S5_EEC1Ej
	.type	_ZN8CIwArrayIP3NPC12CIwAllocatorIS1_15CIwMallocRouterIS1_EE17ReallocateDefaultIS1_S5_EEC1Ej, %function
_ZN8CIwArrayIP3NPC12CIwAllocatorIS1_15CIwMallocRouterIS1_EE17ReallocateDefaultIS1_S5_EEC1Ej:
.LFB3641:
	.loc 24 131 0
	.cfi_startproc
	@ args = 0, pretend = 0, frame = 8
	@ frame_needed = 0, uses_anonymous_args = 0
	str	lr, [sp, #-4]!
.LCFI89:
	.cfi_def_cfa_offset 4
	sub	sp, sp, #12
.LCFI90:
	.cfi_def_cfa_offset 16
	str	r0, [sp, #4]
	str	r1, [sp, #0]
	.loc 24 131 0
	ldr	r3, [sp, #4]
	mov	r2, #0
	str	r2, [r3, #0]
	ldr	r3, [sp, #4]
	mov	r2, #0
	str	r2, [r3, #4]
	ldr	r3, [sp, #4]
	mov	r2, #0
	str	r2, [r3, #8]
	ldr	r2, [sp, #4]
	ldrb	r3, [r2, #12]
	bic	r3, r3, #1
	strb	r3, [r2, #12]
	ldr	r2, [sp, #4]
	ldrb	r3, [r2, #12]
	bic	r3, r3, #2
	strb	r3, [r2, #12]
	.loc 24 133 0
	ldr	r0, [sp, #4]
	ldr	r1, [sp, #0]
	.cfi_offset 14, -4
	bl	_ZN8CIwArrayIP3NPC12CIwAllocatorIS1_15CIwMallocRouterIS1_EE17ReallocateDefaultIS1_S5_EE6resizeEj
	.loc 24 134 0
	ldr	r0, [sp, #4]
	bl	_ZN8CIwArrayIP3NPC12CIwAllocatorIS1_15CIwMallocRouterIS1_EE17ReallocateDefaultIS1_S5_EE5clearEv
	ldr	r3, [sp, #4]
	.loc 24 135 0
	mov	r0, r3
	add	sp, sp, #12
	ldmfd	sp!, {pc}
	.cfi_endproc
.LFE3641:
	.size	_ZN8CIwArrayIP3NPC12CIwAllocatorIS1_15CIwMallocRouterIS1_EE17ReallocateDefaultIS1_S5_EEC1Ej, .-_ZN8CIwArrayIP3NPC12CIwAllocatorIS1_15CIwMallocRouterIS1_EE17ReallocateDefaultIS1_S5_EEC1Ej
	.section	.text._ZN8CIwArrayIPc12CIwAllocatorIS0_15CIwMallocRouterIS0_EE17ReallocateDefaultIS0_S4_EEC1Ej,"axG",%progbits,_ZN8CIwArrayIPc12CIwAllocatorIS0_15CIwMallocRouterIS0_EE17ReallocateDefaultIS0_S4_EEC1Ej,comdat
	.align	2
	.weak	_ZN8CIwArrayIPc12CIwAllocatorIS0_15CIwMallocRouterIS0_EE17ReallocateDefaultIS0_S4_EEC1Ej
	.hidden	_ZN8CIwArrayIPc12CIwAllocatorIS0_15CIwMallocRouterIS0_EE17ReallocateDefaultIS0_S4_EEC1Ej
	.type	_ZN8CIwArrayIPc12CIwAllocatorIS0_15CIwMallocRouterIS0_EE17ReallocateDefaultIS0_S4_EEC1Ej, %function
_ZN8CIwArrayIPc12CIwAllocatorIS0_15CIwMallocRouterIS0_EE17ReallocateDefaultIS0_S4_EEC1Ej:
.LFB3647:
	.loc 24 131 0
	.cfi_startproc
	@ args = 0, pretend = 0, frame = 8
	@ frame_needed = 0, uses_anonymous_args = 0
	str	lr, [sp, #-4]!
.LCFI91:
	.cfi_def_cfa_offset 4
	sub	sp, sp, #12
.LCFI92:
	.cfi_def_cfa_offset 16
	str	r0, [sp, #4]
	str	r1, [sp, #0]
	.loc 24 131 0
	ldr	r3, [sp, #4]
	mov	r2, #0
	str	r2, [r3, #0]
	ldr	r3, [sp, #4]
	mov	r2, #0
	str	r2, [r3, #4]
	ldr	r3, [sp, #4]
	mov	r2, #0
	str	r2, [r3, #8]
	ldr	r2, [sp, #4]
	ldrb	r3, [r2, #12]
	bic	r3, r3, #1
	strb	r3, [r2, #12]
	ldr	r2, [sp, #4]
	ldrb	r3, [r2, #12]
	bic	r3, r3, #2
	strb	r3, [r2, #12]
	.loc 24 133 0
	ldr	r0, [sp, #4]
	ldr	r1, [sp, #0]
	.cfi_offset 14, -4
	bl	_ZN8CIwArrayIPc12CIwAllocatorIS0_15CIwMallocRouterIS0_EE17ReallocateDefaultIS0_S4_EE6resizeEj
	.loc 24 134 0
	ldr	r0, [sp, #4]
	bl	_ZN8CIwArrayIPc12CIwAllocatorIS0_15CIwMallocRouterIS0_EE17ReallocateDefaultIS0_S4_EE5clearEv
	ldr	r3, [sp, #4]
	.loc 24 135 0
	mov	r0, r3
	add	sp, sp, #12
	ldmfd	sp!, {pc}
	.cfi_endproc
.LFE3647:
	.size	_ZN8CIwArrayIPc12CIwAllocatorIS0_15CIwMallocRouterIS0_EE17ReallocateDefaultIS0_S4_EEC1Ej, .-_ZN8CIwArrayIPc12CIwAllocatorIS0_15CIwMallocRouterIS0_EE17ReallocateDefaultIS0_S4_EEC1Ej
	.section	.text._ZN8CIwArrayIP3Map12CIwAllocatorIS1_15CIwMallocRouterIS1_EE17ReallocateDefaultIS1_S5_EED1Ev,"axG",%progbits,_ZN8CIwArrayIP3Map12CIwAllocatorIS1_15CIwMallocRouterIS1_EE17ReallocateDefaultIS1_S5_EED1Ev,comdat
	.align	2
	.weak	_ZN8CIwArrayIP3Map12CIwAllocatorIS1_15CIwMallocRouterIS1_EE17ReallocateDefaultIS1_S5_EED1Ev
	.hidden	_ZN8CIwArrayIP3Map12CIwAllocatorIS1_15CIwMallocRouterIS1_EE17ReallocateDefaultIS1_S5_EED1Ev
	.type	_ZN8CIwArrayIP3Map12CIwAllocatorIS1_15CIwMallocRouterIS1_EE17ReallocateDefaultIS1_S5_EED1Ev, %function
_ZN8CIwArrayIP3Map12CIwAllocatorIS1_15CIwMallocRouterIS1_EE17ReallocateDefaultIS1_S5_EED1Ev:
.LFB3661:
	.loc 24 137 0
	.cfi_startproc
	@ args = 0, pretend = 0, frame = 16
	@ frame_needed = 0, uses_anonymous_args = 0
	str	lr, [sp, #-4]!
.LCFI93:
	.cfi_def_cfa_offset 4
	sub	sp, sp, #20
.LCFI94:
	.cfi_def_cfa_offset 24
	str	r0, [sp, #4]
.LBB12:
	.loc 24 139 0
	mov	r3, #0
	str	r3, [sp, #12]
	b	.L226
	.cfi_offset 14, -4
.L227:
	ldr	r3, [sp, #12]
	add	r3, r3, #1
	str	r3, [sp, #12]
.L226:
	ldr	r3, [sp, #4]
	ldr	r2, [r3, #4]
	ldr	r3, [sp, #12]
	cmp	r2, r3
	movls	r3, #0
	movhi	r3, #1
	and	r3, r3, #255
	cmp	r3, #0
	bne	.L227
.LBE12:
	.loc 24 141 0
	ldr	r3, [sp, #4]
	ldrb	r3, [r3, #12]
	and	r3, r3, #1
	and	r3, r3, #255
	eor	r3, r3, #1
	and	r3, r3, #255
	cmp	r3, #0
	beq	.L228
	.loc 24 143 0
	ldr	r3, [sp, #4]
	add	r1, r3, #13
	ldr	r3, [sp, #4]
	ldr	r2, [r3, #0]
	ldr	r3, [sp, #4]
	ldr	r3, [r3, #4]
	mov	r0, r1
	mov	r1, r2
	mov	r2, r3
	bl	_ZN12CIwAllocatorIP3Map15CIwMallocRouterIS1_EE10deallocateEPS1_j
	.loc 24 144 0
	ldr	r3, [sp, #4]
	mov	r2, #0
	str	r2, [r3, #0]
.L228:
	ldr	r3, [sp, #4]
	.loc 24 146 0
	mov	r0, r3
	add	sp, sp, #20
	ldmfd	sp!, {pc}
	.cfi_endproc
.LFE3661:
	.size	_ZN8CIwArrayIP3Map12CIwAllocatorIS1_15CIwMallocRouterIS1_EE17ReallocateDefaultIS1_S5_EED1Ev, .-_ZN8CIwArrayIP3Map12CIwAllocatorIS1_15CIwMallocRouterIS1_EE17ReallocateDefaultIS1_S5_EED1Ev
	.section	.text._ZN4_STL12basic_stringIcNS_11char_traitsIcEENS_9allocatorIcEEED1Ev,"axG",%progbits,_ZN4_STL12basic_stringIcNS_11char_traitsIcEENS_9allocatorIcEEED1Ev,comdat
	.align	2
	.weak	_ZN4_STL12basic_stringIcNS_11char_traitsIcEENS_9allocatorIcEEED1Ev
	.hidden	_ZN4_STL12basic_stringIcNS_11char_traitsIcEENS_9allocatorIcEEED1Ev
	.type	_ZN4_STL12basic_stringIcNS_11char_traitsIcEENS_9allocatorIcEEED1Ev, %function
_ZN4_STL12basic_stringIcNS_11char_traitsIcEENS_9allocatorIcEEED1Ev:
.LFB3664:
	.file 25 "c:/marmalade/6.2/s3e/h/std/c++/stl/_string.h"
	.loc 25 305 0
	.cfi_startproc
	@ args = 0, pretend = 0, frame = 8
	@ frame_needed = 0, uses_anonymous_args = 0
	str	lr, [sp, #-4]!
.LCFI95:
	.cfi_def_cfa_offset 4
	sub	sp, sp, #12
.LCFI96:
	.cfi_def_cfa_offset 16
	str	r0, [sp, #4]
	.loc 25 305 0
	ldr	r3, [sp, #4]
	ldr	r2, [r3, #0]
	ldr	r3, [sp, #4]
	ldr	r3, [r3, #4]
	add	r3, r3, #1
	mov	r0, r2
	mov	r1, r3
	.cfi_offset 14, -4
	bl	_ZN4_STL8_DestroyEPcS0_
	ldr	r3, [sp, #4]
	mov	r0, r3
	bl	_ZN4_STL12_String_baseIcNS_9allocatorIcEEED2Ev
	ldr	r3, [sp, #4]
	mov	r0, r3
	add	sp, sp, #12
	ldmfd	sp!, {pc}
	.cfi_endproc
.LFE3664:
	.size	_ZN4_STL12basic_stringIcNS_11char_traitsIcEENS_9allocatorIcEEED1Ev, .-_ZN4_STL12basic_stringIcNS_11char_traitsIcEENS_9allocatorIcEEED1Ev
	.section	.text._ZN8CIwArrayIP3Map12CIwAllocatorIS1_15CIwMallocRouterIS1_EE17ReallocateDefaultIS1_S5_EE15clear_optimisedEv,"axG",%progbits,_ZN8CIwArrayIP3Map12CIwAllocatorIS1_15CIwMallocRouterIS1_EE17ReallocateDefaultIS1_S5_EE15clear_optimisedEv,comdat
	.align	2
	.weak	_ZN8CIwArrayIP3Map12CIwAllocatorIS1_15CIwMallocRouterIS1_EE17ReallocateDefaultIS1_S5_EE15clear_optimisedEv
	.hidden	_ZN8CIwArrayIP3Map12CIwAllocatorIS1_15CIwMallocRouterIS1_EE17ReallocateDefaultIS1_S5_EE15clear_optimisedEv
	.type	_ZN8CIwArrayIP3Map12CIwAllocatorIS1_15CIwMallocRouterIS1_EE17ReallocateDefaultIS1_S5_EE15clear_optimisedEv, %function
_ZN8CIwArrayIP3Map12CIwAllocatorIS1_15CIwMallocRouterIS1_EE17ReallocateDefaultIS1_S5_EE15clear_optimisedEv:
.LFB3674:
	.loc 24 209 0
	.cfi_startproc
	@ args = 0, pretend = 0, frame = 8
	@ frame_needed = 0, uses_anonymous_args = 0
	str	lr, [sp, #-4]!
.LCFI97:
	.cfi_def_cfa_offset 4
	sub	sp, sp, #12
.LCFI98:
	.cfi_def_cfa_offset 16
	str	r0, [sp, #4]
	.loc 24 211 0
	ldr	r0, [sp, #4]
	mov	r1, #0
	.cfi_offset 14, -4
	bl	_ZN8CIwArrayIP3Map12CIwAllocatorIS1_15CIwMallocRouterIS1_EE17ReallocateDefaultIS1_S5_EE8truncateEj
	.loc 24 212 0
	ldr	r0, [sp, #4]
	mov	r1, #0
	bl	_ZN8CIwArrayIP3Map12CIwAllocatorIS1_15CIwMallocRouterIS1_EE17ReallocateDefaultIS1_S5_EE12set_capacityEj
	.loc 24 213 0
	add	sp, sp, #12
	ldmfd	sp!, {pc}
	.cfi_endproc
.LFE3674:
	.size	_ZN8CIwArrayIP3Map12CIwAllocatorIS1_15CIwMallocRouterIS1_EE17ReallocateDefaultIS1_S5_EE15clear_optimisedEv, .-_ZN8CIwArrayIP3Map12CIwAllocatorIS1_15CIwMallocRouterIS1_EE17ReallocateDefaultIS1_S5_EE15clear_optimisedEv
	.section	.text._ZN8CIwArrayIP3Map12CIwAllocatorIS1_15CIwMallocRouterIS1_EE17ReallocateDefaultIS1_S5_EE6appendERKS1_,"axG",%progbits,_ZN8CIwArrayIP3Map12CIwAllocatorIS1_15CIwMallocRouterIS1_EE17ReallocateDefaultIS1_S5_EE6appendERKS1_,comdat
	.align	2
	.weak	_ZN8CIwArrayIP3Map12CIwAllocatorIS1_15CIwMallocRouterIS1_EE17ReallocateDefaultIS1_S5_EE6appendERKS1_
	.hidden	_ZN8CIwArrayIP3Map12CIwAllocatorIS1_15CIwMallocRouterIS1_EE17ReallocateDefaultIS1_S5_EE6appendERKS1_
	.type	_ZN8CIwArrayIP3Map12CIwAllocatorIS1_15CIwMallocRouterIS1_EE17ReallocateDefaultIS1_S5_EE6appendERKS1_, %function
_ZN8CIwArrayIP3Map12CIwAllocatorIS1_15CIwMallocRouterIS1_EE17ReallocateDefaultIS1_S5_EE6appendERKS1_:
.LFB3675:
	.loc 24 594 0
	.cfi_startproc
	@ args = 0, pretend = 0, frame = 8
	@ frame_needed = 0, uses_anonymous_args = 0
	str	lr, [sp, #-4]!
.LCFI99:
	.cfi_def_cfa_offset 4
	sub	sp, sp, #12
.LCFI100:
	.cfi_def_cfa_offset 16
	str	r0, [sp, #4]
	str	r1, [sp, #0]
	.loc 24 594 0
	ldr	r0, [sp, #4]
	ldr	r1, [sp, #0]
	.cfi_offset 14, -4
	bl	_ZN8CIwArrayIP3Map12CIwAllocatorIS1_15CIwMallocRouterIS1_EE17ReallocateDefaultIS1_S5_EE9push_backERKS1_
	mov	r3, r0
	mov	r0, r3
	add	sp, sp, #12
	ldmfd	sp!, {pc}
	.cfi_endproc
.LFE3675:
	.size	_ZN8CIwArrayIP3Map12CIwAllocatorIS1_15CIwMallocRouterIS1_EE17ReallocateDefaultIS1_S5_EE6appendERKS1_, .-_ZN8CIwArrayIP3Map12CIwAllocatorIS1_15CIwMallocRouterIS1_EE17ReallocateDefaultIS1_S5_EE6appendERKS1_
	.section	.rodata
	.align	2
.LC9:
	.ascii	"CORE\000"
	.align	2
.LC10:
	.ascii	"invalid index (%d) into array of size %u\000"
	.align	2
.LC11:
	.ascii	"i>=0 && index<num_p\000"
	.align	2
.LC12:
	.ascii	"c:/marmalade/6.2/modules/iwutil/h/IwArray.h\000"
	.section	.text._ZNK8CIwArrayIP3Map12CIwAllocatorIS1_15CIwMallocRouterIS1_EE17ReallocateDefaultIS1_S5_EEixEi,"axG",%progbits,_ZNK8CIwArrayIP3Map12CIwAllocatorIS1_15CIwMallocRouterIS1_EE17ReallocateDefaultIS1_S5_EEixEi,comdat
	.align	2
	.weak	_ZNK8CIwArrayIP3Map12CIwAllocatorIS1_15CIwMallocRouterIS1_EE17ReallocateDefaultIS1_S5_EEixEi
	.hidden	_ZNK8CIwArrayIP3Map12CIwAllocatorIS1_15CIwMallocRouterIS1_EE17ReallocateDefaultIS1_S5_EEixEi
	.type	_ZNK8CIwArrayIP3Map12CIwAllocatorIS1_15CIwMallocRouterIS1_EE17ReallocateDefaultIS1_S5_EEixEi, %function
_ZNK8CIwArrayIP3Map12CIwAllocatorIS1_15CIwMallocRouterIS1_EE17ReallocateDefaultIS1_S5_EEixEi:
.LFB3676:
	.loc 24 694 0
	.cfi_startproc
	@ args = 0, pretend = 0, frame = 16
	@ frame_needed = 0, uses_anonymous_args = 0
	str	lr, [sp, #-4]!
.LCFI101:
	.cfi_def_cfa_offset 4
	sub	sp, sp, #20
.LCFI102:
	.cfi_def_cfa_offset 24
	str	r0, [sp, #4]
	str	r1, [sp, #0]
.LBB13:
	.loc 24 696 0
	ldr	r3, [sp, #0]
	str	r3, [sp, #12]
.LBB14:
	.loc 24 697 0
	ldr	r3, [sp, #0]
	cmp	r3, #0
	blt	.L238
	.cfi_offset 14, -4
	ldr	r3, [sp, #4]
	ldr	r2, [r3, #4]
	ldr	r3, [sp, #12]
	cmp	r2, r3
	bhi	.L239
.L238:
	ldr	r0, .L250
	bl	IwDebugAssertIsChannelOn
	mov	r3, r0
	cmp	r3, #0
	beq	.L239
	ldr	r3, .L250+4
	ldrb	r3, [r3, #0]	@ zero_extendqisi2
	cmp	r3, #0
	bne	.L239
	mov	r3, #1
	b	.L240
.L239:
	mov	r3, #0
.L240:
	cmp	r3, #0
	beq	.L241
	mov	r0, #0
	bl	IwDebugAssertSetSolution
	ldr	r0, .L250+8
	bl	IwDebugAssertSetUID
	ldr	r3, [sp, #4]
	ldr	r3, [r3, #4]
	ldr	r0, .L250+12
	ldr	r1, [sp, #0]
	mov	r2, r3
	bl	IwDebugAssertSetMessage
	ldr	r0, .L250+16
	ldr	r1, .L250+20
	ldr	r2, .L250+24
	mov	r3, #1
	bl	IwDebugAssertShow
	mov	r3, r0
	cmp	r3, #1
	beq	.L243
	cmp	r3, #2
	beq	.L244
	b	.L242
.L243:
	bl	s3eDebugIsDebuggerPresent
	mov	r3, r0
	cmp	r3, #0
	moveq	r3, #0
	movne	r3, #1
	and	r3, r3, #255
	cmp	r3, #0
	beq	.L245
	bl	s3eDebugIsDebuggerPresent
	mov	r3, r0
	cmp	r3, #0
	moveq	r3, #0
	movne	r3, #1
	and	r3, r3, #255
	cmp	r3, #0
	beq	.L249
	mvn	r3, #11
	mov	r2, #0
	str	r2, [r3, #0]
	b	.L242
.L245:
	bl	_ZL11IwDebugExitv
	b	.L242
.L244:
	ldr	r3, .L250+4
	mov	r2, #1
	strb	r2, [r3, #0]
	b	.L242
.L249:
	mov	r0, r0	@ nop
.L242:
	mov	r0, #0
	bl	IwDebugAssertSetUID
.L241:
.LBE14:
	.loc 24 698 0
	ldr	r3, [sp, #4]
	ldr	r2, [r3, #0]
	ldr	r3, [sp, #12]
	mov	r3, r3, asl #2
	add	r3, r2, r3
.LBE13:
	.loc 24 699 0
	mov	r0, r3
	add	sp, sp, #20
	ldmfd	sp!, {pc}
.L251:
	.align	2
.L250:
	.word	.LC9
	.word	_ZZNK8CIwArrayIP3Map12CIwAllocatorIS1_15CIwMallocRouterIS1_EE17ReallocateDefaultIS1_S5_EEixEiE21_s_IwAssertIgnoreThis
	.word	1731
	.word	.LC10
	.word	.LC11
	.word	.LC12
	.word	697
	.cfi_endproc
.LFE3676:
	.size	_ZNK8CIwArrayIP3Map12CIwAllocatorIS1_15CIwMallocRouterIS1_EE17ReallocateDefaultIS1_S5_EEixEi, .-_ZNK8CIwArrayIP3Map12CIwAllocatorIS1_15CIwMallocRouterIS1_EE17ReallocateDefaultIS1_S5_EEixEi
	.section	.text._ZNK8CIwArrayIP3Map12CIwAllocatorIS1_15CIwMallocRouterIS1_EE17ReallocateDefaultIS1_S5_EE4sizeEv,"axG",%progbits,_ZNK8CIwArrayIP3Map12CIwAllocatorIS1_15CIwMallocRouterIS1_EE17ReallocateDefaultIS1_S5_EE4sizeEv,comdat
	.align	2
	.weak	_ZNK8CIwArrayIP3Map12CIwAllocatorIS1_15CIwMallocRouterIS1_EE17ReallocateDefaultIS1_S5_EE4sizeEv
	.hidden	_ZNK8CIwArrayIP3Map12CIwAllocatorIS1_15CIwMallocRouterIS1_EE17ReallocateDefaultIS1_S5_EE4sizeEv
	.type	_ZNK8CIwArrayIP3Map12CIwAllocatorIS1_15CIwMallocRouterIS1_EE17ReallocateDefaultIS1_S5_EE4sizeEv, %function
_ZNK8CIwArrayIP3Map12CIwAllocatorIS1_15CIwMallocRouterIS1_EE17ReallocateDefaultIS1_S5_EE4sizeEv:
.LFB3677:
	.loc 24 113 0
	.cfi_startproc
	@ args = 0, pretend = 0, frame = 8
	@ frame_needed = 0, uses_anonymous_args = 0
	@ link register save eliminated.
	sub	sp, sp, #8
.LCFI103:
	.cfi_def_cfa_offset 8
	str	r0, [sp, #4]
	.loc 24 113 0
	ldr	r3, [sp, #4]
	ldr	r3, [r3, #4]
	mov	r0, r3
	add	sp, sp, #8
	bx	lr
	.cfi_endproc
.LFE3677:
	.size	_ZNK8CIwArrayIP3Map12CIwAllocatorIS1_15CIwMallocRouterIS1_EE17ReallocateDefaultIS1_S5_EE4sizeEv, .-_ZNK8CIwArrayIP3Map12CIwAllocatorIS1_15CIwMallocRouterIS1_EE17ReallocateDefaultIS1_S5_EE4sizeEv
	.section	.text._ZN4_STLlsINS_11char_traitsIcEEEERNS_13basic_ostreamIcT_EES6_PKc,"axG",%progbits,_ZN4_STLlsINS_11char_traitsIcEEEERNS_13basic_ostreamIcT_EES6_PKc,comdat
	.align	2
	.weak	_ZN4_STLlsINS_11char_traitsIcEEEERNS_13basic_ostreamIcT_EES6_PKc
	.hidden	_ZN4_STLlsINS_11char_traitsIcEEEERNS_13basic_ostreamIcT_EES6_PKc
	.type	_ZN4_STLlsINS_11char_traitsIcEEEERNS_13basic_ostreamIcT_EES6_PKc, %function
_ZN4_STLlsINS_11char_traitsIcEEEERNS_13basic_ostreamIcT_EES6_PKc:
.LFB3678:
	.file 26 "c:/marmalade/6.2/s3e/h/std/c++/stl/_ostream.h"
	.loc 26 307 0
	.cfi_startproc
	@ args = 0, pretend = 0, frame = 8
	@ frame_needed = 0, uses_anonymous_args = 0
	str	lr, [sp, #-4]!
.LCFI104:
	.cfi_def_cfa_offset 4
	sub	sp, sp, #12
.LCFI105:
	.cfi_def_cfa_offset 16
	str	r0, [sp, #4]
	str	r1, [sp, #0]
	.loc 26 308 0
	ldr	r0, [sp, #4]
	ldr	r1, [sp, #0]
	.cfi_offset 14, -4
	bl	_ZN4_STL13basic_ostreamIcNS_11char_traitsIcEEE14_M_put_nowidenEPKc
	.loc 26 309 0
	ldr	r3, [sp, #4]
	.loc 26 310 0
	mov	r0, r3
	add	sp, sp, #12
	ldmfd	sp!, {pc}
	.cfi_endproc
.LFE3678:
	.size	_ZN4_STLlsINS_11char_traitsIcEEEERNS_13basic_ostreamIcT_EES6_PKc, .-_ZN4_STLlsINS_11char_traitsIcEEEERNS_13basic_ostreamIcT_EES6_PKc
	.section	.text._ZN4_STL4endlIcNS_11char_traitsIcEEEERNS_13basic_ostreamIT_T0_EES7_,"axG",%progbits,_ZN4_STL4endlIcNS_11char_traitsIcEEEERNS_13basic_ostreamIT_T0_EES7_,comdat
	.align	2
	.weak	_ZN4_STL4endlIcNS_11char_traitsIcEEEERNS_13basic_ostreamIT_T0_EES7_
	.hidden	_ZN4_STL4endlIcNS_11char_traitsIcEEEERNS_13basic_ostreamIT_T0_EES7_
	.type	_ZN4_STL4endlIcNS_11char_traitsIcEEEERNS_13basic_ostreamIT_T0_EES7_, %function
_ZN4_STL4endlIcNS_11char_traitsIcEEEERNS_13basic_ostreamIT_T0_EES7_:
.LFB3679:
	.loc 26 332 0
	.cfi_startproc
	@ args = 0, pretend = 0, frame = 8
	@ frame_needed = 0, uses_anonymous_args = 0
	str	lr, [sp, #-4]!
.LCFI106:
	.cfi_def_cfa_offset 4
	sub	sp, sp, #12
.LCFI107:
	.cfi_def_cfa_offset 16
	str	r0, [sp, #4]
	.loc 26 333 0
	ldr	r2, [sp, #4]
	ldr	r3, [sp, #4]
	ldr	r3, [r3, #0]
	sub	r3, r3, #12
	ldr	r3, [r3, #0]
	add	r3, r2, r3
	mov	r0, r3
	mov	r1, #10
	.cfi_offset 14, -4
	bl	_ZNK4_STL9basic_iosIcNS_11char_traitsIcEEE5widenEc
	mov	r3, r0
	ldr	r0, [sp, #4]
	mov	r1, r3
	bl	_ZN4_STL13basic_ostreamIcNS_11char_traitsIcEEE3putEc
	.loc 26 334 0
	ldr	r0, [sp, #4]
	bl	_ZN4_STL13basic_ostreamIcNS_11char_traitsIcEEE5flushEv
	.loc 26 335 0
	ldr	r3, [sp, #4]
	.loc 26 336 0
	mov	r0, r3
	add	sp, sp, #12
	ldmfd	sp!, {pc}
	.cfi_endproc
.LFE3679:
	.size	_ZN4_STL4endlIcNS_11char_traitsIcEEEERNS_13basic_ostreamIT_T0_EES7_, .-_ZN4_STL4endlIcNS_11char_traitsIcEEEERNS_13basic_ostreamIT_T0_EES7_
	.section	.text._ZN4_STL13basic_ostreamIcNS_11char_traitsIcEEElsEPFRS3_S4_E,"axG",%progbits,_ZN4_STL13basic_ostreamIcNS_11char_traitsIcEEElsEPFRS3_S4_E,comdat
	.align	2
	.weak	_ZN4_STL13basic_ostreamIcNS_11char_traitsIcEEElsEPFRS3_S4_E
	.hidden	_ZN4_STL13basic_ostreamIcNS_11char_traitsIcEEElsEPFRS3_S4_E
	.type	_ZN4_STL13basic_ostreamIcNS_11char_traitsIcEEElsEPFRS3_S4_E, %function
_ZN4_STL13basic_ostreamIcNS_11char_traitsIcEEElsEPFRS3_S4_E:
.LFB3680:
	.loc 26 78 0
	.cfi_startproc
	@ args = 0, pretend = 0, frame = 8
	@ frame_needed = 0, uses_anonymous_args = 0
	str	lr, [sp, #-4]!
.LCFI108:
	.cfi_def_cfa_offset 4
	sub	sp, sp, #12
.LCFI109:
	.cfi_def_cfa_offset 16
	str	r0, [sp, #4]
	str	r1, [sp, #0]
	.loc 26 78 0
	ldr	r3, [sp, #0]
	ldr	r0, [sp, #4]
	.cfi_offset 14, -4
	blx	r3
	mov	r3, r0
	mov	r0, r3
	add	sp, sp, #12
	ldmfd	sp!, {pc}
	.cfi_endproc
.LFE3680:
	.size	_ZN4_STL13basic_ostreamIcNS_11char_traitsIcEEElsEPFRS3_S4_E, .-_ZN4_STL13basic_ostreamIcNS_11char_traitsIcEEElsEPFRS3_S4_E
	.section	.text._ZN8CIwArrayIP3Map12CIwAllocatorIS1_15CIwMallocRouterIS1_EE17ReallocateDefaultIS1_S5_EE8pop_backEv,"axG",%progbits,_ZN8CIwArrayIP3Map12CIwAllocatorIS1_15CIwMallocRouterIS1_EE17ReallocateDefaultIS1_S5_EE8pop_backEv,comdat
	.align	2
	.weak	_ZN8CIwArrayIP3Map12CIwAllocatorIS1_15CIwMallocRouterIS1_EE17ReallocateDefaultIS1_S5_EE8pop_backEv
	.hidden	_ZN8CIwArrayIP3Map12CIwAllocatorIS1_15CIwMallocRouterIS1_EE17ReallocateDefaultIS1_S5_EE8pop_backEv
	.type	_ZN8CIwArrayIP3Map12CIwAllocatorIS1_15CIwMallocRouterIS1_EE17ReallocateDefaultIS1_S5_EE8pop_backEv, %function
_ZN8CIwArrayIP3Map12CIwAllocatorIS1_15CIwMallocRouterIS1_EE17ReallocateDefaultIS1_S5_EE8pop_backEv:
.LFB3681:
	.loc 24 383 0
	.cfi_startproc
	@ args = 0, pretend = 0, frame = 8
	@ frame_needed = 0, uses_anonymous_args = 0
	str	lr, [sp, #-4]!
.LCFI110:
	.cfi_def_cfa_offset 4
	sub	sp, sp, #12
.LCFI111:
	.cfi_def_cfa_offset 16
	str	r0, [sp, #4]
	.loc 24 385 0
	ldr	r3, [sp, #4]
	ldr	r3, [r3, #4]
	sub	r3, r3, #1
	ldr	r0, [sp, #4]
	mov	r1, r3
	.cfi_offset 14, -4
	bl	_ZN8CIwArrayIP3Map12CIwAllocatorIS1_15CIwMallocRouterIS1_EE17ReallocateDefaultIS1_S5_EE8truncateEj
	.loc 24 386 0
	add	sp, sp, #12
	ldmfd	sp!, {pc}
	.cfi_endproc
.LFE3681:
	.size	_ZN8CIwArrayIP3Map12CIwAllocatorIS1_15CIwMallocRouterIS1_EE17ReallocateDefaultIS1_S5_EE8pop_backEv, .-_ZN8CIwArrayIP3Map12CIwAllocatorIS1_15CIwMallocRouterIS1_EE17ReallocateDefaultIS1_S5_EE8pop_backEv
	.section	.text._ZNK8CIwArrayIi12CIwAllocatorIi15CIwMallocRouterIiEE17ReallocateDefaultIiS3_EEixEi,"axG",%progbits,_ZNK8CIwArrayIi12CIwAllocatorIi15CIwMallocRouterIiEE17ReallocateDefaultIiS3_EEixEi,comdat
	.align	2
	.weak	_ZNK8CIwArrayIi12CIwAllocatorIi15CIwMallocRouterIiEE17ReallocateDefaultIiS3_EEixEi
	.hidden	_ZNK8CIwArrayIi12CIwAllocatorIi15CIwMallocRouterIiEE17ReallocateDefaultIiS3_EEixEi
	.type	_ZNK8CIwArrayIi12CIwAllocatorIi15CIwMallocRouterIiEE17ReallocateDefaultIiS3_EEixEi, %function
_ZNK8CIwArrayIi12CIwAllocatorIi15CIwMallocRouterIiEE17ReallocateDefaultIiS3_EEixEi:
.LFB3682:
	.loc 24 694 0
	.cfi_startproc
	@ args = 0, pretend = 0, frame = 16
	@ frame_needed = 0, uses_anonymous_args = 0
	str	lr, [sp, #-4]!
.LCFI112:
	.cfi_def_cfa_offset 4
	sub	sp, sp, #20
.LCFI113:
	.cfi_def_cfa_offset 24
	str	r0, [sp, #4]
	str	r1, [sp, #0]
.LBB15:
	.loc 24 696 0
	ldr	r3, [sp, #0]
	str	r3, [sp, #12]
.LBB16:
	.loc 24 697 0
	ldr	r3, [sp, #0]
	cmp	r3, #0
	blt	.L263
	.cfi_offset 14, -4
	ldr	r3, [sp, #4]
	ldr	r2, [r3, #4]
	ldr	r3, [sp, #12]
	cmp	r2, r3
	bhi	.L264
.L263:
	ldr	r0, .L275
	bl	IwDebugAssertIsChannelOn
	mov	r3, r0
	cmp	r3, #0
	beq	.L264
	ldr	r3, .L275+4
	ldrb	r3, [r3, #0]	@ zero_extendqisi2
	cmp	r3, #0
	bne	.L264
	mov	r3, #1
	b	.L265
.L264:
	mov	r3, #0
.L265:
	cmp	r3, #0
	beq	.L266
	mov	r0, #0
	bl	IwDebugAssertSetSolution
	ldr	r0, .L275+8
	bl	IwDebugAssertSetUID
	ldr	r3, [sp, #4]
	ldr	r3, [r3, #4]
	ldr	r0, .L275+12
	ldr	r1, [sp, #0]
	mov	r2, r3
	bl	IwDebugAssertSetMessage
	ldr	r0, .L275+16
	ldr	r1, .L275+20
	ldr	r2, .L275+24
	mov	r3, #1
	bl	IwDebugAssertShow
	mov	r3, r0
	cmp	r3, #1
	beq	.L268
	cmp	r3, #2
	beq	.L269
	b	.L267
.L268:
	bl	s3eDebugIsDebuggerPresent
	mov	r3, r0
	cmp	r3, #0
	moveq	r3, #0
	movne	r3, #1
	and	r3, r3, #255
	cmp	r3, #0
	beq	.L270
	bl	s3eDebugIsDebuggerPresent
	mov	r3, r0
	cmp	r3, #0
	moveq	r3, #0
	movne	r3, #1
	and	r3, r3, #255
	cmp	r3, #0
	beq	.L274
	mvn	r3, #11
	mov	r2, #0
	str	r2, [r3, #0]
	b	.L267
.L270:
	bl	_ZL11IwDebugExitv
	b	.L267
.L269:
	ldr	r3, .L275+4
	mov	r2, #1
	strb	r2, [r3, #0]
	b	.L267
.L274:
	mov	r0, r0	@ nop
.L267:
	mov	r0, #0
	bl	IwDebugAssertSetUID
.L266:
.LBE16:
	.loc 24 698 0
	ldr	r3, [sp, #4]
	ldr	r2, [r3, #0]
	ldr	r3, [sp, #12]
	mov	r3, r3, asl #2
	add	r3, r2, r3
.LBE15:
	.loc 24 699 0
	mov	r0, r3
	add	sp, sp, #20
	ldmfd	sp!, {pc}
.L276:
	.align	2
.L275:
	.word	.LC9
	.word	_ZZNK8CIwArrayIi12CIwAllocatorIi15CIwMallocRouterIiEE17ReallocateDefaultIiS3_EEixEiE21_s_IwAssertIgnoreThis
	.word	1731
	.word	.LC10
	.word	.LC11
	.word	.LC12
	.word	697
	.cfi_endproc
.LFE3682:
	.size	_ZNK8CIwArrayIi12CIwAllocatorIi15CIwMallocRouterIiEE17ReallocateDefaultIiS3_EEixEi, .-_ZNK8CIwArrayIi12CIwAllocatorIi15CIwMallocRouterIiEE17ReallocateDefaultIiS3_EEixEi
	.section	.text._ZN4_STL9allocatorIcEC1Ev,"axG",%progbits,_ZN4_STL9allocatorIcEC1Ev,comdat
	.align	2
	.weak	_ZN4_STL9allocatorIcEC1Ev
	.hidden	_ZN4_STL9allocatorIcEC1Ev
	.type	_ZN4_STL9allocatorIcEC1Ev, %function
_ZN4_STL9allocatorIcEC1Ev:
.LFB3685:
	.loc 22 345 0
	.cfi_startproc
	@ args = 0, pretend = 0, frame = 8
	@ frame_needed = 0, uses_anonymous_args = 0
	@ link register save eliminated.
	sub	sp, sp, #8
.LCFI114:
	.cfi_def_cfa_offset 8
	str	r0, [sp, #4]
	.loc 22 345 0
	ldr	r3, [sp, #4]
	mov	r0, r3
	add	sp, sp, #8
	bx	lr
	.cfi_endproc
.LFE3685:
	.size	_ZN4_STL9allocatorIcEC1Ev, .-_ZN4_STL9allocatorIcEC1Ev
	.section	.text._ZN4_STL9allocatorIcED2Ev,"axG",%progbits,_ZN4_STL9allocatorIcED2Ev,comdat
	.align	2
	.weak	_ZN4_STL9allocatorIcED2Ev
	.hidden	_ZN4_STL9allocatorIcED2Ev
	.type	_ZN4_STL9allocatorIcED2Ev, %function
_ZN4_STL9allocatorIcED2Ev:
.LFB3687:
	.loc 22 350 0
	.cfi_startproc
	@ args = 0, pretend = 0, frame = 8
	@ frame_needed = 0, uses_anonymous_args = 0
	@ link register save eliminated.
	sub	sp, sp, #8
.LCFI115:
	.cfi_def_cfa_offset 8
	str	r0, [sp, #4]
	.loc 22 350 0
	ldr	r3, [sp, #4]
	mov	r0, r3
	add	sp, sp, #8
	bx	lr
	.cfi_endproc
.LFE3687:
	.size	_ZN4_STL9allocatorIcED2Ev, .-_ZN4_STL9allocatorIcED2Ev
	.section	.text._ZN4_STL9allocatorIcED1Ev,"axG",%progbits,_ZN4_STL9allocatorIcED1Ev,comdat
	.align	2
	.weak	_ZN4_STL9allocatorIcED1Ev
	.hidden	_ZN4_STL9allocatorIcED1Ev
	.type	_ZN4_STL9allocatorIcED1Ev, %function
_ZN4_STL9allocatorIcED1Ev:
.LFB3688:
	.loc 22 350 0
	.cfi_startproc
	@ args = 0, pretend = 0, frame = 8
	@ frame_needed = 0, uses_anonymous_args = 0
	@ link register save eliminated.
	sub	sp, sp, #8
.LCFI116:
	.cfi_def_cfa_offset 8
	str	r0, [sp, #4]
	.loc 22 350 0
	ldr	r3, [sp, #4]
	mov	r0, r3
	add	sp, sp, #8
	bx	lr
	.cfi_endproc
.LFE3688:
	.size	_ZN4_STL9allocatorIcED1Ev, .-_ZN4_STL9allocatorIcED1Ev
	.section	.text._ZN4_STL12basic_stringIcNS_11char_traitsIcEENS_9allocatorIcEEEC1EPKcRKS4_,"axG",%progbits,_ZN4_STL12basic_stringIcNS_11char_traitsIcEENS_9allocatorIcEEEC1EPKcRKS4_,comdat
	.align	2
	.weak	_ZN4_STL12basic_stringIcNS_11char_traitsIcEENS_9allocatorIcEEEC1EPKcRKS4_
	.hidden	_ZN4_STL12basic_stringIcNS_11char_traitsIcEENS_9allocatorIcEEEC1EPKcRKS4_
	.type	_ZN4_STL12basic_stringIcNS_11char_traitsIcEENS_9allocatorIcEEEC1EPKcRKS4_, %function
_ZN4_STL12basic_stringIcNS_11char_traitsIcEENS_9allocatorIcEEEC1EPKcRKS4_:
.LFB3691:
	.file 27 "c:/marmalade/6.2/s3e/h/std/c++/stl/_string.c"
	.loc 27 549 0
	.cfi_startproc
	@ args = 0, pretend = 0, frame = 16
	@ frame_needed = 0, uses_anonymous_args = 0
	str	lr, [sp, #-4]!
.LCFI117:
	.cfi_def_cfa_offset 4
	sub	sp, sp, #20
.LCFI118:
	.cfi_def_cfa_offset 24
	str	r0, [sp, #12]
	str	r1, [sp, #8]
	str	r2, [sp, #4]
	.loc 27 551 0
	ldr	r3, [sp, #12]
	mov	r0, r3
	ldr	r1, [sp, #4]
	.cfi_offset 14, -4
	bl	_ZN4_STL12_String_baseIcNS_9allocatorIcEEEC2ERKS2_
	.loc 27 554 0
	ldr	r0, [sp, #8]
	bl	_ZN4_STL11char_traitsIcE6lengthEPKc
	mov	r2, r0
	ldr	r3, [sp, #8]
	add	r3, r2, r3
	ldr	r0, [sp, #12]
	ldr	r1, [sp, #8]
	mov	r2, r3
	bl	_ZN4_STL12basic_stringIcNS_11char_traitsIcEENS_9allocatorIcEEE19_M_range_initializeIPKcEEvT_S9_
	ldr	r3, [sp, #12]
	.loc 27 555 0
	mov	r0, r3
	add	sp, sp, #20
	ldmfd	sp!, {pc}
	.cfi_endproc
.LFE3691:
	.size	_ZN4_STL12basic_stringIcNS_11char_traitsIcEENS_9allocatorIcEEEC1EPKcRKS4_, .-_ZN4_STL12basic_stringIcNS_11char_traitsIcEENS_9allocatorIcEEEC1EPKcRKS4_
	.section	.text._ZN12CIwAllocatorIi15CIwMallocRouterIiEE10deallocateEPij,"axG",%progbits,_ZN12CIwAllocatorIi15CIwMallocRouterIiEE10deallocateEPij,comdat
	.align	2
	.weak	_ZN12CIwAllocatorIi15CIwMallocRouterIiEE10deallocateEPij
	.hidden	_ZN12CIwAllocatorIi15CIwMallocRouterIiEE10deallocateEPij
	.type	_ZN12CIwAllocatorIi15CIwMallocRouterIiEE10deallocateEPij, %function
_ZN12CIwAllocatorIi15CIwMallocRouterIiEE10deallocateEPij:
.LFB3722:
	.file 28 "c:/marmalade/6.2/modules/iwutil/h/IwAllocator.h"
	.loc 28 147 0
	.cfi_startproc
	@ args = 0, pretend = 0, frame = 16
	@ frame_needed = 0, uses_anonymous_args = 0
	str	lr, [sp, #-4]!
.LCFI119:
	.cfi_def_cfa_offset 4
	sub	sp, sp, #20
.LCFI120:
	.cfi_def_cfa_offset 24
	str	r0, [sp, #12]
	str	r1, [sp, #8]
	str	r2, [sp, #4]
	.loc 28 147 0
	ldr	r0, [sp, #8]
	.cfi_offset 14, -4
	bl	_ZN15CIwMallocRouterIiE6DoFreeEPv
	add	sp, sp, #20
	ldmfd	sp!, {pc}
	.cfi_endproc
.LFE3722:
	.size	_ZN12CIwAllocatorIi15CIwMallocRouterIiEE10deallocateEPij, .-_ZN12CIwAllocatorIi15CIwMallocRouterIiEE10deallocateEPij
	.section	.text._ZN4_STL17_STLP_alloc_proxyIP8ObstacleS1_NS_9allocatorIS1_EEED1Ev,"axG",%progbits,_ZN4_STL17_STLP_alloc_proxyIP8ObstacleS1_NS_9allocatorIS1_EEED1Ev,comdat
	.align	2
	.weak	_ZN4_STL17_STLP_alloc_proxyIP8ObstacleS1_NS_9allocatorIS1_EEED1Ev
	.hidden	_ZN4_STL17_STLP_alloc_proxyIP8ObstacleS1_NS_9allocatorIS1_EEED1Ev
	.type	_ZN4_STL17_STLP_alloc_proxyIP8ObstacleS1_NS_9allocatorIS1_EEED1Ev, %function
_ZN4_STL17_STLP_alloc_proxyIP8ObstacleS1_NS_9allocatorIS1_EEED1Ev:
.LFB3728:
	.loc 22 481 0
	.cfi_startproc
	@ args = 0, pretend = 0, frame = 8
	@ frame_needed = 0, uses_anonymous_args = 0
	str	lr, [sp, #-4]!
.LCFI121:
	.cfi_def_cfa_offset 4
	sub	sp, sp, #12
.LCFI122:
	.cfi_def_cfa_offset 16
	str	r0, [sp, #4]
	.loc 22 481 0
	ldr	r3, [sp, #4]
	mov	r0, r3
	.cfi_offset 14, -4
	bl	_ZN4_STL9allocatorI8ObstacleED2Ev
	ldr	r3, [sp, #4]
	mov	r0, r3
	add	sp, sp, #12
	ldmfd	sp!, {pc}
	.cfi_endproc
.LFE3728:
	.size	_ZN4_STL17_STLP_alloc_proxyIP8ObstacleS1_NS_9allocatorIS1_EEED1Ev, .-_ZN4_STL17_STLP_alloc_proxyIP8ObstacleS1_NS_9allocatorIS1_EEED1Ev
	.section	.text._ZN4_STL12_Vector_baseI8ObstacleNS_9allocatorIS1_EEEC2ERKS3_,"axG",%progbits,_ZN4_STL12_Vector_baseI8ObstacleNS_9allocatorIS1_EEEC2ERKS3_,comdat
	.align	2
	.weak	_ZN4_STL12_Vector_baseI8ObstacleNS_9allocatorIS1_EEEC2ERKS3_
	.hidden	_ZN4_STL12_Vector_baseI8ObstacleNS_9allocatorIS1_EEEC2ERKS3_
	.type	_ZN4_STL12_Vector_baseI8ObstacleNS_9allocatorIS1_EEEC2ERKS3_, %function
_ZN4_STL12_Vector_baseI8ObstacleNS_9allocatorIS1_EEEC2ERKS3_:
.LFB3729:
	.loc 23 71 0
	.cfi_startproc
	@ args = 0, pretend = 0, frame = 8
	@ frame_needed = 0, uses_anonymous_args = 0
	str	lr, [sp, #-4]!
.LCFI123:
	.cfi_def_cfa_offset 4
	sub	sp, sp, #12
.LCFI124:
	.cfi_def_cfa_offset 16
	str	r0, [sp, #4]
	str	r1, [sp, #0]
	.loc 23 72 0
	ldr	r3, [sp, #4]
	mov	r2, #0
	str	r2, [r3, #0]
	ldr	r3, [sp, #4]
	mov	r2, #0
	str	r2, [r3, #4]
	ldr	r3, [sp, #4]
	add	r3, r3, #8
	mov	r0, r3
	ldr	r1, [sp, #0]
	mov	r2, #0
	.cfi_offset 14, -4
	bl	_ZN4_STL17_STLP_alloc_proxyIP8ObstacleS1_NS_9allocatorIS1_EEEC1ERKS4_S2_
	ldr	r3, [sp, #4]
	.loc 23 73 0
	mov	r0, r3
	add	sp, sp, #12
	ldmfd	sp!, {pc}
	.cfi_endproc
.LFE3729:
	.size	_ZN4_STL12_Vector_baseI8ObstacleNS_9allocatorIS1_EEEC2ERKS3_, .-_ZN4_STL12_Vector_baseI8ObstacleNS_9allocatorIS1_EEEC2ERKS3_
	.section	.text._ZN4_STL12_Vector_baseI8ObstacleNS_9allocatorIS1_EEED2Ev,"axG",%progbits,_ZN4_STL12_Vector_baseI8ObstacleNS_9allocatorIS1_EEED2Ev,comdat
	.align	2
	.weak	_ZN4_STL12_Vector_baseI8ObstacleNS_9allocatorIS1_EEED2Ev
	.hidden	_ZN4_STL12_Vector_baseI8ObstacleNS_9allocatorIS1_EEED2Ev
	.type	_ZN4_STL12_Vector_baseI8ObstacleNS_9allocatorIS1_EEED2Ev, %function
_ZN4_STL12_Vector_baseI8ObstacleNS_9allocatorIS1_EEED2Ev:
.LFB3732:
	.loc 23 83 0
	.cfi_startproc
	@ args = 0, pretend = 0, frame = 8
	@ frame_needed = 0, uses_anonymous_args = 0
	str	lr, [sp, #-4]!
.LCFI125:
	.cfi_def_cfa_offset 4
	sub	sp, sp, #12
.LCFI126:
	.cfi_def_cfa_offset 16
	str	r0, [sp, #4]
	.loc 23 84 0
	ldr	r3, [sp, #4]
	ldr	r3, [r3, #0]
	cmp	r3, #0
	beq	.L298
	.cfi_offset 14, -4
	.loc 23 85 0
	ldr	r3, [sp, #4]
	add	r3, r3, #8
	mov	r1, r3
	ldr	r3, [sp, #4]
	ldr	r2, [r3, #0]
	ldr	r3, [sp, #4]
	ldr	r3, [r3, #8]
	mov	r0, r3
	ldr	r3, [sp, #4]
	ldr	r3, [r3, #0]
	rsb	r3, r3, r0
	mov	r3, r3, asr #4
	mov	r0, r1
	mov	r1, r2
	mov	r2, r3
	bl	_ZN4_STL9allocatorI8ObstacleE10deallocateEPS1_j
.L298:
	ldr	r3, [sp, #4]
	add	r3, r3, #8
	mov	r0, r3
	bl	_ZN4_STL17_STLP_alloc_proxyIP8ObstacleS1_NS_9allocatorIS1_EEED1Ev
	ldr	r3, [sp, #4]
	.loc 23 86 0
	mov	r0, r3
	add	sp, sp, #12
	ldmfd	sp!, {pc}
	.cfi_endproc
.LFE3732:
	.size	_ZN4_STL12_Vector_baseI8ObstacleNS_9allocatorIS1_EEED2Ev, .-_ZN4_STL12_Vector_baseI8ObstacleNS_9allocatorIS1_EEED2Ev
	.section	.text._ZN4_STL8_DestroyIP8ObstacleEEvT_S3_,"axG",%progbits,_ZN4_STL8_DestroyIP8ObstacleEEvT_S3_,comdat
	.align	2
	.weak	_ZN4_STL8_DestroyIP8ObstacleEEvT_S3_
	.hidden	_ZN4_STL8_DestroyIP8ObstacleEEvT_S3_
	.type	_ZN4_STL8_DestroyIP8ObstacleEEvT_S3_, %function
_ZN4_STL8_DestroyIP8ObstacleEEvT_S3_:
.LFB3734:
	.loc 6 138 0
	.cfi_startproc
	@ args = 0, pretend = 0, frame = 8
	@ frame_needed = 0, uses_anonymous_args = 0
	str	lr, [sp, #-4]!
.LCFI127:
	.cfi_def_cfa_offset 4
	sub	sp, sp, #12
.LCFI128:
	.cfi_def_cfa_offset 16
	str	r0, [sp, #4]
	str	r1, [sp, #0]
	.loc 6 139 0
	ldr	r0, [sp, #4]
	ldr	r1, [sp, #0]
	mov	r2, #0
	.cfi_offset 14, -4
	bl	_ZN4_STL9__destroyIP8ObstacleS1_EEvT_S3_PT0_
	.loc 6 140 0
	add	sp, sp, #12
	ldmfd	sp!, {pc}
	.cfi_endproc
.LFE3734:
	.size	_ZN4_STL8_DestroyIP8ObstacleEEvT_S3_, .-_ZN4_STL8_DestroyIP8ObstacleEEvT_S3_
	.section	.text._ZN8CIwArrayIi12CIwAllocatorIi15CIwMallocRouterIiEE17ReallocateDefaultIiS3_EE6resizeEj,"axG",%progbits,_ZN8CIwArrayIi12CIwAllocatorIi15CIwMallocRouterIiEE17ReallocateDefaultIiS3_EE6resizeEj,comdat
	.align	2
	.weak	_ZN8CIwArrayIi12CIwAllocatorIi15CIwMallocRouterIiEE17ReallocateDefaultIiS3_EE6resizeEj
	.hidden	_ZN8CIwArrayIi12CIwAllocatorIi15CIwMallocRouterIiEE17ReallocateDefaultIiS3_EE6resizeEj
	.type	_ZN8CIwArrayIi12CIwAllocatorIi15CIwMallocRouterIiEE17ReallocateDefaultIiS3_EE6resizeEj, %function
_ZN8CIwArrayIi12CIwAllocatorIi15CIwMallocRouterIiEE17ReallocateDefaultIiS3_EE6resizeEj:
.LFB3735:
	.loc 24 292 0
	.cfi_startproc
	@ args = 0, pretend = 0, frame = 8
	@ frame_needed = 0, uses_anonymous_args = 0
	str	lr, [sp, #-4]!
.LCFI129:
	.cfi_def_cfa_offset 4
	sub	sp, sp, #12
.LCFI130:
	.cfi_def_cfa_offset 16
	str	r0, [sp, #4]
	str	r1, [sp, #0]
	.loc 24 294 0
	ldr	r3, [sp, #4]
	ldr	r2, [r3, #4]
	ldr	r3, [sp, #0]
	cmp	r2, r3
	bcc	.L304
	.cfi_offset 14, -4
	.loc 24 295 0
	ldr	r0, [sp, #4]
	ldr	r1, [sp, #0]
	bl	_ZN8CIwArrayIi12CIwAllocatorIi15CIwMallocRouterIiEE17ReallocateDefaultIiS3_EE8truncateEj
	b	.L306
.L304:
	.loc 24 297 0
	ldr	r3, [sp, #4]
	ldr	r3, [r3, #4]
	ldr	r2, [sp, #0]
	rsb	r3, r3, r2
	ldr	r0, [sp, #4]
	mov	r1, r3
	bl	_ZN8CIwArrayIi12CIwAllocatorIi15CIwMallocRouterIiEE17ReallocateDefaultIiS3_EE13push_back_qtyEi
.L306:
	.loc 24 298 0
	add	sp, sp, #12
	ldmfd	sp!, {pc}
	.cfi_endproc
.LFE3735:
	.size	_ZN8CIwArrayIi12CIwAllocatorIi15CIwMallocRouterIiEE17ReallocateDefaultIiS3_EE6resizeEj, .-_ZN8CIwArrayIi12CIwAllocatorIi15CIwMallocRouterIiEE17ReallocateDefaultIiS3_EE6resizeEj
	.section	.text._ZN8CIwArrayIi12CIwAllocatorIi15CIwMallocRouterIiEE17ReallocateDefaultIiS3_EE5clearEv,"axG",%progbits,_ZN8CIwArrayIi12CIwAllocatorIi15CIwMallocRouterIiEE17ReallocateDefaultIiS3_EE5clearEv,comdat
	.align	2
	.weak	_ZN8CIwArrayIi12CIwAllocatorIi15CIwMallocRouterIiEE17ReallocateDefaultIiS3_EE5clearEv
	.hidden	_ZN8CIwArrayIi12CIwAllocatorIi15CIwMallocRouterIiEE17ReallocateDefaultIiS3_EE5clearEv
	.type	_ZN8CIwArrayIi12CIwAllocatorIi15CIwMallocRouterIiEE17ReallocateDefaultIiS3_EE5clearEv, %function
_ZN8CIwArrayIi12CIwAllocatorIi15CIwMallocRouterIiEE17ReallocateDefaultIiS3_EE5clearEv:
.LFB3736:
	.loc 24 199 0
	.cfi_startproc
	@ args = 0, pretend = 0, frame = 8
	@ frame_needed = 0, uses_anonymous_args = 0
	str	lr, [sp, #-4]!
.LCFI131:
	.cfi_def_cfa_offset 4
	sub	sp, sp, #12
.LCFI132:
	.cfi_def_cfa_offset 16
	str	r0, [sp, #4]
	.loc 24 201 0
	ldr	r0, [sp, #4]
	mov	r1, #0
	.cfi_offset 14, -4
	bl	_ZN8CIwArrayIi12CIwAllocatorIi15CIwMallocRouterIiEE17ReallocateDefaultIiS3_EE8truncateEj
	.loc 24 202 0
	add	sp, sp, #12
	ldmfd	sp!, {pc}
	.cfi_endproc
.LFE3736:
	.size	_ZN8CIwArrayIi12CIwAllocatorIi15CIwMallocRouterIiEE17ReallocateDefaultIiS3_EE5clearEv, .-_ZN8CIwArrayIi12CIwAllocatorIi15CIwMallocRouterIiEE17ReallocateDefaultIiS3_EE5clearEv
	.section	.rodata
	.align	2
.LC13:
	.ascii	"q<=num_p\000"
	.section	.text._ZN8CIwArrayIi12CIwAllocatorIi15CIwMallocRouterIiEE17ReallocateDefaultIiS3_EE8truncateEj,"axG",%progbits,_ZN8CIwArrayIi12CIwAllocatorIi15CIwMallocRouterIiEE17ReallocateDefaultIiS3_EE8truncateEj,comdat
	.align	2
	.weak	_ZN8CIwArrayIi12CIwAllocatorIi15CIwMallocRouterIiEE17ReallocateDefaultIiS3_EE8truncateEj
	.hidden	_ZN8CIwArrayIi12CIwAllocatorIi15CIwMallocRouterIiEE17ReallocateDefaultIiS3_EE8truncateEj
	.type	_ZN8CIwArrayIi12CIwAllocatorIi15CIwMallocRouterIiEE17ReallocateDefaultIiS3_EE8truncateEj, %function
_ZN8CIwArrayIi12CIwAllocatorIi15CIwMallocRouterIiEE17ReallocateDefaultIiS3_EE8truncateEj:
.LFB3737:
	.loc 24 765 0
	.cfi_startproc
	@ args = 0, pretend = 0, frame = 16
	@ frame_needed = 0, uses_anonymous_args = 0
	str	lr, [sp, #-4]!
.LCFI133:
	.cfi_def_cfa_offset 4
	sub	sp, sp, #20
.LCFI134:
	.cfi_def_cfa_offset 24
	str	r0, [sp, #4]
	str	r1, [sp, #0]
.LBB17:
.LBB18:
	.loc 24 767 0
	ldr	r3, [sp, #4]
	ldr	r2, [r3, #4]
	ldr	r3, [sp, #0]
	cmp	r2, r3
	bcs	.L310
	.cfi_offset 14, -4
	ldr	r0, .L323
	bl	IwDebugAssertIsChannelOn
	mov	r3, r0
	cmp	r3, #0
	beq	.L310
	ldr	r3, .L323+4
	ldrb	r3, [r3, #0]	@ zero_extendqisi2
	cmp	r3, #0
	bne	.L310
	mov	r3, #1
	b	.L311
.L310:
	mov	r3, #0
.L311:
	cmp	r3, #0
	beq	.L312
	mov	r0, #0
	bl	IwDebugAssertSetSolution
	mov	r0, #0
	bl	IwDebugAssertSetUID
	mov	r0, #0
	bl	IwDebugAssertSetMessage
	ldr	r0, .L323+8
	ldr	r1, .L323+12
	ldr	r2, .L323+16
	mov	r3, #1
	bl	IwDebugAssertShow
	mov	r3, r0
	cmp	r3, #1
	beq	.L314
	cmp	r3, #2
	beq	.L315
	b	.L313
.L314:
	bl	s3eDebugIsDebuggerPresent
	mov	r3, r0
	cmp	r3, #0
	moveq	r3, #0
	movne	r3, #1
	and	r3, r3, #255
	cmp	r3, #0
	beq	.L316
	bl	s3eDebugIsDebuggerPresent
	mov	r3, r0
	cmp	r3, #0
	moveq	r3, #0
	movne	r3, #1
	and	r3, r3, #255
	cmp	r3, #0
	beq	.L322
	mvn	r3, #11
	mov	r2, #0
	str	r2, [r3, #0]
	b	.L313
.L316:
	bl	_ZL11IwDebugExitv
	b	.L313
.L315:
	ldr	r3, .L323+4
	mov	r2, #1
	strb	r2, [r3, #0]
	b	.L313
.L322:
	mov	r0, r0	@ nop
.L313:
	mov	r0, #0
	bl	IwDebugAssertSetUID
.L312:
.LBE18:
.LBB19:
	.loc 24 769 0
	ldr	r3, [sp, #0]
	str	r3, [sp, #12]
	b	.L319
.L320:
	ldr	r3, [sp, #12]
	add	r3, r3, #1
	str	r3, [sp, #12]
.L319:
	ldr	r3, [sp, #4]
	ldr	r2, [r3, #4]
	ldr	r3, [sp, #12]
	cmp	r2, r3
	movls	r3, #0
	movhi	r3, #1
	and	r3, r3, #255
	cmp	r3, #0
	bne	.L320
.LBE19:
	.loc 24 771 0
	ldr	r3, [sp, #4]
	ldr	r2, [sp, #0]
	str	r2, [r3, #4]
.LBE17:
	.loc 24 772 0
	add	sp, sp, #20
	ldmfd	sp!, {pc}
.L324:
	.align	2
.L323:
	.word	.LC9
	.word	_ZZN8CIwArrayIi12CIwAllocatorIi15CIwMallocRouterIiEE17ReallocateDefaultIiS3_EE8truncateEjE21_s_IwAssertIgnoreThis
	.word	.LC13
	.word	.LC12
	.word	767
	.cfi_endproc
.LFE3737:
	.size	_ZN8CIwArrayIi12CIwAllocatorIi15CIwMallocRouterIiEE17ReallocateDefaultIiS3_EE8truncateEj, .-_ZN8CIwArrayIi12CIwAllocatorIi15CIwMallocRouterIiEE17ReallocateDefaultIiS3_EE8truncateEj
	.section	.rodata
	.align	2
.LC14:
	.ascii	"Attempting to change capacity of an array that does"
	.ascii	"n't own its data allocation.\000"
	.align	2
.LC15:
	.ascii	"!block_delete\000"
	.align	2
.LC16:
	.ascii	"Attempting to expand an array that has its size loc"
	.ascii	"ked.\000"
	.align	2
.LC17:
	.ascii	"!no_grow || q <= max_p\000"
	.align	2
.LC18:
	.ascii	"q>=num_p\000"
	.section	.text._ZN8CIwArrayIi12CIwAllocatorIi15CIwMallocRouterIiEE17ReallocateDefaultIiS3_EE12set_capacityEj,"axG",%progbits,_ZN8CIwArrayIi12CIwAllocatorIi15CIwMallocRouterIiEE17ReallocateDefaultIiS3_EE12set_capacityEj,comdat
	.align	2
	.weak	_ZN8CIwArrayIi12CIwAllocatorIi15CIwMallocRouterIiEE17ReallocateDefaultIiS3_EE12set_capacityEj
	.hidden	_ZN8CIwArrayIi12CIwAllocatorIi15CIwMallocRouterIiEE17ReallocateDefaultIiS3_EE12set_capacityEj
	.type	_ZN8CIwArrayIi12CIwAllocatorIi15CIwMallocRouterIiEE17ReallocateDefaultIiS3_EE12set_capacityEj, %function
_ZN8CIwArrayIi12CIwAllocatorIi15CIwMallocRouterIiEE17ReallocateDefaultIiS3_EE12set_capacityEj:
.LFB3738:
	.loc 24 804 0
	.cfi_startproc
	@ args = 0, pretend = 0, frame = 8
	@ frame_needed = 0, uses_anonymous_args = 0
	str	lr, [sp, #-4]!
.LCFI135:
	.cfi_def_cfa_offset 4
	sub	sp, sp, #20
.LCFI136:
	.cfi_def_cfa_offset 24
	str	r0, [sp, #12]
	str	r1, [sp, #8]
.LBB20:
.LBB21:
	.loc 24 806 0
	ldr	r3, [sp, #12]
	ldrb	r3, [r3, #12]
	and	r3, r3, #1
	and	r3, r3, #255
	cmp	r3, #0
	beq	.L326
	.cfi_offset 14, -4
	ldr	r0, .L363
	bl	IwDebugAssertIsChannelOn
	mov	r3, r0
	cmp	r3, #0
	beq	.L327
	ldr	r3, .L363+4
	ldrb	r3, [r3, #0]	@ zero_extendqisi2
	cmp	r3, #0
	bne	.L327
	mov	r3, #1
	b	.L328
.L327:
	mov	r3, #0
.L328:
	cmp	r3, #0
	beq	.L358
	ldr	r0, .L363+8
	bl	IwDebugAssertSetUID
	ldr	r0, .L363+12
	bl	IwDebugAssertSetMessage
	ldr	r0, .L363+16
	ldr	r1, .L363+20
	ldr	r2, .L363+24
	mov	r3, #1
	bl	IwDebugAssertShow
	mov	r3, r0
	cmp	r3, #1
	beq	.L331
	cmp	r3, #2
	beq	.L332
	b	.L330
.L331:
	bl	s3eDebugIsDebuggerPresent
	mov	r3, r0
	cmp	r3, #0
	moveq	r3, #0
	movne	r3, #1
	and	r3, r3, #255
	cmp	r3, #0
	beq	.L333
	bl	s3eDebugIsDebuggerPresent
	mov	r3, r0
	cmp	r3, #0
	moveq	r3, #0
	movne	r3, #1
	and	r3, r3, #255
	cmp	r3, #0
	beq	.L359
	mvn	r3, #11
	mov	r2, #0
	str	r2, [r3, #0]
	b	.L330
.L333:
	bl	_ZL11IwDebugExitv
	b	.L330
.L332:
	ldr	r3, .L363+4
	mov	r2, #1
	strb	r2, [r3, #0]
	b	.L330
.L359:
	mov	r0, r0	@ nop
.L330:
	mov	r0, #0
	bl	IwDebugAssertSetUID
	b	.L357
.L326:
.LBE21:
.LBB22:
	.loc 24 807 0
	ldr	r3, [sp, #12]
	ldrb	r3, [r3, #12]	@ zero_extendqisi2
	mov	r3, r3, lsr #1
	and	r3, r3, #1
	and	r3, r3, #255
	cmp	r3, #0
	beq	.L337
	ldr	r3, [sp, #12]
	ldr	r2, [r3, #8]
	ldr	r3, [sp, #8]
	cmp	r2, r3
	bcs	.L337
	ldr	r0, .L363
	bl	IwDebugAssertIsChannelOn
	mov	r3, r0
	cmp	r3, #0
	beq	.L337
	ldr	r3, .L363+28
	ldrb	r3, [r3, #0]	@ zero_extendqisi2
	cmp	r3, #0
	bne	.L337
	mov	r3, #1
	b	.L338
.L337:
	mov	r3, #0
.L338:
	cmp	r3, #0
	beq	.L339
	mov	r0, #0
	bl	IwDebugAssertSetSolution
	ldr	r0, .L363+32
	bl	IwDebugAssertSetUID
	ldr	r0, .L363+36
	bl	IwDebugAssertSetMessage
	ldr	r0, .L363+40
	ldr	r1, .L363+20
	ldr	r2, .L363+44
	mov	r3, #1
	bl	IwDebugAssertShow
	mov	r3, r0
	cmp	r3, #1
	beq	.L341
	cmp	r3, #2
	beq	.L342
	b	.L340
.L341:
	bl	s3eDebugIsDebuggerPresent
	mov	r3, r0
	cmp	r3, #0
	moveq	r3, #0
	movne	r3, #1
	and	r3, r3, #255
	cmp	r3, #0
	beq	.L343
	bl	s3eDebugIsDebuggerPresent
	mov	r3, r0
	cmp	r3, #0
	moveq	r3, #0
	movne	r3, #1
	and	r3, r3, #255
	cmp	r3, #0
	beq	.L360
	mvn	r3, #11
	mov	r2, #0
	str	r2, [r3, #0]
	b	.L340
.L343:
	bl	_ZL11IwDebugExitv
	b	.L340
.L342:
	ldr	r3, .L363+28
	mov	r2, #1
	strb	r2, [r3, #0]
	b	.L340
.L360:
	mov	r0, r0	@ nop
.L340:
	mov	r0, #0
	bl	IwDebugAssertSetUID
.L339:
.LBE22:
.LBB23:
	.loc 24 808 0
	ldr	r3, [sp, #12]
	ldr	r2, [r3, #4]
	ldr	r3, [sp, #8]
	cmp	r2, r3
	bls	.L346
	ldr	r0, .L363
	bl	IwDebugAssertIsChannelOn
	mov	r3, r0
	cmp	r3, #0
	beq	.L346
	ldr	r3, .L363+48
	ldrb	r3, [r3, #0]	@ zero_extendqisi2
	cmp	r3, #0
	bne	.L346
	mov	r3, #1
	b	.L347
.L346:
	mov	r3, #0
.L347:
	cmp	r3, #0
	beq	.L348
	mov	r0, #0
	bl	IwDebugAssertSetSolution
	mov	r0, #0
	bl	IwDebugAssertSetUID
	mov	r0, #0
	bl	IwDebugAssertSetMessage
	ldr	r0, .L363+52
	ldr	r1, .L363+20
	mov	r2, #808
	mov	r3, #1
	bl	IwDebugAssertShow
	mov	r3, r0
	cmp	r3, #1
	beq	.L350
	cmp	r3, #2
	beq	.L351
	b	.L349
.L350:
	bl	s3eDebugIsDebuggerPresent
	mov	r3, r0
	cmp	r3, #0
	moveq	r3, #0
	movne	r3, #1
	and	r3, r3, #255
	cmp	r3, #0
	beq	.L352
	bl	s3eDebugIsDebuggerPresent
	mov	r3, r0
	cmp	r3, #0
	moveq	r3, #0
	movne	r3, #1
	and	r3, r3, #255
	cmp	r3, #0
	beq	.L361
	mvn	r3, #11
	mov	r2, #0
	str	r2, [r3, #0]
	b	.L349
.L352:
	bl	_ZL11IwDebugExitv
	b	.L349
.L351:
	ldr	r3, .L363+48
	mov	r2, #1
	strb	r2, [r3, #0]
	b	.L349
.L361:
	mov	r0, r0	@ nop
.L349:
	mov	r0, #0
	bl	IwDebugAssertSetUID
.L348:
.LBE23:
	.loc 24 809 0
	ldr	r3, [sp, #12]
	ldr	r2, [r3, #8]
	ldr	r3, [sp, #8]
	cmp	r2, r3
	beq	.L362
.L355:
	.loc 24 810 0
	ldr	r3, [sp, #12]
	ldr	r2, [sp, #8]
	str	r2, [r3, #8]
	.loc 24 811 0
	ldr	r3, [sp, #8]
	cmp	r3, #0
	bne	.L356
	.loc 24 813 0
	ldr	r3, [sp, #12]
	add	r1, r3, #13
	ldr	r3, [sp, #12]
	ldr	r2, [r3, #0]
	ldr	r3, [sp, #12]
	ldr	r3, [r3, #8]
	mov	r0, r1
	mov	r1, r2
	mov	r2, r3
	bl	_ZN12CIwAllocatorIi15CIwMallocRouterIiEE10deallocateEPij
	.loc 24 814 0
	ldr	r3, [sp, #12]
	mov	r2, #0
	str	r2, [r3, #0]
	b	.L357
.L356:
	.loc 24 818 0
	ldr	r3, [sp, #12]
	ldr	r1, [r3, #4]
	ldr	r3, [sp, #12]
	ldr	r2, [r3, #8]
	ldr	r3, [sp, #12]
	ldr	r3, [r3, #0]
	ldr	r0, [sp, #12]
	add	r0, r0, #13
	str	r0, [sp, #0]
	ldr	r0, [sp, #8]
	bl	_ZN17ReallocateDefaultIi12CIwAllocatorIi15CIwMallocRouterIiEEE10ReallocateEjjjPiRS3_
	mov	r2, r0
	ldr	r3, [sp, #12]
	str	r2, [r3, #0]
	b	.L357
.L358:
.LBB24:
	.loc 24 806 0
	mov	r0, r0	@ nop
	b	.L357
.L362:
.LBE24:
	.loc 24 809 0
	mov	r0, r0	@ nop
.L357:
.LBE20:
	.loc 24 820 0
	add	sp, sp, #20
	ldmfd	sp!, {pc}
.L364:
	.align	2
.L363:
	.word	.LC9
	.word	_ZZN8CIwArrayIi12CIwAllocatorIi15CIwMallocRouterIiEE17ReallocateDefaultIiS3_EE12set_capacityEjE21_s_IwAssertIgnoreThis
	.word	1733
	.word	.LC14
	.word	.LC15
	.word	.LC12
	.word	806
	.word	_ZZN8CIwArrayIi12CIwAllocatorIi15CIwMallocRouterIiEE17ReallocateDefaultIiS3_EE12set_capacityEjE21_s_IwAssertIgnoreThis_0
	.word	1732
	.word	.LC16
	.word	.LC17
	.word	807
	.word	_ZZN8CIwArrayIi12CIwAllocatorIi15CIwMallocRouterIiEE17ReallocateDefaultIiS3_EE12set_capacityEjE21_s_IwAssertIgnoreThis_1
	.word	.LC18
	.cfi_endproc
.LFE3738:
	.size	_ZN8CIwArrayIi12CIwAllocatorIi15CIwMallocRouterIiEE17ReallocateDefaultIiS3_EE12set_capacityEj, .-_ZN8CIwArrayIi12CIwAllocatorIi15CIwMallocRouterIiEE17ReallocateDefaultIiS3_EE12set_capacityEj
	.section	.text._ZN12CIwAllocatorIP6Button15CIwMallocRouterIS1_EE10deallocateEPS1_j,"axG",%progbits,_ZN12CIwAllocatorIP6Button15CIwMallocRouterIS1_EE10deallocateEPS1_j,comdat
	.align	2
	.weak	_ZN12CIwAllocatorIP6Button15CIwMallocRouterIS1_EE10deallocateEPS1_j
	.hidden	_ZN12CIwAllocatorIP6Button15CIwMallocRouterIS1_EE10deallocateEPS1_j
	.type	_ZN12CIwAllocatorIP6Button15CIwMallocRouterIS1_EE10deallocateEPS1_j, %function
_ZN12CIwAllocatorIP6Button15CIwMallocRouterIS1_EE10deallocateEPS1_j:
.LFB3751:
	.loc 28 147 0
	.cfi_startproc
	@ args = 0, pretend = 0, frame = 16
	@ frame_needed = 0, uses_anonymous_args = 0
	str	lr, [sp, #-4]!
.LCFI137:
	.cfi_def_cfa_offset 4
	sub	sp, sp, #20
.LCFI138:
	.cfi_def_cfa_offset 24
	str	r0, [sp, #12]
	str	r1, [sp, #8]
	str	r2, [sp, #4]
	.loc 28 147 0
	ldr	r0, [sp, #8]
	.cfi_offset 14, -4
	bl	_ZN15CIwMallocRouterIP6ButtonE6DoFreeEPv
	add	sp, sp, #20
	ldmfd	sp!, {pc}
	.cfi_endproc
.LFE3751:
	.size	_ZN12CIwAllocatorIP6Button15CIwMallocRouterIS1_EE10deallocateEPS1_j, .-_ZN12CIwAllocatorIP6Button15CIwMallocRouterIS1_EE10deallocateEPS1_j
	.section	.text._ZN12CIwAllocatorIP10CIw2DImage15CIwMallocRouterIS1_EE10deallocateEPS1_j,"axG",%progbits,_ZN12CIwAllocatorIP10CIw2DImage15CIwMallocRouterIS1_EE10deallocateEPS1_j,comdat
	.align	2
	.weak	_ZN12CIwAllocatorIP10CIw2DImage15CIwMallocRouterIS1_EE10deallocateEPS1_j
	.hidden	_ZN12CIwAllocatorIP10CIw2DImage15CIwMallocRouterIS1_EE10deallocateEPS1_j
	.type	_ZN12CIwAllocatorIP10CIw2DImage15CIwMallocRouterIS1_EE10deallocateEPS1_j, %function
_ZN12CIwAllocatorIP10CIw2DImage15CIwMallocRouterIS1_EE10deallocateEPS1_j:
.LFB3754:
	.loc 28 147 0
	.cfi_startproc
	@ args = 0, pretend = 0, frame = 16
	@ frame_needed = 0, uses_anonymous_args = 0
	str	lr, [sp, #-4]!
.LCFI139:
	.cfi_def_cfa_offset 4
	sub	sp, sp, #20
.LCFI140:
	.cfi_def_cfa_offset 24
	str	r0, [sp, #12]
	str	r1, [sp, #8]
	str	r2, [sp, #4]
	.loc 28 147 0
	ldr	r0, [sp, #8]
	.cfi_offset 14, -4
	bl	_ZN15CIwMallocRouterIP10CIw2DImageE6DoFreeEPv
	add	sp, sp, #20
	ldmfd	sp!, {pc}
	.cfi_endproc
.LFE3754:
	.size	_ZN12CIwAllocatorIP10CIw2DImage15CIwMallocRouterIS1_EE10deallocateEPS1_j, .-_ZN12CIwAllocatorIP10CIw2DImage15CIwMallocRouterIS1_EE10deallocateEPS1_j
	.section	.text._ZN8CIwArrayIP10CIw2DImage12CIwAllocatorIS1_15CIwMallocRouterIS1_EE17ReallocateDefaultIS1_S5_EE8truncateEj,"axG",%progbits,_ZN8CIwArrayIP10CIw2DImage12CIwAllocatorIS1_15CIwMallocRouterIS1_EE17ReallocateDefaultIS1_S5_EE8truncateEj,comdat
	.align	2
	.weak	_ZN8CIwArrayIP10CIw2DImage12CIwAllocatorIS1_15CIwMallocRouterIS1_EE17ReallocateDefaultIS1_S5_EE8truncateEj
	.hidden	_ZN8CIwArrayIP10CIw2DImage12CIwAllocatorIS1_15CIwMallocRouterIS1_EE17ReallocateDefaultIS1_S5_EE8truncateEj
	.type	_ZN8CIwArrayIP10CIw2DImage12CIwAllocatorIS1_15CIwMallocRouterIS1_EE17ReallocateDefaultIS1_S5_EE8truncateEj, %function
_ZN8CIwArrayIP10CIw2DImage12CIwAllocatorIS1_15CIwMallocRouterIS1_EE17ReallocateDefaultIS1_S5_EE8truncateEj:
.LFB3755:
	.loc 24 765 0
	.cfi_startproc
	@ args = 0, pretend = 0, frame = 16
	@ frame_needed = 0, uses_anonymous_args = 0
	str	lr, [sp, #-4]!
.LCFI141:
	.cfi_def_cfa_offset 4
	sub	sp, sp, #20
.LCFI142:
	.cfi_def_cfa_offset 24
	str	r0, [sp, #4]
	str	r1, [sp, #0]
.LBB25:
.LBB26:
	.loc 24 767 0
	ldr	r3, [sp, #4]
	ldr	r2, [r3, #4]
	ldr	r3, [sp, #0]
	cmp	r2, r3
	bcs	.L370
	.cfi_offset 14, -4
	ldr	r0, .L383
	bl	IwDebugAssertIsChannelOn
	mov	r3, r0
	cmp	r3, #0
	beq	.L370
	ldr	r3, .L383+4
	ldrb	r3, [r3, #0]	@ zero_extendqisi2
	cmp	r3, #0
	bne	.L370
	mov	r3, #1
	b	.L371
.L370:
	mov	r3, #0
.L371:
	cmp	r3, #0
	beq	.L372
	mov	r0, #0
	bl	IwDebugAssertSetSolution
	mov	r0, #0
	bl	IwDebugAssertSetUID
	mov	r0, #0
	bl	IwDebugAssertSetMessage
	ldr	r0, .L383+8
	ldr	r1, .L383+12
	ldr	r2, .L383+16
	mov	r3, #1
	bl	IwDebugAssertShow
	mov	r3, r0
	cmp	r3, #1
	beq	.L374
	cmp	r3, #2
	beq	.L375
	b	.L373
.L374:
	bl	s3eDebugIsDebuggerPresent
	mov	r3, r0
	cmp	r3, #0
	moveq	r3, #0
	movne	r3, #1
	and	r3, r3, #255
	cmp	r3, #0
	beq	.L376
	bl	s3eDebugIsDebuggerPresent
	mov	r3, r0
	cmp	r3, #0
	moveq	r3, #0
	movne	r3, #1
	and	r3, r3, #255
	cmp	r3, #0
	beq	.L382
	mvn	r3, #11
	mov	r2, #0
	str	r2, [r3, #0]
	b	.L373
.L376:
	bl	_ZL11IwDebugExitv
	b	.L373
.L375:
	ldr	r3, .L383+4
	mov	r2, #1
	strb	r2, [r3, #0]
	b	.L373
.L382:
	mov	r0, r0	@ nop
.L373:
	mov	r0, #0
	bl	IwDebugAssertSetUID
.L372:
.LBE26:
.LBB27:
	.loc 24 769 0
	ldr	r3, [sp, #0]
	str	r3, [sp, #12]
	b	.L379
.L380:
	ldr	r3, [sp, #12]
	add	r3, r3, #1
	str	r3, [sp, #12]
.L379:
	ldr	r3, [sp, #4]
	ldr	r2, [r3, #4]
	ldr	r3, [sp, #12]
	cmp	r2, r3
	movls	r3, #0
	movhi	r3, #1
	and	r3, r3, #255
	cmp	r3, #0
	bne	.L380
.LBE27:
	.loc 24 771 0
	ldr	r3, [sp, #4]
	ldr	r2, [sp, #0]
	str	r2, [r3, #4]
.LBE25:
	.loc 24 772 0
	add	sp, sp, #20
	ldmfd	sp!, {pc}
.L384:
	.align	2
.L383:
	.word	.LC9
	.word	_ZZN8CIwArrayIP10CIw2DImage12CIwAllocatorIS1_15CIwMallocRouterIS1_EE17ReallocateDefaultIS1_S5_EE8truncateEjE21_s_IwAssertIgnoreThis
	.word	.LC13
	.word	.LC12
	.word	767
	.cfi_endproc
.LFE3755:
	.size	_ZN8CIwArrayIP10CIw2DImage12CIwAllocatorIS1_15CIwMallocRouterIS1_EE17ReallocateDefaultIS1_S5_EE8truncateEj, .-_ZN8CIwArrayIP10CIw2DImage12CIwAllocatorIS1_15CIwMallocRouterIS1_EE17ReallocateDefaultIS1_S5_EE8truncateEj
	.section	.text._ZN8CIwArrayIP10CIw2DImage12CIwAllocatorIS1_15CIwMallocRouterIS1_EE17ReallocateDefaultIS1_S5_EE12set_capacityEj,"axG",%progbits,_ZN8CIwArrayIP10CIw2DImage12CIwAllocatorIS1_15CIwMallocRouterIS1_EE17ReallocateDefaultIS1_S5_EE12set_capacityEj,comdat
	.align	2
	.weak	_ZN8CIwArrayIP10CIw2DImage12CIwAllocatorIS1_15CIwMallocRouterIS1_EE17ReallocateDefaultIS1_S5_EE12set_capacityEj
	.hidden	_ZN8CIwArrayIP10CIw2DImage12CIwAllocatorIS1_15CIwMallocRouterIS1_EE17ReallocateDefaultIS1_S5_EE12set_capacityEj
	.type	_ZN8CIwArrayIP10CIw2DImage12CIwAllocatorIS1_15CIwMallocRouterIS1_EE17ReallocateDefaultIS1_S5_EE12set_capacityEj, %function
_ZN8CIwArrayIP10CIw2DImage12CIwAllocatorIS1_15CIwMallocRouterIS1_EE17ReallocateDefaultIS1_S5_EE12set_capacityEj:
.LFB3756:
	.loc 24 804 0
	.cfi_startproc
	@ args = 0, pretend = 0, frame = 8
	@ frame_needed = 0, uses_anonymous_args = 0
	str	lr, [sp, #-4]!
.LCFI143:
	.cfi_def_cfa_offset 4
	sub	sp, sp, #20
.LCFI144:
	.cfi_def_cfa_offset 24
	str	r0, [sp, #12]
	str	r1, [sp, #8]
.LBB28:
.LBB29:
	.loc 24 806 0
	ldr	r3, [sp, #12]
	ldrb	r3, [r3, #12]
	and	r3, r3, #1
	and	r3, r3, #255
	cmp	r3, #0
	beq	.L386
	.cfi_offset 14, -4
	ldr	r0, .L423
	bl	IwDebugAssertIsChannelOn
	mov	r3, r0
	cmp	r3, #0
	beq	.L387
	ldr	r3, .L423+4
	ldrb	r3, [r3, #0]	@ zero_extendqisi2
	cmp	r3, #0
	bne	.L387
	mov	r3, #1
	b	.L388
.L387:
	mov	r3, #0
.L388:
	cmp	r3, #0
	beq	.L418
	ldr	r0, .L423+8
	bl	IwDebugAssertSetUID
	ldr	r0, .L423+12
	bl	IwDebugAssertSetMessage
	ldr	r0, .L423+16
	ldr	r1, .L423+20
	ldr	r2, .L423+24
	mov	r3, #1
	bl	IwDebugAssertShow
	mov	r3, r0
	cmp	r3, #1
	beq	.L391
	cmp	r3, #2
	beq	.L392
	b	.L390
.L391:
	bl	s3eDebugIsDebuggerPresent
	mov	r3, r0
	cmp	r3, #0
	moveq	r3, #0
	movne	r3, #1
	and	r3, r3, #255
	cmp	r3, #0
	beq	.L393
	bl	s3eDebugIsDebuggerPresent
	mov	r3, r0
	cmp	r3, #0
	moveq	r3, #0
	movne	r3, #1
	and	r3, r3, #255
	cmp	r3, #0
	beq	.L419
	mvn	r3, #11
	mov	r2, #0
	str	r2, [r3, #0]
	b	.L390
.L393:
	bl	_ZL11IwDebugExitv
	b	.L390
.L392:
	ldr	r3, .L423+4
	mov	r2, #1
	strb	r2, [r3, #0]
	b	.L390
.L419:
	mov	r0, r0	@ nop
.L390:
	mov	r0, #0
	bl	IwDebugAssertSetUID
	b	.L417
.L386:
.LBE29:
.LBB30:
	.loc 24 807 0
	ldr	r3, [sp, #12]
	ldrb	r3, [r3, #12]	@ zero_extendqisi2
	mov	r3, r3, lsr #1
	and	r3, r3, #1
	and	r3, r3, #255
	cmp	r3, #0
	beq	.L397
	ldr	r3, [sp, #12]
	ldr	r2, [r3, #8]
	ldr	r3, [sp, #8]
	cmp	r2, r3
	bcs	.L397
	ldr	r0, .L423
	bl	IwDebugAssertIsChannelOn
	mov	r3, r0
	cmp	r3, #0
	beq	.L397
	ldr	r3, .L423+28
	ldrb	r3, [r3, #0]	@ zero_extendqisi2
	cmp	r3, #0
	bne	.L397
	mov	r3, #1
	b	.L398
.L397:
	mov	r3, #0
.L398:
	cmp	r3, #0
	beq	.L399
	mov	r0, #0
	bl	IwDebugAssertSetSolution
	ldr	r0, .L423+32
	bl	IwDebugAssertSetUID
	ldr	r0, .L423+36
	bl	IwDebugAssertSetMessage
	ldr	r0, .L423+40
	ldr	r1, .L423+20
	ldr	r2, .L423+44
	mov	r3, #1
	bl	IwDebugAssertShow
	mov	r3, r0
	cmp	r3, #1
	beq	.L401
	cmp	r3, #2
	beq	.L402
	b	.L400
.L401:
	bl	s3eDebugIsDebuggerPresent
	mov	r3, r0
	cmp	r3, #0
	moveq	r3, #0
	movne	r3, #1
	and	r3, r3, #255
	cmp	r3, #0
	beq	.L403
	bl	s3eDebugIsDebuggerPresent
	mov	r3, r0
	cmp	r3, #0
	moveq	r3, #0
	movne	r3, #1
	and	r3, r3, #255
	cmp	r3, #0
	beq	.L420
	mvn	r3, #11
	mov	r2, #0
	str	r2, [r3, #0]
	b	.L400
.L403:
	bl	_ZL11IwDebugExitv
	b	.L400
.L402:
	ldr	r3, .L423+28
	mov	r2, #1
	strb	r2, [r3, #0]
	b	.L400
.L420:
	mov	r0, r0	@ nop
.L400:
	mov	r0, #0
	bl	IwDebugAssertSetUID
.L399:
.LBE30:
.LBB31:
	.loc 24 808 0
	ldr	r3, [sp, #12]
	ldr	r2, [r3, #4]
	ldr	r3, [sp, #8]
	cmp	r2, r3
	bls	.L406
	ldr	r0, .L423
	bl	IwDebugAssertIsChannelOn
	mov	r3, r0
	cmp	r3, #0
	beq	.L406
	ldr	r3, .L423+48
	ldrb	r3, [r3, #0]	@ zero_extendqisi2
	cmp	r3, #0
	bne	.L406
	mov	r3, #1
	b	.L407
.L406:
	mov	r3, #0
.L407:
	cmp	r3, #0
	beq	.L408
	mov	r0, #0
	bl	IwDebugAssertSetSolution
	mov	r0, #0
	bl	IwDebugAssertSetUID
	mov	r0, #0
	bl	IwDebugAssertSetMessage
	ldr	r0, .L423+52
	ldr	r1, .L423+20
	mov	r2, #808
	mov	r3, #1
	bl	IwDebugAssertShow
	mov	r3, r0
	cmp	r3, #1
	beq	.L410
	cmp	r3, #2
	beq	.L411
	b	.L409
.L410:
	bl	s3eDebugIsDebuggerPresent
	mov	r3, r0
	cmp	r3, #0
	moveq	r3, #0
	movne	r3, #1
	and	r3, r3, #255
	cmp	r3, #0
	beq	.L412
	bl	s3eDebugIsDebuggerPresent
	mov	r3, r0
	cmp	r3, #0
	moveq	r3, #0
	movne	r3, #1
	and	r3, r3, #255
	cmp	r3, #0
	beq	.L421
	mvn	r3, #11
	mov	r2, #0
	str	r2, [r3, #0]
	b	.L409
.L412:
	bl	_ZL11IwDebugExitv
	b	.L409
.L411:
	ldr	r3, .L423+48
	mov	r2, #1
	strb	r2, [r3, #0]
	b	.L409
.L421:
	mov	r0, r0	@ nop
.L409:
	mov	r0, #0
	bl	IwDebugAssertSetUID
.L408:
.LBE31:
	.loc 24 809 0
	ldr	r3, [sp, #12]
	ldr	r2, [r3, #8]
	ldr	r3, [sp, #8]
	cmp	r2, r3
	beq	.L422
.L415:
	.loc 24 810 0
	ldr	r3, [sp, #12]
	ldr	r2, [sp, #8]
	str	r2, [r3, #8]
	.loc 24 811 0
	ldr	r3, [sp, #8]
	cmp	r3, #0
	bne	.L416
	.loc 24 813 0
	ldr	r3, [sp, #12]
	add	r1, r3, #13
	ldr	r3, [sp, #12]
	ldr	r2, [r3, #0]
	ldr	r3, [sp, #12]
	ldr	r3, [r3, #8]
	mov	r0, r1
	mov	r1, r2
	mov	r2, r3
	bl	_ZN12CIwAllocatorIP10CIw2DImage15CIwMallocRouterIS1_EE10deallocateEPS1_j
	.loc 24 814 0
	ldr	r3, [sp, #12]
	mov	r2, #0
	str	r2, [r3, #0]
	b	.L417
.L416:
	.loc 24 818 0
	ldr	r3, [sp, #12]
	ldr	r1, [r3, #4]
	ldr	r3, [sp, #12]
	ldr	r2, [r3, #8]
	ldr	r3, [sp, #12]
	ldr	r3, [r3, #0]
	ldr	r0, [sp, #12]
	add	r0, r0, #13
	str	r0, [sp, #0]
	ldr	r0, [sp, #8]
	bl	_ZN17ReallocateDefaultIP10CIw2DImage12CIwAllocatorIS1_15CIwMallocRouterIS1_EEE10ReallocateEjjjPS1_RS5_
	mov	r2, r0
	ldr	r3, [sp, #12]
	str	r2, [r3, #0]
	b	.L417
.L418:
.LBB32:
	.loc 24 806 0
	mov	r0, r0	@ nop
	b	.L417
.L422:
.LBE32:
	.loc 24 809 0
	mov	r0, r0	@ nop
.L417:
.LBE28:
	.loc 24 820 0
	add	sp, sp, #20
	ldmfd	sp!, {pc}
.L424:
	.align	2
.L423:
	.word	.LC9
	.word	_ZZN8CIwArrayIP10CIw2DImage12CIwAllocatorIS1_15CIwMallocRouterIS1_EE17ReallocateDefaultIS1_S5_EE12set_capacityEjE21_s_IwAssertIgnoreThis
	.word	1733
	.word	.LC14
	.word	.LC15
	.word	.LC12
	.word	806
	.word	_ZZN8CIwArrayIP10CIw2DImage12CIwAllocatorIS1_15CIwMallocRouterIS1_EE17ReallocateDefaultIS1_S5_EE12set_capacityEjE21_s_IwAssertIgnoreThis_0
	.word	1732
	.word	.LC16
	.word	.LC17
	.word	807
	.word	_ZZN8CIwArrayIP10CIw2DImage12CIwAllocatorIS1_15CIwMallocRouterIS1_EE17ReallocateDefaultIS1_S5_EE12set_capacityEjE21_s_IwAssertIgnoreThis_1
	.word	.LC18
	.cfi_endproc
.LFE3756:
	.size	_ZN8CIwArrayIP10CIw2DImage12CIwAllocatorIS1_15CIwMallocRouterIS1_EE17ReallocateDefaultIS1_S5_EE12set_capacityEj, .-_ZN8CIwArrayIP10CIw2DImage12CIwAllocatorIS1_15CIwMallocRouterIS1_EE17ReallocateDefaultIS1_S5_EE12set_capacityEj
	.section	.text._ZN12CIwAllocatorIPc15CIwMallocRouterIS0_EE10deallocateEPS0_j,"axG",%progbits,_ZN12CIwAllocatorIPc15CIwMallocRouterIS0_EE10deallocateEPS0_j,comdat
	.align	2
	.weak	_ZN12CIwAllocatorIPc15CIwMallocRouterIS0_EE10deallocateEPS0_j
	.hidden	_ZN12CIwAllocatorIPc15CIwMallocRouterIS0_EE10deallocateEPS0_j
	.type	_ZN12CIwAllocatorIPc15CIwMallocRouterIS0_EE10deallocateEPS0_j, %function
_ZN12CIwAllocatorIPc15CIwMallocRouterIS0_EE10deallocateEPS0_j:
.LFB3757:
	.loc 28 147 0
	.cfi_startproc
	@ args = 0, pretend = 0, frame = 16
	@ frame_needed = 0, uses_anonymous_args = 0
	str	lr, [sp, #-4]!
.LCFI145:
	.cfi_def_cfa_offset 4
	sub	sp, sp, #20
.LCFI146:
	.cfi_def_cfa_offset 24
	str	r0, [sp, #12]
	str	r1, [sp, #8]
	str	r2, [sp, #4]
	.loc 28 147 0
	ldr	r0, [sp, #8]
	.cfi_offset 14, -4
	bl	_ZN15CIwMallocRouterIPcE6DoFreeEPv
	add	sp, sp, #20
	ldmfd	sp!, {pc}
	.cfi_endproc
.LFE3757:
	.size	_ZN12CIwAllocatorIPc15CIwMallocRouterIS0_EE10deallocateEPS0_j, .-_ZN12CIwAllocatorIPc15CIwMallocRouterIS0_EE10deallocateEPS0_j
	.section	.text._ZN8CIwArrayIPc12CIwAllocatorIS0_15CIwMallocRouterIS0_EE17ReallocateDefaultIS0_S4_EE8truncateEj,"axG",%progbits,_ZN8CIwArrayIPc12CIwAllocatorIS0_15CIwMallocRouterIS0_EE17ReallocateDefaultIS0_S4_EE8truncateEj,comdat
	.align	2
	.weak	_ZN8CIwArrayIPc12CIwAllocatorIS0_15CIwMallocRouterIS0_EE17ReallocateDefaultIS0_S4_EE8truncateEj
	.hidden	_ZN8CIwArrayIPc12CIwAllocatorIS0_15CIwMallocRouterIS0_EE17ReallocateDefaultIS0_S4_EE8truncateEj
	.type	_ZN8CIwArrayIPc12CIwAllocatorIS0_15CIwMallocRouterIS0_EE17ReallocateDefaultIS0_S4_EE8truncateEj, %function
_ZN8CIwArrayIPc12CIwAllocatorIS0_15CIwMallocRouterIS0_EE17ReallocateDefaultIS0_S4_EE8truncateEj:
.LFB3758:
	.loc 24 765 0
	.cfi_startproc
	@ args = 0, pretend = 0, frame = 16
	@ frame_needed = 0, uses_anonymous_args = 0
	str	lr, [sp, #-4]!
.LCFI147:
	.cfi_def_cfa_offset 4
	sub	sp, sp, #20
.LCFI148:
	.cfi_def_cfa_offset 24
	str	r0, [sp, #4]
	str	r1, [sp, #0]
.LBB33:
.LBB34:
	.loc 24 767 0
	ldr	r3, [sp, #4]
	ldr	r2, [r3, #4]
	ldr	r3, [sp, #0]
	cmp	r2, r3
	bcs	.L428
	.cfi_offset 14, -4
	ldr	r0, .L441
	bl	IwDebugAssertIsChannelOn
	mov	r3, r0
	cmp	r3, #0
	beq	.L428
	ldr	r3, .L441+4
	ldrb	r3, [r3, #0]	@ zero_extendqisi2
	cmp	r3, #0
	bne	.L428
	mov	r3, #1
	b	.L429
.L428:
	mov	r3, #0
.L429:
	cmp	r3, #0
	beq	.L430
	mov	r0, #0
	bl	IwDebugAssertSetSolution
	mov	r0, #0
	bl	IwDebugAssertSetUID
	mov	r0, #0
	bl	IwDebugAssertSetMessage
	ldr	r0, .L441+8
	ldr	r1, .L441+12
	ldr	r2, .L441+16
	mov	r3, #1
	bl	IwDebugAssertShow
	mov	r3, r0
	cmp	r3, #1
	beq	.L432
	cmp	r3, #2
	beq	.L433
	b	.L431
.L432:
	bl	s3eDebugIsDebuggerPresent
	mov	r3, r0
	cmp	r3, #0
	moveq	r3, #0
	movne	r3, #1
	and	r3, r3, #255
	cmp	r3, #0
	beq	.L434
	bl	s3eDebugIsDebuggerPresent
	mov	r3, r0
	cmp	r3, #0
	moveq	r3, #0
	movne	r3, #1
	and	r3, r3, #255
	cmp	r3, #0
	beq	.L440
	mvn	r3, #11
	mov	r2, #0
	str	r2, [r3, #0]
	b	.L431
.L434:
	bl	_ZL11IwDebugExitv
	b	.L431
.L433:
	ldr	r3, .L441+4
	mov	r2, #1
	strb	r2, [r3, #0]
	b	.L431
.L440:
	mov	r0, r0	@ nop
.L431:
	mov	r0, #0
	bl	IwDebugAssertSetUID
.L430:
.LBE34:
.LBB35:
	.loc 24 769 0
	ldr	r3, [sp, #0]
	str	r3, [sp, #12]
	b	.L437
.L438:
	ldr	r3, [sp, #12]
	add	r3, r3, #1
	str	r3, [sp, #12]
.L437:
	ldr	r3, [sp, #4]
	ldr	r2, [r3, #4]
	ldr	r3, [sp, #12]
	cmp	r2, r3
	movls	r3, #0
	movhi	r3, #1
	and	r3, r3, #255
	cmp	r3, #0
	bne	.L438
.LBE35:
	.loc 24 771 0
	ldr	r3, [sp, #4]
	ldr	r2, [sp, #0]
	str	r2, [r3, #4]
.LBE33:
	.loc 24 772 0
	add	sp, sp, #20
	ldmfd	sp!, {pc}
.L442:
	.align	2
.L441:
	.word	.LC9
	.word	_ZZN8CIwArrayIPc12CIwAllocatorIS0_15CIwMallocRouterIS0_EE17ReallocateDefaultIS0_S4_EE8truncateEjE21_s_IwAssertIgnoreThis
	.word	.LC13
	.word	.LC12
	.word	767
	.cfi_endproc
.LFE3758:
	.size	_ZN8CIwArrayIPc12CIwAllocatorIS0_15CIwMallocRouterIS0_EE17ReallocateDefaultIS0_S4_EE8truncateEj, .-_ZN8CIwArrayIPc12CIwAllocatorIS0_15CIwMallocRouterIS0_EE17ReallocateDefaultIS0_S4_EE8truncateEj
	.section	.text._ZN8CIwArrayIPc12CIwAllocatorIS0_15CIwMallocRouterIS0_EE17ReallocateDefaultIS0_S4_EE12set_capacityEj,"axG",%progbits,_ZN8CIwArrayIPc12CIwAllocatorIS0_15CIwMallocRouterIS0_EE17ReallocateDefaultIS0_S4_EE12set_capacityEj,comdat
	.align	2
	.weak	_ZN8CIwArrayIPc12CIwAllocatorIS0_15CIwMallocRouterIS0_EE17ReallocateDefaultIS0_S4_EE12set_capacityEj
	.hidden	_ZN8CIwArrayIPc12CIwAllocatorIS0_15CIwMallocRouterIS0_EE17ReallocateDefaultIS0_S4_EE12set_capacityEj
	.type	_ZN8CIwArrayIPc12CIwAllocatorIS0_15CIwMallocRouterIS0_EE17ReallocateDefaultIS0_S4_EE12set_capacityEj, %function
_ZN8CIwArrayIPc12CIwAllocatorIS0_15CIwMallocRouterIS0_EE17ReallocateDefaultIS0_S4_EE12set_capacityEj:
.LFB3759:
	.loc 24 804 0
	.cfi_startproc
	@ args = 0, pretend = 0, frame = 8
	@ frame_needed = 0, uses_anonymous_args = 0
	str	lr, [sp, #-4]!
.LCFI149:
	.cfi_def_cfa_offset 4
	sub	sp, sp, #20
.LCFI150:
	.cfi_def_cfa_offset 24
	str	r0, [sp, #12]
	str	r1, [sp, #8]
.LBB36:
.LBB37:
	.loc 24 806 0
	ldr	r3, [sp, #12]
	ldrb	r3, [r3, #12]
	and	r3, r3, #1
	and	r3, r3, #255
	cmp	r3, #0
	beq	.L444
	.cfi_offset 14, -4
	ldr	r0, .L481
	bl	IwDebugAssertIsChannelOn
	mov	r3, r0
	cmp	r3, #0
	beq	.L445
	ldr	r3, .L481+4
	ldrb	r3, [r3, #0]	@ zero_extendqisi2
	cmp	r3, #0
	bne	.L445
	mov	r3, #1
	b	.L446
.L445:
	mov	r3, #0
.L446:
	cmp	r3, #0
	beq	.L476
	ldr	r0, .L481+8
	bl	IwDebugAssertSetUID
	ldr	r0, .L481+12
	bl	IwDebugAssertSetMessage
	ldr	r0, .L481+16
	ldr	r1, .L481+20
	ldr	r2, .L481+24
	mov	r3, #1
	bl	IwDebugAssertShow
	mov	r3, r0
	cmp	r3, #1
	beq	.L449
	cmp	r3, #2
	beq	.L450
	b	.L448
.L449:
	bl	s3eDebugIsDebuggerPresent
	mov	r3, r0
	cmp	r3, #0
	moveq	r3, #0
	movne	r3, #1
	and	r3, r3, #255
	cmp	r3, #0
	beq	.L451
	bl	s3eDebugIsDebuggerPresent
	mov	r3, r0
	cmp	r3, #0
	moveq	r3, #0
	movne	r3, #1
	and	r3, r3, #255
	cmp	r3, #0
	beq	.L477
	mvn	r3, #11
	mov	r2, #0
	str	r2, [r3, #0]
	b	.L448
.L451:
	bl	_ZL11IwDebugExitv
	b	.L448
.L450:
	ldr	r3, .L481+4
	mov	r2, #1
	strb	r2, [r3, #0]
	b	.L448
.L477:
	mov	r0, r0	@ nop
.L448:
	mov	r0, #0
	bl	IwDebugAssertSetUID
	b	.L475
.L444:
.LBE37:
.LBB38:
	.loc 24 807 0
	ldr	r3, [sp, #12]
	ldrb	r3, [r3, #12]	@ zero_extendqisi2
	mov	r3, r3, lsr #1
	and	r3, r3, #1
	and	r3, r3, #255
	cmp	r3, #0
	beq	.L455
	ldr	r3, [sp, #12]
	ldr	r2, [r3, #8]
	ldr	r3, [sp, #8]
	cmp	r2, r3
	bcs	.L455
	ldr	r0, .L481
	bl	IwDebugAssertIsChannelOn
	mov	r3, r0
	cmp	r3, #0
	beq	.L455
	ldr	r3, .L481+28
	ldrb	r3, [r3, #0]	@ zero_extendqisi2
	cmp	r3, #0
	bne	.L455
	mov	r3, #1
	b	.L456
.L455:
	mov	r3, #0
.L456:
	cmp	r3, #0
	beq	.L457
	mov	r0, #0
	bl	IwDebugAssertSetSolution
	ldr	r0, .L481+32
	bl	IwDebugAssertSetUID
	ldr	r0, .L481+36
	bl	IwDebugAssertSetMessage
	ldr	r0, .L481+40
	ldr	r1, .L481+20
	ldr	r2, .L481+44
	mov	r3, #1
	bl	IwDebugAssertShow
	mov	r3, r0
	cmp	r3, #1
	beq	.L459
	cmp	r3, #2
	beq	.L460
	b	.L458
.L459:
	bl	s3eDebugIsDebuggerPresent
	mov	r3, r0
	cmp	r3, #0
	moveq	r3, #0
	movne	r3, #1
	and	r3, r3, #255
	cmp	r3, #0
	beq	.L461
	bl	s3eDebugIsDebuggerPresent
	mov	r3, r0
	cmp	r3, #0
	moveq	r3, #0
	movne	r3, #1
	and	r3, r3, #255
	cmp	r3, #0
	beq	.L478
	mvn	r3, #11
	mov	r2, #0
	str	r2, [r3, #0]
	b	.L458
.L461:
	bl	_ZL11IwDebugExitv
	b	.L458
.L460:
	ldr	r3, .L481+28
	mov	r2, #1
	strb	r2, [r3, #0]
	b	.L458
.L478:
	mov	r0, r0	@ nop
.L458:
	mov	r0, #0
	bl	IwDebugAssertSetUID
.L457:
.LBE38:
.LBB39:
	.loc 24 808 0
	ldr	r3, [sp, #12]
	ldr	r2, [r3, #4]
	ldr	r3, [sp, #8]
	cmp	r2, r3
	bls	.L464
	ldr	r0, .L481
	bl	IwDebugAssertIsChannelOn
	mov	r3, r0
	cmp	r3, #0
	beq	.L464
	ldr	r3, .L481+48
	ldrb	r3, [r3, #0]	@ zero_extendqisi2
	cmp	r3, #0
	bne	.L464
	mov	r3, #1
	b	.L465
.L464:
	mov	r3, #0
.L465:
	cmp	r3, #0
	beq	.L466
	mov	r0, #0
	bl	IwDebugAssertSetSolution
	mov	r0, #0
	bl	IwDebugAssertSetUID
	mov	r0, #0
	bl	IwDebugAssertSetMessage
	ldr	r0, .L481+52
	ldr	r1, .L481+20
	mov	r2, #808
	mov	r3, #1
	bl	IwDebugAssertShow
	mov	r3, r0
	cmp	r3, #1
	beq	.L468
	cmp	r3, #2
	beq	.L469
	b	.L467
.L468:
	bl	s3eDebugIsDebuggerPresent
	mov	r3, r0
	cmp	r3, #0
	moveq	r3, #0
	movne	r3, #1
	and	r3, r3, #255
	cmp	r3, #0
	beq	.L470
	bl	s3eDebugIsDebuggerPresent
	mov	r3, r0
	cmp	r3, #0
	moveq	r3, #0
	movne	r3, #1
	and	r3, r3, #255
	cmp	r3, #0
	beq	.L479
	mvn	r3, #11
	mov	r2, #0
	str	r2, [r3, #0]
	b	.L467
.L470:
	bl	_ZL11IwDebugExitv
	b	.L467
.L469:
	ldr	r3, .L481+48
	mov	r2, #1
	strb	r2, [r3, #0]
	b	.L467
.L479:
	mov	r0, r0	@ nop
.L467:
	mov	r0, #0
	bl	IwDebugAssertSetUID
.L466:
.LBE39:
	.loc 24 809 0
	ldr	r3, [sp, #12]
	ldr	r2, [r3, #8]
	ldr	r3, [sp, #8]
	cmp	r2, r3
	beq	.L480
.L473:
	.loc 24 810 0
	ldr	r3, [sp, #12]
	ldr	r2, [sp, #8]
	str	r2, [r3, #8]
	.loc 24 811 0
	ldr	r3, [sp, #8]
	cmp	r3, #0
	bne	.L474
	.loc 24 813 0
	ldr	r3, [sp, #12]
	add	r1, r3, #13
	ldr	r3, [sp, #12]
	ldr	r2, [r3, #0]
	ldr	r3, [sp, #12]
	ldr	r3, [r3, #8]
	mov	r0, r1
	mov	r1, r2
	mov	r2, r3
	bl	_ZN12CIwAllocatorIPc15CIwMallocRouterIS0_EE10deallocateEPS0_j
	.loc 24 814 0
	ldr	r3, [sp, #12]
	mov	r2, #0
	str	r2, [r3, #0]
	b	.L475
.L474:
	.loc 24 818 0
	ldr	r3, [sp, #12]
	ldr	r1, [r3, #4]
	ldr	r3, [sp, #12]
	ldr	r2, [r3, #8]
	ldr	r3, [sp, #12]
	ldr	r3, [r3, #0]
	ldr	r0, [sp, #12]
	add	r0, r0, #13
	str	r0, [sp, #0]
	ldr	r0, [sp, #8]
	bl	_ZN17ReallocateDefaultIPc12CIwAllocatorIS0_15CIwMallocRouterIS0_EEE10ReallocateEjjjPS0_RS4_
	mov	r2, r0
	ldr	r3, [sp, #12]
	str	r2, [r3, #0]
	b	.L475
.L476:
.LBB40:
	.loc 24 806 0
	mov	r0, r0	@ nop
	b	.L475
.L480:
.LBE40:
	.loc 24 809 0
	mov	r0, r0	@ nop
.L475:
.LBE36:
	.loc 24 820 0
	add	sp, sp, #20
	ldmfd	sp!, {pc}
.L482:
	.align	2
.L481:
	.word	.LC9
	.word	_ZZN8CIwArrayIPc12CIwAllocatorIS0_15CIwMallocRouterIS0_EE17ReallocateDefaultIS0_S4_EE12set_capacityEjE21_s_IwAssertIgnoreThis
	.word	1733
	.word	.LC14
	.word	.LC15
	.word	.LC12
	.word	806
	.word	_ZZN8CIwArrayIPc12CIwAllocatorIS0_15CIwMallocRouterIS0_EE17ReallocateDefaultIS0_S4_EE12set_capacityEjE21_s_IwAssertIgnoreThis_0
	.word	1732
	.word	.LC16
	.word	.LC17
	.word	807
	.word	_ZZN8CIwArrayIPc12CIwAllocatorIS0_15CIwMallocRouterIS0_EE17ReallocateDefaultIS0_S4_EE12set_capacityEjE21_s_IwAssertIgnoreThis_1
	.word	.LC18
	.cfi_endproc
.LFE3759:
	.size	_ZN8CIwArrayIPc12CIwAllocatorIS0_15CIwMallocRouterIS0_EE17ReallocateDefaultIS0_S4_EE12set_capacityEj, .-_ZN8CIwArrayIPc12CIwAllocatorIS0_15CIwMallocRouterIS0_EE17ReallocateDefaultIS0_S4_EE12set_capacityEj
	.section	.text._ZN8CIwArrayI12TileObstacle12CIwAllocatorIS0_15CIwMallocRouterIS0_EE17ReallocateDefaultIS0_S4_EE6resizeEj,"axG",%progbits,_ZN8CIwArrayI12TileObstacle12CIwAllocatorIS0_15CIwMallocRouterIS0_EE17ReallocateDefaultIS0_S4_EE6resizeEj,comdat
	.align	2
	.weak	_ZN8CIwArrayI12TileObstacle12CIwAllocatorIS0_15CIwMallocRouterIS0_EE17ReallocateDefaultIS0_S4_EE6resizeEj
	.hidden	_ZN8CIwArrayI12TileObstacle12CIwAllocatorIS0_15CIwMallocRouterIS0_EE17ReallocateDefaultIS0_S4_EE6resizeEj
	.type	_ZN8CIwArrayI12TileObstacle12CIwAllocatorIS0_15CIwMallocRouterIS0_EE17ReallocateDefaultIS0_S4_EE6resizeEj, %function
_ZN8CIwArrayI12TileObstacle12CIwAllocatorIS0_15CIwMallocRouterIS0_EE17ReallocateDefaultIS0_S4_EE6resizeEj:
.LFB3760:
	.loc 24 292 0
	.cfi_startproc
	@ args = 0, pretend = 0, frame = 8
	@ frame_needed = 0, uses_anonymous_args = 0
	str	lr, [sp, #-4]!
.LCFI151:
	.cfi_def_cfa_offset 4
	sub	sp, sp, #12
.LCFI152:
	.cfi_def_cfa_offset 16
	str	r0, [sp, #4]
	str	r1, [sp, #0]
	.loc 24 294 0
	ldr	r3, [sp, #4]
	ldr	r2, [r3, #4]
	ldr	r3, [sp, #0]
	cmp	r2, r3
	bcc	.L484
	.cfi_offset 14, -4
	.loc 24 295 0
	ldr	r0, [sp, #4]
	ldr	r1, [sp, #0]
	bl	_ZN8CIwArrayI12TileObstacle12CIwAllocatorIS0_15CIwMallocRouterIS0_EE17ReallocateDefaultIS0_S4_EE8truncateEj
	b	.L486
.L484:
	.loc 24 297 0
	ldr	r3, [sp, #4]
	ldr	r3, [r3, #4]
	ldr	r2, [sp, #0]
	rsb	r3, r3, r2
	ldr	r0, [sp, #4]
	mov	r1, r3
	bl	_ZN8CIwArrayI12TileObstacle12CIwAllocatorIS0_15CIwMallocRouterIS0_EE17ReallocateDefaultIS0_S4_EE13push_back_qtyEi
.L486:
	.loc 24 298 0
	add	sp, sp, #12
	ldmfd	sp!, {pc}
	.cfi_endproc
.LFE3760:
	.size	_ZN8CIwArrayI12TileObstacle12CIwAllocatorIS0_15CIwMallocRouterIS0_EE17ReallocateDefaultIS0_S4_EE6resizeEj, .-_ZN8CIwArrayI12TileObstacle12CIwAllocatorIS0_15CIwMallocRouterIS0_EE17ReallocateDefaultIS0_S4_EE6resizeEj
	.section	.text._ZN8CIwArrayI12TileObstacle12CIwAllocatorIS0_15CIwMallocRouterIS0_EE17ReallocateDefaultIS0_S4_EE5clearEv,"axG",%progbits,_ZN8CIwArrayI12TileObstacle12CIwAllocatorIS0_15CIwMallocRouterIS0_EE17ReallocateDefaultIS0_S4_EE5clearEv,comdat
	.align	2
	.weak	_ZN8CIwArrayI12TileObstacle12CIwAllocatorIS0_15CIwMallocRouterIS0_EE17ReallocateDefaultIS0_S4_EE5clearEv
	.hidden	_ZN8CIwArrayI12TileObstacle12CIwAllocatorIS0_15CIwMallocRouterIS0_EE17ReallocateDefaultIS0_S4_EE5clearEv
	.type	_ZN8CIwArrayI12TileObstacle12CIwAllocatorIS0_15CIwMallocRouterIS0_EE17ReallocateDefaultIS0_S4_EE5clearEv, %function
_ZN8CIwArrayI12TileObstacle12CIwAllocatorIS0_15CIwMallocRouterIS0_EE17ReallocateDefaultIS0_S4_EE5clearEv:
.LFB3761:
	.loc 24 199 0
	.cfi_startproc
	@ args = 0, pretend = 0, frame = 8
	@ frame_needed = 0, uses_anonymous_args = 0
	str	lr, [sp, #-4]!
.LCFI153:
	.cfi_def_cfa_offset 4
	sub	sp, sp, #12
.LCFI154:
	.cfi_def_cfa_offset 16
	str	r0, [sp, #4]
	.loc 24 201 0
	ldr	r0, [sp, #4]
	mov	r1, #0
	.cfi_offset 14, -4
	bl	_ZN8CIwArrayI12TileObstacle12CIwAllocatorIS0_15CIwMallocRouterIS0_EE17ReallocateDefaultIS0_S4_EE8truncateEj
	.loc 24 202 0
	add	sp, sp, #12
	ldmfd	sp!, {pc}
	.cfi_endproc
.LFE3761:
	.size	_ZN8CIwArrayI12TileObstacle12CIwAllocatorIS0_15CIwMallocRouterIS0_EE17ReallocateDefaultIS0_S4_EE5clearEv, .-_ZN8CIwArrayI12TileObstacle12CIwAllocatorIS0_15CIwMallocRouterIS0_EE17ReallocateDefaultIS0_S4_EE5clearEv
	.section	.text._ZN12CIwAllocatorI12TileObstacle15CIwMallocRouterIS0_EE10deallocateEPS0_j,"axG",%progbits,_ZN12CIwAllocatorI12TileObstacle15CIwMallocRouterIS0_EE10deallocateEPS0_j,comdat
	.align	2
	.weak	_ZN12CIwAllocatorI12TileObstacle15CIwMallocRouterIS0_EE10deallocateEPS0_j
	.hidden	_ZN12CIwAllocatorI12TileObstacle15CIwMallocRouterIS0_EE10deallocateEPS0_j
	.type	_ZN12CIwAllocatorI12TileObstacle15CIwMallocRouterIS0_EE10deallocateEPS0_j, %function
_ZN12CIwAllocatorI12TileObstacle15CIwMallocRouterIS0_EE10deallocateEPS0_j:
.LFB3762:
	.loc 28 147 0
	.cfi_startproc
	@ args = 0, pretend = 0, frame = 16
	@ frame_needed = 0, uses_anonymous_args = 0
	str	lr, [sp, #-4]!
.LCFI155:
	.cfi_def_cfa_offset 4
	sub	sp, sp, #20
.LCFI156:
	.cfi_def_cfa_offset 24
	str	r0, [sp, #12]
	str	r1, [sp, #8]
	str	r2, [sp, #4]
	.loc 28 147 0
	ldr	r0, [sp, #8]
	.cfi_offset 14, -4
	bl	_ZN15CIwMallocRouterI12TileObstacleE6DoFreeEPv
	add	sp, sp, #20
	ldmfd	sp!, {pc}
	.cfi_endproc
.LFE3762:
	.size	_ZN12CIwAllocatorI12TileObstacle15CIwMallocRouterIS0_EE10deallocateEPS0_j, .-_ZN12CIwAllocatorI12TileObstacle15CIwMallocRouterIS0_EE10deallocateEPS0_j
	.section	.text._ZN8CIwArrayIP3NPC12CIwAllocatorIS1_15CIwMallocRouterIS1_EE17ReallocateDefaultIS1_S5_EE6resizeEj,"axG",%progbits,_ZN8CIwArrayIP3NPC12CIwAllocatorIS1_15CIwMallocRouterIS1_EE17ReallocateDefaultIS1_S5_EE6resizeEj,comdat
	.align	2
	.weak	_ZN8CIwArrayIP3NPC12CIwAllocatorIS1_15CIwMallocRouterIS1_EE17ReallocateDefaultIS1_S5_EE6resizeEj
	.hidden	_ZN8CIwArrayIP3NPC12CIwAllocatorIS1_15CIwMallocRouterIS1_EE17ReallocateDefaultIS1_S5_EE6resizeEj
	.type	_ZN8CIwArrayIP3NPC12CIwAllocatorIS1_15CIwMallocRouterIS1_EE17ReallocateDefaultIS1_S5_EE6resizeEj, %function
_ZN8CIwArrayIP3NPC12CIwAllocatorIS1_15CIwMallocRouterIS1_EE17ReallocateDefaultIS1_S5_EE6resizeEj:
.LFB3763:
	.loc 24 292 0
	.cfi_startproc
	@ args = 0, pretend = 0, frame = 8
	@ frame_needed = 0, uses_anonymous_args = 0
	str	lr, [sp, #-4]!
.LCFI157:
	.cfi_def_cfa_offset 4
	sub	sp, sp, #12
.LCFI158:
	.cfi_def_cfa_offset 16
	str	r0, [sp, #4]
	str	r1, [sp, #0]
	.loc 24 294 0
	ldr	r3, [sp, #4]
	ldr	r2, [r3, #4]
	ldr	r3, [sp, #0]
	cmp	r2, r3
	bcc	.L492
	.cfi_offset 14, -4
	.loc 24 295 0
	ldr	r0, [sp, #4]
	ldr	r1, [sp, #0]
	bl	_ZN8CIwArrayIP3NPC12CIwAllocatorIS1_15CIwMallocRouterIS1_EE17ReallocateDefaultIS1_S5_EE8truncateEj
	b	.L494
.L492:
	.loc 24 297 0
	ldr	r3, [sp, #4]
	ldr	r3, [r3, #4]
	ldr	r2, [sp, #0]
	rsb	r3, r3, r2
	ldr	r0, [sp, #4]
	mov	r1, r3
	bl	_ZN8CIwArrayIP3NPC12CIwAllocatorIS1_15CIwMallocRouterIS1_EE17ReallocateDefaultIS1_S5_EE13push_back_qtyEi
.L494:
	.loc 24 298 0
	add	sp, sp, #12
	ldmfd	sp!, {pc}
	.cfi_endproc
.LFE3763:
	.size	_ZN8CIwArrayIP3NPC12CIwAllocatorIS1_15CIwMallocRouterIS1_EE17ReallocateDefaultIS1_S5_EE6resizeEj, .-_ZN8CIwArrayIP3NPC12CIwAllocatorIS1_15CIwMallocRouterIS1_EE17ReallocateDefaultIS1_S5_EE6resizeEj
	.section	.text._ZN8CIwArrayIP3NPC12CIwAllocatorIS1_15CIwMallocRouterIS1_EE17ReallocateDefaultIS1_S5_EE5clearEv,"axG",%progbits,_ZN8CIwArrayIP3NPC12CIwAllocatorIS1_15CIwMallocRouterIS1_EE17ReallocateDefaultIS1_S5_EE5clearEv,comdat
	.align	2
	.weak	_ZN8CIwArrayIP3NPC12CIwAllocatorIS1_15CIwMallocRouterIS1_EE17ReallocateDefaultIS1_S5_EE5clearEv
	.hidden	_ZN8CIwArrayIP3NPC12CIwAllocatorIS1_15CIwMallocRouterIS1_EE17ReallocateDefaultIS1_S5_EE5clearEv
	.type	_ZN8CIwArrayIP3NPC12CIwAllocatorIS1_15CIwMallocRouterIS1_EE17ReallocateDefaultIS1_S5_EE5clearEv, %function
_ZN8CIwArrayIP3NPC12CIwAllocatorIS1_15CIwMallocRouterIS1_EE17ReallocateDefaultIS1_S5_EE5clearEv:
.LFB3764:
	.loc 24 199 0
	.cfi_startproc
	@ args = 0, pretend = 0, frame = 8
	@ frame_needed = 0, uses_anonymous_args = 0
	str	lr, [sp, #-4]!
.LCFI159:
	.cfi_def_cfa_offset 4
	sub	sp, sp, #12
.LCFI160:
	.cfi_def_cfa_offset 16
	str	r0, [sp, #4]
	.loc 24 201 0
	ldr	r0, [sp, #4]
	mov	r1, #0
	.cfi_offset 14, -4
	bl	_ZN8CIwArrayIP3NPC12CIwAllocatorIS1_15CIwMallocRouterIS1_EE17ReallocateDefaultIS1_S5_EE8truncateEj
	.loc 24 202 0
	add	sp, sp, #12
	ldmfd	sp!, {pc}
	.cfi_endproc
.LFE3764:
	.size	_ZN8CIwArrayIP3NPC12CIwAllocatorIS1_15CIwMallocRouterIS1_EE17ReallocateDefaultIS1_S5_EE5clearEv, .-_ZN8CIwArrayIP3NPC12CIwAllocatorIS1_15CIwMallocRouterIS1_EE17ReallocateDefaultIS1_S5_EE5clearEv
	.section	.text._ZN12CIwAllocatorIP3NPC15CIwMallocRouterIS1_EE10deallocateEPS1_j,"axG",%progbits,_ZN12CIwAllocatorIP3NPC15CIwMallocRouterIS1_EE10deallocateEPS1_j,comdat
	.align	2
	.weak	_ZN12CIwAllocatorIP3NPC15CIwMallocRouterIS1_EE10deallocateEPS1_j
	.hidden	_ZN12CIwAllocatorIP3NPC15CIwMallocRouterIS1_EE10deallocateEPS1_j
	.type	_ZN12CIwAllocatorIP3NPC15CIwMallocRouterIS1_EE10deallocateEPS1_j, %function
_ZN12CIwAllocatorIP3NPC15CIwMallocRouterIS1_EE10deallocateEPS1_j:
.LFB3765:
	.loc 28 147 0
	.cfi_startproc
	@ args = 0, pretend = 0, frame = 16
	@ frame_needed = 0, uses_anonymous_args = 0
	str	lr, [sp, #-4]!
.LCFI161:
	.cfi_def_cfa_offset 4
	sub	sp, sp, #20
.LCFI162:
	.cfi_def_cfa_offset 24
	str	r0, [sp, #12]
	str	r1, [sp, #8]
	str	r2, [sp, #4]
	.loc 28 147 0
	ldr	r0, [sp, #8]
	.cfi_offset 14, -4
	bl	_ZN15CIwMallocRouterIP3NPCE6DoFreeEPv
	add	sp, sp, #20
	ldmfd	sp!, {pc}
	.cfi_endproc
.LFE3765:
	.size	_ZN12CIwAllocatorIP3NPC15CIwMallocRouterIS1_EE10deallocateEPS1_j, .-_ZN12CIwAllocatorIP3NPC15CIwMallocRouterIS1_EE10deallocateEPS1_j
	.section	.text._ZN8CIwArrayIPc12CIwAllocatorIS0_15CIwMallocRouterIS0_EE17ReallocateDefaultIS0_S4_EE6resizeEj,"axG",%progbits,_ZN8CIwArrayIPc12CIwAllocatorIS0_15CIwMallocRouterIS0_EE17ReallocateDefaultIS0_S4_EE6resizeEj,comdat
	.align	2
	.weak	_ZN8CIwArrayIPc12CIwAllocatorIS0_15CIwMallocRouterIS0_EE17ReallocateDefaultIS0_S4_EE6resizeEj
	.hidden	_ZN8CIwArrayIPc12CIwAllocatorIS0_15CIwMallocRouterIS0_EE17ReallocateDefaultIS0_S4_EE6resizeEj
	.type	_ZN8CIwArrayIPc12CIwAllocatorIS0_15CIwMallocRouterIS0_EE17ReallocateDefaultIS0_S4_EE6resizeEj, %function
_ZN8CIwArrayIPc12CIwAllocatorIS0_15CIwMallocRouterIS0_EE17ReallocateDefaultIS0_S4_EE6resizeEj:
.LFB3766:
	.loc 24 292 0
	.cfi_startproc
	@ args = 0, pretend = 0, frame = 8
	@ frame_needed = 0, uses_anonymous_args = 0
	str	lr, [sp, #-4]!
.LCFI163:
	.cfi_def_cfa_offset 4
	sub	sp, sp, #12
.LCFI164:
	.cfi_def_cfa_offset 16
	str	r0, [sp, #4]
	str	r1, [sp, #0]
	.loc 24 294 0
	ldr	r3, [sp, #4]
	ldr	r2, [r3, #4]
	ldr	r3, [sp, #0]
	cmp	r2, r3
	bcc	.L500
	.cfi_offset 14, -4
	.loc 24 295 0
	ldr	r0, [sp, #4]
	ldr	r1, [sp, #0]
	bl	_ZN8CIwArrayIPc12CIwAllocatorIS0_15CIwMallocRouterIS0_EE17ReallocateDefaultIS0_S4_EE8truncateEj
	b	.L502
.L500:
	.loc 24 297 0
	ldr	r3, [sp, #4]
	ldr	r3, [r3, #4]
	ldr	r2, [sp, #0]
	rsb	r3, r3, r2
	ldr	r0, [sp, #4]
	mov	r1, r3
	bl	_ZN8CIwArrayIPc12CIwAllocatorIS0_15CIwMallocRouterIS0_EE17ReallocateDefaultIS0_S4_EE13push_back_qtyEi
.L502:
	.loc 24 298 0
	add	sp, sp, #12
	ldmfd	sp!, {pc}
	.cfi_endproc
.LFE3766:
	.size	_ZN8CIwArrayIPc12CIwAllocatorIS0_15CIwMallocRouterIS0_EE17ReallocateDefaultIS0_S4_EE6resizeEj, .-_ZN8CIwArrayIPc12CIwAllocatorIS0_15CIwMallocRouterIS0_EE17ReallocateDefaultIS0_S4_EE6resizeEj
	.section	.text._ZN8CIwArrayIPc12CIwAllocatorIS0_15CIwMallocRouterIS0_EE17ReallocateDefaultIS0_S4_EE5clearEv,"axG",%progbits,_ZN8CIwArrayIPc12CIwAllocatorIS0_15CIwMallocRouterIS0_EE17ReallocateDefaultIS0_S4_EE5clearEv,comdat
	.align	2
	.weak	_ZN8CIwArrayIPc12CIwAllocatorIS0_15CIwMallocRouterIS0_EE17ReallocateDefaultIS0_S4_EE5clearEv
	.hidden	_ZN8CIwArrayIPc12CIwAllocatorIS0_15CIwMallocRouterIS0_EE17ReallocateDefaultIS0_S4_EE5clearEv
	.type	_ZN8CIwArrayIPc12CIwAllocatorIS0_15CIwMallocRouterIS0_EE17ReallocateDefaultIS0_S4_EE5clearEv, %function
_ZN8CIwArrayIPc12CIwAllocatorIS0_15CIwMallocRouterIS0_EE17ReallocateDefaultIS0_S4_EE5clearEv:
.LFB3767:
	.loc 24 199 0
	.cfi_startproc
	@ args = 0, pretend = 0, frame = 8
	@ frame_needed = 0, uses_anonymous_args = 0
	str	lr, [sp, #-4]!
.LCFI165:
	.cfi_def_cfa_offset 4
	sub	sp, sp, #12
.LCFI166:
	.cfi_def_cfa_offset 16
	str	r0, [sp, #4]
	.loc 24 201 0
	ldr	r0, [sp, #4]
	mov	r1, #0
	.cfi_offset 14, -4
	bl	_ZN8CIwArrayIPc12CIwAllocatorIS0_15CIwMallocRouterIS0_EE17ReallocateDefaultIS0_S4_EE8truncateEj
	.loc 24 202 0
	add	sp, sp, #12
	ldmfd	sp!, {pc}
	.cfi_endproc
.LFE3767:
	.size	_ZN8CIwArrayIPc12CIwAllocatorIS0_15CIwMallocRouterIS0_EE17ReallocateDefaultIS0_S4_EE5clearEv, .-_ZN8CIwArrayIPc12CIwAllocatorIS0_15CIwMallocRouterIS0_EE17ReallocateDefaultIS0_S4_EE5clearEv
	.section	.text._ZN12CIwAllocatorIP3Map15CIwMallocRouterIS1_EE10deallocateEPS1_j,"axG",%progbits,_ZN12CIwAllocatorIP3Map15CIwMallocRouterIS1_EE10deallocateEPS1_j,comdat
	.align	2
	.weak	_ZN12CIwAllocatorIP3Map15CIwMallocRouterIS1_EE10deallocateEPS1_j
	.hidden	_ZN12CIwAllocatorIP3Map15CIwMallocRouterIS1_EE10deallocateEPS1_j
	.type	_ZN12CIwAllocatorIP3Map15CIwMallocRouterIS1_EE10deallocateEPS1_j, %function
_ZN12CIwAllocatorIP3Map15CIwMallocRouterIS1_EE10deallocateEPS1_j:
.LFB3773:
	.loc 28 147 0
	.cfi_startproc
	@ args = 0, pretend = 0, frame = 16
	@ frame_needed = 0, uses_anonymous_args = 0
	str	lr, [sp, #-4]!
.LCFI167:
	.cfi_def_cfa_offset 4
	sub	sp, sp, #20
.LCFI168:
	.cfi_def_cfa_offset 24
	str	r0, [sp, #12]
	str	r1, [sp, #8]
	str	r2, [sp, #4]
	.loc 28 147 0
	ldr	r0, [sp, #8]
	.cfi_offset 14, -4
	bl	_ZN15CIwMallocRouterIP3MapE6DoFreeEPv
	add	sp, sp, #20
	ldmfd	sp!, {pc}
	.cfi_endproc
.LFE3773:
	.size	_ZN12CIwAllocatorIP3Map15CIwMallocRouterIS1_EE10deallocateEPS1_j, .-_ZN12CIwAllocatorIP3Map15CIwMallocRouterIS1_EE10deallocateEPS1_j
	.section	.text._ZN4_STL17_STLP_alloc_proxyIPccNS_9allocatorIcEEED1Ev,"axG",%progbits,_ZN4_STL17_STLP_alloc_proxyIPccNS_9allocatorIcEEED1Ev,comdat
	.align	2
	.weak	_ZN4_STL17_STLP_alloc_proxyIPccNS_9allocatorIcEEED1Ev
	.hidden	_ZN4_STL17_STLP_alloc_proxyIPccNS_9allocatorIcEEED1Ev
	.type	_ZN4_STL17_STLP_alloc_proxyIPccNS_9allocatorIcEEED1Ev, %function
_ZN4_STL17_STLP_alloc_proxyIPccNS_9allocatorIcEEED1Ev:
.LFB3777:
	.loc 22 481 0
	.cfi_startproc
	@ args = 0, pretend = 0, frame = 8
	@ frame_needed = 0, uses_anonymous_args = 0
	str	lr, [sp, #-4]!
.LCFI169:
	.cfi_def_cfa_offset 4
	sub	sp, sp, #12
.LCFI170:
	.cfi_def_cfa_offset 16
	str	r0, [sp, #4]
	.loc 22 481 0
	ldr	r3, [sp, #4]
	mov	r0, r3
	.cfi_offset 14, -4
	bl	_ZN4_STL9allocatorIcED2Ev
	ldr	r3, [sp, #4]
	mov	r0, r3
	add	sp, sp, #12
	ldmfd	sp!, {pc}
	.cfi_endproc
.LFE3777:
	.size	_ZN4_STL17_STLP_alloc_proxyIPccNS_9allocatorIcEEED1Ev, .-_ZN4_STL17_STLP_alloc_proxyIPccNS_9allocatorIcEEED1Ev
	.section	.text._ZN4_STL12_String_baseIcNS_9allocatorIcEEED2Ev,"axG",%progbits,_ZN4_STL12_String_baseIcNS_9allocatorIcEEED2Ev,comdat
	.align	2
	.weak	_ZN4_STL12_String_baseIcNS_9allocatorIcEEED2Ev
	.hidden	_ZN4_STL12_String_baseIcNS_9allocatorIcEEED2Ev
	.type	_ZN4_STL12_String_baseIcNS_9allocatorIcEEED2Ev, %function
_ZN4_STL12_String_baseIcNS_9allocatorIcEEED2Ev:
.LFB3778:
	.loc 25 135 0
	.cfi_startproc
	@ args = 0, pretend = 0, frame = 8
	@ frame_needed = 0, uses_anonymous_args = 0
	str	lr, [sp, #-4]!
.LCFI171:
	.cfi_def_cfa_offset 4
	sub	sp, sp, #12
.LCFI172:
	.cfi_def_cfa_offset 16
	str	r0, [sp, #4]
	.loc 25 135 0
	ldr	r0, [sp, #4]
	.cfi_offset 14, -4
	bl	_ZN4_STL12_String_baseIcNS_9allocatorIcEEE19_M_deallocate_blockEv
	ldr	r3, [sp, #4]
	add	r3, r3, #8
	mov	r0, r3
	bl	_ZN4_STL17_STLP_alloc_proxyIPccNS_9allocatorIcEEED1Ev
	ldr	r3, [sp, #4]
	mov	r0, r3
	add	sp, sp, #12
	ldmfd	sp!, {pc}
	.cfi_endproc
.LFE3778:
	.size	_ZN4_STL12_String_baseIcNS_9allocatorIcEEED2Ev, .-_ZN4_STL12_String_baseIcNS_9allocatorIcEEED2Ev
	.section	.text._ZN4_STL12_String_baseIcNS_9allocatorIcEEEC2ERKS2_,"axG",%progbits,_ZN4_STL12_String_baseIcNS_9allocatorIcEEEC2ERKS2_,comdat
	.align	2
	.weak	_ZN4_STL12_String_baseIcNS_9allocatorIcEEEC2ERKS2_
	.hidden	_ZN4_STL12_String_baseIcNS_9allocatorIcEEEC2ERKS2_
	.type	_ZN4_STL12_String_baseIcNS_9allocatorIcEEEC2ERKS2_, %function
_ZN4_STL12_String_baseIcNS_9allocatorIcEEEC2ERKS2_:
.LFB3782:
	.loc 25 128 0
	.cfi_startproc
	@ args = 0, pretend = 0, frame = 8
	@ frame_needed = 0, uses_anonymous_args = 0
	str	lr, [sp, #-4]!
.LCFI173:
	.cfi_def_cfa_offset 4
	sub	sp, sp, #12
.LCFI174:
	.cfi_def_cfa_offset 16
	str	r0, [sp, #4]
	str	r1, [sp, #0]
	.loc 25 129 0
	ldr	r3, [sp, #4]
	mov	r2, #0
	str	r2, [r3, #0]
	ldr	r3, [sp, #4]
	mov	r2, #0
	str	r2, [r3, #4]
	ldr	r3, [sp, #4]
	add	r3, r3, #8
	mov	r0, r3
	ldr	r1, [sp, #0]
	mov	r2, #0
	.cfi_offset 14, -4
	bl	_ZN4_STL17_STLP_alloc_proxyIPccNS_9allocatorIcEEEC1ERKS3_S1_
	ldr	r3, [sp, #4]
	mov	r0, r3
	add	sp, sp, #12
	ldmfd	sp!, {pc}
	.cfi_endproc
.LFE3782:
	.size	_ZN4_STL12_String_baseIcNS_9allocatorIcEEEC2ERKS2_, .-_ZN4_STL12_String_baseIcNS_9allocatorIcEEEC2ERKS2_
	.section	.text._ZN8CIwArrayIP3Map12CIwAllocatorIS1_15CIwMallocRouterIS1_EE17ReallocateDefaultIS1_S5_EE8truncateEj,"axG",%progbits,_ZN8CIwArrayIP3Map12CIwAllocatorIS1_15CIwMallocRouterIS1_EE17ReallocateDefaultIS1_S5_EE8truncateEj,comdat
	.align	2
	.weak	_ZN8CIwArrayIP3Map12CIwAllocatorIS1_15CIwMallocRouterIS1_EE17ReallocateDefaultIS1_S5_EE8truncateEj
	.hidden	_ZN8CIwArrayIP3Map12CIwAllocatorIS1_15CIwMallocRouterIS1_EE17ReallocateDefaultIS1_S5_EE8truncateEj
	.type	_ZN8CIwArrayIP3Map12CIwAllocatorIS1_15CIwMallocRouterIS1_EE17ReallocateDefaultIS1_S5_EE8truncateEj, %function
_ZN8CIwArrayIP3Map12CIwAllocatorIS1_15CIwMallocRouterIS1_EE17ReallocateDefaultIS1_S5_EE8truncateEj:
.LFB3799:
	.loc 24 765 0
	.cfi_startproc
	@ args = 0, pretend = 0, frame = 16
	@ frame_needed = 0, uses_anonymous_args = 0
	str	lr, [sp, #-4]!
.LCFI175:
	.cfi_def_cfa_offset 4
	sub	sp, sp, #20
.LCFI176:
	.cfi_def_cfa_offset 24
	str	r0, [sp, #4]
	str	r1, [sp, #0]
.LBB41:
.LBB42:
	.loc 24 767 0
	ldr	r3, [sp, #4]
	ldr	r2, [r3, #4]
	ldr	r3, [sp, #0]
	cmp	r2, r3
	bcs	.L517
	.cfi_offset 14, -4
	ldr	r0, .L530
	bl	IwDebugAssertIsChannelOn
	mov	r3, r0
	cmp	r3, #0
	beq	.L517
	ldr	r3, .L530+4
	ldrb	r3, [r3, #0]	@ zero_extendqisi2
	cmp	r3, #0
	bne	.L517
	mov	r3, #1
	b	.L518
.L517:
	mov	r3, #0
.L518:
	cmp	r3, #0
	beq	.L519
	mov	r0, #0
	bl	IwDebugAssertSetSolution
	mov	r0, #0
	bl	IwDebugAssertSetUID
	mov	r0, #0
	bl	IwDebugAssertSetMessage
	ldr	r0, .L530+8
	ldr	r1, .L530+12
	ldr	r2, .L530+16
	mov	r3, #1
	bl	IwDebugAssertShow
	mov	r3, r0
	cmp	r3, #1
	beq	.L521
	cmp	r3, #2
	beq	.L522
	b	.L520
.L521:
	bl	s3eDebugIsDebuggerPresent
	mov	r3, r0
	cmp	r3, #0
	moveq	r3, #0
	movne	r3, #1
	and	r3, r3, #255
	cmp	r3, #0
	beq	.L523
	bl	s3eDebugIsDebuggerPresent
	mov	r3, r0
	cmp	r3, #0
	moveq	r3, #0
	movne	r3, #1
	and	r3, r3, #255
	cmp	r3, #0
	beq	.L529
	mvn	r3, #11
	mov	r2, #0
	str	r2, [r3, #0]
	b	.L520
.L523:
	bl	_ZL11IwDebugExitv
	b	.L520
.L522:
	ldr	r3, .L530+4
	mov	r2, #1
	strb	r2, [r3, #0]
	b	.L520
.L529:
	mov	r0, r0	@ nop
.L520:
	mov	r0, #0
	bl	IwDebugAssertSetUID
.L519:
.LBE42:
.LBB43:
	.loc 24 769 0
	ldr	r3, [sp, #0]
	str	r3, [sp, #12]
	b	.L526
.L527:
	ldr	r3, [sp, #12]
	add	r3, r3, #1
	str	r3, [sp, #12]
.L526:
	ldr	r3, [sp, #4]
	ldr	r2, [r3, #4]
	ldr	r3, [sp, #12]
	cmp	r2, r3
	movls	r3, #0
	movhi	r3, #1
	and	r3, r3, #255
	cmp	r3, #0
	bne	.L527
.LBE43:
	.loc 24 771 0
	ldr	r3, [sp, #4]
	ldr	r2, [sp, #0]
	str	r2, [r3, #4]
.LBE41:
	.loc 24 772 0
	add	sp, sp, #20
	ldmfd	sp!, {pc}
.L531:
	.align	2
.L530:
	.word	.LC9
	.word	_ZZN8CIwArrayIP3Map12CIwAllocatorIS1_15CIwMallocRouterIS1_EE17ReallocateDefaultIS1_S5_EE8truncateEjE21_s_IwAssertIgnoreThis
	.word	.LC13
	.word	.LC12
	.word	767
	.cfi_endproc
.LFE3799:
	.size	_ZN8CIwArrayIP3Map12CIwAllocatorIS1_15CIwMallocRouterIS1_EE17ReallocateDefaultIS1_S5_EE8truncateEj, .-_ZN8CIwArrayIP3Map12CIwAllocatorIS1_15CIwMallocRouterIS1_EE17ReallocateDefaultIS1_S5_EE8truncateEj
	.section	.text._ZN8CIwArrayIP3Map12CIwAllocatorIS1_15CIwMallocRouterIS1_EE17ReallocateDefaultIS1_S5_EE12set_capacityEj,"axG",%progbits,_ZN8CIwArrayIP3Map12CIwAllocatorIS1_15CIwMallocRouterIS1_EE17ReallocateDefaultIS1_S5_EE12set_capacityEj,comdat
	.align	2
	.weak	_ZN8CIwArrayIP3Map12CIwAllocatorIS1_15CIwMallocRouterIS1_EE17ReallocateDefaultIS1_S5_EE12set_capacityEj
	.hidden	_ZN8CIwArrayIP3Map12CIwAllocatorIS1_15CIwMallocRouterIS1_EE17ReallocateDefaultIS1_S5_EE12set_capacityEj
	.type	_ZN8CIwArrayIP3Map12CIwAllocatorIS1_15CIwMallocRouterIS1_EE17ReallocateDefaultIS1_S5_EE12set_capacityEj, %function
_ZN8CIwArrayIP3Map12CIwAllocatorIS1_15CIwMallocRouterIS1_EE17ReallocateDefaultIS1_S5_EE12set_capacityEj:
.LFB3800:
	.loc 24 804 0
	.cfi_startproc
	@ args = 0, pretend = 0, frame = 8
	@ frame_needed = 0, uses_anonymous_args = 0
	str	lr, [sp, #-4]!
.LCFI177:
	.cfi_def_cfa_offset 4
	sub	sp, sp, #20
.LCFI178:
	.cfi_def_cfa_offset 24
	str	r0, [sp, #12]
	str	r1, [sp, #8]
.LBB44:
.LBB45:
	.loc 24 806 0
	ldr	r3, [sp, #12]
	ldrb	r3, [r3, #12]
	and	r3, r3, #1
	and	r3, r3, #255
	cmp	r3, #0
	beq	.L533
	.cfi_offset 14, -4
	ldr	r0, .L570
	bl	IwDebugAssertIsChannelOn
	mov	r3, r0
	cmp	r3, #0
	beq	.L534
	ldr	r3, .L570+4
	ldrb	r3, [r3, #0]	@ zero_extendqisi2
	cmp	r3, #0
	bne	.L534
	mov	r3, #1
	b	.L535
.L534:
	mov	r3, #0
.L535:
	cmp	r3, #0
	beq	.L565
	ldr	r0, .L570+8
	bl	IwDebugAssertSetUID
	ldr	r0, .L570+12
	bl	IwDebugAssertSetMessage
	ldr	r0, .L570+16
	ldr	r1, .L570+20
	ldr	r2, .L570+24
	mov	r3, #1
	bl	IwDebugAssertShow
	mov	r3, r0
	cmp	r3, #1
	beq	.L538
	cmp	r3, #2
	beq	.L539
	b	.L537
.L538:
	bl	s3eDebugIsDebuggerPresent
	mov	r3, r0
	cmp	r3, #0
	moveq	r3, #0
	movne	r3, #1
	and	r3, r3, #255
	cmp	r3, #0
	beq	.L540
	bl	s3eDebugIsDebuggerPresent
	mov	r3, r0
	cmp	r3, #0
	moveq	r3, #0
	movne	r3, #1
	and	r3, r3, #255
	cmp	r3, #0
	beq	.L566
	mvn	r3, #11
	mov	r2, #0
	str	r2, [r3, #0]
	b	.L537
.L540:
	bl	_ZL11IwDebugExitv
	b	.L537
.L539:
	ldr	r3, .L570+4
	mov	r2, #1
	strb	r2, [r3, #0]
	b	.L537
.L566:
	mov	r0, r0	@ nop
.L537:
	mov	r0, #0
	bl	IwDebugAssertSetUID
	b	.L564
.L533:
.LBE45:
.LBB46:
	.loc 24 807 0
	ldr	r3, [sp, #12]
	ldrb	r3, [r3, #12]	@ zero_extendqisi2
	mov	r3, r3, lsr #1
	and	r3, r3, #1
	and	r3, r3, #255
	cmp	r3, #0
	beq	.L544
	ldr	r3, [sp, #12]
	ldr	r2, [r3, #8]
	ldr	r3, [sp, #8]
	cmp	r2, r3
	bcs	.L544
	ldr	r0, .L570
	bl	IwDebugAssertIsChannelOn
	mov	r3, r0
	cmp	r3, #0
	beq	.L544
	ldr	r3, .L570+28
	ldrb	r3, [r3, #0]	@ zero_extendqisi2
	cmp	r3, #0
	bne	.L544
	mov	r3, #1
	b	.L545
.L544:
	mov	r3, #0
.L545:
	cmp	r3, #0
	beq	.L546
	mov	r0, #0
	bl	IwDebugAssertSetSolution
	ldr	r0, .L570+32
	bl	IwDebugAssertSetUID
	ldr	r0, .L570+36
	bl	IwDebugAssertSetMessage
	ldr	r0, .L570+40
	ldr	r1, .L570+20
	ldr	r2, .L570+44
	mov	r3, #1
	bl	IwDebugAssertShow
	mov	r3, r0
	cmp	r3, #1
	beq	.L548
	cmp	r3, #2
	beq	.L549
	b	.L547
.L548:
	bl	s3eDebugIsDebuggerPresent
	mov	r3, r0
	cmp	r3, #0
	moveq	r3, #0
	movne	r3, #1
	and	r3, r3, #255
	cmp	r3, #0
	beq	.L550
	bl	s3eDebugIsDebuggerPresent
	mov	r3, r0
	cmp	r3, #0
	moveq	r3, #0
	movne	r3, #1
	and	r3, r3, #255
	cmp	r3, #0
	beq	.L567
	mvn	r3, #11
	mov	r2, #0
	str	r2, [r3, #0]
	b	.L547
.L550:
	bl	_ZL11IwDebugExitv
	b	.L547
.L549:
	ldr	r3, .L570+28
	mov	r2, #1
	strb	r2, [r3, #0]
	b	.L547
.L567:
	mov	r0, r0	@ nop
.L547:
	mov	r0, #0
	bl	IwDebugAssertSetUID
.L546:
.LBE46:
.LBB47:
	.loc 24 808 0
	ldr	r3, [sp, #12]
	ldr	r2, [r3, #4]
	ldr	r3, [sp, #8]
	cmp	r2, r3
	bls	.L553
	ldr	r0, .L570
	bl	IwDebugAssertIsChannelOn
	mov	r3, r0
	cmp	r3, #0
	beq	.L553
	ldr	r3, .L570+48
	ldrb	r3, [r3, #0]	@ zero_extendqisi2
	cmp	r3, #0
	bne	.L553
	mov	r3, #1
	b	.L554
.L553:
	mov	r3, #0
.L554:
	cmp	r3, #0
	beq	.L555
	mov	r0, #0
	bl	IwDebugAssertSetSolution
	mov	r0, #0
	bl	IwDebugAssertSetUID
	mov	r0, #0
	bl	IwDebugAssertSetMessage
	ldr	r0, .L570+52
	ldr	r1, .L570+20
	mov	r2, #808
	mov	r3, #1
	bl	IwDebugAssertShow
	mov	r3, r0
	cmp	r3, #1
	beq	.L557
	cmp	r3, #2
	beq	.L558
	b	.L556
.L557:
	bl	s3eDebugIsDebuggerPresent
	mov	r3, r0
	cmp	r3, #0
	moveq	r3, #0
	movne	r3, #1
	and	r3, r3, #255
	cmp	r3, #0
	beq	.L559
	bl	s3eDebugIsDebuggerPresent
	mov	r3, r0
	cmp	r3, #0
	moveq	r3, #0
	movne	r3, #1
	and	r3, r3, #255
	cmp	r3, #0
	beq	.L568
	mvn	r3, #11
	mov	r2, #0
	str	r2, [r3, #0]
	b	.L556
.L559:
	bl	_ZL11IwDebugExitv
	b	.L556
.L558:
	ldr	r3, .L570+48
	mov	r2, #1
	strb	r2, [r3, #0]
	b	.L556
.L568:
	mov	r0, r0	@ nop
.L556:
	mov	r0, #0
	bl	IwDebugAssertSetUID
.L555:
.LBE47:
	.loc 24 809 0
	ldr	r3, [sp, #12]
	ldr	r2, [r3, #8]
	ldr	r3, [sp, #8]
	cmp	r2, r3
	beq	.L569
.L562:
	.loc 24 810 0
	ldr	r3, [sp, #12]
	ldr	r2, [sp, #8]
	str	r2, [r3, #8]
	.loc 24 811 0
	ldr	r3, [sp, #8]
	cmp	r3, #0
	bne	.L563
	.loc 24 813 0
	ldr	r3, [sp, #12]
	add	r1, r3, #13
	ldr	r3, [sp, #12]
	ldr	r2, [r3, #0]
	ldr	r3, [sp, #12]
	ldr	r3, [r3, #8]
	mov	r0, r1
	mov	r1, r2
	mov	r2, r3
	bl	_ZN12CIwAllocatorIP3Map15CIwMallocRouterIS1_EE10deallocateEPS1_j
	.loc 24 814 0
	ldr	r3, [sp, #12]
	mov	r2, #0
	str	r2, [r3, #0]
	b	.L564
.L563:
	.loc 24 818 0
	ldr	r3, [sp, #12]
	ldr	r1, [r3, #4]
	ldr	r3, [sp, #12]
	ldr	r2, [r3, #8]
	ldr	r3, [sp, #12]
	ldr	r3, [r3, #0]
	ldr	r0, [sp, #12]
	add	r0, r0, #13
	str	r0, [sp, #0]
	ldr	r0, [sp, #8]
	bl	_ZN17ReallocateDefaultIP3Map12CIwAllocatorIS1_15CIwMallocRouterIS1_EEE10ReallocateEjjjPS1_RS5_
	mov	r2, r0
	ldr	r3, [sp, #12]
	str	r2, [r3, #0]
	b	.L564
.L565:
.LBB48:
	.loc 24 806 0
	mov	r0, r0	@ nop
	b	.L564
.L569:
.LBE48:
	.loc 24 809 0
	mov	r0, r0	@ nop
.L564:
.LBE44:
	.loc 24 820 0
	add	sp, sp, #20
	ldmfd	sp!, {pc}
.L571:
	.align	2
.L570:
	.word	.LC9
	.word	_ZZN8CIwArrayIP3Map12CIwAllocatorIS1_15CIwMallocRouterIS1_EE17ReallocateDefaultIS1_S5_EE12set_capacityEjE21_s_IwAssertIgnoreThis
	.word	1733
	.word	.LC14
	.word	.LC15
	.word	.LC12
	.word	806
	.word	_ZZN8CIwArrayIP3Map12CIwAllocatorIS1_15CIwMallocRouterIS1_EE17ReallocateDefaultIS1_S5_EE12set_capacityEjE21_s_IwAssertIgnoreThis_0
	.word	1732
	.word	.LC16
	.word	.LC17
	.word	807
	.word	_ZZN8CIwArrayIP3Map12CIwAllocatorIS1_15CIwMallocRouterIS1_EE17ReallocateDefaultIS1_S5_EE12set_capacityEjE21_s_IwAssertIgnoreThis_1
	.word	.LC18
	.cfi_endproc
.LFE3800:
	.size	_ZN8CIwArrayIP3Map12CIwAllocatorIS1_15CIwMallocRouterIS1_EE17ReallocateDefaultIS1_S5_EE12set_capacityEj, .-_ZN8CIwArrayIP3Map12CIwAllocatorIS1_15CIwMallocRouterIS1_EE17ReallocateDefaultIS1_S5_EE12set_capacityEj
	.section	.rodata
	.align	2
.LC19:
	.ascii	"!(&x>=p && &x<p+max_p)\000"
	.align	2
.LC20:
	.ascii	"num_p < max_p\000"
	.section	.text._ZN8CIwArrayIP3Map12CIwAllocatorIS1_15CIwMallocRouterIS1_EE17ReallocateDefaultIS1_S5_EE9push_backERKS1_,"axG",%progbits,_ZN8CIwArrayIP3Map12CIwAllocatorIS1_15CIwMallocRouterIS1_EE17ReallocateDefaultIS1_S5_EE9push_backERKS1_,comdat
	.align	2
	.weak	_ZN8CIwArrayIP3Map12CIwAllocatorIS1_15CIwMallocRouterIS1_EE17ReallocateDefaultIS1_S5_EE9push_backERKS1_
	.hidden	_ZN8CIwArrayIP3Map12CIwAllocatorIS1_15CIwMallocRouterIS1_EE17ReallocateDefaultIS1_S5_EE9push_backERKS1_
	.type	_ZN8CIwArrayIP3Map12CIwAllocatorIS1_15CIwMallocRouterIS1_EE17ReallocateDefaultIS1_S5_EE9push_backERKS1_, %function
_ZN8CIwArrayIP3Map12CIwAllocatorIS1_15CIwMallocRouterIS1_EE17ReallocateDefaultIS1_S5_EE9push_backERKS1_:
.LFB3801:
	.loc 24 618 0
	.cfi_startproc
	@ args = 0, pretend = 0, frame = 8
	@ frame_needed = 0, uses_anonymous_args = 0
	str	lr, [sp, #-4]!
.LCFI179:
	.cfi_def_cfa_offset 4
	sub	sp, sp, #12
.LCFI180:
	.cfi_def_cfa_offset 16
	str	r0, [sp, #4]
	str	r1, [sp, #0]
.LBB49:
.LBB50:
	.loc 24 632 0
	ldr	r3, [sp, #4]
	ldr	r2, [r3, #0]
	ldr	r3, [sp, #0]
	cmp	r2, r3
	bhi	.L573
	.cfi_offset 14, -4
	ldr	r3, [sp, #4]
	ldr	r2, [r3, #0]
	ldr	r3, [sp, #4]
	ldr	r3, [r3, #8]
	mov	r3, r3, asl #2
	add	r2, r2, r3
	ldr	r3, [sp, #0]
	cmp	r2, r3
	bls	.L573
	ldr	r0, .L594
	bl	IwDebugAssertIsChannelOn
	mov	r3, r0
	cmp	r3, #0
	beq	.L573
	ldr	r3, .L594+4
	ldrb	r3, [r3, #0]	@ zero_extendqisi2
	cmp	r3, #0
	bne	.L573
	mov	r3, #1
	b	.L574
.L573:
	mov	r3, #0
.L574:
	cmp	r3, #0
	beq	.L575
	mov	r0, #0
	bl	IwDebugAssertSetSolution
	mov	r0, #0
	bl	IwDebugAssertSetUID
	mov	r0, #0
	bl	IwDebugAssertSetMessage
	ldr	r0, .L594+8
	ldr	r1, .L594+12
	mov	r2, #632
	mov	r3, #1
	bl	IwDebugAssertShow
	mov	r3, r0
	cmp	r3, #1
	beq	.L577
	cmp	r3, #2
	beq	.L578
	b	.L576
.L577:
	bl	s3eDebugIsDebuggerPresent
	mov	r3, r0
	cmp	r3, #0
	moveq	r3, #0
	movne	r3, #1
	and	r3, r3, #255
	cmp	r3, #0
	beq	.L579
	bl	s3eDebugIsDebuggerPresent
	mov	r3, r0
	cmp	r3, #0
	moveq	r3, #0
	movne	r3, #1
	and	r3, r3, #255
	cmp	r3, #0
	beq	.L592
	mvn	r3, #11
	mov	r2, #0
	str	r2, [r3, #0]
	b	.L576
.L579:
	bl	_ZL11IwDebugExitv
	b	.L576
.L578:
	ldr	r3, .L594+4
	mov	r2, #1
	strb	r2, [r3, #0]
	b	.L576
.L592:
	mov	r0, r0	@ nop
.L576:
	mov	r0, #0
	bl	IwDebugAssertSetUID
.L575:
.LBE50:
	.loc 24 634 0
	ldr	r3, [sp, #4]
	ldr	r3, [r3, #4]
	add	r3, r3, #1
	ldr	r0, [sp, #4]
	mov	r1, r3
	bl	_ZN8CIwArrayIP3Map12CIwAllocatorIS1_15CIwMallocRouterIS1_EE17ReallocateDefaultIS1_S5_EE7reserveEj
.LBB51:
	.loc 24 635 0
	ldr	r3, [sp, #4]
	ldr	r2, [r3, #4]
	ldr	r3, [sp, #4]
	ldr	r3, [r3, #8]
	cmp	r2, r3
	bcc	.L582
	ldr	r0, .L594
	bl	IwDebugAssertIsChannelOn
	mov	r3, r0
	cmp	r3, #0
	beq	.L582
	ldr	r3, .L594+16
	ldrb	r3, [r3, #0]	@ zero_extendqisi2
	cmp	r3, #0
	bne	.L582
	mov	r3, #1
	b	.L583
.L582:
	mov	r3, #0
.L583:
	cmp	r3, #0
	beq	.L584
	mov	r0, #0
	bl	IwDebugAssertSetSolution
	mov	r0, #0
	bl	IwDebugAssertSetUID
	mov	r0, #0
	bl	IwDebugAssertSetMessage
	ldr	r0, .L594+20
	ldr	r1, .L594+12
	ldr	r2, .L594+24
	mov	r3, #1
	bl	IwDebugAssertShow
	mov	r3, r0
	cmp	r3, #1
	beq	.L586
	cmp	r3, #2
	beq	.L587
	b	.L585
.L586:
	bl	s3eDebugIsDebuggerPresent
	mov	r3, r0
	cmp	r3, #0
	moveq	r3, #0
	movne	r3, #1
	and	r3, r3, #255
	cmp	r3, #0
	beq	.L588
	bl	s3eDebugIsDebuggerPresent
	mov	r3, r0
	cmp	r3, #0
	moveq	r3, #0
	movne	r3, #1
	and	r3, r3, #255
	cmp	r3, #0
	beq	.L593
	mvn	r3, #11
	mov	r2, #0
	str	r2, [r3, #0]
	b	.L585
.L588:
	bl	_ZL11IwDebugExitv
	b	.L585
.L587:
	ldr	r3, .L594+16
	mov	r2, #1
	strb	r2, [r3, #0]
	b	.L585
.L593:
	mov	r0, r0	@ nop
.L585:
	mov	r0, #0
	bl	IwDebugAssertSetUID
.L584:
.LBE51:
	.loc 24 636 0
	ldr	r3, [sp, #4]
	ldr	r2, [r3, #0]
	ldr	r3, [sp, #4]
	ldr	r3, [r3, #4]
	mov	r3, r3, asl #2
	add	r3, r2, r3
	mov	r0, #4
	mov	r1, r3
	bl	_ZnwjPv
	mov	r3, r0
	ldr	r2, [sp, #0]
	ldr	r2, [r2, #0]
	str	r2, [r3, #0]
	.loc 24 637 0
	ldr	r3, [sp, #4]
	ldr	r3, [r3, #4]
	mov	r2, r3
	add	r1, r3, #1
	ldr	r3, [sp, #4]
	str	r1, [r3, #4]
	mov	r3, r2
.LBE49:
	.loc 24 638 0
	mov	r0, r3
	add	sp, sp, #12
	ldmfd	sp!, {pc}
.L595:
	.align	2
.L594:
	.word	.LC9
	.word	_ZZN8CIwArrayIP3Map12CIwAllocatorIS1_15CIwMallocRouterIS1_EE17ReallocateDefaultIS1_S5_EE9push_backERKS1_E21_s_IwAssertIgnoreThis
	.word	.LC19
	.word	.LC12
	.word	_ZZN8CIwArrayIP3Map12CIwAllocatorIS1_15CIwMallocRouterIS1_EE17ReallocateDefaultIS1_S5_EE9push_backERKS1_E21_s_IwAssertIgnoreThis_0
	.word	.LC20
	.word	635
	.cfi_endproc
.LFE3801:
	.size	_ZN8CIwArrayIP3Map12CIwAllocatorIS1_15CIwMallocRouterIS1_EE17ReallocateDefaultIS1_S5_EE9push_backERKS1_, .-_ZN8CIwArrayIP3Map12CIwAllocatorIS1_15CIwMallocRouterIS1_EE17ReallocateDefaultIS1_S5_EE9push_backERKS1_
	.section	.text._ZN4_STL13basic_ostreamIcNS_11char_traitsIcEEE14_M_put_nowidenEPKc,"axG",%progbits,_ZN4_STL13basic_ostreamIcNS_11char_traitsIcEEE14_M_put_nowidenEPKc,comdat
	.align	2
	.weak	_ZN4_STL13basic_ostreamIcNS_11char_traitsIcEEE14_M_put_nowidenEPKc
	.hidden	_ZN4_STL13basic_ostreamIcNS_11char_traitsIcEEE14_M_put_nowidenEPKc
	.type	_ZN4_STL13basic_ostreamIcNS_11char_traitsIcEEE14_M_put_nowidenEPKc, %function
_ZN4_STL13basic_ostreamIcNS_11char_traitsIcEEE14_M_put_nowidenEPKc:
.LFB3802:
	.file 29 "c:/marmalade/6.2/s3e/h/std/c++/stl/_ostream.c"
	.loc 29 271 0
	.cfi_startproc
	@ args = 0, pretend = 0, frame = 32
	@ frame_needed = 0, uses_anonymous_args = 0
	stmfd	sp!, {r4, lr}
.LCFI181:
	.cfi_def_cfa_offset 8
	sub	sp, sp, #32
.LCFI182:
	.cfi_def_cfa_offset 40
	str	r0, [sp, #4]
	str	r1, [sp, #0]
.LBB52:
	.loc 29 273 0
	add	r3, sp, #12
	mov	r0, r3
	ldr	r1, [sp, #4]
	.cfi_offset 14, -4
	.cfi_offset 4, -8
	bl	_ZN4_STL13basic_ostreamIcNS_11char_traitsIcEEE6sentryC1ERS3_
	.loc 29 274 0
	add	r3, sp, #12
	mov	r0, r3
	bl	_ZNK4_STL13basic_ostreamIcNS_11char_traitsIcEEE6sentrycvbEv
	mov	r3, r0
	cmp	r3, #0
	beq	.L597
.LBB53:
	.loc 29 275 0
	mov	r3, #1
	strb	r3, [sp, #23]
	.loc 29 276 0
	ldr	r0, [sp, #0]
	bl	_ZN4_STL11char_traitsIcE6lengthEPKc
	mov	r3, r0
	str	r3, [sp, #24]
	.loc 29 277 0
	ldr	r2, [sp, #4]
	ldr	r3, [sp, #4]
	ldr	r3, [r3, #0]
	sub	r3, r3, #12
	ldr	r3, [r3, #0]
	add	r3, r2, r3
	mov	r0, r3
	bl	_ZNK4_STL8ios_base5widthEv
	mov	r2, r0
	ldr	r3, [sp, #24]
	cmp	r2, r3
	ble	.L598
	ldr	r2, [sp, #4]
	ldr	r3, [sp, #4]
	ldr	r3, [r3, #0]
	sub	r3, r3, #12
	ldr	r3, [r3, #0]
	add	r3, r2, r3
	mov	r0, r3
	bl	_ZNK4_STL8ios_base5widthEv
	mov	r2, r0
	ldr	r3, [sp, #24]
	rsb	r3, r3, r2
	b	.L599
.L598:
	mov	r3, #0
.L599:
	str	r3, [sp, #28]
	.loc 29 280 0
	ldr	r3, [sp, #28]
	cmp	r3, #0
	bne	.L600
	.loc 29 281 0
	ldr	r2, [sp, #4]
	ldr	r3, [sp, #4]
	ldr	r3, [r3, #0]
	sub	r3, r3, #12
	ldr	r3, [r3, #0]
	add	r3, r2, r3
	mov	r0, r3
	bl	_ZNK4_STL9basic_iosIcNS_11char_traitsIcEEE5rdbufEv
	mov	r3, r0
	mov	r0, r3
	ldr	r1, [sp, #0]
	ldr	r2, [sp, #24]
	bl	_ZN4_STL15basic_streambufIcNS_11char_traitsIcEEE5sputnEPKci
	mov	r2, r0
	ldr	r3, [sp, #24]
	cmp	r2, r3
	moveq	r3, #0
	movne	r3, #1
	strb	r3, [sp, #23]
	b	.L601
.L600:
	.loc 29 282 0
	ldr	r2, [sp, #4]
	ldr	r3, [sp, #4]
	ldr	r3, [r3, #0]
	sub	r3, r3, #12
	ldr	r3, [r3, #0]
	add	r3, r2, r3
	mov	r0, r3
	bl	_ZNK4_STL8ios_base5flagsEv
	mov	r3, r0
	and	r3, r3, #7
	cmp	r3, #1
	movne	r3, #0
	moveq	r3, #1
	and	r3, r3, #255
	cmp	r3, #0
	beq	.L602
	.loc 29 283 0
	ldr	r2, [sp, #4]
	ldr	r3, [sp, #4]
	ldr	r3, [r3, #0]
	sub	r3, r3, #12
	ldr	r3, [r3, #0]
	add	r3, r2, r3
	mov	r0, r3
	bl	_ZNK4_STL9basic_iosIcNS_11char_traitsIcEEE5rdbufEv
	mov	r3, r0
	mov	r0, r3
	ldr	r1, [sp, #0]
	ldr	r2, [sp, #24]
	bl	_ZN4_STL15basic_streambufIcNS_11char_traitsIcEEE5sputnEPKci
	mov	r2, r0
	ldr	r3, [sp, #24]
	cmp	r2, r3
	moveq	r3, #0
	movne	r3, #1
	strb	r3, [sp, #23]
	.loc 29 284 0
	ldrb	r3, [sp, #23]	@ zero_extendqisi2
	cmp	r3, #0
	bne	.L603
	ldr	r2, [sp, #4]
	ldr	r3, [sp, #4]
	ldr	r3, [r3, #0]
	sub	r3, r3, #12
	ldr	r3, [r3, #0]
	add	r3, r2, r3
	mov	r0, r3
	bl	_ZNK4_STL9basic_iosIcNS_11char_traitsIcEEE5rdbufEv
	mov	r4, r0
	ldr	r2, [sp, #4]
	ldr	r3, [sp, #4]
	ldr	r3, [r3, #0]
	sub	r3, r3, #12
	ldr	r3, [r3, #0]
	add	r3, r2, r3
	mov	r0, r3
	bl	_ZNK4_STL9basic_iosIcNS_11char_traitsIcEEE4fillEv
	mov	r3, r0
	mov	r0, r4
	mov	r1, r3
	ldr	r2, [sp, #28]
	bl	_ZN4_STL15basic_streambufIcNS_11char_traitsIcEEE9_M_sputncEci
	mov	r2, r0
	ldr	r3, [sp, #28]
	cmp	r2, r3
	beq	.L604
.L603:
	mov	r3, #1
	b	.L605
.L604:
	mov	r3, #0
.L605:
	strb	r3, [sp, #23]
	b	.L601
.L602:
	.loc 29 288 0
	ldr	r2, [sp, #4]
	ldr	r3, [sp, #4]
	ldr	r3, [r3, #0]
	sub	r3, r3, #12
	ldr	r3, [r3, #0]
	add	r3, r2, r3
	mov	r0, r3
	bl	_ZNK4_STL9basic_iosIcNS_11char_traitsIcEEE5rdbufEv
	mov	r4, r0
	ldr	r2, [sp, #4]
	ldr	r3, [sp, #4]
	ldr	r3, [r3, #0]
	sub	r3, r3, #12
	ldr	r3, [r3, #0]
	add	r3, r2, r3
	mov	r0, r3
	bl	_ZNK4_STL9basic_iosIcNS_11char_traitsIcEEE4fillEv
	mov	r3, r0
	mov	r0, r4
	mov	r1, r3
	ldr	r2, [sp, #28]
	bl	_ZN4_STL15basic_streambufIcNS_11char_traitsIcEEE9_M_sputncEci
	mov	r2, r0
	ldr	r3, [sp, #28]
	cmp	r2, r3
	moveq	r3, #0
	movne	r3, #1
	strb	r3, [sp, #23]
	.loc 29 289 0
	ldrb	r3, [sp, #23]	@ zero_extendqisi2
	cmp	r3, #0
	bne	.L606
	ldr	r2, [sp, #4]
	ldr	r3, [sp, #4]
	ldr	r3, [r3, #0]
	sub	r3, r3, #12
	ldr	r3, [r3, #0]
	add	r3, r2, r3
	mov	r0, r3
	bl	_ZNK4_STL9basic_iosIcNS_11char_traitsIcEEE5rdbufEv
	mov	r3, r0
	mov	r0, r3
	ldr	r1, [sp, #0]
	ldr	r2, [sp, #24]
	bl	_ZN4_STL15basic_streambufIcNS_11char_traitsIcEEE5sputnEPKci
	mov	r2, r0
	ldr	r3, [sp, #24]
	cmp	r2, r3
	beq	.L607
.L606:
	mov	r3, #1
	b	.L608
.L607:
	mov	r3, #0
.L608:
	strb	r3, [sp, #23]
.L601:
	.loc 29 292 0
	ldr	r2, [sp, #4]
	ldr	r3, [sp, #4]
	ldr	r3, [r3, #0]
	sub	r3, r3, #12
	ldr	r3, [r3, #0]
	add	r3, r2, r3
	mov	r0, r3
	mov	r1, #0
	bl	_ZN4_STL8ios_base5widthEi
	.loc 29 298 0
	ldrb	r3, [sp, #23]	@ zero_extendqisi2
	cmp	r3, #0
	beq	.L597
	.loc 29 299 0
	ldr	r2, [sp, #4]
	ldr	r3, [sp, #4]
	ldr	r3, [r3, #0]
	sub	r3, r3, #12
	ldr	r3, [r3, #0]
	add	r3, r2, r3
	mov	r0, r3
	mov	r1, #4
	bl	_ZN4_STL9basic_iosIcNS_11char_traitsIcEEE8setstateEi
.L597:
.LBE53:
	add	r3, sp, #12
	mov	r0, r3
	bl	_ZN4_STL13basic_ostreamIcNS_11char_traitsIcEEE6sentryD1Ev
.LBE52:
	.loc 29 301 0
	add	sp, sp, #32
	ldmfd	sp!, {r4, pc}
	.cfi_endproc
.LFE3802:
	.size	_ZN4_STL13basic_ostreamIcNS_11char_traitsIcEEE14_M_put_nowidenEPKc, .-_ZN4_STL13basic_ostreamIcNS_11char_traitsIcEEE14_M_put_nowidenEPKc
	.section	.text._ZNK4_STL9basic_iosIcNS_11char_traitsIcEEE5widenEc,"axG",%progbits,_ZNK4_STL9basic_iosIcNS_11char_traitsIcEEE5widenEc,comdat
	.align	2
	.weak	_ZNK4_STL9basic_iosIcNS_11char_traitsIcEEE5widenEc
	.hidden	_ZNK4_STL9basic_iosIcNS_11char_traitsIcEEE5widenEc
	.type	_ZNK4_STL9basic_iosIcNS_11char_traitsIcEEE5widenEc, %function
_ZNK4_STL9basic_iosIcNS_11char_traitsIcEEE5widenEc:
.LFB3803:
	.file 30 "c:/marmalade/6.2/s3e/h/std/c++/stl/_ios.h"
	.loc 30 141 0
	.cfi_startproc
	@ args = 0, pretend = 0, frame = 8
	@ frame_needed = 0, uses_anonymous_args = 0
	str	lr, [sp, #-4]!
.LCFI183:
	.cfi_def_cfa_offset 4
	sub	sp, sp, #12
.LCFI184:
	.cfi_def_cfa_offset 16
	str	r0, [sp, #4]
	mov	r3, r1
	strb	r3, [sp, #3]
	.loc 30 143 0
	ldr	r3, [sp, #4]
	mov	r0, r3
	.cfi_offset 14, -4
	bl	_ZNK4_STL8ios_base14_M_ctype_facetEv
	mov	r3, r0
	mov	r2, r3
	ldrb	r3, [sp, #3]	@ zero_extendqisi2
	mov	r0, r2
	mov	r1, r3
	bl	_ZNK4_STL5ctypeIcE5widenEc
	mov	r3, r0
	mov	r0, r3
	add	sp, sp, #12
	ldmfd	sp!, {pc}
	.cfi_endproc
.LFE3803:
	.size	_ZNK4_STL9basic_iosIcNS_11char_traitsIcEEE5widenEc, .-_ZNK4_STL9basic_iosIcNS_11char_traitsIcEEE5widenEc
	.section	.text._ZN4_STL13basic_ostreamIcNS_11char_traitsIcEEE3putEc,"axG",%progbits,_ZN4_STL13basic_ostreamIcNS_11char_traitsIcEEE3putEc,comdat
	.align	2
	.weak	_ZN4_STL13basic_ostreamIcNS_11char_traitsIcEEE3putEc
	.hidden	_ZN4_STL13basic_ostreamIcNS_11char_traitsIcEEE3putEc
	.type	_ZN4_STL13basic_ostreamIcNS_11char_traitsIcEEE3putEc, %function
_ZN4_STL13basic_ostreamIcNS_11char_traitsIcEEE3putEc:
.LFB3804:
	.loc 29 351 0
	.cfi_startproc
	@ args = 0, pretend = 0, frame = 24
	@ frame_needed = 0, uses_anonymous_args = 0
	stmfd	sp!, {r4, lr}
.LCFI185:
	.cfi_def_cfa_offset 8
	sub	sp, sp, #24
.LCFI186:
	.cfi_def_cfa_offset 32
	str	r0, [sp, #4]
	mov	r3, r1
	strb	r3, [sp, #3]
.LBB54:
	.loc 29 353 0
	add	r3, sp, #12
	mov	r0, r3
	ldr	r1, [sp, #4]
	.cfi_offset 14, -4
	.cfi_offset 4, -8
	bl	_ZN4_STL13basic_ostreamIcNS_11char_traitsIcEEE6sentryC1ERS3_
	.loc 29 354 0
	mov	r3, #1
	strb	r3, [sp, #23]
	.loc 29 356 0
	add	r3, sp, #12
	mov	r0, r3
	bl	_ZNK4_STL13basic_ostreamIcNS_11char_traitsIcEEE6sentrycvbEv
	mov	r3, r0
	cmp	r3, #0
	beq	.L613
	.loc 29 358 0
	ldr	r2, [sp, #4]
	ldr	r3, [sp, #4]
	ldr	r3, [r3, #0]
	sub	r3, r3, #12
	ldr	r3, [r3, #0]
	add	r3, r2, r3
	mov	r0, r3
	bl	_ZNK4_STL9basic_iosIcNS_11char_traitsIcEEE5rdbufEv
	mov	r2, r0
	ldrb	r3, [sp, #3]	@ zero_extendqisi2
	mov	r0, r2
	mov	r1, r3
	bl	_ZN4_STL15basic_streambufIcNS_11char_traitsIcEEE5sputcEc
	mov	r3, r0
	mov	r0, r3
	bl	_ZN4_STL9basic_iosIcNS_11char_traitsIcEEE6_S_eofEi
	mov	r3, r0
	strb	r3, [sp, #23]
	.loc 29 360 0
	mov	r0, r0	@ nop
.L613:
	.loc 29 365 0
	ldrb	r3, [sp, #23]	@ zero_extendqisi2
	cmp	r3, #0
	beq	.L614
	.loc 29 366 0
	ldr	r2, [sp, #4]
	ldr	r3, [sp, #4]
	ldr	r3, [r3, #0]
	sub	r3, r3, #12
	ldr	r3, [r3, #0]
	add	r3, r2, r3
	mov	r0, r3
	mov	r1, #1
	bl	_ZN4_STL9basic_iosIcNS_11char_traitsIcEEE8setstateEi
.L614:
	.loc 29 368 0
	ldr	r4, [sp, #4]
	add	r3, sp, #12
	mov	r0, r3
	bl	_ZN4_STL13basic_ostreamIcNS_11char_traitsIcEEE6sentryD1Ev
	mov	r3, r4
.LBE54:
	.loc 29 369 0
	mov	r0, r3
	add	sp, sp, #24
	ldmfd	sp!, {r4, pc}
	.cfi_endproc
.LFE3804:
	.size	_ZN4_STL13basic_ostreamIcNS_11char_traitsIcEEE3putEc, .-_ZN4_STL13basic_ostreamIcNS_11char_traitsIcEEE3putEc
	.section	.text._ZN4_STL13basic_ostreamIcNS_11char_traitsIcEEE5flushEv,"axG",%progbits,_ZN4_STL13basic_ostreamIcNS_11char_traitsIcEEE5flushEv,comdat
	.align	2
	.weak	_ZN4_STL13basic_ostreamIcNS_11char_traitsIcEEE5flushEv
	.hidden	_ZN4_STL13basic_ostreamIcNS_11char_traitsIcEEE5flushEv
	.type	_ZN4_STL13basic_ostreamIcNS_11char_traitsIcEEE5flushEv, %function
_ZN4_STL13basic_ostreamIcNS_11char_traitsIcEEE5flushEv:
.LFB3805:
	.loc 26 128 0
	.cfi_startproc
	@ args = 0, pretend = 0, frame = 8
	@ frame_needed = 0, uses_anonymous_args = 0
	str	lr, [sp, #-4]!
.LCFI187:
	.cfi_def_cfa_offset 4
	sub	sp, sp, #12
.LCFI188:
	.cfi_def_cfa_offset 16
	str	r0, [sp, #4]
	.loc 26 129 0
	ldr	r2, [sp, #4]
	ldr	r3, [sp, #4]
	ldr	r3, [r3, #0]
	sub	r3, r3, #12
	ldr	r3, [r3, #0]
	add	r3, r2, r3
	mov	r0, r3
	.cfi_offset 14, -4
	bl	_ZNK4_STL9basic_iosIcNS_11char_traitsIcEEE5rdbufEv
	mov	r3, r0
	cmp	r3, #0
	moveq	r3, #0
	movne	r3, #1
	and	r3, r3, #255
	cmp	r3, #0
	beq	.L617
	.loc 26 130 0
	ldr	r2, [sp, #4]
	ldr	r3, [sp, #4]
	ldr	r3, [r3, #0]
	sub	r3, r3, #12
	ldr	r3, [r3, #0]
	add	r3, r2, r3
	mov	r0, r3
	bl	_ZNK4_STL9basic_iosIcNS_11char_traitsIcEEE5rdbufEv
	mov	r3, r0
	mov	r0, r3
	bl	_ZN4_STL15basic_streambufIcNS_11char_traitsIcEEE7pubsyncEv
	mov	r3, r0
	cmn	r3, #1
	movne	r3, #0
	moveq	r3, #1
	and	r3, r3, #255
	cmp	r3, #0
	beq	.L617
	.loc 26 131 0
	ldr	r2, [sp, #4]
	ldr	r3, [sp, #4]
	ldr	r3, [r3, #0]
	sub	r3, r3, #12
	ldr	r3, [r3, #0]
	add	r3, r2, r3
	mov	r0, r3
	mov	r1, #1
	bl	_ZN4_STL9basic_iosIcNS_11char_traitsIcEEE8setstateEi
.L617:
	.loc 26 132 0
	ldr	r3, [sp, #4]
	.loc 26 133 0
	mov	r0, r3
	add	sp, sp, #12
	ldmfd	sp!, {pc}
	.cfi_endproc
.LFE3805:
	.size	_ZN4_STL13basic_ostreamIcNS_11char_traitsIcEEE5flushEv, .-_ZN4_STL13basic_ostreamIcNS_11char_traitsIcEEE5flushEv
	.section	.text._ZN4_STL12basic_stringIcNS_11char_traitsIcEENS_9allocatorIcEEE19_M_range_initializeIPKcEEvT_S9_,"axG",%progbits,_ZN4_STL12basic_stringIcNS_11char_traitsIcEENS_9allocatorIcEEE19_M_range_initializeIPKcEEvT_S9_,comdat
	.align	2
	.weak	_ZN4_STL12basic_stringIcNS_11char_traitsIcEENS_9allocatorIcEEE19_M_range_initializeIPKcEEvT_S9_
	.hidden	_ZN4_STL12basic_stringIcNS_11char_traitsIcEENS_9allocatorIcEEE19_M_range_initializeIPKcEEvT_S9_
	.type	_ZN4_STL12basic_stringIcNS_11char_traitsIcEENS_9allocatorIcEEE19_M_range_initializeIPKcEEvT_S9_, %function
_ZN4_STL12basic_stringIcNS_11char_traitsIcEENS_9allocatorIcEEE19_M_range_initializeIPKcEEvT_S9_:
.LFB3806:
	.loc 25 390 0
	.cfi_startproc
	@ args = 0, pretend = 0, frame = 24
	@ frame_needed = 0, uses_anonymous_args = 0
	str	lr, [sp, #-4]!
.LCFI189:
	.cfi_def_cfa_offset 4
	sub	sp, sp, #28
.LCFI190:
	.cfi_def_cfa_offset 32
	str	r0, [sp, #12]
	str	r1, [sp, #8]
	str	r2, [sp, #4]
	.loc 25 391 0
	add	r3, sp, #20
	ldr	r0, [sp, #12]
	ldr	r1, [sp, #8]
	ldr	r2, [sp, #4]
	.cfi_offset 14, -4
	bl	_ZN4_STL12basic_stringIcNS_11char_traitsIcEENS_9allocatorIcEEE19_M_range_initializeIPKcEEvT_S9_RKNS_20forward_iterator_tagE
	.loc 25 392 0
	add	sp, sp, #28
	ldmfd	sp!, {pc}
	.cfi_endproc
.LFE3806:
	.size	_ZN4_STL12basic_stringIcNS_11char_traitsIcEENS_9allocatorIcEEE19_M_range_initializeIPKcEEvT_S9_, .-_ZN4_STL12basic_stringIcNS_11char_traitsIcEENS_9allocatorIcEEE19_M_range_initializeIPKcEEvT_S9_
	.section	.text._ZN15CIwMallocRouterIiE6DoFreeEPv,"axG",%progbits,_ZN15CIwMallocRouterIiE6DoFreeEPv,comdat
	.align	2
	.weak	_ZN15CIwMallocRouterIiE6DoFreeEPv
	.hidden	_ZN15CIwMallocRouterIiE6DoFreeEPv
	.type	_ZN15CIwMallocRouterIiE6DoFreeEPv, %function
_ZN15CIwMallocRouterIiE6DoFreeEPv:
.LFB3819:
	.loc 28 93 0
	.cfi_startproc
	@ args = 0, pretend = 0, frame = 8
	@ frame_needed = 0, uses_anonymous_args = 0
	str	lr, [sp, #-4]!
.LCFI191:
	.cfi_def_cfa_offset 4
	sub	sp, sp, #12
.LCFI192:
	.cfi_def_cfa_offset 16
	str	r0, [sp, #4]
	.loc 28 95 0
	ldr	r0, [sp, #4]
	mov	r1, #4
	.cfi_offset 14, -4
	bl	_ZN22CIwDefaultMallocRouter8BaseFreeEPvj
	.loc 28 96 0
	add	sp, sp, #12
	ldmfd	sp!, {pc}
	.cfi_endproc
.LFE3819:
	.size	_ZN15CIwMallocRouterIiE6DoFreeEPv, .-_ZN15CIwMallocRouterIiE6DoFreeEPv
	.section	.text._ZN4_STL17_STLP_alloc_proxyIP8ObstacleS1_NS_9allocatorIS1_EEEC1ERKS4_S2_,"axG",%progbits,_ZN4_STL17_STLP_alloc_proxyIP8ObstacleS1_NS_9allocatorIS1_EEEC1ERKS4_S2_,comdat
	.align	2
	.weak	_ZN4_STL17_STLP_alloc_proxyIP8ObstacleS1_NS_9allocatorIS1_EEEC1ERKS4_S2_
	.hidden	_ZN4_STL17_STLP_alloc_proxyIP8ObstacleS1_NS_9allocatorIS1_EEEC1ERKS4_S2_
	.type	_ZN4_STL17_STLP_alloc_proxyIP8ObstacleS1_NS_9allocatorIS1_EEEC1ERKS4_S2_, %function
_ZN4_STL17_STLP_alloc_proxyIP8ObstacleS1_NS_9allocatorIS1_EEEC1ERKS4_S2_:
.LFB3823:
	.loc 22 487 0
	.cfi_startproc
	@ args = 0, pretend = 0, frame = 16
	@ frame_needed = 0, uses_anonymous_args = 0
	str	lr, [sp, #-4]!
.LCFI193:
	.cfi_def_cfa_offset 4
	sub	sp, sp, #20
.LCFI194:
	.cfi_def_cfa_offset 24
	str	r0, [sp, #12]
	str	r1, [sp, #8]
	str	r2, [sp, #4]
	.loc 22 487 0
	ldr	r3, [sp, #12]
	mov	r0, r3
	ldr	r1, [sp, #8]
	.cfi_offset 14, -4
	bl	_ZN4_STL9allocatorI8ObstacleEC2ERKS2_
	ldr	r3, [sp, #12]
	ldr	r2, [sp, #4]
	str	r2, [r3, #0]
	ldr	r3, [sp, #12]
	mov	r0, r3
	add	sp, sp, #20
	ldmfd	sp!, {pc}
	.cfi_endproc
.LFE3823:
	.size	_ZN4_STL17_STLP_alloc_proxyIP8ObstacleS1_NS_9allocatorIS1_EEEC1ERKS4_S2_, .-_ZN4_STL17_STLP_alloc_proxyIP8ObstacleS1_NS_9allocatorIS1_EEEC1ERKS4_S2_
	.section	.text._ZN4_STL9allocatorI8ObstacleE10deallocateEPS1_j,"axG",%progbits,_ZN4_STL9allocatorI8ObstacleE10deallocateEPS1_j,comdat
	.align	2
	.weak	_ZN4_STL9allocatorI8ObstacleE10deallocateEPS1_j
	.hidden	_ZN4_STL9allocatorI8ObstacleE10deallocateEPS1_j
	.type	_ZN4_STL9allocatorI8ObstacleE10deallocateEPS1_j, %function
_ZN4_STL9allocatorI8ObstacleE10deallocateEPS1_j:
.LFB3824:
	.loc 22 358 0
	.cfi_startproc
	@ args = 0, pretend = 0, frame = 16
	@ frame_needed = 0, uses_anonymous_args = 0
	str	lr, [sp, #-4]!
.LCFI195:
	.cfi_def_cfa_offset 4
	sub	sp, sp, #20
.LCFI196:
	.cfi_def_cfa_offset 24
	str	r0, [sp, #12]
	str	r1, [sp, #8]
	str	r2, [sp, #4]
	.loc 22 360 0
	ldr	r3, [sp, #8]
	cmp	r3, #0
	beq	.L628
	.cfi_offset 14, -4
	ldr	r3, [sp, #4]
	mov	r3, r3, asl #4
	ldr	r0, [sp, #8]
	mov	r1, r3
	bl	_ZN4_STL14__malloc_allocILi0EE10deallocateEPvj
.L628:
	.loc 22 361 0
	add	sp, sp, #20
	ldmfd	sp!, {pc}
	.cfi_endproc
.LFE3824:
	.size	_ZN4_STL9allocatorI8ObstacleE10deallocateEPS1_j, .-_ZN4_STL9allocatorI8ObstacleE10deallocateEPS1_j
	.section	.text._ZN4_STL9__destroyIP8ObstacleS1_EEvT_S3_PT0_,"axG",%progbits,_ZN4_STL9__destroyIP8ObstacleS1_EEvT_S3_PT0_,comdat
	.align	2
	.weak	_ZN4_STL9__destroyIP8ObstacleS1_EEvT_S3_PT0_
	.hidden	_ZN4_STL9__destroyIP8ObstacleS1_EEvT_S3_PT0_
	.type	_ZN4_STL9__destroyIP8ObstacleS1_EEvT_S3_PT0_, %function
_ZN4_STL9__destroyIP8ObstacleS1_EEvT_S3_PT0_:
.LFB3825:
	.loc 6 132 0
	.cfi_startproc
	@ args = 0, pretend = 0, frame = 24
	@ frame_needed = 0, uses_anonymous_args = 0
	str	lr, [sp, #-4]!
.LCFI197:
	.cfi_def_cfa_offset 4
	sub	sp, sp, #28
.LCFI198:
	.cfi_def_cfa_offset 32
	str	r0, [sp, #12]
	str	r1, [sp, #8]
	str	r2, [sp, #4]
.LBB55:
	.loc 6 134 0
	add	r3, sp, #20
	ldr	r0, [sp, #12]
	ldr	r1, [sp, #8]
	mov	r2, r3
	.cfi_offset 14, -4
	bl	_ZN4_STL13__destroy_auxIP8ObstacleEEvT_S3_RKNS_12__false_typeE
.LBE55:
	.loc 6 135 0
	add	sp, sp, #28
	ldmfd	sp!, {pc}
	.cfi_endproc
.LFE3825:
	.size	_ZN4_STL9__destroyIP8ObstacleS1_EEvT_S3_PT0_, .-_ZN4_STL9__destroyIP8ObstacleS1_EEvT_S3_PT0_
	.section	.rodata
	.align	2
.LC21:
	.ascii	"qty>=0\000"
	.section	.text._ZN8CIwArrayIi12CIwAllocatorIi15CIwMallocRouterIiEE17ReallocateDefaultIiS3_EE13push_back_qtyEi,"axG",%progbits,_ZN8CIwArrayIi12CIwAllocatorIi15CIwMallocRouterIiEE17ReallocateDefaultIiS3_EE13push_back_qtyEi,comdat
	.align	2
	.weak	_ZN8CIwArrayIi12CIwAllocatorIi15CIwMallocRouterIiEE17ReallocateDefaultIiS3_EE13push_back_qtyEi
	.hidden	_ZN8CIwArrayIi12CIwAllocatorIi15CIwMallocRouterIiEE17ReallocateDefaultIiS3_EE13push_back_qtyEi
	.type	_ZN8CIwArrayIi12CIwAllocatorIi15CIwMallocRouterIiEE17ReallocateDefaultIiS3_EE13push_back_qtyEi, %function
_ZN8CIwArrayIi12CIwAllocatorIi15CIwMallocRouterIiEE17ReallocateDefaultIiS3_EE13push_back_qtyEi:
.LFB3826:
	.loc 24 679 0
	.cfi_startproc
	@ args = 0, pretend = 0, frame = 16
	@ frame_needed = 0, uses_anonymous_args = 0
	str	lr, [sp, #-4]!
.LCFI199:
	.cfi_def_cfa_offset 4
	sub	sp, sp, #20
.LCFI200:
	.cfi_def_cfa_offset 24
	str	r0, [sp, #4]
	str	r1, [sp, #0]
.LBB56:
.LBB57:
	.loc 24 681 0
	ldr	r3, [sp, #0]
	cmp	r3, #0
	bge	.L632
	.cfi_offset 14, -4
	ldr	r0, .L645
	bl	IwDebugAssertIsChannelOn
	mov	r3, r0
	cmp	r3, #0
	beq	.L632
	ldr	r3, .L645+4
	ldrb	r3, [r3, #0]	@ zero_extendqisi2
	cmp	r3, #0
	bne	.L632
	mov	r3, #1
	b	.L633
.L632:
	mov	r3, #0
.L633:
	cmp	r3, #0
	beq	.L634
	mov	r0, #0
	bl	IwDebugAssertSetSolution
	mov	r0, #0
	bl	IwDebugAssertSetUID
	mov	r0, #0
	bl	IwDebugAssertSetMessage
	ldr	r0, .L645+8
	ldr	r1, .L645+12
	ldr	r2, .L645+16
	mov	r3, #1
	bl	IwDebugAssertShow
	mov	r3, r0
	cmp	r3, #1
	beq	.L636
	cmp	r3, #2
	beq	.L637
	b	.L635
.L636:
	bl	s3eDebugIsDebuggerPresent
	mov	r3, r0
	cmp	r3, #0
	moveq	r3, #0
	movne	r3, #1
	and	r3, r3, #255
	cmp	r3, #0
	beq	.L638
	bl	s3eDebugIsDebuggerPresent
	mov	r3, r0
	cmp	r3, #0
	moveq	r3, #0
	movne	r3, #1
	and	r3, r3, #255
	cmp	r3, #0
	beq	.L644
	mvn	r3, #11
	mov	r2, #0
	str	r2, [r3, #0]
	b	.L635
.L638:
	bl	_ZL11IwDebugExitv
	b	.L635
.L637:
	ldr	r3, .L645+4
	mov	r2, #1
	strb	r2, [r3, #0]
	b	.L635
.L644:
	mov	r0, r0	@ nop
.L635:
	mov	r0, #0
	bl	IwDebugAssertSetUID
.L634:
.LBE57:
	.loc 24 682 0
	ldr	r3, [sp, #4]
	ldr	r2, [r3, #4]
	ldr	r3, [sp, #0]
	add	r3, r2, r3
	ldr	r0, [sp, #4]
	mov	r1, r3
	bl	_ZN8CIwArrayIi12CIwAllocatorIi15CIwMallocRouterIiEE17ReallocateDefaultIiS3_EE7reserveEj
.LBB58:
	.loc 24 683 0
	mov	r3, #0
	str	r3, [sp, #12]
	b	.L641
.L642:
	.loc 24 684 0
	ldr	r3, [sp, #4]
	ldr	r2, [r3, #0]
	ldr	r3, [sp, #4]
	ldr	r1, [r3, #4]
	ldr	r3, [sp, #12]
	add	r3, r1, r3
	mov	r3, r3, asl #2
	add	r3, r2, r3
	mov	r0, #4
	mov	r1, r3
	bl	_ZnwjPv
	.loc 24 683 0
	ldr	r3, [sp, #12]
	add	r3, r3, #1
	str	r3, [sp, #12]
.L641:
	ldr	r2, [sp, #12]
	ldr	r3, [sp, #0]
	cmp	r2, r3
	movge	r3, #0
	movlt	r3, #1
	and	r3, r3, #255
	cmp	r3, #0
	bne	.L642
.LBE58:
	.loc 24 685 0
	ldr	r3, [sp, #4]
	ldr	r2, [r3, #4]
	ldr	r3, [sp, #0]
	add	r2, r2, r3
	ldr	r3, [sp, #4]
	str	r2, [r3, #4]
.LBE56:
	.loc 24 686 0
	add	sp, sp, #20
	ldmfd	sp!, {pc}
.L646:
	.align	2
.L645:
	.word	.LC9
	.word	_ZZN8CIwArrayIi12CIwAllocatorIi15CIwMallocRouterIiEE17ReallocateDefaultIiS3_EE13push_back_qtyEiE21_s_IwAssertIgnoreThis
	.word	.LC21
	.word	.LC12
	.word	681
	.cfi_endproc
.LFE3826:
	.size	_ZN8CIwArrayIi12CIwAllocatorIi15CIwMallocRouterIiEE17ReallocateDefaultIiS3_EE13push_back_qtyEi, .-_ZN8CIwArrayIi12CIwAllocatorIi15CIwMallocRouterIiEE17ReallocateDefaultIiS3_EE13push_back_qtyEi
	.section	.text._ZN17ReallocateDefaultIi12CIwAllocatorIi15CIwMallocRouterIiEEE10ReallocateEjjjPiRS3_,"axG",%progbits,_ZN17ReallocateDefaultIi12CIwAllocatorIi15CIwMallocRouterIiEEE10ReallocateEjjjPiRS3_,comdat
	.align	2
	.weak	_ZN17ReallocateDefaultIi12CIwAllocatorIi15CIwMallocRouterIiEEE10ReallocateEjjjPiRS3_
	.hidden	_ZN17ReallocateDefaultIi12CIwAllocatorIi15CIwMallocRouterIiEEE10ReallocateEjjjPiRS3_
	.type	_ZN17ReallocateDefaultIi12CIwAllocatorIi15CIwMallocRouterIiEEE10ReallocateEjjjPiRS3_, %function
_ZN17ReallocateDefaultIi12CIwAllocatorIi15CIwMallocRouterIiEEE10ReallocateEjjjPiRS3_:
.LFB3827:
	.loc 24 52 0
	.cfi_startproc
	@ args = 4, pretend = 0, frame = 16
	@ frame_needed = 0, uses_anonymous_args = 0
	str	lr, [sp, #-4]!
.LCFI201:
	.cfi_def_cfa_offset 4
	sub	sp, sp, #20
.LCFI202:
	.cfi_def_cfa_offset 24
	str	r0, [sp, #12]
	str	r1, [sp, #8]
	str	r2, [sp, #4]
	str	r3, [sp, #0]
	.loc 24 54 0
	ldr	r3, [sp, #12]
	mov	r3, r3, asl #2
	ldr	r0, [sp, #24]
	ldr	r1, [sp, #0]
	mov	r2, r3
	.cfi_offset 14, -4
	bl	_ZN12CIwAllocatorIi15CIwMallocRouterIiEE10reallocateEPij
	mov	r3, r0
	.loc 24 55 0
	mov	r0, r3
	add	sp, sp, #20
	ldmfd	sp!, {pc}
	.cfi_endproc
.LFE3827:
	.size	_ZN17ReallocateDefaultIi12CIwAllocatorIi15CIwMallocRouterIiEEE10ReallocateEjjjPiRS3_, .-_ZN17ReallocateDefaultIi12CIwAllocatorIi15CIwMallocRouterIiEEE10ReallocateEjjjPiRS3_
	.section	.text._ZN15CIwMallocRouterIP6ButtonE6DoFreeEPv,"axG",%progbits,_ZN15CIwMallocRouterIP6ButtonE6DoFreeEPv,comdat
	.align	2
	.weak	_ZN15CIwMallocRouterIP6ButtonE6DoFreeEPv
	.hidden	_ZN15CIwMallocRouterIP6ButtonE6DoFreeEPv
	.type	_ZN15CIwMallocRouterIP6ButtonE6DoFreeEPv, %function
_ZN15CIwMallocRouterIP6ButtonE6DoFreeEPv:
.LFB3836:
	.loc 28 93 0
	.cfi_startproc
	@ args = 0, pretend = 0, frame = 8
	@ frame_needed = 0, uses_anonymous_args = 0
	str	lr, [sp, #-4]!
.LCFI203:
	.cfi_def_cfa_offset 4
	sub	sp, sp, #12
.LCFI204:
	.cfi_def_cfa_offset 16
	str	r0, [sp, #4]
	.loc 28 95 0
	ldr	r0, [sp, #4]
	mov	r1, #4
	.cfi_offset 14, -4
	bl	_ZN22CIwDefaultMallocRouter8BaseFreeEPvj
	.loc 28 96 0
	add	sp, sp, #12
	ldmfd	sp!, {pc}
	.cfi_endproc
.LFE3836:
	.size	_ZN15CIwMallocRouterIP6ButtonE6DoFreeEPv, .-_ZN15CIwMallocRouterIP6ButtonE6DoFreeEPv
	.section	.text._ZN15CIwMallocRouterIP10CIw2DImageE6DoFreeEPv,"axG",%progbits,_ZN15CIwMallocRouterIP10CIw2DImageE6DoFreeEPv,comdat
	.align	2
	.weak	_ZN15CIwMallocRouterIP10CIw2DImageE6DoFreeEPv
	.hidden	_ZN15CIwMallocRouterIP10CIw2DImageE6DoFreeEPv
	.type	_ZN15CIwMallocRouterIP10CIw2DImageE6DoFreeEPv, %function
_ZN15CIwMallocRouterIP10CIw2DImageE6DoFreeEPv:
.LFB3838:
	.loc 28 93 0
	.cfi_startproc
	@ args = 0, pretend = 0, frame = 8
	@ frame_needed = 0, uses_anonymous_args = 0
	str	lr, [sp, #-4]!
.LCFI205:
	.cfi_def_cfa_offset 4
	sub	sp, sp, #12
.LCFI206:
	.cfi_def_cfa_offset 16
	str	r0, [sp, #4]
	.loc 28 95 0
	ldr	r0, [sp, #4]
	mov	r1, #4
	.cfi_offset 14, -4
	bl	_ZN22CIwDefaultMallocRouter8BaseFreeEPvj
	.loc 28 96 0
	add	sp, sp, #12
	ldmfd	sp!, {pc}
	.cfi_endproc
.LFE3838:
	.size	_ZN15CIwMallocRouterIP10CIw2DImageE6DoFreeEPv, .-_ZN15CIwMallocRouterIP10CIw2DImageE6DoFreeEPv
	.section	.text._ZN17ReallocateDefaultIP10CIw2DImage12CIwAllocatorIS1_15CIwMallocRouterIS1_EEE10ReallocateEjjjPS1_RS5_,"axG",%progbits,_ZN17ReallocateDefaultIP10CIw2DImage12CIwAllocatorIS1_15CIwMallocRouterIS1_EEE10ReallocateEjjjPS1_RS5_,comdat
	.align	2
	.weak	_ZN17ReallocateDefaultIP10CIw2DImage12CIwAllocatorIS1_15CIwMallocRouterIS1_EEE10ReallocateEjjjPS1_RS5_
	.hidden	_ZN17ReallocateDefaultIP10CIw2DImage12CIwAllocatorIS1_15CIwMallocRouterIS1_EEE10ReallocateEjjjPS1_RS5_
	.type	_ZN17ReallocateDefaultIP10CIw2DImage12CIwAllocatorIS1_15CIwMallocRouterIS1_EEE10ReallocateEjjjPS1_RS5_, %function
_ZN17ReallocateDefaultIP10CIw2DImage12CIwAllocatorIS1_15CIwMallocRouterIS1_EEE10ReallocateEjjjPS1_RS5_:
.LFB3839:
	.loc 24 52 0
	.cfi_startproc
	@ args = 4, pretend = 0, frame = 16
	@ frame_needed = 0, uses_anonymous_args = 0
	str	lr, [sp, #-4]!
.LCFI207:
	.cfi_def_cfa_offset 4
	sub	sp, sp, #20
.LCFI208:
	.cfi_def_cfa_offset 24
	str	r0, [sp, #12]
	str	r1, [sp, #8]
	str	r2, [sp, #4]
	str	r3, [sp, #0]
	.loc 24 54 0
	ldr	r3, [sp, #12]
	mov	r3, r3, asl #2
	ldr	r0, [sp, #24]
	ldr	r1, [sp, #0]
	mov	r2, r3
	.cfi_offset 14, -4
	bl	_ZN12CIwAllocatorIP10CIw2DImage15CIwMallocRouterIS1_EE10reallocateEPS1_j
	mov	r3, r0
	.loc 24 55 0
	mov	r0, r3
	add	sp, sp, #20
	ldmfd	sp!, {pc}
	.cfi_endproc
.LFE3839:
	.size	_ZN17ReallocateDefaultIP10CIw2DImage12CIwAllocatorIS1_15CIwMallocRouterIS1_EEE10ReallocateEjjjPS1_RS5_, .-_ZN17ReallocateDefaultIP10CIw2DImage12CIwAllocatorIS1_15CIwMallocRouterIS1_EEE10ReallocateEjjjPS1_RS5_
	.section	.text._ZN15CIwMallocRouterIPcE6DoFreeEPv,"axG",%progbits,_ZN15CIwMallocRouterIPcE6DoFreeEPv,comdat
	.align	2
	.weak	_ZN15CIwMallocRouterIPcE6DoFreeEPv
	.hidden	_ZN15CIwMallocRouterIPcE6DoFreeEPv
	.type	_ZN15CIwMallocRouterIPcE6DoFreeEPv, %function
_ZN15CIwMallocRouterIPcE6DoFreeEPv:
.LFB3840:
	.loc 28 93 0
	.cfi_startproc
	@ args = 0, pretend = 0, frame = 8
	@ frame_needed = 0, uses_anonymous_args = 0
	str	lr, [sp, #-4]!
.LCFI209:
	.cfi_def_cfa_offset 4
	sub	sp, sp, #12
.LCFI210:
	.cfi_def_cfa_offset 16
	str	r0, [sp, #4]
	.loc 28 95 0
	ldr	r0, [sp, #4]
	mov	r1, #4
	.cfi_offset 14, -4
	bl	_ZN22CIwDefaultMallocRouter8BaseFreeEPvj
	.loc 28 96 0
	add	sp, sp, #12
	ldmfd	sp!, {pc}
	.cfi_endproc
.LFE3840:
	.size	_ZN15CIwMallocRouterIPcE6DoFreeEPv, .-_ZN15CIwMallocRouterIPcE6DoFreeEPv
	.section	.text._ZN17ReallocateDefaultIPc12CIwAllocatorIS0_15CIwMallocRouterIS0_EEE10ReallocateEjjjPS0_RS4_,"axG",%progbits,_ZN17ReallocateDefaultIPc12CIwAllocatorIS0_15CIwMallocRouterIS0_EEE10ReallocateEjjjPS0_RS4_,comdat
	.align	2
	.weak	_ZN17ReallocateDefaultIPc12CIwAllocatorIS0_15CIwMallocRouterIS0_EEE10ReallocateEjjjPS0_RS4_
	.hidden	_ZN17ReallocateDefaultIPc12CIwAllocatorIS0_15CIwMallocRouterIS0_EEE10ReallocateEjjjPS0_RS4_
	.type	_ZN17ReallocateDefaultIPc12CIwAllocatorIS0_15CIwMallocRouterIS0_EEE10ReallocateEjjjPS0_RS4_, %function
_ZN17ReallocateDefaultIPc12CIwAllocatorIS0_15CIwMallocRouterIS0_EEE10ReallocateEjjjPS0_RS4_:
.LFB3841:
	.loc 24 52 0
	.cfi_startproc
	@ args = 4, pretend = 0, frame = 16
	@ frame_needed = 0, uses_anonymous_args = 0
	str	lr, [sp, #-4]!
.LCFI211:
	.cfi_def_cfa_offset 4
	sub	sp, sp, #20
.LCFI212:
	.cfi_def_cfa_offset 24
	str	r0, [sp, #12]
	str	r1, [sp, #8]
	str	r2, [sp, #4]
	str	r3, [sp, #0]
	.loc 24 54 0
	ldr	r3, [sp, #12]
	mov	r3, r3, asl #2
	ldr	r0, [sp, #24]
	ldr	r1, [sp, #0]
	mov	r2, r3
	.cfi_offset 14, -4
	bl	_ZN12CIwAllocatorIPc15CIwMallocRouterIS0_EE10reallocateEPS0_j
	mov	r3, r0
	.loc 24 55 0
	mov	r0, r3
	add	sp, sp, #20
	ldmfd	sp!, {pc}
	.cfi_endproc
.LFE3841:
	.size	_ZN17ReallocateDefaultIPc12CIwAllocatorIS0_15CIwMallocRouterIS0_EEE10ReallocateEjjjPS0_RS4_, .-_ZN17ReallocateDefaultIPc12CIwAllocatorIS0_15CIwMallocRouterIS0_EEE10ReallocateEjjjPS0_RS4_
	.section	.text._ZN8CIwArrayI12TileObstacle12CIwAllocatorIS0_15CIwMallocRouterIS0_EE17ReallocateDefaultIS0_S4_EE8truncateEj,"axG",%progbits,_ZN8CIwArrayI12TileObstacle12CIwAllocatorIS0_15CIwMallocRouterIS0_EE17ReallocateDefaultIS0_S4_EE8truncateEj,comdat
	.align	2
	.weak	_ZN8CIwArrayI12TileObstacle12CIwAllocatorIS0_15CIwMallocRouterIS0_EE17ReallocateDefaultIS0_S4_EE8truncateEj
	.hidden	_ZN8CIwArrayI12TileObstacle12CIwAllocatorIS0_15CIwMallocRouterIS0_EE17ReallocateDefaultIS0_S4_EE8truncateEj
	.type	_ZN8CIwArrayI12TileObstacle12CIwAllocatorIS0_15CIwMallocRouterIS0_EE17ReallocateDefaultIS0_S4_EE8truncateEj, %function
_ZN8CIwArrayI12TileObstacle12CIwAllocatorIS0_15CIwMallocRouterIS0_EE17ReallocateDefaultIS0_S4_EE8truncateEj:
.LFB3842:
	.loc 24 765 0
	.cfi_startproc
	@ args = 0, pretend = 0, frame = 16
	@ frame_needed = 0, uses_anonymous_args = 0
	str	lr, [sp, #-4]!
.LCFI213:
	.cfi_def_cfa_offset 4
	sub	sp, sp, #20
.LCFI214:
	.cfi_def_cfa_offset 24
	str	r0, [sp, #4]
	str	r1, [sp, #0]
.LBB59:
.LBB60:
	.loc 24 767 0
	ldr	r3, [sp, #4]
	ldr	r2, [r3, #4]
	ldr	r3, [sp, #0]
	cmp	r2, r3
	bcs	.L660
	.cfi_offset 14, -4
	ldr	r0, .L673
	bl	IwDebugAssertIsChannelOn
	mov	r3, r0
	cmp	r3, #0
	beq	.L660
	ldr	r3, .L673+4
	ldrb	r3, [r3, #0]	@ zero_extendqisi2
	cmp	r3, #0
	bne	.L660
	mov	r3, #1
	b	.L661
.L660:
	mov	r3, #0
.L661:
	cmp	r3, #0
	beq	.L662
	mov	r0, #0
	bl	IwDebugAssertSetSolution
	mov	r0, #0
	bl	IwDebugAssertSetUID
	mov	r0, #0
	bl	IwDebugAssertSetMessage
	ldr	r0, .L673+8
	ldr	r1, .L673+12
	ldr	r2, .L673+16
	mov	r3, #1
	bl	IwDebugAssertShow
	mov	r3, r0
	cmp	r3, #1
	beq	.L664
	cmp	r3, #2
	beq	.L665
	b	.L663
.L664:
	bl	s3eDebugIsDebuggerPresent
	mov	r3, r0
	cmp	r3, #0
	moveq	r3, #0
	movne	r3, #1
	and	r3, r3, #255
	cmp	r3, #0
	beq	.L666
	bl	s3eDebugIsDebuggerPresent
	mov	r3, r0
	cmp	r3, #0
	moveq	r3, #0
	movne	r3, #1
	and	r3, r3, #255
	cmp	r3, #0
	beq	.L672
	mvn	r3, #11
	mov	r2, #0
	str	r2, [r3, #0]
	b	.L663
.L666:
	bl	_ZL11IwDebugExitv
	b	.L663
.L665:
	ldr	r3, .L673+4
	mov	r2, #1
	strb	r2, [r3, #0]
	b	.L663
.L672:
	mov	r0, r0	@ nop
.L663:
	mov	r0, #0
	bl	IwDebugAssertSetUID
.L662:
.LBE60:
.LBB61:
	.loc 24 769 0
	ldr	r3, [sp, #0]
	str	r3, [sp, #12]
	b	.L669
.L670:
	.loc 24 770 0
	ldr	r3, [sp, #4]
	ldr	r2, [r3, #0]
	ldr	r3, [sp, #12]
	mov	r1, #44
	mul	r3, r1, r3
	add	r3, r2, r3
	mov	r0, r3
	bl	_ZN12TileObstacleD1Ev
	.loc 24 769 0
	ldr	r3, [sp, #12]
	add	r3, r3, #1
	str	r3, [sp, #12]
.L669:
	ldr	r3, [sp, #4]
	ldr	r2, [r3, #4]
	ldr	r3, [sp, #12]
	cmp	r2, r3
	movls	r3, #0
	movhi	r3, #1
	and	r3, r3, #255
	cmp	r3, #0
	bne	.L670
.LBE61:
	.loc 24 771 0
	ldr	r3, [sp, #4]
	ldr	r2, [sp, #0]
	str	r2, [r3, #4]
.LBE59:
	.loc 24 772 0
	add	sp, sp, #20
	ldmfd	sp!, {pc}
.L674:
	.align	2
.L673:
	.word	.LC9
	.word	_ZZN8CIwArrayI12TileObstacle12CIwAllocatorIS0_15CIwMallocRouterIS0_EE17ReallocateDefaultIS0_S4_EE8truncateEjE21_s_IwAssertIgnoreThis
	.word	.LC13
	.word	.LC12
	.word	767
	.cfi_endproc
.LFE3842:
	.size	_ZN8CIwArrayI12TileObstacle12CIwAllocatorIS0_15CIwMallocRouterIS0_EE17ReallocateDefaultIS0_S4_EE8truncateEj, .-_ZN8CIwArrayI12TileObstacle12CIwAllocatorIS0_15CIwMallocRouterIS0_EE17ReallocateDefaultIS0_S4_EE8truncateEj
	.section	.text._ZN8CIwArrayI12TileObstacle12CIwAllocatorIS0_15CIwMallocRouterIS0_EE17ReallocateDefaultIS0_S4_EE13push_back_qtyEi,"axG",%progbits,_ZN8CIwArrayI12TileObstacle12CIwAllocatorIS0_15CIwMallocRouterIS0_EE17ReallocateDefaultIS0_S4_EE13push_back_qtyEi,comdat
	.align	2
	.weak	_ZN8CIwArrayI12TileObstacle12CIwAllocatorIS0_15CIwMallocRouterIS0_EE17ReallocateDefaultIS0_S4_EE13push_back_qtyEi
	.hidden	_ZN8CIwArrayI12TileObstacle12CIwAllocatorIS0_15CIwMallocRouterIS0_EE17ReallocateDefaultIS0_S4_EE13push_back_qtyEi
	.type	_ZN8CIwArrayI12TileObstacle12CIwAllocatorIS0_15CIwMallocRouterIS0_EE17ReallocateDefaultIS0_S4_EE13push_back_qtyEi, %function
_ZN8CIwArrayI12TileObstacle12CIwAllocatorIS0_15CIwMallocRouterIS0_EE17ReallocateDefaultIS0_S4_EE13push_back_qtyEi:
.LFB3843:
	.loc 24 679 0
	.cfi_startproc
	@ args = 0, pretend = 0, frame = 16
	@ frame_needed = 0, uses_anonymous_args = 0
	str	lr, [sp, #-4]!
.LCFI215:
	.cfi_def_cfa_offset 4
	sub	sp, sp, #20
.LCFI216:
	.cfi_def_cfa_offset 24
	str	r0, [sp, #4]
	str	r1, [sp, #0]
.LBB62:
.LBB63:
	.loc 24 681 0
	ldr	r3, [sp, #0]
	cmp	r3, #0
	bge	.L676
	.cfi_offset 14, -4
	ldr	r0, .L689
	bl	IwDebugAssertIsChannelOn
	mov	r3, r0
	cmp	r3, #0
	beq	.L676
	ldr	r3, .L689+4
	ldrb	r3, [r3, #0]	@ zero_extendqisi2
	cmp	r3, #0
	bne	.L676
	mov	r3, #1
	b	.L677
.L676:
	mov	r3, #0
.L677:
	cmp	r3, #0
	beq	.L678
	mov	r0, #0
	bl	IwDebugAssertSetSolution
	mov	r0, #0
	bl	IwDebugAssertSetUID
	mov	r0, #0
	bl	IwDebugAssertSetMessage
	ldr	r0, .L689+8
	ldr	r1, .L689+12
	ldr	r2, .L689+16
	mov	r3, #1
	bl	IwDebugAssertShow
	mov	r3, r0
	cmp	r3, #1
	beq	.L680
	cmp	r3, #2
	beq	.L681
	b	.L679
.L680:
	bl	s3eDebugIsDebuggerPresent
	mov	r3, r0
	cmp	r3, #0
	moveq	r3, #0
	movne	r3, #1
	and	r3, r3, #255
	cmp	r3, #0
	beq	.L682
	bl	s3eDebugIsDebuggerPresent
	mov	r3, r0
	cmp	r3, #0
	moveq	r3, #0
	movne	r3, #1
	and	r3, r3, #255
	cmp	r3, #0
	beq	.L688
	mvn	r3, #11
	mov	r2, #0
	str	r2, [r3, #0]
	b	.L679
.L682:
	bl	_ZL11IwDebugExitv
	b	.L679
.L681:
	ldr	r3, .L689+4
	mov	r2, #1
	strb	r2, [r3, #0]
	b	.L679
.L688:
	mov	r0, r0	@ nop
.L679:
	mov	r0, #0
	bl	IwDebugAssertSetUID
.L678:
.LBE63:
	.loc 24 682 0
	ldr	r3, [sp, #4]
	ldr	r2, [r3, #4]
	ldr	r3, [sp, #0]
	add	r3, r2, r3
	ldr	r0, [sp, #4]
	mov	r1, r3
	bl	_ZN8CIwArrayI12TileObstacle12CIwAllocatorIS0_15CIwMallocRouterIS0_EE17ReallocateDefaultIS0_S4_EE7reserveEj
.LBB64:
	.loc 24 683 0
	mov	r3, #0
	str	r3, [sp, #12]
	b	.L685
.L686:
	.loc 24 684 0
	ldr	r3, [sp, #4]
	ldr	r2, [r3, #0]
	ldr	r3, [sp, #4]
	ldr	r1, [r3, #4]
	ldr	r3, [sp, #12]
	add	r3, r1, r3
	mov	r1, #44
	mul	r3, r1, r3
	add	r3, r2, r3
	mov	r0, #44
	mov	r1, r3
	bl	_ZnwjPv
	mov	r3, r0
	mov	r0, r3
	bl	_ZN12TileObstacleC1Ev
	.loc 24 683 0
	ldr	r3, [sp, #12]
	add	r3, r3, #1
	str	r3, [sp, #12]
.L685:
	ldr	r2, [sp, #12]
	ldr	r3, [sp, #0]
	cmp	r2, r3
	movge	r3, #0
	movlt	r3, #1
	and	r3, r3, #255
	cmp	r3, #0
	bne	.L686
.LBE64:
	.loc 24 685 0
	ldr	r3, [sp, #4]
	ldr	r2, [r3, #4]
	ldr	r3, [sp, #0]
	add	r2, r2, r3
	ldr	r3, [sp, #4]
	str	r2, [r3, #4]
.LBE62:
	.loc 24 686 0
	add	sp, sp, #20
	ldmfd	sp!, {pc}
.L690:
	.align	2
.L689:
	.word	.LC9
	.word	_ZZN8CIwArrayI12TileObstacle12CIwAllocatorIS0_15CIwMallocRouterIS0_EE17ReallocateDefaultIS0_S4_EE13push_back_qtyEiE21_s_IwAssertIgnoreThis
	.word	.LC21
	.word	.LC12
	.word	681
	.cfi_endproc
.LFE3843:
	.size	_ZN8CIwArrayI12TileObstacle12CIwAllocatorIS0_15CIwMallocRouterIS0_EE17ReallocateDefaultIS0_S4_EE13push_back_qtyEi, .-_ZN8CIwArrayI12TileObstacle12CIwAllocatorIS0_15CIwMallocRouterIS0_EE17ReallocateDefaultIS0_S4_EE13push_back_qtyEi
	.section	.text._ZN15CIwMallocRouterI12TileObstacleE6DoFreeEPv,"axG",%progbits,_ZN15CIwMallocRouterI12TileObstacleE6DoFreeEPv,comdat
	.align	2
	.weak	_ZN15CIwMallocRouterI12TileObstacleE6DoFreeEPv
	.hidden	_ZN15CIwMallocRouterI12TileObstacleE6DoFreeEPv
	.type	_ZN15CIwMallocRouterI12TileObstacleE6DoFreeEPv, %function
_ZN15CIwMallocRouterI12TileObstacleE6DoFreeEPv:
.LFB3844:
	.loc 28 93 0
	.cfi_startproc
	@ args = 0, pretend = 0, frame = 8
	@ frame_needed = 0, uses_anonymous_args = 0
	str	lr, [sp, #-4]!
.LCFI217:
	.cfi_def_cfa_offset 4
	sub	sp, sp, #12
.LCFI218:
	.cfi_def_cfa_offset 16
	str	r0, [sp, #4]
	.loc 28 95 0
	ldr	r0, [sp, #4]
	mov	r1, #44
	.cfi_offset 14, -4
	bl	_ZN22CIwDefaultMallocRouter8BaseFreeEPvj
	.loc 28 96 0
	add	sp, sp, #12
	ldmfd	sp!, {pc}
	.cfi_endproc
.LFE3844:
	.size	_ZN15CIwMallocRouterI12TileObstacleE6DoFreeEPv, .-_ZN15CIwMallocRouterI12TileObstacleE6DoFreeEPv
	.section	.text._ZN8CIwArrayIP3NPC12CIwAllocatorIS1_15CIwMallocRouterIS1_EE17ReallocateDefaultIS1_S5_EE8truncateEj,"axG",%progbits,_ZN8CIwArrayIP3NPC12CIwAllocatorIS1_15CIwMallocRouterIS1_EE17ReallocateDefaultIS1_S5_EE8truncateEj,comdat
	.align	2
	.weak	_ZN8CIwArrayIP3NPC12CIwAllocatorIS1_15CIwMallocRouterIS1_EE17ReallocateDefaultIS1_S5_EE8truncateEj
	.hidden	_ZN8CIwArrayIP3NPC12CIwAllocatorIS1_15CIwMallocRouterIS1_EE17ReallocateDefaultIS1_S5_EE8truncateEj
	.type	_ZN8CIwArrayIP3NPC12CIwAllocatorIS1_15CIwMallocRouterIS1_EE17ReallocateDefaultIS1_S5_EE8truncateEj, %function
_ZN8CIwArrayIP3NPC12CIwAllocatorIS1_15CIwMallocRouterIS1_EE17ReallocateDefaultIS1_S5_EE8truncateEj:
.LFB3845:
	.loc 24 765 0
	.cfi_startproc
	@ args = 0, pretend = 0, frame = 16
	@ frame_needed = 0, uses_anonymous_args = 0
	str	lr, [sp, #-4]!
.LCFI219:
	.cfi_def_cfa_offset 4
	sub	sp, sp, #20
.LCFI220:
	.cfi_def_cfa_offset 24
	str	r0, [sp, #4]
	str	r1, [sp, #0]
.LBB65:
.LBB66:
	.loc 24 767 0
	ldr	r3, [sp, #4]
	ldr	r2, [r3, #4]
	ldr	r3, [sp, #0]
	cmp	r2, r3
	bcs	.L694
	.cfi_offset 14, -4
	ldr	r0, .L707
	bl	IwDebugAssertIsChannelOn
	mov	r3, r0
	cmp	r3, #0
	beq	.L694
	ldr	r3, .L707+4
	ldrb	r3, [r3, #0]	@ zero_extendqisi2
	cmp	r3, #0
	bne	.L694
	mov	r3, #1
	b	.L695
.L694:
	mov	r3, #0
.L695:
	cmp	r3, #0
	beq	.L696
	mov	r0, #0
	bl	IwDebugAssertSetSolution
	mov	r0, #0
	bl	IwDebugAssertSetUID
	mov	r0, #0
	bl	IwDebugAssertSetMessage
	ldr	r0, .L707+8
	ldr	r1, .L707+12
	ldr	r2, .L707+16
	mov	r3, #1
	bl	IwDebugAssertShow
	mov	r3, r0
	cmp	r3, #1
	beq	.L698
	cmp	r3, #2
	beq	.L699
	b	.L697
.L698:
	bl	s3eDebugIsDebuggerPresent
	mov	r3, r0
	cmp	r3, #0
	moveq	r3, #0
	movne	r3, #1
	and	r3, r3, #255
	cmp	r3, #0
	beq	.L700
	bl	s3eDebugIsDebuggerPresent
	mov	r3, r0
	cmp	r3, #0
	moveq	r3, #0
	movne	r3, #1
	and	r3, r3, #255
	cmp	r3, #0
	beq	.L706
	mvn	r3, #11
	mov	r2, #0
	str	r2, [r3, #0]
	b	.L697
.L700:
	bl	_ZL11IwDebugExitv
	b	.L697
.L699:
	ldr	r3, .L707+4
	mov	r2, #1
	strb	r2, [r3, #0]
	b	.L697
.L706:
	mov	r0, r0	@ nop
.L697:
	mov	r0, #0
	bl	IwDebugAssertSetUID
.L696:
.LBE66:
.LBB67:
	.loc 24 769 0
	ldr	r3, [sp, #0]
	str	r3, [sp, #12]
	b	.L703
.L704:
	ldr	r3, [sp, #12]
	add	r3, r3, #1
	str	r3, [sp, #12]
.L703:
	ldr	r3, [sp, #4]
	ldr	r2, [r3, #4]
	ldr	r3, [sp, #12]
	cmp	r2, r3
	movls	r3, #0
	movhi	r3, #1
	and	r3, r3, #255
	cmp	r3, #0
	bne	.L704
.LBE67:
	.loc 24 771 0
	ldr	r3, [sp, #4]
	ldr	r2, [sp, #0]
	str	r2, [r3, #4]
.LBE65:
	.loc 24 772 0
	add	sp, sp, #20
	ldmfd	sp!, {pc}
.L708:
	.align	2
.L707:
	.word	.LC9
	.word	_ZZN8CIwArrayIP3NPC12CIwAllocatorIS1_15CIwMallocRouterIS1_EE17ReallocateDefaultIS1_S5_EE8truncateEjE21_s_IwAssertIgnoreThis
	.word	.LC13
	.word	.LC12
	.word	767
	.cfi_endproc
.LFE3845:
	.size	_ZN8CIwArrayIP3NPC12CIwAllocatorIS1_15CIwMallocRouterIS1_EE17ReallocateDefaultIS1_S5_EE8truncateEj, .-_ZN8CIwArrayIP3NPC12CIwAllocatorIS1_15CIwMallocRouterIS1_EE17ReallocateDefaultIS1_S5_EE8truncateEj
	.section	.text._ZN8CIwArrayIP3NPC12CIwAllocatorIS1_15CIwMallocRouterIS1_EE17ReallocateDefaultIS1_S5_EE13push_back_qtyEi,"axG",%progbits,_ZN8CIwArrayIP3NPC12CIwAllocatorIS1_15CIwMallocRouterIS1_EE17ReallocateDefaultIS1_S5_EE13push_back_qtyEi,comdat
	.align	2
	.weak	_ZN8CIwArrayIP3NPC12CIwAllocatorIS1_15CIwMallocRouterIS1_EE17ReallocateDefaultIS1_S5_EE13push_back_qtyEi
	.hidden	_ZN8CIwArrayIP3NPC12CIwAllocatorIS1_15CIwMallocRouterIS1_EE17ReallocateDefaultIS1_S5_EE13push_back_qtyEi
	.type	_ZN8CIwArrayIP3NPC12CIwAllocatorIS1_15CIwMallocRouterIS1_EE17ReallocateDefaultIS1_S5_EE13push_back_qtyEi, %function
_ZN8CIwArrayIP3NPC12CIwAllocatorIS1_15CIwMallocRouterIS1_EE17ReallocateDefaultIS1_S5_EE13push_back_qtyEi:
.LFB3846:
	.loc 24 679 0
	.cfi_startproc
	@ args = 0, pretend = 0, frame = 16
	@ frame_needed = 0, uses_anonymous_args = 0
	str	lr, [sp, #-4]!
.LCFI221:
	.cfi_def_cfa_offset 4
	sub	sp, sp, #20
.LCFI222:
	.cfi_def_cfa_offset 24
	str	r0, [sp, #4]
	str	r1, [sp, #0]
.LBB68:
.LBB69:
	.loc 24 681 0
	ldr	r3, [sp, #0]
	cmp	r3, #0
	bge	.L710
	.cfi_offset 14, -4
	ldr	r0, .L723
	bl	IwDebugAssertIsChannelOn
	mov	r3, r0
	cmp	r3, #0
	beq	.L710
	ldr	r3, .L723+4
	ldrb	r3, [r3, #0]	@ zero_extendqisi2
	cmp	r3, #0
	bne	.L710
	mov	r3, #1
	b	.L711
.L710:
	mov	r3, #0
.L711:
	cmp	r3, #0
	beq	.L712
	mov	r0, #0
	bl	IwDebugAssertSetSolution
	mov	r0, #0
	bl	IwDebugAssertSetUID
	mov	r0, #0
	bl	IwDebugAssertSetMessage
	ldr	r0, .L723+8
	ldr	r1, .L723+12
	ldr	r2, .L723+16
	mov	r3, #1
	bl	IwDebugAssertShow
	mov	r3, r0
	cmp	r3, #1
	beq	.L714
	cmp	r3, #2
	beq	.L715
	b	.L713
.L714:
	bl	s3eDebugIsDebuggerPresent
	mov	r3, r0
	cmp	r3, #0
	moveq	r3, #0
	movne	r3, #1
	and	r3, r3, #255
	cmp	r3, #0
	beq	.L716
	bl	s3eDebugIsDebuggerPresent
	mov	r3, r0
	cmp	r3, #0
	moveq	r3, #0
	movne	r3, #1
	and	r3, r3, #255
	cmp	r3, #0
	beq	.L722
	mvn	r3, #11
	mov	r2, #0
	str	r2, [r3, #0]
	b	.L713
.L716:
	bl	_ZL11IwDebugExitv
	b	.L713
.L715:
	ldr	r3, .L723+4
	mov	r2, #1
	strb	r2, [r3, #0]
	b	.L713
.L722:
	mov	r0, r0	@ nop
.L713:
	mov	r0, #0
	bl	IwDebugAssertSetUID
.L712:
.LBE69:
	.loc 24 682 0
	ldr	r3, [sp, #4]
	ldr	r2, [r3, #4]
	ldr	r3, [sp, #0]
	add	r3, r2, r3
	ldr	r0, [sp, #4]
	mov	r1, r3
	bl	_ZN8CIwArrayIP3NPC12CIwAllocatorIS1_15CIwMallocRouterIS1_EE17ReallocateDefaultIS1_S5_EE7reserveEj
.LBB70:
	.loc 24 683 0
	mov	r3, #0
	str	r3, [sp, #12]
	b	.L719
.L720:
	.loc 24 684 0
	ldr	r3, [sp, #4]
	ldr	r2, [r3, #0]
	ldr	r3, [sp, #4]
	ldr	r1, [r3, #4]
	ldr	r3, [sp, #12]
	add	r3, r1, r3
	mov	r3, r3, asl #2
	add	r3, r2, r3
	mov	r0, #4
	mov	r1, r3
	bl	_ZnwjPv
	.loc 24 683 0
	ldr	r3, [sp, #12]
	add	r3, r3, #1
	str	r3, [sp, #12]
.L719:
	ldr	r2, [sp, #12]
	ldr	r3, [sp, #0]
	cmp	r2, r3
	movge	r3, #0
	movlt	r3, #1
	and	r3, r3, #255
	cmp	r3, #0
	bne	.L720
.LBE70:
	.loc 24 685 0
	ldr	r3, [sp, #4]
	ldr	r2, [r3, #4]
	ldr	r3, [sp, #0]
	add	r2, r2, r3
	ldr	r3, [sp, #4]
	str	r2, [r3, #4]
.LBE68:
	.loc 24 686 0
	add	sp, sp, #20
	ldmfd	sp!, {pc}
.L724:
	.align	2
.L723:
	.word	.LC9
	.word	_ZZN8CIwArrayIP3NPC12CIwAllocatorIS1_15CIwMallocRouterIS1_EE17ReallocateDefaultIS1_S5_EE13push_back_qtyEiE21_s_IwAssertIgnoreThis
	.word	.LC21
	.word	.LC12
	.word	681
	.cfi_endproc
.LFE3846:
	.size	_ZN8CIwArrayIP3NPC12CIwAllocatorIS1_15CIwMallocRouterIS1_EE17ReallocateDefaultIS1_S5_EE13push_back_qtyEi, .-_ZN8CIwArrayIP3NPC12CIwAllocatorIS1_15CIwMallocRouterIS1_EE17ReallocateDefaultIS1_S5_EE13push_back_qtyEi
	.section	.text._ZN15CIwMallocRouterIP3NPCE6DoFreeEPv,"axG",%progbits,_ZN15CIwMallocRouterIP3NPCE6DoFreeEPv,comdat
	.align	2
	.weak	_ZN15CIwMallocRouterIP3NPCE6DoFreeEPv
	.hidden	_ZN15CIwMallocRouterIP3NPCE6DoFreeEPv
	.type	_ZN15CIwMallocRouterIP3NPCE6DoFreeEPv, %function
_ZN15CIwMallocRouterIP3NPCE6DoFreeEPv:
.LFB3847:
	.loc 28 93 0
	.cfi_startproc
	@ args = 0, pretend = 0, frame = 8
	@ frame_needed = 0, uses_anonymous_args = 0
	str	lr, [sp, #-4]!
.LCFI223:
	.cfi_def_cfa_offset 4
	sub	sp, sp, #12
.LCFI224:
	.cfi_def_cfa_offset 16
	str	r0, [sp, #4]
	.loc 28 95 0
	ldr	r0, [sp, #4]
	mov	r1, #4
	.cfi_offset 14, -4
	bl	_ZN22CIwDefaultMallocRouter8BaseFreeEPvj
	.loc 28 96 0
	add	sp, sp, #12
	ldmfd	sp!, {pc}
	.cfi_endproc
.LFE3847:
	.size	_ZN15CIwMallocRouterIP3NPCE6DoFreeEPv, .-_ZN15CIwMallocRouterIP3NPCE6DoFreeEPv
	.section	.text._ZN8CIwArrayIPc12CIwAllocatorIS0_15CIwMallocRouterIS0_EE17ReallocateDefaultIS0_S4_EE13push_back_qtyEi,"axG",%progbits,_ZN8CIwArrayIPc12CIwAllocatorIS0_15CIwMallocRouterIS0_EE17ReallocateDefaultIS0_S4_EE13push_back_qtyEi,comdat
	.align	2
	.weak	_ZN8CIwArrayIPc12CIwAllocatorIS0_15CIwMallocRouterIS0_EE17ReallocateDefaultIS0_S4_EE13push_back_qtyEi
	.hidden	_ZN8CIwArrayIPc12CIwAllocatorIS0_15CIwMallocRouterIS0_EE17ReallocateDefaultIS0_S4_EE13push_back_qtyEi
	.type	_ZN8CIwArrayIPc12CIwAllocatorIS0_15CIwMallocRouterIS0_EE17ReallocateDefaultIS0_S4_EE13push_back_qtyEi, %function
_ZN8CIwArrayIPc12CIwAllocatorIS0_15CIwMallocRouterIS0_EE17ReallocateDefaultIS0_S4_EE13push_back_qtyEi:
.LFB3848:
	.loc 24 679 0
	.cfi_startproc
	@ args = 0, pretend = 0, frame = 16
	@ frame_needed = 0, uses_anonymous_args = 0
	str	lr, [sp, #-4]!
.LCFI225:
	.cfi_def_cfa_offset 4
	sub	sp, sp, #20
.LCFI226:
	.cfi_def_cfa_offset 24
	str	r0, [sp, #4]
	str	r1, [sp, #0]
.LBB71:
.LBB72:
	.loc 24 681 0
	ldr	r3, [sp, #0]
	cmp	r3, #0
	bge	.L728
	.cfi_offset 14, -4
	ldr	r0, .L741
	bl	IwDebugAssertIsChannelOn
	mov	r3, r0
	cmp	r3, #0
	beq	.L728
	ldr	r3, .L741+4
	ldrb	r3, [r3, #0]	@ zero_extendqisi2
	cmp	r3, #0
	bne	.L728
	mov	r3, #1
	b	.L729
.L728:
	mov	r3, #0
.L729:
	cmp	r3, #0
	beq	.L730
	mov	r0, #0
	bl	IwDebugAssertSetSolution
	mov	r0, #0
	bl	IwDebugAssertSetUID
	mov	r0, #0
	bl	IwDebugAssertSetMessage
	ldr	r0, .L741+8
	ldr	r1, .L741+12
	ldr	r2, .L741+16
	mov	r3, #1
	bl	IwDebugAssertShow
	mov	r3, r0
	cmp	r3, #1
	beq	.L732
	cmp	r3, #2
	beq	.L733
	b	.L731
.L732:
	bl	s3eDebugIsDebuggerPresent
	mov	r3, r0
	cmp	r3, #0
	moveq	r3, #0
	movne	r3, #1
	and	r3, r3, #255
	cmp	r3, #0
	beq	.L734
	bl	s3eDebugIsDebuggerPresent
	mov	r3, r0
	cmp	r3, #0
	moveq	r3, #0
	movne	r3, #1
	and	r3, r3, #255
	cmp	r3, #0
	beq	.L740
	mvn	r3, #11
	mov	r2, #0
	str	r2, [r3, #0]
	b	.L731
.L734:
	bl	_ZL11IwDebugExitv
	b	.L731
.L733:
	ldr	r3, .L741+4
	mov	r2, #1
	strb	r2, [r3, #0]
	b	.L731
.L740:
	mov	r0, r0	@ nop
.L731:
	mov	r0, #0
	bl	IwDebugAssertSetUID
.L730:
.LBE72:
	.loc 24 682 0
	ldr	r3, [sp, #4]
	ldr	r2, [r3, #4]
	ldr	r3, [sp, #0]
	add	r3, r2, r3
	ldr	r0, [sp, #4]
	mov	r1, r3
	bl	_ZN8CIwArrayIPc12CIwAllocatorIS0_15CIwMallocRouterIS0_EE17ReallocateDefaultIS0_S4_EE7reserveEj
.LBB73:
	.loc 24 683 0
	mov	r3, #0
	str	r3, [sp, #12]
	b	.L737
.L738:
	.loc 24 684 0
	ldr	r3, [sp, #4]
	ldr	r2, [r3, #0]
	ldr	r3, [sp, #4]
	ldr	r1, [r3, #4]
	ldr	r3, [sp, #12]
	add	r3, r1, r3
	mov	r3, r3, asl #2
	add	r3, r2, r3
	mov	r0, #4
	mov	r1, r3
	bl	_ZnwjPv
	.loc 24 683 0
	ldr	r3, [sp, #12]
	add	r3, r3, #1
	str	r3, [sp, #12]
.L737:
	ldr	r2, [sp, #12]
	ldr	r3, [sp, #0]
	cmp	r2, r3
	movge	r3, #0
	movlt	r3, #1
	and	r3, r3, #255
	cmp	r3, #0
	bne	.L738
.LBE73:
	.loc 24 685 0
	ldr	r3, [sp, #4]
	ldr	r2, [r3, #4]
	ldr	r3, [sp, #0]
	add	r2, r2, r3
	ldr	r3, [sp, #4]
	str	r2, [r3, #4]
.LBE71:
	.loc 24 686 0
	add	sp, sp, #20
	ldmfd	sp!, {pc}
.L742:
	.align	2
.L741:
	.word	.LC9
	.word	_ZZN8CIwArrayIPc12CIwAllocatorIS0_15CIwMallocRouterIS0_EE17ReallocateDefaultIS0_S4_EE13push_back_qtyEiE21_s_IwAssertIgnoreThis
	.word	.LC21
	.word	.LC12
	.word	681
	.cfi_endproc
.LFE3848:
	.size	_ZN8CIwArrayIPc12CIwAllocatorIS0_15CIwMallocRouterIS0_EE17ReallocateDefaultIS0_S4_EE13push_back_qtyEi, .-_ZN8CIwArrayIPc12CIwAllocatorIS0_15CIwMallocRouterIS0_EE17ReallocateDefaultIS0_S4_EE13push_back_qtyEi
	.section	.text._ZN15CIwMallocRouterIP3MapE6DoFreeEPv,"axG",%progbits,_ZN15CIwMallocRouterIP3MapE6DoFreeEPv,comdat
	.align	2
	.weak	_ZN15CIwMallocRouterIP3MapE6DoFreeEPv
	.hidden	_ZN15CIwMallocRouterIP3MapE6DoFreeEPv
	.type	_ZN15CIwMallocRouterIP3MapE6DoFreeEPv, %function
_ZN15CIwMallocRouterIP3MapE6DoFreeEPv:
.LFB3855:
	.loc 28 93 0
	.cfi_startproc
	@ args = 0, pretend = 0, frame = 8
	@ frame_needed = 0, uses_anonymous_args = 0
	str	lr, [sp, #-4]!
.LCFI227:
	.cfi_def_cfa_offset 4
	sub	sp, sp, #12
.LCFI228:
	.cfi_def_cfa_offset 16
	str	r0, [sp, #4]
	.loc 28 95 0
	ldr	r0, [sp, #4]
	mov	r1, #4
	.cfi_offset 14, -4
	bl	_ZN22CIwDefaultMallocRouter8BaseFreeEPvj
	.loc 28 96 0
	add	sp, sp, #12
	ldmfd	sp!, {pc}
	.cfi_endproc
.LFE3855:
	.size	_ZN15CIwMallocRouterIP3MapE6DoFreeEPv, .-_ZN15CIwMallocRouterIP3MapE6DoFreeEPv
	.section	.text._ZN4_STL12_String_baseIcNS_9allocatorIcEEE19_M_deallocate_blockEv,"axG",%progbits,_ZN4_STL12_String_baseIcNS_9allocatorIcEEE19_M_deallocate_blockEv,comdat
	.align	2
	.weak	_ZN4_STL12_String_baseIcNS_9allocatorIcEEE19_M_deallocate_blockEv
	.hidden	_ZN4_STL12_String_baseIcNS_9allocatorIcEEE19_M_deallocate_blockEv
	.type	_ZN4_STL12_String_baseIcNS_9allocatorIcEEE19_M_deallocate_blockEv, %function
_ZN4_STL12_String_baseIcNS_9allocatorIcEEE19_M_deallocate_blockEv:
.LFB3856:
	.loc 25 123 0
	.cfi_startproc
	@ args = 0, pretend = 0, frame = 8
	@ frame_needed = 0, uses_anonymous_args = 0
	str	lr, [sp, #-4]!
.LCFI229:
	.cfi_def_cfa_offset 4
	sub	sp, sp, #12
.LCFI230:
	.cfi_def_cfa_offset 16
	str	r0, [sp, #4]
	.loc 25 124 0
	ldr	r3, [sp, #4]
	add	r3, r3, #8
	mov	r1, r3
	ldr	r3, [sp, #4]
	ldr	r2, [r3, #0]
	ldr	r3, [sp, #4]
	ldr	r3, [r3, #8]
	mov	r0, r3
	ldr	r3, [sp, #4]
	ldr	r3, [r3, #0]
	rsb	r3, r3, r0
	mov	r0, r1
	mov	r1, r2
	mov	r2, r3
	.cfi_offset 14, -4
	bl	_ZN4_STL9allocatorIcE10deallocateEPcj
	add	sp, sp, #12
	ldmfd	sp!, {pc}
	.cfi_endproc
.LFE3856:
	.size	_ZN4_STL12_String_baseIcNS_9allocatorIcEEE19_M_deallocate_blockEv, .-_ZN4_STL12_String_baseIcNS_9allocatorIcEEE19_M_deallocate_blockEv
	.section	.text._ZN4_STL9allocatorIcEC2ERKS1_,"axG",%progbits,_ZN4_STL9allocatorIcEC2ERKS1_,comdat
	.align	2
	.weak	_ZN4_STL9allocatorIcEC2ERKS1_
	.hidden	_ZN4_STL9allocatorIcEC2ERKS1_
	.type	_ZN4_STL9allocatorIcEC2ERKS1_, %function
_ZN4_STL9allocatorIcEC2ERKS1_:
.LFB3858:
	.loc 22 349 0
	.cfi_startproc
	@ args = 0, pretend = 0, frame = 8
	@ frame_needed = 0, uses_anonymous_args = 0
	@ link register save eliminated.
	sub	sp, sp, #8
.LCFI231:
	.cfi_def_cfa_offset 8
	str	r0, [sp, #4]
	str	r1, [sp, #0]
	.loc 22 349 0
	ldr	r3, [sp, #4]
	mov	r0, r3
	add	sp, sp, #8
	bx	lr
	.cfi_endproc
.LFE3858:
	.size	_ZN4_STL9allocatorIcEC2ERKS1_, .-_ZN4_STL9allocatorIcEC2ERKS1_
	.section	.text._ZN4_STL17_STLP_alloc_proxyIPccNS_9allocatorIcEEEC1ERKS3_S1_,"axG",%progbits,_ZN4_STL17_STLP_alloc_proxyIPccNS_9allocatorIcEEEC1ERKS3_S1_,comdat
	.align	2
	.weak	_ZN4_STL17_STLP_alloc_proxyIPccNS_9allocatorIcEEEC1ERKS3_S1_
	.hidden	_ZN4_STL17_STLP_alloc_proxyIPccNS_9allocatorIcEEEC1ERKS3_S1_
	.type	_ZN4_STL17_STLP_alloc_proxyIPccNS_9allocatorIcEEEC1ERKS3_S1_, %function
_ZN4_STL17_STLP_alloc_proxyIPccNS_9allocatorIcEEEC1ERKS3_S1_:
.LFB3862:
	.loc 22 487 0
	.cfi_startproc
	@ args = 0, pretend = 0, frame = 16
	@ frame_needed = 0, uses_anonymous_args = 0
	str	lr, [sp, #-4]!
.LCFI232:
	.cfi_def_cfa_offset 4
	sub	sp, sp, #20
.LCFI233:
	.cfi_def_cfa_offset 24
	str	r0, [sp, #12]
	str	r1, [sp, #8]
	str	r2, [sp, #4]
	.loc 22 487 0
	ldr	r3, [sp, #12]
	mov	r0, r3
	ldr	r1, [sp, #8]
	.cfi_offset 14, -4
	bl	_ZN4_STL9allocatorIcEC2ERKS1_
	ldr	r3, [sp, #12]
	ldr	r2, [sp, #4]
	str	r2, [r3, #0]
	ldr	r3, [sp, #12]
	mov	r0, r3
	add	sp, sp, #20
	ldmfd	sp!, {pc}
	.cfi_endproc
.LFE3862:
	.size	_ZN4_STL17_STLP_alloc_proxyIPccNS_9allocatorIcEEEC1ERKS3_S1_, .-_ZN4_STL17_STLP_alloc_proxyIPccNS_9allocatorIcEEEC1ERKS3_S1_
	.section	.text._ZN17ReallocateDefaultIP3Map12CIwAllocatorIS1_15CIwMallocRouterIS1_EEE10ReallocateEjjjPS1_RS5_,"axG",%progbits,_ZN17ReallocateDefaultIP3Map12CIwAllocatorIS1_15CIwMallocRouterIS1_EEE10ReallocateEjjjPS1_RS5_,comdat
	.align	2
	.weak	_ZN17ReallocateDefaultIP3Map12CIwAllocatorIS1_15CIwMallocRouterIS1_EEE10ReallocateEjjjPS1_RS5_
	.hidden	_ZN17ReallocateDefaultIP3Map12CIwAllocatorIS1_15CIwMallocRouterIS1_EEE10ReallocateEjjjPS1_RS5_
	.type	_ZN17ReallocateDefaultIP3Map12CIwAllocatorIS1_15CIwMallocRouterIS1_EEE10ReallocateEjjjPS1_RS5_, %function
_ZN17ReallocateDefaultIP3Map12CIwAllocatorIS1_15CIwMallocRouterIS1_EEE10ReallocateEjjjPS1_RS5_:
.LFB3872:
	.loc 24 52 0
	.cfi_startproc
	@ args = 4, pretend = 0, frame = 16
	@ frame_needed = 0, uses_anonymous_args = 0
	str	lr, [sp, #-4]!
.LCFI234:
	.cfi_def_cfa_offset 4
	sub	sp, sp, #20
.LCFI235:
	.cfi_def_cfa_offset 24
	str	r0, [sp, #12]
	str	r1, [sp, #8]
	str	r2, [sp, #4]
	str	r3, [sp, #0]
	.loc 24 54 0
	ldr	r3, [sp, #12]
	mov	r3, r3, asl #2
	ldr	r0, [sp, #24]
	ldr	r1, [sp, #0]
	mov	r2, r3
	.cfi_offset 14, -4
	bl	_ZN12CIwAllocatorIP3Map15CIwMallocRouterIS1_EE10reallocateEPS1_j
	mov	r3, r0
	.loc 24 55 0
	mov	r0, r3
	add	sp, sp, #20
	ldmfd	sp!, {pc}
	.cfi_endproc
.LFE3872:
	.size	_ZN17ReallocateDefaultIP3Map12CIwAllocatorIS1_15CIwMallocRouterIS1_EEE10ReallocateEjjjPS1_RS5_, .-_ZN17ReallocateDefaultIP3Map12CIwAllocatorIS1_15CIwMallocRouterIS1_EEE10ReallocateEjjjPS1_RS5_
	.section	.text._ZN8CIwArrayIP3Map12CIwAllocatorIS1_15CIwMallocRouterIS1_EE17ReallocateDefaultIS1_S5_EE7reserveEj,"axG",%progbits,_ZN8CIwArrayIP3Map12CIwAllocatorIS1_15CIwMallocRouterIS1_EE17ReallocateDefaultIS1_S5_EE7reserveEj,comdat
	.align	2
	.weak	_ZN8CIwArrayIP3Map12CIwAllocatorIS1_15CIwMallocRouterIS1_EE17ReallocateDefaultIS1_S5_EE7reserveEj
	.hidden	_ZN8CIwArrayIP3Map12CIwAllocatorIS1_15CIwMallocRouterIS1_EE17ReallocateDefaultIS1_S5_EE7reserveEj
	.type	_ZN8CIwArrayIP3Map12CIwAllocatorIS1_15CIwMallocRouterIS1_EE17ReallocateDefaultIS1_S5_EE7reserveEj, %function
_ZN8CIwArrayIP3Map12CIwAllocatorIS1_15CIwMallocRouterIS1_EE17ReallocateDefaultIS1_S5_EE7reserveEj:
.LFB3873:
	.loc 24 253 0
	.cfi_startproc
	@ args = 0, pretend = 0, frame = 8
	@ frame_needed = 0, uses_anonymous_args = 0
	str	lr, [sp, #-4]!
.LCFI236:
	.cfi_def_cfa_offset 4
	sub	sp, sp, #12
.LCFI237:
	.cfi_def_cfa_offset 16
	str	r0, [sp, #4]
	str	r1, [sp, #0]
	.loc 24 255 0
	ldr	r3, [sp, #4]
	ldr	r2, [r3, #8]
	ldr	r3, [sp, #0]
	cmp	r2, r3
	bcs	.L759
	.cfi_offset 14, -4
	.loc 24 257 0
	ldr	r3, [sp, #4]
	ldr	r3, [r3, #8]
	cmp	r3, #15
	bls	.L757
	ldr	r3, [sp, #4]
	ldr	r3, [r3, #8]
	mov	r3, r3, lsr #3
	b	.L758
.L757:
	mov	r3, #2
.L758:
	ldr	r2, [sp, #0]
	add	r3, r3, r2
	ldr	r0, [sp, #4]
	mov	r1, r3
	bl	_ZN8CIwArrayIP3Map12CIwAllocatorIS1_15CIwMallocRouterIS1_EE17ReallocateDefaultIS1_S5_EE12set_capacityEj
.L759:
	.loc 24 259 0
	add	sp, sp, #12
	ldmfd	sp!, {pc}
	.cfi_endproc
.LFE3873:
	.size	_ZN8CIwArrayIP3Map12CIwAllocatorIS1_15CIwMallocRouterIS1_EE17ReallocateDefaultIS1_S5_EE7reserveEj, .-_ZN8CIwArrayIP3Map12CIwAllocatorIS1_15CIwMallocRouterIS1_EE17ReallocateDefaultIS1_S5_EE7reserveEj
	.section	.text._ZN4_STL13basic_ostreamIcNS_11char_traitsIcEEE6sentryC1ERS3_,"axG",%progbits,_ZN4_STL13basic_ostreamIcNS_11char_traitsIcEEE6sentryC1ERS3_,comdat
	.align	2
	.weak	_ZN4_STL13basic_ostreamIcNS_11char_traitsIcEEE6sentryC1ERS3_
	.hidden	_ZN4_STL13basic_ostreamIcNS_11char_traitsIcEEE6sentryC1ERS3_
	.type	_ZN4_STL13basic_ostreamIcNS_11char_traitsIcEEE6sentryC1ERS3_, %function
_ZN4_STL13basic_ostreamIcNS_11char_traitsIcEEE6sentryC1ERS3_:
.LFB3876:
	.loc 26 171 0
	.cfi_startproc
	@ args = 0, pretend = 0, frame = 8
	@ frame_needed = 0, uses_anonymous_args = 0
	str	lr, [sp, #-4]!
.LCFI238:
	.cfi_def_cfa_offset 4
	sub	sp, sp, #12
.LCFI239:
	.cfi_def_cfa_offset 16
	str	r0, [sp, #4]
	str	r1, [sp, #0]
	.loc 26 172 0
	ldr	r3, [sp, #4]
	ldr	r2, [sp, #0]
	str	r2, [r3, #0]
	ldr	r0, [sp, #0]
	.cfi_offset 14, -4
	bl	_ZN4_STL7_M_initIcNS_11char_traitsIcEEEEbRNS_13basic_ostreamIT_T0_EE
	mov	r3, r0
	mov	r2, r3
	ldr	r3, [sp, #4]
	strb	r2, [r3, #4]
	.loc 26 173 0
	ldr	r3, [sp, #4]
	.loc 26 174 0
	mov	r0, r3
	add	sp, sp, #12
	ldmfd	sp!, {pc}
	.cfi_endproc
.LFE3876:
	.size	_ZN4_STL13basic_ostreamIcNS_11char_traitsIcEEE6sentryC1ERS3_, .-_ZN4_STL13basic_ostreamIcNS_11char_traitsIcEEE6sentryC1ERS3_
	.section	.text._ZN4_STL13basic_ostreamIcNS_11char_traitsIcEEE6sentryD1Ev,"axG",%progbits,_ZN4_STL13basic_ostreamIcNS_11char_traitsIcEEE6sentryD1Ev,comdat
	.align	2
	.weak	_ZN4_STL13basic_ostreamIcNS_11char_traitsIcEEE6sentryD1Ev
	.hidden	_ZN4_STL13basic_ostreamIcNS_11char_traitsIcEEE6sentryD1Ev
	.type	_ZN4_STL13basic_ostreamIcNS_11char_traitsIcEEE6sentryD1Ev, %function
_ZN4_STL13basic_ostreamIcNS_11char_traitsIcEEE6sentryD1Ev:
.LFB3879:
	.loc 26 176 0
	.cfi_startproc
	@ args = 0, pretend = 0, frame = 8
	@ frame_needed = 0, uses_anonymous_args = 0
	str	lr, [sp, #-4]!
.LCFI240:
	.cfi_def_cfa_offset 4
	sub	sp, sp, #12
.LCFI241:
	.cfi_def_cfa_offset 16
	str	r0, [sp, #4]
	.loc 26 177 0
	ldr	r3, [sp, #4]
	ldr	r3, [r3, #0]
	mov	r2, r3
	ldr	r3, [sp, #4]
	ldr	r3, [r3, #0]
	ldr	r3, [r3, #0]
	sub	r3, r3, #12
	ldr	r3, [r3, #0]
	add	r3, r2, r3
	mov	r0, r3
	.cfi_offset 14, -4
	bl	_ZNK4_STL8ios_base5flagsEv
	mov	r3, r0
	and	r3, r3, #8192
	cmp	r3, #0
	moveq	r3, #0
	movne	r3, #1
	and	r3, r3, #255
	cmp	r3, #0
	beq	.L764
	.loc 26 181 0
	ldr	r3, [sp, #4]
	ldr	r3, [r3, #0]
	mov	r0, r3
	bl	_ZN4_STL13basic_ostreamIcNS_11char_traitsIcEEE5flushEv
.L764:
	ldr	r3, [sp, #4]
	.loc 26 182 0
	mov	r0, r3
	add	sp, sp, #12
	ldmfd	sp!, {pc}
	.cfi_endproc
.LFE3879:
	.size	_ZN4_STL13basic_ostreamIcNS_11char_traitsIcEEE6sentryD1Ev, .-_ZN4_STL13basic_ostreamIcNS_11char_traitsIcEEE6sentryD1Ev
	.section	.text._ZNK4_STL13basic_ostreamIcNS_11char_traitsIcEEE6sentrycvbEv,"axG",%progbits,_ZNK4_STL13basic_ostreamIcNS_11char_traitsIcEEE6sentrycvbEv,comdat
	.align	2
	.weak	_ZNK4_STL13basic_ostreamIcNS_11char_traitsIcEEE6sentrycvbEv
	.hidden	_ZNK4_STL13basic_ostreamIcNS_11char_traitsIcEEE6sentrycvbEv
	.type	_ZNK4_STL13basic_ostreamIcNS_11char_traitsIcEEE6sentrycvbEv, %function
_ZNK4_STL13basic_ostreamIcNS_11char_traitsIcEEE6sentrycvbEv:
.LFB3880:
	.loc 26 184 0
	.cfi_startproc
	@ args = 0, pretend = 0, frame = 8
	@ frame_needed = 0, uses_anonymous_args = 0
	@ link register save eliminated.
	sub	sp, sp, #8
.LCFI242:
	.cfi_def_cfa_offset 8
	str	r0, [sp, #4]
	.loc 26 184 0
	ldr	r3, [sp, #4]
	ldrb	r3, [r3, #4]	@ zero_extendqisi2
	mov	r0, r3
	add	sp, sp, #8
	bx	lr
	.cfi_endproc
.LFE3880:
	.size	_ZNK4_STL13basic_ostreamIcNS_11char_traitsIcEEE6sentrycvbEv, .-_ZNK4_STL13basic_ostreamIcNS_11char_traitsIcEEE6sentrycvbEv
	.section	.text._ZNK4_STL9basic_iosIcNS_11char_traitsIcEEE5rdbufEv,"axG",%progbits,_ZNK4_STL9basic_iosIcNS_11char_traitsIcEEE5rdbufEv,comdat
	.align	2
	.weak	_ZNK4_STL9basic_iosIcNS_11char_traitsIcEEE5rdbufEv
	.hidden	_ZNK4_STL9basic_iosIcNS_11char_traitsIcEEE5rdbufEv
	.type	_ZNK4_STL9basic_iosIcNS_11char_traitsIcEEE5rdbufEv, %function
_ZNK4_STL9basic_iosIcNS_11char_traitsIcEEE5rdbufEv:
.LFB3881:
	.loc 30 71 0
	.cfi_startproc
	@ args = 0, pretend = 0, frame = 8
	@ frame_needed = 0, uses_anonymous_args = 0
	@ link register save eliminated.
	sub	sp, sp, #8
.LCFI243:
	.cfi_def_cfa_offset 8
	str	r0, [sp, #4]
	.loc 30 72 0
	ldr	r3, [sp, #4]
	ldr	r3, [r3, #88]
	mov	r0, r3
	add	sp, sp, #8
	bx	lr
	.cfi_endproc
.LFE3881:
	.size	_ZNK4_STL9basic_iosIcNS_11char_traitsIcEEE5rdbufEv, .-_ZNK4_STL9basic_iosIcNS_11char_traitsIcEEE5rdbufEv
	.section	.text._ZN4_STL15basic_streambufIcNS_11char_traitsIcEEE5sputnEPKci,"axG",%progbits,_ZN4_STL15basic_streambufIcNS_11char_traitsIcEEE5sputnEPKci,comdat
	.align	2
	.weak	_ZN4_STL15basic_streambufIcNS_11char_traitsIcEEE5sputnEPKci
	.hidden	_ZN4_STL15basic_streambufIcNS_11char_traitsIcEEE5sputnEPKci
	.type	_ZN4_STL15basic_streambufIcNS_11char_traitsIcEEE5sputnEPKci, %function
_ZN4_STL15basic_streambufIcNS_11char_traitsIcEEE5sputnEPKci:
.LFB3882:
	.file 31 "c:/marmalade/6.2/s3e/h/std/c++/stl/_streambuf.h"
	.loc 31 208 0
	.cfi_startproc
	@ args = 0, pretend = 0, frame = 16
	@ frame_needed = 0, uses_anonymous_args = 0
	str	lr, [sp, #-4]!
.LCFI244:
	.cfi_def_cfa_offset 4
	sub	sp, sp, #20
.LCFI245:
	.cfi_def_cfa_offset 24
	str	r0, [sp, #12]
	str	r1, [sp, #8]
	str	r2, [sp, #4]
	.loc 31 209 0
	ldr	r3, [sp, #12]
	ldr	r3, [r3, #0]
	add	r3, r3, #44
	ldr	r3, [r3, #0]
	ldr	r0, [sp, #12]
	ldr	r1, [sp, #8]
	ldr	r2, [sp, #4]
	.cfi_offset 14, -4
	blx	r3
	mov	r3, r0
	mov	r0, r3
	add	sp, sp, #20
	ldmfd	sp!, {pc}
	.cfi_endproc
.LFE3882:
	.size	_ZN4_STL15basic_streambufIcNS_11char_traitsIcEEE5sputnEPKci, .-_ZN4_STL15basic_streambufIcNS_11char_traitsIcEEE5sputnEPKci
	.section	.text._ZNK4_STL9basic_iosIcNS_11char_traitsIcEEE4fillEv,"axG",%progbits,_ZNK4_STL9basic_iosIcNS_11char_traitsIcEEE4fillEv,comdat
	.align	2
	.weak	_ZNK4_STL9basic_iosIcNS_11char_traitsIcEEE4fillEv
	.hidden	_ZNK4_STL9basic_iosIcNS_11char_traitsIcEEE4fillEv
	.type	_ZNK4_STL9basic_iosIcNS_11char_traitsIcEEE4fillEv, %function
_ZNK4_STL9basic_iosIcNS_11char_traitsIcEEE4fillEv:
.LFB3883:
	.loc 30 80 0
	.cfi_startproc
	@ args = 0, pretend = 0, frame = 8
	@ frame_needed = 0, uses_anonymous_args = 0
	@ link register save eliminated.
	sub	sp, sp, #8
.LCFI246:
	.cfi_def_cfa_offset 8
	str	r0, [sp, #4]
	.loc 30 80 0
	ldr	r3, [sp, #4]
	ldrb	r3, [r3, #84]	@ zero_extendqisi2
	mov	r0, r3
	add	sp, sp, #8
	bx	lr
	.cfi_endproc
.LFE3883:
	.size	_ZNK4_STL9basic_iosIcNS_11char_traitsIcEEE4fillEv, .-_ZNK4_STL9basic_iosIcNS_11char_traitsIcEEE4fillEv
	.section	.text._ZN4_STL15basic_streambufIcNS_11char_traitsIcEEE9_M_sputncEci,"axG",%progbits,_ZN4_STL15basic_streambufIcNS_11char_traitsIcEEE9_M_sputncEci,comdat
	.align	2
	.weak	_ZN4_STL15basic_streambufIcNS_11char_traitsIcEEE9_M_sputncEci
	.hidden	_ZN4_STL15basic_streambufIcNS_11char_traitsIcEEE9_M_sputncEci
	.type	_ZN4_STL15basic_streambufIcNS_11char_traitsIcEEE9_M_sputncEci, %function
_ZN4_STL15basic_streambufIcNS_11char_traitsIcEEE9_M_sputncEci:
.LFB3884:
	.loc 31 212 0
	.cfi_startproc
	@ args = 0, pretend = 0, frame = 16
	@ frame_needed = 0, uses_anonymous_args = 0
	str	lr, [sp, #-4]!
.LCFI247:
	.cfi_def_cfa_offset 4
	sub	sp, sp, #20
.LCFI248:
	.cfi_def_cfa_offset 24
	str	r0, [sp, #12]
	mov	r3, r1
	str	r2, [sp, #4]
	strb	r3, [sp, #11]
	.loc 31 213 0
	ldr	r3, [sp, #12]
	ldr	r3, [r3, #0]
	add	r3, r3, #48
	ldr	r3, [r3, #0]
	ldrb	r2, [sp, #11]	@ zero_extendqisi2
	ldr	r0, [sp, #12]
	mov	r1, r2
	ldr	r2, [sp, #4]
	.cfi_offset 14, -4
	blx	r3
	mov	r3, r0
	mov	r0, r3
	add	sp, sp, #20
	ldmfd	sp!, {pc}
	.cfi_endproc
.LFE3884:
	.size	_ZN4_STL15basic_streambufIcNS_11char_traitsIcEEE9_M_sputncEci, .-_ZN4_STL15basic_streambufIcNS_11char_traitsIcEEE9_M_sputncEci
	.section	.text._ZN4_STL9basic_iosIcNS_11char_traitsIcEEE8setstateEi,"axG",%progbits,_ZN4_STL9basic_iosIcNS_11char_traitsIcEEE8setstateEi,comdat
	.align	2
	.weak	_ZN4_STL9basic_iosIcNS_11char_traitsIcEEE8setstateEi
	.hidden	_ZN4_STL9basic_iosIcNS_11char_traitsIcEEE8setstateEi
	.type	_ZN4_STL9basic_iosIcNS_11char_traitsIcEEE8setstateEi, %function
_ZN4_STL9basic_iosIcNS_11char_traitsIcEEE8setstateEi:
.LFB3886:
	.loc 30 94 0
	.cfi_startproc
	@ args = 0, pretend = 0, frame = 8
	@ frame_needed = 0, uses_anonymous_args = 0
	str	lr, [sp, #-4]!
.LCFI249:
	.cfi_def_cfa_offset 4
	sub	sp, sp, #12
.LCFI250:
	.cfi_def_cfa_offset 16
	str	r0, [sp, #4]
	str	r1, [sp, #0]
	.loc 30 94 0
	ldr	r3, [sp, #4]
	mov	r0, r3
	.cfi_offset 14, -4
	bl	_ZNK4_STL8ios_base7rdstateEv
	mov	r2, r0
	ldr	r3, [sp, #0]
	orr	r3, r2, r3
	ldr	r0, [sp, #4]
	mov	r1, r3
	bl	_ZN4_STL9basic_iosIcNS_11char_traitsIcEEE5clearEi
	add	sp, sp, #12
	ldmfd	sp!, {pc}
	.cfi_endproc
.LFE3886:
	.size	_ZN4_STL9basic_iosIcNS_11char_traitsIcEEE8setstateEi, .-_ZN4_STL9basic_iosIcNS_11char_traitsIcEEE8setstateEi
	.section	.text._ZN4_STL15basic_streambufIcNS_11char_traitsIcEEE5sputcEc,"axG",%progbits,_ZN4_STL15basic_streambufIcNS_11char_traitsIcEEE5sputcEc,comdat
	.align	2
	.weak	_ZN4_STL15basic_streambufIcNS_11char_traitsIcEEE5sputcEc
	.hidden	_ZN4_STL15basic_streambufIcNS_11char_traitsIcEEE5sputcEc
	.type	_ZN4_STL15basic_streambufIcNS_11char_traitsIcEEE5sputcEc, %function
_ZN4_STL15basic_streambufIcNS_11char_traitsIcEEE5sputcEc:
.LFB3887:
	.loc 31 202 0
	.cfi_startproc
	@ args = 0, pretend = 0, frame = 8
	@ frame_needed = 0, uses_anonymous_args = 0
	stmfd	sp!, {r4, lr}
.LCFI251:
	.cfi_def_cfa_offset 8
	sub	sp, sp, #8
.LCFI252:
	.cfi_def_cfa_offset 16
	str	r0, [sp, #4]
	mov	r3, r1
	strb	r3, [sp, #3]
	.loc 31 204 0
	ldr	r3, [sp, #4]
	ldr	r2, [r3, #20]
	ldr	r3, [sp, #4]
	ldr	r3, [r3, #24]
	cmp	r2, r3
	bcs	.L779
	.cfi_offset 14, -4
	.cfi_offset 4, -8
	ldr	r3, [sp, #4]
	ldr	r2, [r3, #20]
	mov	r3, r2
	ldrb	r1, [sp, #3]	@ zero_extendqisi2
	strb	r1, [r3, #0]
	add	r1, r2, #1
	ldr	r2, [sp, #4]
	str	r1, [r2, #20]
	mov	r0, r3
	bl	_ZN4_STL11char_traitsIcE11to_int_typeERKc
	mov	r3, r0
	b	.L780
.L779:
	ldr	r3, [sp, #4]
	ldr	r3, [r3, #0]
	add	r3, r3, #52
	ldr	r4, [r3, #0]
	add	r3, sp, #3
	mov	r0, r3
	bl	_ZN4_STL11char_traitsIcE11to_int_typeERKc
	mov	r3, r0
	ldr	r0, [sp, #4]
	mov	r1, r3
	blx	r4
	mov	r3, r0
.L780:
	.loc 31 205 0
	mov	r0, r3
	add	sp, sp, #8
	ldmfd	sp!, {r4, pc}
	.cfi_endproc
.LFE3887:
	.size	_ZN4_STL15basic_streambufIcNS_11char_traitsIcEEE5sputcEc, .-_ZN4_STL15basic_streambufIcNS_11char_traitsIcEEE5sputcEc
	.section	.text._ZN4_STL9basic_iosIcNS_11char_traitsIcEEE6_S_eofEi,"axG",%progbits,_ZN4_STL9basic_iosIcNS_11char_traitsIcEEE6_S_eofEi,comdat
	.align	2
	.weak	_ZN4_STL9basic_iosIcNS_11char_traitsIcEEE6_S_eofEi
	.hidden	_ZN4_STL9basic_iosIcNS_11char_traitsIcEEE6_S_eofEi
	.type	_ZN4_STL9basic_iosIcNS_11char_traitsIcEEE6_S_eofEi, %function
_ZN4_STL9basic_iosIcNS_11char_traitsIcEEE6_S_eofEi:
.LFB3888:
	.loc 30 109 0
	.cfi_startproc
	@ args = 0, pretend = 0, frame = 16
	@ frame_needed = 0, uses_anonymous_args = 0
	str	lr, [sp, #-4]!
.LCFI253:
	.cfi_def_cfa_offset 4
	sub	sp, sp, #20
.LCFI254:
	.cfi_def_cfa_offset 24
	str	r0, [sp, #4]
.LBB74:
	.loc 30 110 0
	.cfi_offset 14, -4
	bl	_ZN4_STL18__char_traits_baseIciE3eofEv
	mov	r3, r0
	str	r3, [sp, #12]
	.loc 30 111 0
	add	r2, sp, #4
	add	r3, sp, #12
	mov	r0, r2
	mov	r1, r3
	bl	_ZN4_STL18__char_traits_baseIciE11eq_int_typeERKiS3_
	mov	r3, r0
.LBE74:
	.loc 30 112 0
	mov	r0, r3
	add	sp, sp, #20
	ldmfd	sp!, {pc}
	.cfi_endproc
.LFE3888:
	.size	_ZN4_STL9basic_iosIcNS_11char_traitsIcEEE6_S_eofEi, .-_ZN4_STL9basic_iosIcNS_11char_traitsIcEEE6_S_eofEi
	.section	.text._ZN4_STL15basic_streambufIcNS_11char_traitsIcEEE7pubsyncEv,"axG",%progbits,_ZN4_STL15basic_streambufIcNS_11char_traitsIcEEE7pubsyncEv,comdat
	.align	2
	.weak	_ZN4_STL15basic_streambufIcNS_11char_traitsIcEEE7pubsyncEv
	.hidden	_ZN4_STL15basic_streambufIcNS_11char_traitsIcEEE7pubsyncEv
	.type	_ZN4_STL15basic_streambufIcNS_11char_traitsIcEEE7pubsyncEv, %function
_ZN4_STL15basic_streambufIcNS_11char_traitsIcEEE7pubsyncEv:
.LFB3889:
	.loc 31 157 0
	.cfi_startproc
	@ args = 0, pretend = 0, frame = 8
	@ frame_needed = 0, uses_anonymous_args = 0
	str	lr, [sp, #-4]!
.LCFI255:
	.cfi_def_cfa_offset 4
	sub	sp, sp, #12
.LCFI256:
	.cfi_def_cfa_offset 16
	str	r0, [sp, #4]
	.loc 31 157 0
	ldr	r3, [sp, #4]
	ldr	r3, [r3, #0]
	add	r3, r3, #20
	ldr	r3, [r3, #0]
	ldr	r0, [sp, #4]
	.cfi_offset 14, -4
	blx	r3
	mov	r3, r0
	mov	r0, r3
	add	sp, sp, #12
	ldmfd	sp!, {pc}
	.cfi_endproc
.LFE3889:
	.size	_ZN4_STL15basic_streambufIcNS_11char_traitsIcEEE7pubsyncEv, .-_ZN4_STL15basic_streambufIcNS_11char_traitsIcEEE7pubsyncEv
	.section	.text._ZN4_STL12basic_stringIcNS_11char_traitsIcEENS_9allocatorIcEEE19_M_range_initializeIPKcEEvT_S9_RKNS_20forward_iterator_tagE,"axG",%progbits,_ZN4_STL12basic_stringIcNS_11char_traitsIcEENS_9allocatorIcEEE19_M_range_initializeIPKcEEvT_S9_RKNS_20forward_iterator_tagE,comdat
	.align	2
	.weak	_ZN4_STL12basic_stringIcNS_11char_traitsIcEENS_9allocatorIcEEE19_M_range_initializeIPKcEEvT_S9_RKNS_20forward_iterator_tagE
	.hidden	_ZN4_STL12basic_stringIcNS_11char_traitsIcEENS_9allocatorIcEEE19_M_range_initializeIPKcEEvT_S9_RKNS_20forward_iterator_tagE
	.type	_ZN4_STL12basic_stringIcNS_11char_traitsIcEENS_9allocatorIcEEE19_M_range_initializeIPKcEEvT_S9_RKNS_20forward_iterator_tagE, %function
_ZN4_STL12basic_stringIcNS_11char_traitsIcEENS_9allocatorIcEEE19_M_range_initializeIPKcEEvT_S9_RKNS_20forward_iterator_tagE:
.LFB3890:
	.loc 25 382 0
	.cfi_startproc
	@ args = 0, pretend = 0, frame = 24
	@ frame_needed = 0, uses_anonymous_args = 0
	str	lr, [sp, #-4]!
.LCFI257:
	.cfi_def_cfa_offset 4
	sub	sp, sp, #28
.LCFI258:
	.cfi_def_cfa_offset 32
	str	r0, [sp, #12]
	str	r1, [sp, #8]
	str	r2, [sp, #4]
	str	r3, [sp, #0]
.LBB75:
	.loc 25 384 0
	add	r2, sp, #8
	add	r3, sp, #4
	mov	r0, r2
	mov	r1, r3
	.cfi_offset 14, -4
	bl	_ZN4_STL8distanceIPKcEENS_15iterator_traitsIT_E15difference_typeERKS4_S8_
	mov	r3, r0
	str	r3, [sp, #20]
	.loc 25 385 0
	ldr	r2, [sp, #12]
	ldr	r3, [sp, #20]
	add	r3, r3, #1
	mov	r0, r2
	mov	r1, r3
	bl	_ZN4_STL12_String_baseIcNS_9allocatorIcEEE17_M_allocate_blockEj
	.loc 25 386 0
	ldr	r1, [sp, #8]
	ldr	r2, [sp, #4]
	ldr	r3, [sp, #12]
	ldr	r3, [r3, #0]
	mov	r0, r1
	mov	r1, r2
	mov	r2, r3
	bl	_ZN4_STL18uninitialized_copyEPKcS1_Pc
	mov	r2, r0
	ldr	r3, [sp, #12]
	str	r2, [r3, #4]
	.loc 25 387 0
	ldr	r0, [sp, #12]
	bl	_ZN4_STL12basic_stringIcNS_11char_traitsIcEENS_9allocatorIcEEE19_M_terminate_stringEv
.LBE75:
	.loc 25 388 0
	add	sp, sp, #28
	ldmfd	sp!, {pc}
	.cfi_endproc
.LFE3890:
	.size	_ZN4_STL12basic_stringIcNS_11char_traitsIcEENS_9allocatorIcEEE19_M_range_initializeIPKcEEvT_S9_RKNS_20forward_iterator_tagE, .-_ZN4_STL12basic_stringIcNS_11char_traitsIcEENS_9allocatorIcEEE19_M_range_initializeIPKcEEvT_S9_RKNS_20forward_iterator_tagE
	.section	.text._ZN4_STL9allocatorI8ObstacleEC2ERKS2_,"axG",%progbits,_ZN4_STL9allocatorI8ObstacleEC2ERKS2_,comdat
	.align	2
	.weak	_ZN4_STL9allocatorI8ObstacleEC2ERKS2_
	.hidden	_ZN4_STL9allocatorI8ObstacleEC2ERKS2_
	.type	_ZN4_STL9allocatorI8ObstacleEC2ERKS2_, %function
_ZN4_STL9allocatorI8ObstacleEC2ERKS2_:
.LFB3898:
	.loc 22 349 0
	.cfi_startproc
	@ args = 0, pretend = 0, frame = 8
	@ frame_needed = 0, uses_anonymous_args = 0
	@ link register save eliminated.
	sub	sp, sp, #8
.LCFI259:
	.cfi_def_cfa_offset 8
	str	r0, [sp, #4]
	str	r1, [sp, #0]
	.loc 22 349 0
	ldr	r3, [sp, #4]
	mov	r0, r3
	add	sp, sp, #8
	bx	lr
	.cfi_endproc
.LFE3898:
	.size	_ZN4_STL9allocatorI8ObstacleEC2ERKS2_, .-_ZN4_STL9allocatorI8ObstacleEC2ERKS2_
	.section	.text._ZN4_STL14__malloc_allocILi0EE10deallocateEPvj,"axG",%progbits,_ZN4_STL14__malloc_allocILi0EE10deallocateEPvj,comdat
	.align	2
	.weak	_ZN4_STL14__malloc_allocILi0EE10deallocateEPvj
	.hidden	_ZN4_STL14__malloc_allocILi0EE10deallocateEPvj
	.type	_ZN4_STL14__malloc_allocILi0EE10deallocateEPvj, %function
_ZN4_STL14__malloc_allocILi0EE10deallocateEPvj:
.LFB3900:
	.loc 22 114 0
	.cfi_startproc
	@ args = 0, pretend = 0, frame = 8
	@ frame_needed = 0, uses_anonymous_args = 0
	str	lr, [sp, #-4]!
.LCFI260:
	.cfi_def_cfa_offset 4
	sub	sp, sp, #12
.LCFI261:
	.cfi_def_cfa_offset 16
	str	r0, [sp, #4]
	str	r1, [sp, #0]
	.loc 22 114 0
	ldr	r3, [sp, #4]
	mov	r0, r3
	.cfi_offset 14, -4
	bl	free
	add	sp, sp, #12
	ldmfd	sp!, {pc}
	.cfi_endproc
.LFE3900:
	.size	_ZN4_STL14__malloc_allocILi0EE10deallocateEPvj, .-_ZN4_STL14__malloc_allocILi0EE10deallocateEPvj
	.section	.text._ZN4_STL13__destroy_auxIP8ObstacleEEvT_S3_RKNS_12__false_typeE,"axG",%progbits,_ZN4_STL13__destroy_auxIP8ObstacleEEvT_S3_RKNS_12__false_typeE,comdat
	.align	2
	.weak	_ZN4_STL13__destroy_auxIP8ObstacleEEvT_S3_RKNS_12__false_typeE
	.hidden	_ZN4_STL13__destroy_auxIP8ObstacleEEvT_S3_RKNS_12__false_typeE
	.type	_ZN4_STL13__destroy_auxIP8ObstacleEEvT_S3_RKNS_12__false_typeE, %function
_ZN4_STL13__destroy_auxIP8ObstacleEEvT_S3_RKNS_12__false_typeE:
.LFB3901:
	.loc 6 122 0
	.cfi_startproc
	@ args = 0, pretend = 0, frame = 16
	@ frame_needed = 0, uses_anonymous_args = 0
	str	lr, [sp, #-4]!
.LCFI262:
	.cfi_def_cfa_offset 4
	sub	sp, sp, #20
.LCFI263:
	.cfi_def_cfa_offset 24
	str	r0, [sp, #12]
	str	r1, [sp, #8]
	str	r2, [sp, #4]
	.loc 6 123 0
	b	.L794
	.cfi_offset 14, -4
.L795:
	.loc 6 124 0
	ldr	r0, [sp, #12]
	bl	_ZN4_STL8_DestroyI8ObstacleEEvPT_
	.loc 6 123 0
	ldr	r3, [sp, #12]
	add	r3, r3, #16
	str	r3, [sp, #12]
.L794:
	ldr	r2, [sp, #12]
	ldr	r3, [sp, #8]
	cmp	r2, r3
	moveq	r3, #0
	movne	r3, #1
	and	r3, r3, #255
	cmp	r3, #0
	bne	.L795
	.loc 6 125 0
	add	sp, sp, #20
	ldmfd	sp!, {pc}
	.cfi_endproc
.LFE3901:
	.size	_ZN4_STL13__destroy_auxIP8ObstacleEEvT_S3_RKNS_12__false_typeE, .-_ZN4_STL13__destroy_auxIP8ObstacleEEvT_S3_RKNS_12__false_typeE
	.section	.text._ZN8CIwArrayIi12CIwAllocatorIi15CIwMallocRouterIiEE17ReallocateDefaultIiS3_EE7reserveEj,"axG",%progbits,_ZN8CIwArrayIi12CIwAllocatorIi15CIwMallocRouterIiEE17ReallocateDefaultIiS3_EE7reserveEj,comdat
	.align	2
	.weak	_ZN8CIwArrayIi12CIwAllocatorIi15CIwMallocRouterIiEE17ReallocateDefaultIiS3_EE7reserveEj
	.hidden	_ZN8CIwArrayIi12CIwAllocatorIi15CIwMallocRouterIiEE17ReallocateDefaultIiS3_EE7reserveEj
	.type	_ZN8CIwArrayIi12CIwAllocatorIi15CIwMallocRouterIiEE17ReallocateDefaultIiS3_EE7reserveEj, %function
_ZN8CIwArrayIi12CIwAllocatorIi15CIwMallocRouterIiEE17ReallocateDefaultIiS3_EE7reserveEj:
.LFB3902:
	.loc 24 253 0
	.cfi_startproc
	@ args = 0, pretend = 0, frame = 8
	@ frame_needed = 0, uses_anonymous_args = 0
	str	lr, [sp, #-4]!
.LCFI264:
	.cfi_def_cfa_offset 4
	sub	sp, sp, #12
.LCFI265:
	.cfi_def_cfa_offset 16
	str	r0, [sp, #4]
	str	r1, [sp, #0]
	.loc 24 255 0
	ldr	r3, [sp, #4]
	ldr	r2, [r3, #8]
	ldr	r3, [sp, #0]
	cmp	r2, r3
	bcs	.L801
	.cfi_offset 14, -4
	.loc 24 257 0
	ldr	r3, [sp, #4]
	ldr	r3, [r3, #8]
	cmp	r3, #15
	bls	.L799
	ldr	r3, [sp, #4]
	ldr	r3, [r3, #8]
	mov	r3, r3, lsr #3
	b	.L800
.L799:
	mov	r3, #2
.L800:
	ldr	r2, [sp, #0]
	add	r3, r3, r2
	ldr	r0, [sp, #4]
	mov	r1, r3
	bl	_ZN8CIwArrayIi12CIwAllocatorIi15CIwMallocRouterIiEE17ReallocateDefaultIiS3_EE12set_capacityEj
.L801:
	.loc 24 259 0
	add	sp, sp, #12
	ldmfd	sp!, {pc}
	.cfi_endproc
.LFE3902:
	.size	_ZN8CIwArrayIi12CIwAllocatorIi15CIwMallocRouterIiEE17ReallocateDefaultIiS3_EE7reserveEj, .-_ZN8CIwArrayIi12CIwAllocatorIi15CIwMallocRouterIiEE17ReallocateDefaultIiS3_EE7reserveEj
	.section	.text._ZN12CIwAllocatorIi15CIwMallocRouterIiEE10reallocateEPij,"axG",%progbits,_ZN12CIwAllocatorIi15CIwMallocRouterIiEE10reallocateEPij,comdat
	.align	2
	.weak	_ZN12CIwAllocatorIi15CIwMallocRouterIiEE10reallocateEPij
	.hidden	_ZN12CIwAllocatorIi15CIwMallocRouterIiEE10reallocateEPij
	.type	_ZN12CIwAllocatorIi15CIwMallocRouterIiEE10reallocateEPij, %function
_ZN12CIwAllocatorIi15CIwMallocRouterIiEE10reallocateEPij:
.LFB3903:
	.loc 28 142 0
	.cfi_startproc
	@ args = 0, pretend = 0, frame = 16
	@ frame_needed = 0, uses_anonymous_args = 0
	str	lr, [sp, #-4]!
.LCFI266:
	.cfi_def_cfa_offset 4
	sub	sp, sp, #20
.LCFI267:
	.cfi_def_cfa_offset 24
	str	r0, [sp, #12]
	str	r1, [sp, #8]
	str	r2, [sp, #4]
	.loc 28 144 0
	ldr	r0, [sp, #8]
	ldr	r1, [sp, #4]
	.cfi_offset 14, -4
	bl	_ZN15CIwMallocRouterIiE9DoReallocEPvj
	mov	r3, r0
	.loc 28 145 0
	mov	r0, r3
	add	sp, sp, #20
	ldmfd	sp!, {pc}
	.cfi_endproc
.LFE3903:
	.size	_ZN12CIwAllocatorIi15CIwMallocRouterIiEE10reallocateEPij, .-_ZN12CIwAllocatorIi15CIwMallocRouterIiEE10reallocateEPij
	.section	.text._ZN12CIwAllocatorIP10CIw2DImage15CIwMallocRouterIS1_EE10reallocateEPS1_j,"axG",%progbits,_ZN12CIwAllocatorIP10CIw2DImage15CIwMallocRouterIS1_EE10reallocateEPS1_j,comdat
	.align	2
	.weak	_ZN12CIwAllocatorIP10CIw2DImage15CIwMallocRouterIS1_EE10reallocateEPS1_j
	.hidden	_ZN12CIwAllocatorIP10CIw2DImage15CIwMallocRouterIS1_EE10reallocateEPS1_j
	.type	_ZN12CIwAllocatorIP10CIw2DImage15CIwMallocRouterIS1_EE10reallocateEPS1_j, %function
_ZN12CIwAllocatorIP10CIw2DImage15CIwMallocRouterIS1_EE10reallocateEPS1_j:
.LFB3910:
	.loc 28 142 0
	.cfi_startproc
	@ args = 0, pretend = 0, frame = 16
	@ frame_needed = 0, uses_anonymous_args = 0
	str	lr, [sp, #-4]!
.LCFI268:
	.cfi_def_cfa_offset 4
	sub	sp, sp, #20
.LCFI269:
	.cfi_def_cfa_offset 24
	str	r0, [sp, #12]
	str	r1, [sp, #8]
	str	r2, [sp, #4]
	.loc 28 144 0
	ldr	r0, [sp, #8]
	ldr	r1, [sp, #4]
	.cfi_offset 14, -4
	bl	_ZN15CIwMallocRouterIP10CIw2DImageE9DoReallocEPvj
	mov	r3, r0
	.loc 28 145 0
	mov	r0, r3
	add	sp, sp, #20
	ldmfd	sp!, {pc}
	.cfi_endproc
.LFE3910:
	.size	_ZN12CIwAllocatorIP10CIw2DImage15CIwMallocRouterIS1_EE10reallocateEPS1_j, .-_ZN12CIwAllocatorIP10CIw2DImage15CIwMallocRouterIS1_EE10reallocateEPS1_j
	.section	.text._ZN12CIwAllocatorIPc15CIwMallocRouterIS0_EE10reallocateEPS0_j,"axG",%progbits,_ZN12CIwAllocatorIPc15CIwMallocRouterIS0_EE10reallocateEPS0_j,comdat
	.align	2
	.weak	_ZN12CIwAllocatorIPc15CIwMallocRouterIS0_EE10reallocateEPS0_j
	.hidden	_ZN12CIwAllocatorIPc15CIwMallocRouterIS0_EE10reallocateEPS0_j
	.type	_ZN12CIwAllocatorIPc15CIwMallocRouterIS0_EE10reallocateEPS0_j, %function
_ZN12CIwAllocatorIPc15CIwMallocRouterIS0_EE10reallocateEPS0_j:
.LFB3911:
	.loc 28 142 0
	.cfi_startproc
	@ args = 0, pretend = 0, frame = 16
	@ frame_needed = 0, uses_anonymous_args = 0
	str	lr, [sp, #-4]!
.LCFI270:
	.cfi_def_cfa_offset 4
	sub	sp, sp, #20
.LCFI271:
	.cfi_def_cfa_offset 24
	str	r0, [sp, #12]
	str	r1, [sp, #8]
	str	r2, [sp, #4]
	.loc 28 144 0
	ldr	r0, [sp, #8]
	ldr	r1, [sp, #4]
	.cfi_offset 14, -4
	bl	_ZN15CIwMallocRouterIPcE9DoReallocEPvj
	mov	r3, r0
	.loc 28 145 0
	mov	r0, r3
	add	sp, sp, #20
	ldmfd	sp!, {pc}
	.cfi_endproc
.LFE3911:
	.size	_ZN12CIwAllocatorIPc15CIwMallocRouterIS0_EE10reallocateEPS0_j, .-_ZN12CIwAllocatorIPc15CIwMallocRouterIS0_EE10reallocateEPS0_j
	.section	.text._ZN8CIwArrayI12TileObstacle12CIwAllocatorIS0_15CIwMallocRouterIS0_EE17ReallocateDefaultIS0_S4_EE7reserveEj,"axG",%progbits,_ZN8CIwArrayI12TileObstacle12CIwAllocatorIS0_15CIwMallocRouterIS0_EE17ReallocateDefaultIS0_S4_EE7reserveEj,comdat
	.align	2
	.weak	_ZN8CIwArrayI12TileObstacle12CIwAllocatorIS0_15CIwMallocRouterIS0_EE17ReallocateDefaultIS0_S4_EE7reserveEj
	.hidden	_ZN8CIwArrayI12TileObstacle12CIwAllocatorIS0_15CIwMallocRouterIS0_EE17ReallocateDefaultIS0_S4_EE7reserveEj
	.type	_ZN8CIwArrayI12TileObstacle12CIwAllocatorIS0_15CIwMallocRouterIS0_EE17ReallocateDefaultIS0_S4_EE7reserveEj, %function
_ZN8CIwArrayI12TileObstacle12CIwAllocatorIS0_15CIwMallocRouterIS0_EE17ReallocateDefaultIS0_S4_EE7reserveEj:
.LFB3912:
	.loc 24 253 0
	.cfi_startproc
	@ args = 0, pretend = 0, frame = 8
	@ frame_needed = 0, uses_anonymous_args = 0
	str	lr, [sp, #-4]!
.LCFI272:
	.cfi_def_cfa_offset 4
	sub	sp, sp, #12
.LCFI273:
	.cfi_def_cfa_offset 16
	str	r0, [sp, #4]
	str	r1, [sp, #0]
	.loc 24 255 0
	ldr	r3, [sp, #4]
	ldr	r2, [r3, #8]
	ldr	r3, [sp, #0]
	cmp	r2, r3
	bcs	.L812
	.cfi_offset 14, -4
	.loc 24 257 0
	ldr	r3, [sp, #4]
	ldr	r3, [r3, #8]
	cmp	r3, #15
	bls	.L810
	ldr	r3, [sp, #4]
	ldr	r3, [r3, #8]
	mov	r3, r3, lsr #3
	b	.L811
.L810:
	mov	r3, #2
.L811:
	ldr	r2, [sp, #0]
	add	r3, r3, r2
	ldr	r0, [sp, #4]
	mov	r1, r3
	bl	_ZN8CIwArrayI12TileObstacle12CIwAllocatorIS0_15CIwMallocRouterIS0_EE17ReallocateDefaultIS0_S4_EE12set_capacityEj
.L812:
	.loc 24 259 0
	add	sp, sp, #12
	ldmfd	sp!, {pc}
	.cfi_endproc
.LFE3912:
	.size	_ZN8CIwArrayI12TileObstacle12CIwAllocatorIS0_15CIwMallocRouterIS0_EE17ReallocateDefaultIS0_S4_EE7reserveEj, .-_ZN8CIwArrayI12TileObstacle12CIwAllocatorIS0_15CIwMallocRouterIS0_EE17ReallocateDefaultIS0_S4_EE7reserveEj
	.section	.text._ZN8CIwArrayIP3NPC12CIwAllocatorIS1_15CIwMallocRouterIS1_EE17ReallocateDefaultIS1_S5_EE7reserveEj,"axG",%progbits,_ZN8CIwArrayIP3NPC12CIwAllocatorIS1_15CIwMallocRouterIS1_EE17ReallocateDefaultIS1_S5_EE7reserveEj,comdat
	.align	2
	.weak	_ZN8CIwArrayIP3NPC12CIwAllocatorIS1_15CIwMallocRouterIS1_EE17ReallocateDefaultIS1_S5_EE7reserveEj
	.hidden	_ZN8CIwArrayIP3NPC12CIwAllocatorIS1_15CIwMallocRouterIS1_EE17ReallocateDefaultIS1_S5_EE7reserveEj
	.type	_ZN8CIwArrayIP3NPC12CIwAllocatorIS1_15CIwMallocRouterIS1_EE17ReallocateDefaultIS1_S5_EE7reserveEj, %function
_ZN8CIwArrayIP3NPC12CIwAllocatorIS1_15CIwMallocRouterIS1_EE17ReallocateDefaultIS1_S5_EE7reserveEj:
.LFB3913:
	.loc 24 253 0
	.cfi_startproc
	@ args = 0, pretend = 0, frame = 8
	@ frame_needed = 0, uses_anonymous_args = 0
	str	lr, [sp, #-4]!
.LCFI274:
	.cfi_def_cfa_offset 4
	sub	sp, sp, #12
.LCFI275:
	.cfi_def_cfa_offset 16
	str	r0, [sp, #4]
	str	r1, [sp, #0]
	.loc 24 255 0
	ldr	r3, [sp, #4]
	ldr	r2, [r3, #8]
	ldr	r3, [sp, #0]
	cmp	r2, r3
	bcs	.L817
	.cfi_offset 14, -4
	.loc 24 257 0
	ldr	r3, [sp, #4]
	ldr	r3, [r3, #8]
	cmp	r3, #15
	bls	.L815
	ldr	r3, [sp, #4]
	ldr	r3, [r3, #8]
	mov	r3, r3, lsr #3
	b	.L816
.L815:
	mov	r3, #2
.L816:
	ldr	r2, [sp, #0]
	add	r3, r3, r2
	ldr	r0, [sp, #4]
	mov	r1, r3
	bl	_ZN8CIwArrayIP3NPC12CIwAllocatorIS1_15CIwMallocRouterIS1_EE17ReallocateDefaultIS1_S5_EE12set_capacityEj
.L817:
	.loc 24 259 0
	add	sp, sp, #12
	ldmfd	sp!, {pc}
	.cfi_endproc
.LFE3913:
	.size	_ZN8CIwArrayIP3NPC12CIwAllocatorIS1_15CIwMallocRouterIS1_EE17ReallocateDefaultIS1_S5_EE7reserveEj, .-_ZN8CIwArrayIP3NPC12CIwAllocatorIS1_15CIwMallocRouterIS1_EE17ReallocateDefaultIS1_S5_EE7reserveEj
	.section	.text._ZN8CIwArrayIPc12CIwAllocatorIS0_15CIwMallocRouterIS0_EE17ReallocateDefaultIS0_S4_EE7reserveEj,"axG",%progbits,_ZN8CIwArrayIPc12CIwAllocatorIS0_15CIwMallocRouterIS0_EE17ReallocateDefaultIS0_S4_EE7reserveEj,comdat
	.align	2
	.weak	_ZN8CIwArrayIPc12CIwAllocatorIS0_15CIwMallocRouterIS0_EE17ReallocateDefaultIS0_S4_EE7reserveEj
	.hidden	_ZN8CIwArrayIPc12CIwAllocatorIS0_15CIwMallocRouterIS0_EE17ReallocateDefaultIS0_S4_EE7reserveEj
	.type	_ZN8CIwArrayIPc12CIwAllocatorIS0_15CIwMallocRouterIS0_EE17ReallocateDefaultIS0_S4_EE7reserveEj, %function
_ZN8CIwArrayIPc12CIwAllocatorIS0_15CIwMallocRouterIS0_EE17ReallocateDefaultIS0_S4_EE7reserveEj:
.LFB3914:
	.loc 24 253 0
	.cfi_startproc
	@ args = 0, pretend = 0, frame = 8
	@ frame_needed = 0, uses_anonymous_args = 0
	str	lr, [sp, #-4]!
.LCFI276:
	.cfi_def_cfa_offset 4
	sub	sp, sp, #12
.LCFI277:
	.cfi_def_cfa_offset 16
	str	r0, [sp, #4]
	str	r1, [sp, #0]
	.loc 24 255 0
	ldr	r3, [sp, #4]
