	.arch armv5te
	.eabi_attribute 27, 3
	.fpu vfp
	.eabi_attribute 20, 1
	.eabi_attribute 21, 1
	.eabi_attribute 23, 3
	.eabi_attribute 24, 1
	.eabi_attribute 25, 1
	.eabi_attribute 26, 2
	.eabi_attribute 30, 6
	.eabi_attribute 18, 2
	.file	"map.cpp"
	.text
.Ltext0:
	.cfi_sections	.debug_frame
	.section	.text._ZL11IwDebugExitv,"ax",%progbits
	.align	2
	.type	_ZL11IwDebugExitv, %function
_ZL11IwDebugExitv:
.LFB0:
	.file 1 "c:/marmalade/6.2/modules/iwutil/h/IwDebug.h"
	.loc 1 354 0
	.cfi_startproc
	@ args = 0, pretend = 0, frame = 0
	@ frame_needed = 0, uses_anonymous_args = 0
	stmfd	sp!, {r3, lr}
.LCFI0:
	.cfi_def_cfa_offset 8
	.loc 1 355 0
	.cfi_offset 14, -4
	.cfi_offset 3, -8
	bl	abort
	.cfi_endproc
.LFE0:
	.size	_ZL11IwDebugExitv, .-_ZL11IwDebugExitv
	.section	.text._ZN12CIwCallStackC1EPKc,"axG",%progbits,_ZN12CIwCallStackC1EPKc,comdat
	.align	2
	.weak	_ZN12CIwCallStackC1EPKc
	.hidden	_ZN12CIwCallStackC1EPKc
	.type	_ZN12CIwCallStackC1EPKc, %function
_ZN12CIwCallStackC1EPKc:
.LFB46:
	.file 2 "c:/marmalade/6.2/modules/iwutil/h/IwRuntime.h"
	.loc 2 97 0
	.cfi_startproc
	@ args = 0, pretend = 0, frame = 8
	@ frame_needed = 0, uses_anonymous_args = 0
	str	lr, [sp, #-4]!
.LCFI1:
	.cfi_def_cfa_offset 4
	sub	sp, sp, #12
.LCFI2:
	.cfi_def_cfa_offset 16
	str	r0, [sp, #4]
	str	r1, [sp, #0]
	.loc 2 99 0
	ldr	r0, [sp, #0]
	ldr	r1, [sp, #4]
	.cfi_offset 14, -4
	bl	IwCallStackEnter
	mov	r3, r0
	mov	r2, r3
	ldr	r3, [sp, #4]
	strb	r2, [r3, #0]
	.loc 2 100 0
	ldr	r3, [sp, #4]
	mov	r0, r3
	add	sp, sp, #12
	ldmfd	sp!, {pc}
	.cfi_endproc
.LFE46:
	.size	_ZN12CIwCallStackC1EPKc, .-_ZN12CIwCallStackC1EPKc
	.section	.text._ZN12CIwCallStackD1Ev,"axG",%progbits,_ZN12CIwCallStackD1Ev,comdat
	.align	2
	.weak	_ZN12CIwCallStackD1Ev
	.hidden	_ZN12CIwCallStackD1Ev
	.type	_ZN12CIwCallStackD1Ev, %function
_ZN12CIwCallStackD1Ev:
.LFB49:
	.loc 2 101 0
	.cfi_startproc
	@ args = 0, pretend = 0, frame = 8
	@ frame_needed = 0, uses_anonymous_args = 0
	str	lr, [sp, #-4]!
.LCFI3:
	.cfi_def_cfa_offset 4
	sub	sp, sp, #12
.LCFI4:
	.cfi_def_cfa_offset 16
	str	r0, [sp, #4]
	.loc 2 103 0
	ldr	r3, [sp, #4]
	ldrb	r3, [r3, #0]	@ zero_extendqisi2
	cmp	r3, #0
	beq	.L7
	.cfi_offset 14, -4
	.loc 2 104 0
	ldr	r0, [sp, #4]
	bl	IwCallStackLeave
.L7:
	.loc 2 105 0
	ldr	r3, [sp, #4]
	mov	r0, r3
	add	sp, sp, #12
	ldmfd	sp!, {pc}
	.cfi_endproc
.LFE49:
	.size	_ZN12CIwCallStackD1Ev, .-_ZN12CIwCallStackD1Ev
	.section	.text._ZN8CIwSVec2C1Ev,"axG",%progbits,_ZN8CIwSVec2C1Ev,comdat
	.align	2
	.weak	_ZN8CIwSVec2C1Ev
	.hidden	_ZN8CIwSVec2C1Ev
	.type	_ZN8CIwSVec2C1Ev, %function
_ZN8CIwSVec2C1Ev:
.LFB128:
	.file 3 "c:/marmalade/6.2/modules/iwgeom/h/IwGeomSVec2.h"
	.loc 3 65 0
	.cfi_startproc
	@ args = 0, pretend = 0, frame = 8
	@ frame_needed = 0, uses_anonymous_args = 0
	@ link register save eliminated.
	sub	sp, sp, #8
.LCFI5:
	.cfi_def_cfa_offset 8
	str	r0, [sp, #4]
	.loc 3 65 0
	ldr	r3, [sp, #4]
	mov	r0, r3
	add	sp, sp, #8
	bx	lr
	.cfi_endproc
.LFE128:
	.size	_ZN8CIwSVec2C1Ev, .-_ZN8CIwSVec2C1Ev
	.section	.text._ZN8CIwSVec2C1Ess,"axG",%progbits,_ZN8CIwSVec2C1Ess,comdat
	.align	2
	.weak	_ZN8CIwSVec2C1Ess
	.hidden	_ZN8CIwSVec2C1Ess
	.type	_ZN8CIwSVec2C1Ess, %function
_ZN8CIwSVec2C1Ess:
.LFB131:
	.loc 3 72 0
	.cfi_startproc
	@ args = 0, pretend = 0, frame = 8
	@ frame_needed = 0, uses_anonymous_args = 0
	@ link register save eliminated.
	sub	sp, sp, #8
.LCFI6:
	.cfi_def_cfa_offset 8
	str	r0, [sp, #4]
	mov	r3, r2
	strh	r1, [sp, #2]	@ movhi
	strh	r3, [sp, #0]	@ movhi
	.loc 3 72 0
	ldr	r3, [sp, #4]
	ldrh	r2, [sp, #2]	@ movhi
	strh	r2, [r3, #0]	@ movhi
	ldr	r3, [sp, #4]
	ldrh	r2, [sp, #0]	@ movhi
	strh	r2, [r3, #2]	@ movhi
	ldr	r3, [sp, #4]
	mov	r0, r3
	add	sp, sp, #8
	bx	lr
	.cfi_endproc
.LFE131:
	.size	_ZN8CIwSVec2C1Ess, .-_ZN8CIwSVec2C1Ess
	.section	.text._ZN8CIwSVec2aSERKS_,"axG",%progbits,_ZN8CIwSVec2aSERKS_,comdat
	.align	2
	.weak	_ZN8CIwSVec2aSERKS_
	.hidden	_ZN8CIwSVec2aSERKS_
	.type	_ZN8CIwSVec2aSERKS_, %function
_ZN8CIwSVec2aSERKS_:
.LFB134:
	.loc 3 359 0
	.cfi_startproc
	@ args = 0, pretend = 0, frame = 8
	@ frame_needed = 0, uses_anonymous_args = 0
	@ link register save eliminated.
	sub	sp, sp, #8
.LCFI7:
	.cfi_def_cfa_offset 8
	str	r0, [sp, #4]
	str	r1, [sp, #0]
	.loc 3 360 0
	ldr	r3, [sp, #0]
	ldrh	r2, [r3, #0]
	ldr	r3, [sp, #4]
	strh	r2, [r3, #0]	@ movhi
	.loc 3 361 0
	ldr	r3, [sp, #0]
	ldrh	r2, [r3, #2]
	ldr	r3, [sp, #4]
	strh	r2, [r3, #2]	@ movhi
	.loc 3 362 0
	ldr	r3, [sp, #4]
	.loc 3 363 0
	mov	r0, r3
	add	sp, sp, #8
	bx	lr
	.cfi_endproc
.LFE134:
	.size	_ZN8CIwSVec2aSERKS_, .-_ZN8CIwSVec2aSERKS_
	.section	.text._ZN8CIwFVec2C1Ev,"axG",%progbits,_ZN8CIwFVec2C1Ev,comdat
	.align	2
	.weak	_ZN8CIwFVec2C1Ev
	.hidden	_ZN8CIwFVec2C1Ev
	.type	_ZN8CIwFVec2C1Ev, %function
_ZN8CIwFVec2C1Ev:
.LFB192:
	.file 4 "c:/marmalade/6.2/modules/iwgeom/h/IwGeomFVec2.h"
	.loc 4 65 0
	.cfi_startproc
	@ args = 0, pretend = 0, frame = 8
	@ frame_needed = 0, uses_anonymous_args = 0
	@ link register save eliminated.
	sub	sp, sp, #8
.LCFI8:
	.cfi_def_cfa_offset 8
	str	r0, [sp, #4]
	.loc 4 65 0
	ldr	r3, [sp, #4]
	mov	r0, r3
	add	sp, sp, #8
	bx	lr
	.cfi_endproc
.LFE192:
	.size	_ZN8CIwFVec2C1Ev, .-_ZN8CIwFVec2C1Ev
	.section	.text._ZN8CIwFVec2C1Eff,"axG",%progbits,_ZN8CIwFVec2C1Eff,comdat
	.align	2
	.weak	_ZN8CIwFVec2C1Eff
	.hidden	_ZN8CIwFVec2C1Eff
	.type	_ZN8CIwFVec2C1Eff, %function
_ZN8CIwFVec2C1Eff:
.LFB195:
	.loc 4 72 0
	.cfi_startproc
	@ args = 0, pretend = 0, frame = 16
	@ frame_needed = 0, uses_anonymous_args = 0
	@ link register save eliminated.
	sub	sp, sp, #16
.LCFI9:
	.cfi_def_cfa_offset 16
	str	r0, [sp, #12]
	str	r1, [sp, #8]	@ float
	str	r2, [sp, #4]	@ float
	.loc 4 72 0
	ldr	r3, [sp, #12]
	flds	s15, [sp, #8]
	fsts	s15, [r3, #0]
	ldr	r3, [sp, #12]
	flds	s15, [sp, #4]
	fsts	s15, [r3, #4]
	ldr	r3, [sp, #12]
	mov	r0, r3
	add	sp, sp, #16
	bx	lr
	.cfi_endproc
.LFE195:
	.size	_ZN8CIwFVec2C1Eff, .-_ZN8CIwFVec2C1Eff
	.section	.text._ZN8CIwFVec2aSERKS_,"axG",%progbits,_ZN8CIwFVec2aSERKS_,comdat
	.align	2
	.weak	_ZN8CIwFVec2aSERKS_
	.hidden	_ZN8CIwFVec2aSERKS_
	.type	_ZN8CIwFVec2aSERKS_, %function
_ZN8CIwFVec2aSERKS_:
.LFB198:
	.loc 4 285 0
	.cfi_startproc
	@ args = 0, pretend = 0, frame = 8
	@ frame_needed = 0, uses_anonymous_args = 0
	@ link register save eliminated.
	sub	sp, sp, #8
.LCFI10:
	.cfi_def_cfa_offset 8
	str	r0, [sp, #4]
	str	r1, [sp, #0]
	.loc 4 286 0
	ldr	r3, [sp, #0]
	flds	s15, [r3, #0]
	ldr	r3, [sp, #4]
	fsts	s15, [r3, #0]
	.loc 4 287 0
	ldr	r3, [sp, #0]
	flds	s15, [r3, #4]
	ldr	r3, [sp, #4]
	fsts	s15, [r3, #4]
	.loc 4 288 0
	ldr	r3, [sp, #4]
	.loc 4 289 0
	mov	r0, r3
	add	sp, sp, #8
	bx	lr
	.cfi_endproc
.LFE198:
	.size	_ZN8CIwFVec2aSERKS_, .-_ZN8CIwFVec2aSERKS_
	.section	.text._ZNK8CIwFVec2plERKS_,"axG",%progbits,_ZNK8CIwFVec2plERKS_,comdat
	.align	2
	.weak	_ZNK8CIwFVec2plERKS_
	.hidden	_ZNK8CIwFVec2plERKS_
	.type	_ZNK8CIwFVec2plERKS_, %function
_ZNK8CIwFVec2plERKS_:
.LFB199:
	.loc 4 295 0
	.cfi_startproc
	@ args = 0, pretend = 0, frame = 8
	@ frame_needed = 0, uses_anonymous_args = 0
	stmfd	sp!, {r4, lr}
.LCFI11:
	.cfi_def_cfa_offset 8
	sub	sp, sp, #8
.LCFI12:
	.cfi_def_cfa_offset 16
	mov	r4, r0
	.cfi_offset 14, -4
	.cfi_offset 4, -8
	str	r1, [sp, #4]
	str	r2, [sp, #0]
	.loc 4 299 0
	ldr	r3, [sp, #4]
	flds	s14, [r3, #0]
	ldr	r3, [sp, #0]
	flds	s15, [r3, #0]
	fadds	s13, s14, s15
	ldr	r3, [sp, #4]
	flds	s14, [r3, #4]
	ldr	r3, [sp, #0]
	flds	s15, [r3, #4]
	fadds	s15, s14, s15
	mov	r0, r4
	fmrs	r1, s13
	fmrs	r2, s15
	bl	_ZN8CIwFVec2C1Eff
	.loc 4 300 0
	mov	r0, r4
	add	sp, sp, #8
	ldmfd	sp!, {r4, pc}
	.cfi_endproc
.LFE199:
	.size	_ZNK8CIwFVec2plERKS_, .-_ZNK8CIwFVec2plERKS_
	.section	.text._ZnwjPv,"axG",%progbits,_ZnwjPv,comdat
	.align	2
	.weak	_ZnwjPv
	.hidden	_ZnwjPv
	.type	_ZnwjPv, %function
_ZnwjPv:
.LFB993:
	.file 5 "c:/marmalade/6.2/s3e/h/std/c++/new.h"
	.loc 5 52 0
	.cfi_startproc
	@ args = 0, pretend = 0, frame = 8
	@ frame_needed = 0, uses_anonymous_args = 0
	@ link register save eliminated.
	sub	sp, sp, #8
.LCFI13:
	.cfi_def_cfa_offset 8
	str	r0, [sp, #4]
	str	r1, [sp, #0]
	.loc 5 52 0
	ldr	r3, [sp, #0]
	mov	r0, r3
	add	sp, sp, #8
	bx	lr
	.cfi_endproc
.LFE993:
	.size	_ZnwjPv, .-_ZnwjPv
	.section	.text._ZN8ObstacleD1Ev,"axG",%progbits,_ZN8ObstacleD1Ev,comdat
	.align	2
	.weak	_ZN8ObstacleD1Ev
	.hidden	_ZN8ObstacleD1Ev
	.type	_ZN8ObstacleD1Ev, %function
_ZN8ObstacleD1Ev:
.LFB1983:
	.file 6 "c:/users/1106786/dropbox/dropbox/pg life/project impact/code/demos/o-demo_7_indicator/h/obstacle.h"
	.loc 6 13 0
	.cfi_startproc
	@ args = 0, pretend = 0, frame = 8
	@ frame_needed = 0, uses_anonymous_args = 0
	@ link register save eliminated.
	sub	sp, sp, #8
.LCFI14:
	.cfi_def_cfa_offset 8
	str	r0, [sp, #4]
	.loc 6 13 0
	ldr	r3, [sp, #4]
	mov	r0, r3
	add	sp, sp, #8
	bx	lr
	.cfi_endproc
.LFE1983:
	.size	_ZN8ObstacleD1Ev, .-_ZN8ObstacleD1Ev
	.section	.text._Z12IwGetGxStatev,"axG",%progbits,_Z12IwGetGxStatev,comdat
	.align	2
	.weak	_Z12IwGetGxStatev
	.hidden	_Z12IwGetGxStatev
	.type	_Z12IwGetGxStatev, %function
_Z12IwGetGxStatev:
.LFB2069:
	.file 7 "c:/marmalade/6.2/modules/iwgx/h/IwGxState.h"
	.loc 7 474 0
	.cfi_startproc
	@ args = 0, pretend = 0, frame = 0
	@ frame_needed = 0, uses_anonymous_args = 0
	@ link register save eliminated.
	.loc 7 474 0
	ldr	r3, .L34
	ldr	r3, [r3, #0]
	mov	r0, r3
	bx	lr
.L35:
	.align	2
.L34:
	.word	g_IwGxState
	.cfi_endproc
.LFE2069:
	.size	_Z12IwGetGxStatev, .-_Z12IwGetGxStatev
	.section	.text.IwGxGetScreenWidth,"ax",%progbits
	.align	2
	.type	IwGxGetScreenWidth, %function
IwGxGetScreenWidth:
.LFB2088:
	.file 8 "c:/marmalade/6.2/modules/iwgx/h/IwGx.h"
	.loc 8 400 0
	.cfi_startproc
	@ args = 0, pretend = 0, frame = 0
	@ frame_needed = 0, uses_anonymous_args = 0
	stmfd	sp!, {r3, lr}
.LCFI15:
	.cfi_def_cfa_offset 8
	.loc 8 400 0
	.cfi_offset 14, -4
	.cfi_offset 3, -8
	bl	_Z12IwGetGxStatev
	mov	r3, r0
	ldr	r3, [r3, #528]
	mov	r0, r3
	ldmfd	sp!, {r3, pc}
	.cfi_endproc
.LFE2088:
	.size	IwGxGetScreenWidth, .-IwGxGetScreenWidth
	.section	.text.IwGxGetScreenHeight,"ax",%progbits
	.align	2
	.type	IwGxGetScreenHeight, %function
IwGxGetScreenHeight:
.LFB2089:
	.loc 8 411 0
	.cfi_startproc
	@ args = 0, pretend = 0, frame = 0
	@ frame_needed = 0, uses_anonymous_args = 0
	stmfd	sp!, {r3, lr}
.LCFI16:
	.cfi_def_cfa_offset 8
	.loc 8 411 0
	.cfi_offset 14, -4
	.cfi_offset 3, -8
	bl	_Z12IwGetGxStatev
	mov	r3, r0
	ldr	r3, [r3, #532]
	mov	r0, r3
	ldmfd	sp!, {r3, pc}
	.cfi_endproc
.LFE2089:
	.size	IwGxGetScreenHeight, .-IwGxGetScreenHeight
	.section	.text._ZN12TileObstacleC1Ev,"axG",%progbits,_ZN12TileObstacleC1Ev,comdat
	.align	2
	.weak	_ZN12TileObstacleC1Ev
	.hidden	_ZN12TileObstacleC1Ev
	.type	_ZN12TileObstacleC1Ev, %function
_ZN12TileObstacleC1Ev:
.LFB2469:
	.file 9 "c:/users/1106786/dropbox/dropbox/pg life/project impact/code/demos/o-demo_7_indicator/h/tileobstacle.h"
	.loc 9 16 0
	.cfi_startproc
	@ args = 0, pretend = 0, frame = 16
	@ frame_needed = 0, uses_anonymous_args = 0
	stmfd	sp!, {r4, lr}
.LCFI17:
	.cfi_def_cfa_offset 8
	sub	sp, sp, #16
.LCFI18:
	.cfi_def_cfa_offset 24
	str	r0, [sp, #4]
	.loc 9 16 0
	ldr	r3, [sp, #4]
	mov	r0, r3
	.cfi_offset 14, -4
	.cfi_offset 4, -8
	bl	_ZN8CIwFVec2C1Ev
	ldr	r3, [sp, #4]
	add	r4, r3, #24
	add	r3, sp, #12
	mov	r0, r3
	bl	_ZN4_STL9allocatorI8ObstacleEC1Ev
	add	r3, sp, #12
	mov	r0, r4
	mov	r1, r3
	bl	_ZN4_STL6vectorI8ObstacleNS_9allocatorIS1_EEEC1ERKS3_
	add	r3, sp, #12
	mov	r0, r3
	bl	_ZN4_STL9allocatorI8ObstacleED1Ev
	ldr	r3, [sp, #4]
	add	r3, r3, #36
	mov	r0, r3
	bl	_ZN8CIwSVec2C1Ev
	ldr	r3, [sp, #4]
	mov	r0, r3
	add	sp, sp, #16
	ldmfd	sp!, {r4, pc}
	.cfi_endproc
.LFE2469:
	.size	_ZN12TileObstacleC1Ev, .-_ZN12TileObstacleC1Ev
	.section	.text._ZN12TileObstacleD1Ev,"axG",%progbits,_ZN12TileObstacleD1Ev,comdat
	.align	2
	.weak	_ZN12TileObstacleD1Ev
	.hidden	_ZN12TileObstacleD1Ev
	.type	_ZN12TileObstacleD1Ev, %function
_ZN12TileObstacleD1Ev:
.LFB2472:
	.loc 9 17 0
	.cfi_startproc
	@ args = 0, pretend = 0, frame = 8
	@ frame_needed = 0, uses_anonymous_args = 0
	str	lr, [sp, #-4]!
.LCFI19:
	.cfi_def_cfa_offset 4
	sub	sp, sp, #12
.LCFI20:
	.cfi_def_cfa_offset 16
	str	r0, [sp, #4]
	.loc 9 17 0
	ldr	r3, [sp, #4]
	add	r3, r3, #24
	mov	r0, r3
	.cfi_offset 14, -4
	bl	_ZN4_STL6vectorI8ObstacleNS_9allocatorIS1_EEED1Ev
	ldr	r3, [sp, #4]
	mov	r0, r3
	add	sp, sp, #12
	ldmfd	sp!, {pc}
	.cfi_endproc
.LFE2472:
	.size	_ZN12TileObstacleD1Ev, .-_ZN12TileObstacleD1Ev
	.section	.text._ZN5LayerC1Ev,"axG",%progbits,_ZN5LayerC1Ev,comdat
	.align	2
	.weak	_ZN5LayerC1Ev
	.hidden	_ZN5LayerC1Ev
	.type	_ZN5LayerC1Ev, %function
_ZN5LayerC1Ev:
.LFB2475:
	.file 10 "c:/users/1106786/dropbox/dropbox/pg life/project impact/code/demos/o-demo_7_indicator/h/layer.h"
	.loc 10 13 0
	.cfi_startproc
	@ args = 0, pretend = 0, frame = 8
	@ frame_needed = 0, uses_anonymous_args = 0
	str	lr, [sp, #-4]!
.LCFI21:
	.cfi_def_cfa_offset 4
	sub	sp, sp, #12
.LCFI22:
	.cfi_def_cfa_offset 16
	str	r0, [sp, #4]
	.loc 10 13 0
	ldr	r3, [sp, #4]
	mov	r0, r3
	mov	r1, #0
	.cfi_offset 14, -4
	bl	_ZN8CIwArrayIi12CIwAllocatorIi15CIwMallocRouterIiEE17ReallocateDefaultIiS3_EEC1Ej
	ldr	r3, [sp, #4]
	add	r3, r3, #20
	mov	r0, r3
	mov	r1, #0
	bl	_ZN8CIwArrayIi12CIwAllocatorIi15CIwMallocRouterIiEE17ReallocateDefaultIiS3_EEC1Ej
	ldr	r3, [sp, #4]
	add	r3, r3, #36
	mov	r0, r3
	mov	r1, #0
	bl	_ZN8CIwArrayIi12CIwAllocatorIi15CIwMallocRouterIiEE17ReallocateDefaultIiS3_EEC1Ej
	ldr	r3, [sp, #4]
	mov	r0, r3
	add	sp, sp, #12
	ldmfd	sp!, {pc}
	.cfi_endproc
.LFE2475:
	.size	_ZN5LayerC1Ev, .-_ZN5LayerC1Ev
	.section	.text._ZN5LayerD1Ev,"axG",%progbits,_ZN5LayerD1Ev,comdat
	.align	2
	.weak	_ZN5LayerD1Ev
	.hidden	_ZN5LayerD1Ev
	.type	_ZN5LayerD1Ev, %function
_ZN5LayerD1Ev:
.LFB2478:
	.loc 10 14 0
	.cfi_startproc
	@ args = 0, pretend = 0, frame = 8
	@ frame_needed = 0, uses_anonymous_args = 0
	str	lr, [sp, #-4]!
.LCFI23:
	.cfi_def_cfa_offset 4
	sub	sp, sp, #12
.LCFI24:
	.cfi_def_cfa_offset 16
	str	r0, [sp, #4]
	.loc 10 14 0
	ldr	r3, [sp, #4]
	mov	r0, r3
	.cfi_offset 14, -4
	bl	_ZN8CIwArrayIi12CIwAllocatorIi15CIwMallocRouterIiEE17ReallocateDefaultIiS3_EE15clear_optimisedEv
	ldr	r3, [sp, #4]
	add	r3, r3, #36
	mov	r0, r3
	bl	_ZN8CIwArrayIi12CIwAllocatorIi15CIwMallocRouterIiEE17ReallocateDefaultIiS3_EED1Ev
	ldr	r3, [sp, #4]
	add	r3, r3, #20
	mov	r0, r3
	bl	_ZN8CIwArrayIi12CIwAllocatorIi15CIwMallocRouterIiEE17ReallocateDefaultIiS3_EED1Ev
	ldr	r3, [sp, #4]
	mov	r0, r3
	bl	_ZN8CIwArrayIi12CIwAllocatorIi15CIwMallocRouterIiEE17ReallocateDefaultIiS3_EED1Ev
	ldr	r3, [sp, #4]
	mov	r0, r3
	add	sp, sp, #12
	ldmfd	sp!, {pc}
	.cfi_endproc
.LFE2478:
	.size	_ZN5LayerD1Ev, .-_ZN5LayerD1Ev
	.section	.text._ZN8TileUnitC1Ev,"axG",%progbits,_ZN8TileUnitC1Ev,comdat
	.align	2
	.weak	_ZN8TileUnitC1Ev
	.hidden	_ZN8TileUnitC1Ev
	.type	_ZN8TileUnitC1Ev, %function
_ZN8TileUnitC1Ev:
.LFB2482:
	.file 11 "c:/users/1106786/dropbox/dropbox/pg life/project impact/code/demos/o-demo_7_indicator/h/tileunit.h"
	.loc 11 9 0
	.cfi_startproc
	@ args = 0, pretend = 0, frame = 8
	@ frame_needed = 0, uses_anonymous_args = 0
	@ link register save eliminated.
	sub	sp, sp, #8
.LCFI25:
	.cfi_def_cfa_offset 8
	str	r0, [sp, #4]
	.loc 11 9 0
	ldr	r3, [sp, #4]
	mov	r0, r3
	add	sp, sp, #8
	bx	lr
	.cfi_endproc
.LFE2482:
	.size	_ZN8TileUnitC1Ev, .-_ZN8TileUnitC1Ev
	.section	.text._ZN8TileUnitD1Ev,"axG",%progbits,_ZN8TileUnitD1Ev,comdat
	.align	2
	.weak	_ZN8TileUnitD1Ev
	.hidden	_ZN8TileUnitD1Ev
	.type	_ZN8TileUnitD1Ev, %function
_ZN8TileUnitD1Ev:
.LFB2485:
	.loc 11 10 0
	.cfi_startproc
	@ args = 0, pretend = 0, frame = 8
	@ frame_needed = 0, uses_anonymous_args = 0
	@ link register save eliminated.
	sub	sp, sp, #8
.LCFI26:
	.cfi_def_cfa_offset 8
	str	r0, [sp, #4]
	.loc 11 10 0
	ldr	r3, [sp, #4]
	mov	r0, r3
	add	sp, sp, #8
	bx	lr
	.cfi_endproc
.LFE2485:
	.size	_ZN8TileUnitD1Ev, .-_ZN8TileUnitD1Ev
	.section	.text._ZN7TileSetC1Ev,"axG",%progbits,_ZN7TileSetC1Ev,comdat
	.align	2
	.weak	_ZN7TileSetC1Ev
	.hidden	_ZN7TileSetC1Ev
	.type	_ZN7TileSetC1Ev, %function
_ZN7TileSetC1Ev:
.LFB2488:
	.file 12 "c:/users/1106786/dropbox/dropbox/pg life/project impact/code/demos/o-demo_7_indicator/h/tileset.h"
	.loc 12 17 0
	.cfi_startproc
	@ args = 0, pretend = 0, frame = 8
	@ frame_needed = 0, uses_anonymous_args = 0
	str	lr, [sp, #-4]!
.LCFI27:
	.cfi_def_cfa_offset 4
	sub	sp, sp, #12
.LCFI28:
	.cfi_def_cfa_offset 16
	str	r0, [sp, #4]
	.loc 12 17 0
	ldr	r3, [sp, #4]
	mov	r0, r3
	mov	r1, #0
	.cfi_offset 14, -4
	bl	_ZN8CIwArrayIi12CIwAllocatorIi15CIwMallocRouterIiEE17ReallocateDefaultIiS3_EEC1Ej
	ldr	r3, [sp, #4]
	add	r3, r3, #16
	mov	r0, r3
	mov	r1, #0
	bl	_ZN8CIwArrayI8TileUnit12CIwAllocatorIS0_15CIwMallocRouterIS0_EE17ReallocateDefaultIS0_S4_EEC1Ej
	ldr	r3, [sp, #4]
	add	r3, r3, #72
	mov	r0, r3
	bl	_ZN8CIwSVec2C1Ev
	ldr	r3, [sp, #4]
	mov	r0, r3
	add	sp, sp, #12
	ldmfd	sp!, {pc}
	.cfi_endproc
.LFE2488:
	.size	_ZN7TileSetC1Ev, .-_ZN7TileSetC1Ev
	.section	.text._ZN7TileSetD1Ev,"axG",%progbits,_ZN7TileSetD1Ev,comdat
	.align	2
	.weak	_ZN7TileSetD1Ev
	.hidden	_ZN7TileSetD1Ev
	.type	_ZN7TileSetD1Ev, %function
_ZN7TileSetD1Ev:
.LFB2491:
	.loc 12 18 0
	.cfi_startproc
	@ args = 0, pretend = 0, frame = 8
	@ frame_needed = 0, uses_anonymous_args = 0
	str	lr, [sp, #-4]!
.LCFI29:
	.cfi_def_cfa_offset 4
	sub	sp, sp, #12
.LCFI30:
	.cfi_def_cfa_offset 16
	str	r0, [sp, #4]
	.loc 12 18 0
	ldr	r3, [sp, #4]
	mov	r0, r3
	.cfi_offset 14, -4
	bl	_ZN8CIwArrayIi12CIwAllocatorIi15CIwMallocRouterIiEE17ReallocateDefaultIiS3_EE15clear_optimisedEv
	ldr	r3, [sp, #4]
	add	r3, r3, #16
	mov	r0, r3
	bl	_ZN8CIwArrayI8TileUnit12CIwAllocatorIS0_15CIwMallocRouterIS0_EE17ReallocateDefaultIS0_S4_EE15clear_optimisedEv
	ldr	r3, [sp, #4]
	ldr	r3, [r3, #36]
	cmp	r3, #0
	beq	.L62
	ldr	r3, [sp, #4]
	ldr	r3, [r3, #36]
	ldr	r3, [r3, #0]
	add	r3, r3, #16
	ldr	r3, [r3, #0]
	ldr	r2, [sp, #4]
	ldr	r2, [r2, #36]
	mov	r0, r2
	blx	r3
.L62:
	ldr	r3, [sp, #4]
	add	r3, r3, #16
	mov	r0, r3
	bl	_ZN8CIwArrayI8TileUnit12CIwAllocatorIS0_15CIwMallocRouterIS0_EE17ReallocateDefaultIS0_S4_EED1Ev
	ldr	r3, [sp, #4]
	mov	r0, r3
	bl	_ZN8CIwArrayIi12CIwAllocatorIi15CIwMallocRouterIiEE17ReallocateDefaultIiS3_EED1Ev
	ldr	r3, [sp, #4]
	mov	r0, r3
	add	sp, sp, #12
	ldmfd	sp!, {pc}
	.cfi_endproc
.LFE2491:
	.size	_ZN7TileSetD1Ev, .-_ZN7TileSetD1Ev
	.section	.text._ZN7TileSet7GetSizeEv,"axG",%progbits,_ZN7TileSet7GetSizeEv,comdat
	.align	2
	.weak	_ZN7TileSet7GetSizeEv
	.hidden	_ZN7TileSet7GetSizeEv
	.type	_ZN7TileSet7GetSizeEv, %function
_ZN7TileSet7GetSizeEv:
.LFB2492:
	.loc 12 21 0
	.cfi_startproc
	@ args = 0, pretend = 0, frame = 16
	@ frame_needed = 0, uses_anonymous_args = 0
	@ link register save eliminated.
	sub	sp, sp, #16
.LCFI31:
	.cfi_def_cfa_offset 16
	str	r0, [sp, #4]
	.loc 12 21 0
	ldr	r3, [sp, #4]
	ldr	r3, [r3, #72]
	str	r3, [sp, #12]
	mov	r3, #0
	ldrh	r2, [sp, #12]
	mov	r2, r2, asl #16
	mov	r3, r3, lsr #16
	orr	r3, r3, r2
	mov	r3, r3, ror #16
	ldrh	r2, [sp, #14]
	mov	r2, r2, asl #16
	mov	r3, r3, asl #16
	mov	r3, r3, lsr #16
	orr	r3, r3, r2
	mov	r0, r3
	add	sp, sp, #16
	bx	lr
	.cfi_endproc
.LFE2492:
	.size	_ZN7TileSet7GetSizeEv, .-_ZN7TileSet7GetSizeEv
	.section	.text._ZN4PathC1Ev,"axG",%progbits,_ZN4PathC1Ev,comdat
	.align	2
	.weak	_ZN4PathC1Ev
	.hidden	_ZN4PathC1Ev
	.type	_ZN4PathC1Ev, %function
_ZN4PathC1Ev:
.LFB2495:
	.file 13 "c:/users/1106786/dropbox/dropbox/pg life/project impact/code/demos/o-demo_7_indicator/h/path.h"
	.loc 13 20 0
	.cfi_startproc
	@ args = 0, pretend = 0, frame = 8
	@ frame_needed = 0, uses_anonymous_args = 0
	str	lr, [sp, #-4]!
.LCFI32:
	.cfi_def_cfa_offset 4
	sub	sp, sp, #12
.LCFI33:
	.cfi_def_cfa_offset 16
	str	r0, [sp, #4]
	.loc 13 20 0
	ldr	r3, [sp, #4]
	mov	r0, r3
	mov	r1, #0
	.cfi_offset 14, -4
	bl	_ZN8CIwArrayI8PathNode12CIwAllocatorIS0_15CIwMallocRouterIS0_EE17ReallocateDefaultIS0_S4_EEC1Ej
	ldr	r3, [sp, #4]
	add	r3, r3, #16
	mov	r0, r3
	mov	r1, #0
	bl	_ZN8CIwArrayIi12CIwAllocatorIi15CIwMallocRouterIiEE17ReallocateDefaultIiS3_EEC1Ej
	ldr	r3, [sp, #4]
	mov	r0, r3
	add	sp, sp, #12
	ldmfd	sp!, {pc}
	.cfi_endproc
.LFE2495:
	.size	_ZN4PathC1Ev, .-_ZN4PathC1Ev
	.section	.text._ZN4PathD1Ev,"axG",%progbits,_ZN4PathD1Ev,comdat
	.align	2
	.weak	_ZN4PathD1Ev
	.hidden	_ZN4PathD1Ev
	.type	_ZN4PathD1Ev, %function
_ZN4PathD1Ev:
.LFB2498:
	.loc 13 21 0
	.cfi_startproc
	@ args = 0, pretend = 0, frame = 8
	@ frame_needed = 0, uses_anonymous_args = 0
	str	lr, [sp, #-4]!
.LCFI34:
	.cfi_def_cfa_offset 4
	sub	sp, sp, #12
.LCFI35:
	.cfi_def_cfa_offset 16
	str	r0, [sp, #4]
	.loc 13 21 0
	ldr	r3, [sp, #4]
	mov	r0, r3
	.cfi_offset 14, -4
	bl	_ZN8CIwArrayI8PathNode12CIwAllocatorIS0_15CIwMallocRouterIS0_EE17ReallocateDefaultIS0_S4_EE15clear_optimisedEv
	ldr	r3, [sp, #4]
	add	r3, r3, #16
	mov	r0, r3
	bl	_ZN8CIwArrayIi12CIwAllocatorIi15CIwMallocRouterIiEE17ReallocateDefaultIiS3_EE15clear_optimisedEv
	ldr	r3, [sp, #4]
	add	r3, r3, #16
	mov	r0, r3
	bl	_ZN8CIwArrayIi12CIwAllocatorIi15CIwMallocRouterIiEE17ReallocateDefaultIiS3_EED1Ev
	ldr	r3, [sp, #4]
	mov	r0, r3
	bl	_ZN8CIwArrayI8PathNode12CIwAllocatorIS0_15CIwMallocRouterIS0_EE17ReallocateDefaultIS0_S4_EED1Ev
	ldr	r3, [sp, #4]
	mov	r0, r3
	add	sp, sp, #12
	ldmfd	sp!, {pc}
	.cfi_endproc
.LFE2498:
	.size	_ZN4PathD1Ev, .-_ZN4PathD1Ev
	.section	.text._ZN4_STL11char_traitsIcE11to_int_typeERKc,"axG",%progbits,_ZN4_STL11char_traitsIcE11to_int_typeERKc,comdat
	.align	2
	.weak	_ZN4_STL11char_traitsIcE11to_int_typeERKc
	.hidden	_ZN4_STL11char_traitsIcE11to_int_typeERKc
	.type	_ZN4_STL11char_traitsIcE11to_int_typeERKc, %function
_ZN4_STL11char_traitsIcE11to_int_typeERKc:
.LFB2544:
	.file 14 "c:/marmalade/6.2/s3e/h/std/c++/stl/char_traits.h"
	.loc 14 231 0
	.cfi_startproc
	@ args = 0, pretend = 0, frame = 8
	@ frame_needed = 0, uses_anonymous_args = 0
	@ link register save eliminated.
	sub	sp, sp, #8
.LCFI36:
	.cfi_def_cfa_offset 8
	str	r0, [sp, #4]
	.loc 14 232 0
	ldr	r3, [sp, #4]
	ldrb	r3, [r3, #0]	@ zero_extendqisi2
	.loc 14 233 0
	mov	r0, r3
	add	sp, sp, #8
	bx	lr
	.cfi_endproc
.LFE2544:
	.size	_ZN4_STL11char_traitsIcE11to_int_typeERKc, .-_ZN4_STL11char_traitsIcE11to_int_typeERKc
	.section	.text._ZN4_STL11char_traitsIcE6lengthEPKc,"axG",%progbits,_ZN4_STL11char_traitsIcE6lengthEPKc,comdat
	.align	2
	.weak	_ZN4_STL11char_traitsIcE6lengthEPKc
	.hidden	_ZN4_STL11char_traitsIcE6lengthEPKc
	.type	_ZN4_STL11char_traitsIcE6lengthEPKc, %function
_ZN4_STL11char_traitsIcE6lengthEPKc:
.LFB2546:
	.loc 14 238 0
	.cfi_startproc
	@ args = 0, pretend = 0, frame = 8
	@ frame_needed = 0, uses_anonymous_args = 0
	str	lr, [sp, #-4]!
.LCFI37:
	.cfi_def_cfa_offset 4
	sub	sp, sp, #12
.LCFI38:
	.cfi_def_cfa_offset 16
	str	r0, [sp, #4]
	.loc 14 238 0
	ldr	r0, [sp, #4]
	.cfi_offset 14, -4
	bl	strlen
	mov	r3, r0
	mov	r0, r3
	add	sp, sp, #12
	ldmfd	sp!, {pc}
	.cfi_endproc
.LFE2546:
	.size	_ZN4_STL11char_traitsIcE6lengthEPKc, .-_ZN4_STL11char_traitsIcE6lengthEPKc
	.section	.text._ZNK4_STL5ctypeIcE5widenEc,"axG",%progbits,_ZNK4_STL5ctypeIcE5widenEc,comdat
	.align	2
	.weak	_ZNK4_STL5ctypeIcE5widenEc
	.hidden	_ZNK4_STL5ctypeIcE5widenEc
	.type	_ZNK4_STL5ctypeIcE5widenEc, %function
_ZNK4_STL5ctypeIcE5widenEc:
.LFB2934:
	.file 15 "c:/marmalade/6.2/s3e/h/std/c++/stl/_ctype.h"
	.loc 15 102 0
	.cfi_startproc
	@ args = 0, pretend = 0, frame = 8
	@ frame_needed = 0, uses_anonymous_args = 0
	str	lr, [sp, #-4]!
.LCFI39:
	.cfi_def_cfa_offset 4
	sub	sp, sp, #12
.LCFI40:
	.cfi_def_cfa_offset 16
	str	r0, [sp, #4]
	mov	r3, r1
	strb	r3, [sp, #3]
	.loc 15 102 0
	ldr	r3, [sp, #4]
	ldr	r3, [r3, #0]
	add	r3, r3, #24
	ldr	r3, [r3, #0]
	ldrb	r2, [sp, #3]	@ zero_extendqisi2
	ldr	r0, [sp, #4]
	mov	r1, r2
	.cfi_offset 14, -4
	blx	r3
	mov	r3, r0
	mov	r0, r3
	add	sp, sp, #12
	ldmfd	sp!, {pc}
	.cfi_endproc
.LFE2934:
	.size	_ZNK4_STL5ctypeIcE5widenEc, .-_ZNK4_STL5ctypeIcE5widenEc
	.section	.text._ZNK4_STL8ios_base5flagsEv,"axG",%progbits,_ZNK4_STL8ios_base5flagsEv,comdat
	.align	2
	.weak	_ZNK4_STL8ios_base5flagsEv
	.hidden	_ZNK4_STL8ios_base5flagsEv
	.type	_ZNK4_STL8ios_base5flagsEv, %function
_ZNK4_STL8ios_base5flagsEv:
.LFB2982:
	.file 16 "c:/marmalade/6.2/s3e/h/std/c++/stl/_ios_base.h"
	.loc 16 115 0
	.cfi_startproc
	@ args = 0, pretend = 0, frame = 8
	@ frame_needed = 0, uses_anonymous_args = 0
	@ link register save eliminated.
	sub	sp, sp, #8
.LCFI41:
	.cfi_def_cfa_offset 8
	str	r0, [sp, #4]
	.loc 16 115 0
	ldr	r3, [sp, #4]
	ldr	r3, [r3, #4]
	mov	r0, r3
	add	sp, sp, #8
	bx	lr
	.cfi_endproc
.LFE2982:
	.size	_ZNK4_STL8ios_base5flagsEv, .-_ZNK4_STL8ios_base5flagsEv
	.section	.text._ZNK4_STL8ios_base5widthEv,"axG",%progbits,_ZNK4_STL8ios_base5widthEv,comdat
	.align	2
	.weak	_ZNK4_STL8ios_base5widthEv
	.hidden	_ZNK4_STL8ios_base5widthEv
	.type	_ZNK4_STL8ios_base5widthEv, %function
_ZNK4_STL8ios_base5widthEv:
.LFB2989:
	.loc 16 142 0
	.cfi_startproc
	@ args = 0, pretend = 0, frame = 8
	@ frame_needed = 0, uses_anonymous_args = 0
	@ link register save eliminated.
	sub	sp, sp, #8
.LCFI42:
	.cfi_def_cfa_offset 8
	str	r0, [sp, #4]
	.loc 16 142 0
	ldr	r3, [sp, #4]
	ldr	r3, [r3, #28]
	mov	r0, r3
	add	sp, sp, #8
	bx	lr
	.cfi_endproc
.LFE2989:
	.size	_ZNK4_STL8ios_base5widthEv, .-_ZNK4_STL8ios_base5widthEv
	.section	.text._ZN4_STL8ios_base5widthEi,"axG",%progbits,_ZN4_STL8ios_base5widthEi,comdat
	.align	2
	.weak	_ZN4_STL8ios_base5widthEi
	.hidden	_ZN4_STL8ios_base5widthEi
	.type	_ZN4_STL8ios_base5widthEi, %function
_ZN4_STL8ios_base5widthEi:
.LFB2990:
	.loc 16 143 0
	.cfi_startproc
	@ args = 0, pretend = 0, frame = 16
	@ frame_needed = 0, uses_anonymous_args = 0
	@ link register save eliminated.
	sub	sp, sp, #16
.LCFI43:
	.cfi_def_cfa_offset 16
	str	r0, [sp, #4]
	str	r1, [sp, #0]
.LBB2:
	.loc 16 144 0
	ldr	r3, [sp, #4]
	ldr	r3, [r3, #28]
	str	r3, [sp, #12]
	.loc 16 145 0
	ldr	r3, [sp, #4]
	ldr	r2, [sp, #0]
	str	r2, [r3, #28]
	.loc 16 146 0
	ldr	r3, [sp, #12]
.LBE2:
	.loc 16 147 0
	mov	r0, r3
	add	sp, sp, #16
	bx	lr
	.cfi_endproc
.LFE2990:
	.size	_ZN4_STL8ios_base5widthEi, .-_ZN4_STL8ios_base5widthEi
	.section	.text._ZNK4_STL8ios_base6getlocEv,"axG",%progbits,_ZNK4_STL8ios_base6getlocEv,comdat
	.align	2
	.weak	_ZNK4_STL8ios_base6getlocEv
	.hidden	_ZNK4_STL8ios_base6getlocEv
	.type	_ZNK4_STL8ios_base6getlocEv, %function
_ZNK4_STL8ios_base6getlocEv:
.LFB2991:
	.loc 16 151 0
	.cfi_startproc
	@ args = 0, pretend = 0, frame = 8
	@ frame_needed = 0, uses_anonymous_args = 0
	stmfd	sp!, {r4, lr}
.LCFI44:
	.cfi_def_cfa_offset 8
	sub	sp, sp, #8
.LCFI45:
	.cfi_def_cfa_offset 16
	mov	r4, r0
	.cfi_offset 14, -4
	.cfi_offset 4, -8
	str	r1, [sp, #4]
	.loc 16 151 0
	mov	r2, r4
	ldr	r3, [sp, #4]
	add	r3, r3, #32
	mov	r0, r2
	mov	r1, r3
	bl	_ZN4_STL6localeC1ERKS0_
	mov	r0, r4
	mov	r0, r4
	add	sp, sp, #8
	ldmfd	sp!, {r4, pc}
	.cfi_endproc
.LFE2991:
	.size	_ZNK4_STL8ios_base6getlocEv, .-_ZNK4_STL8ios_base6getlocEv
	.section	.text._ZNK4_STL8ios_base7rdstateEv,"axG",%progbits,_ZNK4_STL8ios_base7rdstateEv,comdat
	.align	2
	.weak	_ZNK4_STL8ios_base7rdstateEv
	.hidden	_ZNK4_STL8ios_base7rdstateEv
	.type	_ZNK4_STL8ios_base7rdstateEv, %function
_ZNK4_STL8ios_base7rdstateEv:
.LFB2994:
	.loc 16 178 0
	.cfi_startproc
	@ args = 0, pretend = 0, frame = 8
	@ frame_needed = 0, uses_anonymous_args = 0
	@ link register save eliminated.
	sub	sp, sp, #8
.LCFI46:
	.cfi_def_cfa_offset 8
	str	r0, [sp, #4]
	.loc 16 178 0
	ldr	r3, [sp, #4]
	ldr	r3, [r3, #8]
	mov	r0, r3
	add	sp, sp, #8
	bx	lr
	.cfi_endproc
.LFE2994:
	.size	_ZNK4_STL8ios_base7rdstateEv, .-_ZNK4_STL8ios_base7rdstateEv
	.section	.text._ZNK4_STL8ios_base4goodEv,"axG",%progbits,_ZNK4_STL8ios_base4goodEv,comdat
	.align	2
	.weak	_ZNK4_STL8ios_base4goodEv
	.hidden	_ZNK4_STL8ios_base4goodEv
	.type	_ZNK4_STL8ios_base4goodEv, %function
_ZNK4_STL8ios_base4goodEv:
.LFB2995:
	.loc 16 180 0
	.cfi_startproc
	@ args = 0, pretend = 0, frame = 8
	@ frame_needed = 0, uses_anonymous_args = 0
	@ link register save eliminated.
	sub	sp, sp, #8
.LCFI47:
	.cfi_def_cfa_offset 8
	str	r0, [sp, #4]
	.loc 16 180 0
	ldr	r3, [sp, #4]
	ldr	r3, [r3, #8]
	cmp	r3, #0
	movne	r3, #0
	moveq	r3, #1
	and	r3, r3, #255
	mov	r0, r3
	add	sp, sp, #8
	bx	lr
	.cfi_endproc
.LFE2995:
	.size	_ZNK4_STL8ios_base4goodEv, .-_ZNK4_STL8ios_base4goodEv
	.section	.text._ZN4_STL8ios_base16_M_clear_nothrowEi,"axG",%progbits,_ZN4_STL8ios_base16_M_clear_nothrowEi,comdat
	.align	2
	.weak	_ZN4_STL8ios_base16_M_clear_nothrowEi
	.hidden	_ZN4_STL8ios_base16_M_clear_nothrowEi
	.type	_ZN4_STL8ios_base16_M_clear_nothrowEi, %function
_ZN4_STL8ios_base16_M_clear_nothrowEi:
.LFB3000:
	.loc 16 194 0
	.cfi_startproc
	@ args = 0, pretend = 0, frame = 8
	@ frame_needed = 0, uses_anonymous_args = 0
	@ link register save eliminated.
	sub	sp, sp, #8
.LCFI48:
	.cfi_def_cfa_offset 8
	str	r0, [sp, #4]
	str	r1, [sp, #0]
	.loc 16 194 0
	ldr	r3, [sp, #4]
	ldr	r2, [sp, #0]
	str	r2, [r3, #8]
	add	sp, sp, #8
	bx	lr
	.cfi_endproc
.LFE3000:
	.size	_ZN4_STL8ios_base16_M_clear_nothrowEi, .-_ZN4_STL8ios_base16_M_clear_nothrowEi
	.section	.text._ZN4_STL8ios_base23_M_check_exception_maskEv,"axG",%progbits,_ZN4_STL8ios_base23_M_check_exception_maskEv,comdat
	.align	2
	.weak	_ZN4_STL8ios_base23_M_check_exception_maskEv
	.hidden	_ZN4_STL8ios_base23_M_check_exception_maskEv
	.type	_ZN4_STL8ios_base23_M_check_exception_maskEv, %function
_ZN4_STL8ios_base23_M_check_exception_maskEv:
.LFB3003:
	.loc 16 197 0
	.cfi_startproc
	@ args = 0, pretend = 0, frame = 8
	@ frame_needed = 0, uses_anonymous_args = 0
	str	lr, [sp, #-4]!
.LCFI49:
	.cfi_def_cfa_offset 4
	sub	sp, sp, #12
.LCFI50:
	.cfi_def_cfa_offset 16
	str	r0, [sp, #4]
	.loc 16 198 0
	ldr	r3, [sp, #4]
	ldr	r2, [r3, #8]
	ldr	r3, [sp, #4]
	ldr	r3, [r3, #20]
	and	r3, r2, r3
	cmp	r3, #0
	beq	.L95
	.cfi_offset 14, -4
	.loc 16 199 0
	ldr	r0, [sp, #4]
	bl	_ZN4_STL8ios_base16_M_throw_failureEv
.L95:
	.loc 16 200 0
	add	sp, sp, #12
	ldmfd	sp!, {pc}
	.cfi_endproc
.LFE3003:
	.size	_ZN4_STL8ios_base23_M_check_exception_maskEv, .-_ZN4_STL8ios_base23_M_check_exception_maskEv
	.section	.text._ZNK4_STL8ios_base14_M_ctype_facetEv,"axG",%progbits,_ZNK4_STL8ios_base14_M_ctype_facetEv,comdat
	.align	2
	.weak	_ZNK4_STL8ios_base14_M_ctype_facetEv
	.hidden	_ZNK4_STL8ios_base14_M_ctype_facetEv
	.type	_ZNK4_STL8ios_base14_M_ctype_facetEv, %function
_ZNK4_STL8ios_base14_M_ctype_facetEv:
.LFB3004:
	.loc 16 250 0
	.cfi_startproc
	@ args = 0, pretend = 0, frame = 8
	@ frame_needed = 0, uses_anonymous_args = 0
	@ link register save eliminated.
	sub	sp, sp, #8
.LCFI51:
	.cfi_def_cfa_offset 8
	str	r0, [sp, #4]
	.loc 16 250 0
	ldr	r3, [sp, #4]
	ldr	r3, [r3, #64]
	mov	r0, r3
	add	sp, sp, #8
	bx	lr
	.cfi_endproc
.LFE3004:
	.size	_ZNK4_STL8ios_base14_M_ctype_facetEv, .-_ZNK4_STL8ios_base14_M_ctype_facetEv
	.bss
	.align	2
_ZN4_STLL8_LocInitE:
	.space	1
	.align	2
_ZN4_STLL8_IosInitE:
	.space	1
	.section	.text._ZN3MapD2Ev,"ax",%progbits
	.align	2
	.global	_ZN3MapD2Ev
	.hidden	_ZN3MapD2Ev
	.type	_ZN3MapD2Ev, %function
_ZN3MapD2Ev:
.LFB3394:
	.file 17 "c:/users/1106786/dropbox/dropbox/pg life/project impact/code/demos/o-demo_7_indicator/src/map.cpp"
	.loc 17 7 0
	.cfi_startproc
	@ args = 0, pretend = 0, frame = 8
	@ frame_needed = 0, uses_anonymous_args = 0
	stmfd	sp!, {r4, lr}
.LCFI52:
	.cfi_def_cfa_offset 8
	sub	sp, sp, #8
.LCFI53:
	.cfi_def_cfa_offset 16
	str	r0, [sp, #4]
	.loc 17 9 0
	ldr	r3, [sp, #4]
	ldr	r4, [r3, #68]
	.cfi_offset 14, -4
	.cfi_offset 4, -8
	cmp	r4, #0
	beq	.L99
	mov	r0, r4
	bl	_ZN5LayerD1Ev
	mov	r0, r4
	bl	_ZdlPv
.L99:
	.loc 17 10 0
	ldr	r3, [sp, #4]
	ldr	r4, [r3, #72]
	cmp	r4, #0
	beq	.L100
	mov	r0, r4
	bl	_ZN5LayerD1Ev
	mov	r0, r4
	bl	_ZdlPv
.L100:
	.loc 17 11 0
	ldr	r3, [sp, #4]
	ldr	r4, [r3, #76]
	cmp	r4, #0
	beq	.L101
	mov	r0, r4
	bl	_ZN5LayerD1Ev
	mov	r0, r4
	bl	_ZdlPv
.L101:
	.loc 17 12 0
	ldr	r3, [sp, #4]
	ldr	r4, [r3, #80]
	cmp	r4, #0
	beq	.L102
	mov	r0, r4
	bl	_ZN5LayerD1Ev
	mov	r0, r4
	bl	_ZdlPv
.L102:
	.loc 17 13 0
	ldr	r3, [sp, #4]
	ldr	r4, [r3, #84]
	cmp	r4, #0
	beq	.L103
	mov	r0, r4
	bl	_ZN5LayerD1Ev
	mov	r0, r4
	bl	_ZdlPv
.L103:
	.loc 17 14 0
	ldr	r3, [sp, #4]
	ldr	r4, [r3, #88]
	cmp	r4, #0
	beq	.L104
	mov	r0, r4
	bl	_ZN7TileSetD1Ev
	mov	r0, r4
	bl	_ZdlPv
.L104:
	.loc 17 15 0
	ldr	r3, [sp, #4]
	ldr	r4, [r3, #92]
	cmp	r4, #0
	beq	.L105
	mov	r0, r4
	bl	_ZN7TileSetD1Ev
	mov	r0, r4
	bl	_ZdlPv
.L105:
	.loc 17 16 0
	ldr	r3, [sp, #4]
	ldr	r4, [r3, #96]
	cmp	r4, #0
	beq	.L106
	mov	r0, r4
	bl	_ZN7TileSetD1Ev
	mov	r0, r4
	bl	_ZdlPv
.L106:
	.loc 17 17 0
	ldr	r3, [sp, #4]
	ldr	r4, [r3, #100]
	cmp	r4, #0
	beq	.L107
	mov	r0, r4
	bl	_ZN4PathD1Ev
	mov	r0, r4
	bl	_ZdlPv
.L107:
	.loc 17 18 0
	ldr	r3, [sp, #4]
	add	r3, r3, #256
	mov	r0, r3
	bl	_ZN8CIwArrayIP3NPC12CIwAllocatorIS1_15CIwMallocRouterIS1_EE17ReallocateDefaultIS1_S5_EE15clear_optimisedEv
	.loc 17 19 0
	ldr	r3, [sp, #4]
	ldr	r3, [r3, #280]
	cmp	r3, #0
	beq	.L108
	ldr	r3, [sp, #4]
	ldr	r3, [r3, #280]
	ldr	r3, [r3, #0]
	add	r3, r3, #16
	ldr	r3, [r3, #0]
	ldr	r2, [sp, #4]
	ldr	r2, [r2, #280]
	mov	r0, r2
	blx	r3
.L108:
	.loc 17 20 0
	ldr	r3, [sp, #4]
	add	r3, r3, #24
	mov	r0, r3
	bl	_ZN8CIwArrayIi12CIwAllocatorIi15CIwMallocRouterIiEE17ReallocateDefaultIiS3_EE15clear_optimisedEv
	.loc 17 21 0
	ldr	r3, [sp, #4]
	add	r3, r3, #116
	mov	r0, r3
	bl	_ZN8CIwArrayIi12CIwAllocatorIi15CIwMallocRouterIiEE17ReallocateDefaultIiS3_EE15clear_optimisedEv
	.loc 17 22 0
	ldr	r3, [sp, #4]
	add	r3, r3, #132
	mov	r0, r3
	bl	_ZN8CIwArrayI12TileObstacle12CIwAllocatorIS0_15CIwMallocRouterIS0_EE17ReallocateDefaultIS0_S4_EE15clear_optimisedEv
	.loc 17 23 0
	ldr	r3, [sp, #4]
	add	r3, r3, #192
	mov	r0, r3
	bl	_ZN8CIwArrayIi12CIwAllocatorIi15CIwMallocRouterIiEE17ReallocateDefaultIiS3_EE15clear_optimisedEv
	.loc 17 24 0
	ldr	r3, [sp, #4]
	add	r3, r3, #208
	mov	r0, r3
	bl	_ZN8CIwArrayIi12CIwAllocatorIi15CIwMallocRouterIiEE17ReallocateDefaultIiS3_EE15clear_optimisedEv
	.loc 17 25 0
	ldr	r3, [sp, #4]
	add	r3, r3, #224
	mov	r0, r3
	bl	_ZN8CIwArrayIi12CIwAllocatorIi15CIwMallocRouterIiEE17ReallocateDefaultIiS3_EE15clear_optimisedEv
	.loc 17 26 0
	ldr	r3, [sp, #4]
	add	r3, r3, #240
	mov	r0, r3
	bl	_ZN8CIwArrayIi12CIwAllocatorIi15CIwMallocRouterIiEE17ReallocateDefaultIiS3_EE15clear_optimisedEv
	.loc 17 27 0
	ldr	r3, [sp, #4]
	add	r3, r3, #340
	mov	r0, r3
	bl	_ZN8CIwArrayIPc12CIwAllocatorIS0_15CIwMallocRouterIS0_EE17ReallocateDefaultIS0_S4_EED1Ev
	ldr	r3, [sp, #4]
	add	r3, r3, #324
	mov	r0, r3
	bl	_ZN8CIwArrayIi12CIwAllocatorIi15CIwMallocRouterIiEE17ReallocateDefaultIiS3_EED1Ev
	ldr	r3, [sp, #4]
	add	r3, r3, #308
	mov	r0, r3
	bl	_ZN8CIwArrayIi12CIwAllocatorIi15CIwMallocRouterIiEE17ReallocateDefaultIiS3_EED1Ev
	ldr	r3, [sp, #4]
	add	r3, r3, #292
	mov	r0, r3
	bl	_ZN8CIwArrayIi12CIwAllocatorIi15CIwMallocRouterIiEE17ReallocateDefaultIiS3_EED1Ev
	ldr	r3, [sp, #4]
	add	r3, r3, #256
	mov	r0, r3
	bl	_ZN8CIwArrayIP3NPC12CIwAllocatorIS1_15CIwMallocRouterIS1_EE17ReallocateDefaultIS1_S5_EED1Ev
	ldr	r3, [sp, #4]
	add	r3, r3, #240
	mov	r0, r3
	bl	_ZN8CIwArrayIi12CIwAllocatorIi15CIwMallocRouterIiEE17ReallocateDefaultIiS3_EED1Ev
	ldr	r3, [sp, #4]
	add	r3, r3, #224
	mov	r0, r3
	bl	_ZN8CIwArrayIi12CIwAllocatorIi15CIwMallocRouterIiEE17ReallocateDefaultIiS3_EED1Ev
	ldr	r3, [sp, #4]
	add	r3, r3, #208
	mov	r0, r3
	bl	_ZN8CIwArrayIi12CIwAllocatorIi15CIwMallocRouterIiEE17ReallocateDefaultIiS3_EED1Ev
	ldr	r3, [sp, #4]
	add	r3, r3, #192
	mov	r0, r3
	bl	_ZN8CIwArrayIi12CIwAllocatorIi15CIwMallocRouterIiEE17ReallocateDefaultIiS3_EED1Ev
	ldr	r3, [sp, #4]
	add	r3, r3, #164
	mov	r0, r3
	bl	_ZN8CIwArrayIi12CIwAllocatorIi15CIwMallocRouterIiEE17ReallocateDefaultIiS3_EED1Ev
	ldr	r3, [sp, #4]
	add	r3, r3, #132
	mov	r0, r3
	bl	_ZN8CIwArrayI12TileObstacle12CIwAllocatorIS0_15CIwMallocRouterIS0_EE17ReallocateDefaultIS0_S4_EED1Ev
	ldr	r3, [sp, #4]
	add	r3, r3, #116
	mov	r0, r3
	bl	_ZN8CIwArrayIi12CIwAllocatorIi15CIwMallocRouterIiEE17ReallocateDefaultIiS3_EED1Ev
	ldr	r3, [sp, #4]
	add	r3, r3, #24
	mov	r0, r3
	bl	_ZN8CIwArrayIi12CIwAllocatorIi15CIwMallocRouterIiEE17ReallocateDefaultIiS3_EED1Ev
	ldr	r3, [sp, #4]
	mov	r0, r3
	add	sp, sp, #8
	ldmfd	sp!, {r4, pc}
	.cfi_endproc
.LFE3394:
	.size	_ZN3MapD2Ev, .-_ZN3MapD2Ev
	.section	.text._ZN3MapD1Ev,"ax",%progbits
	.align	2
	.global	_ZN3MapD1Ev
	.hidden	_ZN3MapD1Ev
	.type	_ZN3MapD1Ev, %function
_ZN3MapD1Ev:
.LFB3395:
	.loc 17 7 0
	.cfi_startproc
	@ args = 0, pretend = 0, frame = 8
	@ frame_needed = 0, uses_anonymous_args = 0
	stmfd	sp!, {r4, lr}
.LCFI54:
	.cfi_def_cfa_offset 8
	sub	sp, sp, #8
.LCFI55:
	.cfi_def_cfa_offset 16
	str	r0, [sp, #4]
	.loc 17 9 0
	ldr	r3, [sp, #4]
	ldr	r4, [r3, #68]
	.cfi_offset 14, -4
	.cfi_offset 4, -8
	cmp	r4, #0
	beq	.L112
	mov	r0, r4
	bl	_ZN5LayerD1Ev
	mov	r0, r4
	bl	_ZdlPv
.L112:
	.loc 17 10 0
	ldr	r3, [sp, #4]
	ldr	r4, [r3, #72]
	cmp	r4, #0
	beq	.L113
	mov	r0, r4
	bl	_ZN5LayerD1Ev
	mov	r0, r4
	bl	_ZdlPv
.L113:
	.loc 17 11 0
	ldr	r3, [sp, #4]
	ldr	r4, [r3, #76]
	cmp	r4, #0
	beq	.L114
	mov	r0, r4
	bl	_ZN5LayerD1Ev
	mov	r0, r4
	bl	_ZdlPv
.L114:
	.loc 17 12 0
	ldr	r3, [sp, #4]
	ldr	r4, [r3, #80]
	cmp	r4, #0
	beq	.L115
	mov	r0, r4
	bl	_ZN5LayerD1Ev
	mov	r0, r4
	bl	_ZdlPv
.L115:
	.loc 17 13 0
	ldr	r3, [sp, #4]
	ldr	r4, [r3, #84]
	cmp	r4, #0
	beq	.L116
	mov	r0, r4
	bl	_ZN5LayerD1Ev
	mov	r0, r4
	bl	_ZdlPv
.L116:
	.loc 17 14 0
	ldr	r3, [sp, #4]
	ldr	r4, [r3, #88]
	cmp	r4, #0
	beq	.L117
	mov	r0, r4
	bl	_ZN7TileSetD1Ev
	mov	r0, r4
	bl	_ZdlPv
.L117:
	.loc 17 15 0
	ldr	r3, [sp, #4]
	ldr	r4, [r3, #92]
	cmp	r4, #0
	beq	.L118
	mov	r0, r4
	bl	_ZN7TileSetD1Ev
	mov	r0, r4
	bl	_ZdlPv
.L118:
	.loc 17 16 0
	ldr	r3, [sp, #4]
	ldr	r4, [r3, #96]
	cmp	r4, #0
	beq	.L119
	mov	r0, r4
	bl	_ZN7TileSetD1Ev
	mov	r0, r4
	bl	_ZdlPv
.L119:
	.loc 17 17 0
	ldr	r3, [sp, #4]
	ldr	r4, [r3, #100]
	cmp	r4, #0
	beq	.L120
	mov	r0, r4
	bl	_ZN4PathD1Ev
	mov	r0, r4
	bl	_ZdlPv
.L120:
	.loc 17 18 0
	ldr	r3, [sp, #4]
	add	r3, r3, #256
	mov	r0, r3
	bl	_ZN8CIwArrayIP3NPC12CIwAllocatorIS1_15CIwMallocRouterIS1_EE17ReallocateDefaultIS1_S5_EE15clear_optimisedEv
	.loc 17 19 0
	ldr	r3, [sp, #4]
	ldr	r3, [r3, #280]
	cmp	r3, #0
	beq	.L121
	ldr	r3, [sp, #4]
	ldr	r3, [r3, #280]
	ldr	r3, [r3, #0]
	add	r3, r3, #16
	ldr	r3, [r3, #0]
	ldr	r2, [sp, #4]
	ldr	r2, [r2, #280]
	mov	r0, r2
	blx	r3
.L121:
	.loc 17 20 0
	ldr	r3, [sp, #4]
	add	r3, r3, #24
	mov	r0, r3
	bl	_ZN8CIwArrayIi12CIwAllocatorIi15CIwMallocRouterIiEE17ReallocateDefaultIiS3_EE15clear_optimisedEv
	.loc 17 21 0
	ldr	r3, [sp, #4]
	add	r3, r3, #116
	mov	r0, r3
	bl	_ZN8CIwArrayIi12CIwAllocatorIi15CIwMallocRouterIiEE17ReallocateDefaultIiS3_EE15clear_optimisedEv
	.loc 17 22 0
	ldr	r3, [sp, #4]
	add	r3, r3, #132
	mov	r0, r3
	bl	_ZN8CIwArrayI12TileObstacle12CIwAllocatorIS0_15CIwMallocRouterIS0_EE17ReallocateDefaultIS0_S4_EE15clear_optimisedEv
	.loc 17 23 0
	ldr	r3, [sp, #4]
	add	r3, r3, #192
	mov	r0, r3
	bl	_ZN8CIwArrayIi12CIwAllocatorIi15CIwMallocRouterIiEE17ReallocateDefaultIiS3_EE15clear_optimisedEv
	.loc 17 24 0
	ldr	r3, [sp, #4]
	add	r3, r3, #208
	mov	r0, r3
	bl	_ZN8CIwArrayIi12CIwAllocatorIi15CIwMallocRouterIiEE17ReallocateDefaultIiS3_EE15clear_optimisedEv
	.loc 17 25 0
	ldr	r3, [sp, #4]
	add	r3, r3, #224
	mov	r0, r3
	bl	_ZN8CIwArrayIi12CIwAllocatorIi15CIwMallocRouterIiEE17ReallocateDefaultIiS3_EE15clear_optimisedEv
	.loc 17 26 0
	ldr	r3, [sp, #4]
	add	r3, r3, #240
	mov	r0, r3
	bl	_ZN8CIwArrayIi12CIwAllocatorIi15CIwMallocRouterIiEE17ReallocateDefaultIiS3_EE15clear_optimisedEv
	.loc 17 27 0
	ldr	r3, [sp, #4]
	add	r3, r3, #340
	mov	r0, r3
	bl	_ZN8CIwArrayIPc12CIwAllocatorIS0_15CIwMallocRouterIS0_EE17ReallocateDefaultIS0_S4_EED1Ev
	ldr	r3, [sp, #4]
	add	r3, r3, #324
	mov	r0, r3
	bl	_ZN8CIwArrayIi12CIwAllocatorIi15CIwMallocRouterIiEE17ReallocateDefaultIiS3_EED1Ev
	ldr	r3, [sp, #4]
	add	r3, r3, #308
	mov	r0, r3
	bl	_ZN8CIwArrayIi12CIwAllocatorIi15CIwMallocRouterIiEE17ReallocateDefaultIiS3_EED1Ev
	ldr	r3, [sp, #4]
	add	r3, r3, #292
	mov	r0, r3
	bl	_ZN8CIwArrayIi12CIwAllocatorIi15CIwMallocRouterIiEE17ReallocateDefaultIiS3_EED1Ev
	ldr	r3, [sp, #4]
	add	r3, r3, #256
	mov	r0, r3
	bl	_ZN8CIwArrayIP3NPC12CIwAllocatorIS1_15CIwMallocRouterIS1_EE17ReallocateDefaultIS1_S5_EED1Ev
	ldr	r3, [sp, #4]
	add	r3, r3, #240
	mov	r0, r3
	bl	_ZN8CIwArrayIi12CIwAllocatorIi15CIwMallocRouterIiEE17ReallocateDefaultIiS3_EED1Ev
	ldr	r3, [sp, #4]
	add	r3, r3, #224
	mov	r0, r3
	bl	_ZN8CIwArrayIi12CIwAllocatorIi15CIwMallocRouterIiEE17ReallocateDefaultIiS3_EED1Ev
	ldr	r3, [sp, #4]
	add	r3, r3, #208
	mov	r0, r3
	bl	_ZN8CIwArrayIi12CIwAllocatorIi15CIwMallocRouterIiEE17ReallocateDefaultIiS3_EED1Ev
	ldr	r3, [sp, #4]
	add	r3, r3, #192
	mov	r0, r3
	bl	_ZN8CIwArrayIi12CIwAllocatorIi15CIwMallocRouterIiEE17ReallocateDefaultIiS3_EED1Ev
	ldr	r3, [sp, #4]
	add	r3, r3, #164
	mov	r0, r3
	bl	_ZN8CIwArrayIi12CIwAllocatorIi15CIwMallocRouterIiEE17ReallocateDefaultIiS3_EED1Ev
	ldr	r3, [sp, #4]
	add	r3, r3, #132
	mov	r0, r3
	bl	_ZN8CIwArrayI12TileObstacle12CIwAllocatorIS0_15CIwMallocRouterIS0_EE17ReallocateDefaultIS0_S4_EED1Ev
	ldr	r3, [sp, #4]
	add	r3, r3, #116
	mov	r0, r3
	bl	_ZN8CIwArrayIi12CIwAllocatorIi15CIwMallocRouterIiEE17ReallocateDefaultIiS3_EED1Ev
	ldr	r3, [sp, #4]
	add	r3, r3, #24
	mov	r0, r3
	bl	_ZN8CIwArrayIi12CIwAllocatorIi15CIwMallocRouterIiEE17ReallocateDefaultIiS3_EED1Ev
	ldr	r3, [sp, #4]
	mov	r0, r3
	add	sp, sp, #8
	ldmfd	sp!, {r4, pc}
	.cfi_endproc
.LFE3395:
	.size	_ZN3MapD1Ev, .-_ZN3MapD1Ev
	.section	.text._Z7CharCMPPcS_i,"ax",%progbits
	.align	2
	.global	_Z7CharCMPPcS_i
	.hidden	_Z7CharCMPPcS_i
	.type	_Z7CharCMPPcS_i, %function
_Z7CharCMPPcS_i:
.LFB3396:
	.loc 17 30 0
	.cfi_startproc
	@ args = 0, pretend = 0, frame = 24
	@ frame_needed = 0, uses_anonymous_args = 0
	@ link register save eliminated.
	sub	sp, sp, #24
.LCFI56:
	.cfi_def_cfa_offset 24
	str	r0, [sp, #12]
	str	r1, [sp, #8]
	str	r2, [sp, #4]
.LBB3:
	.loc 17 31 0
	mov	r3, #0
	str	r3, [sp, #20]
	.loc 17 32 0
	b	.L125
.L128:
	.loc 17 34 0
	ldr	r2, [sp, #20]
	ldr	r3, [sp, #12]
	add	r3, r2, r3
	ldrb	r2, [r3, #0]	@ zero_extendqisi2
	ldr	r1, [sp, #20]
	ldr	r3, [sp, #8]
	add	r3, r1, r3
	ldrb	r3, [r3, #0]	@ zero_extendqisi2
	cmp	r2, r3
	beq	.L126
	.loc 17 35 0
	mov	r3, #0
	b	.L127
.L126:
	.loc 17 36 0
	ldr	r3, [sp, #20]
	add	r3, r3, #1
	str	r3, [sp, #20]
.L125:
	.loc 17 32 0
	ldr	r2, [sp, #20]
	ldr	r3, [sp, #4]
	cmp	r2, r3
	movge	r3, #0
	movlt	r3, #1
	and	r3, r3, #255
	cmp	r3, #0
	bne	.L128
	.loc 17 38 0
	mov	r3, #1
.L127:
.LBE3:
	.loc 17 39 0
	mov	r0, r3
	add	sp, sp, #24
	bx	lr
	.cfi_endproc
.LFE3396:
	.size	_Z7CharCMPPcS_i, .-_Z7CharCMPPcS_i
	.section	.rodata
	.align	2
.LC0:
	.ascii	"Alpha 8 - Lobby.json\000"
	.align	2
.LC1:
	.ascii	"Alpha 8 - Level1.json\000"
	.align	2
.LC2:
	.ascii	"Alpha 8 - Level2.json\000"
	.align	2
.LC3:
	.ascii	"Alpha 8 - Level3.json\000"
	.align	2
.LC4:
	.ascii	"Alpha 8 - Level4.json\000"
	.align	2
.LC5:
	.ascii	"Alpha 8 - Level5.json\000"
	.align	2
.LC6:
	.ascii	"Alpha 8 - Level6.json\000"
	.align	2
.LC7:
	.ascii	"Alpha 8 - Level7.json\000"
	.align	2
.LC8:
	.ascii	"Alpha 8 - Level8.json\000"
	.align	2
.LC9:
	.ascii	"Alpha 8 - Level9.json\000"
	.align	2
.LC10:
	.ascii	"Alpha 8 - Level10.json\000"
	.align	2
.LC11:
	.ascii	"Alpha 8 - Lobby - Copy.json\000"
	.section	.text._ZN3Map4LoadEi,"ax",%progbits
	.align	2
	.global	_ZN3Map4LoadEi
	.hidden	_ZN3Map4LoadEi
	.type	_ZN3Map4LoadEi, %function
_ZN3Map4LoadEi:
.LFB3397:
	.loc 17 42 0
	.cfi_startproc
	@ args = 0, pretend = 0, frame = 8
	@ frame_needed = 0, uses_anonymous_args = 0
	str	lr, [sp, #-4]!
.LCFI57:
	.cfi_def_cfa_offset 4
	sub	sp, sp, #12
.LCFI58:
	.cfi_def_cfa_offset 16
	str	r0, [sp, #4]
	str	r1, [sp, #0]
	.loc 17 43 0
	ldr	r3, [sp, #0]
	cmp	r3, #10
	ldrls	pc, [pc, r3, asl #2]
	b	.L131
	.cfi_offset 14, -4
.L143:
	.word	.L132
	.word	.L133
	.word	.L134
	.word	.L135
	.word	.L136
	.word	.L137
	.word	.L138
	.word	.L139
	.word	.L140
	.word	.L141
	.word	.L142
.L132:
	.loc 17 46 0
	ldr	r0, [sp, #4]
	ldr	r1, .L146
	bl	_ZN3Map4LoadEPc
	.loc 17 47 0
	b	.L145
.L133:
	.loc 17 49 0
	ldr	r0, [sp, #4]
	ldr	r1, .L146+4
	bl	_ZN3Map4LoadEPc
	.loc 17 50 0
	b	.L145
.L134:
	.loc 17 52 0
	ldr	r0, [sp, #4]
	ldr	r1, .L146+8
	bl	_ZN3Map4LoadEPc
	.loc 17 53 0
	b	.L145
.L135:
	.loc 17 55 0
	ldr	r0, [sp, #4]
	ldr	r1, .L146+12
	bl	_ZN3Map4LoadEPc
	.loc 17 56 0
	b	.L145
.L136:
	.loc 17 58 0
	ldr	r0, [sp, #4]
	ldr	r1, .L146+16
	bl	_ZN3Map4LoadEPc
	.loc 17 59 0
	b	.L145
.L137:
	.loc 17 61 0
	ldr	r0, [sp, #4]
	ldr	r1, .L146+20
	bl	_ZN3Map4LoadEPc
	.loc 17 62 0
	b	.L145
.L138:
	.loc 17 64 0
	ldr	r0, [sp, #4]
	ldr	r1, .L146+24
	bl	_ZN3Map4LoadEPc
	.loc 17 65 0
	b	.L145
.L139:
	.loc 17 67 0
	ldr	r0, [sp, #4]
	ldr	r1, .L146+28
	bl	_ZN3Map4LoadEPc
	.loc 17 68 0
	b	.L145
.L140:
	.loc 17 70 0
	ldr	r0, [sp, #4]
	ldr	r1, .L146+32
	bl	_ZN3Map4LoadEPc
	.loc 17 71 0
	b	.L145
.L141:
	.loc 17 73 0
	ldr	r0, [sp, #4]
	ldr	r1, .L146+36
	bl	_ZN3Map4LoadEPc
	.loc 17 74 0
	b	.L145
.L142:
	.loc 17 76 0
	ldr	r0, [sp, #4]
	ldr	r1, .L146+40
	bl	_ZN3Map4LoadEPc
	.loc 17 77 0
	b	.L145
.L131:
	.loc 17 79 0
	ldr	r0, [sp, #4]
	ldr	r1, .L146+44
	bl	_ZN3Map4LoadEPc
.L145:
	.loc 17 82 0
	add	sp, sp, #12
	ldmfd	sp!, {pc}
.L147:
	.align	2
.L146:
	.word	.LC0
	.word	.LC1
	.word	.LC2
	.word	.LC3
	.word	.LC4
	.word	.LC5
	.word	.LC6
	.word	.LC7
	.word	.LC8
	.word	.LC9
	.word	.LC10
	.word	.LC11
	.cfi_endproc
.LFE3397:
	.size	_ZN3Map4LoadEi, .-_ZN3Map4LoadEi
	.section	.text._ZN3NPCC1Ev,"axG",%progbits,_ZN3NPCC1Ev,comdat
	.align	2
	.weak	_ZN3NPCC1Ev
	.hidden	_ZN3NPCC1Ev
	.type	_ZN3NPCC1Ev, %function
_ZN3NPCC1Ev:
.LFB3401:
	.file 18 "c:/users/1106786/dropbox/dropbox/pg life/project impact/code/demos/o-demo_7_indicator/h/NPC.h"
	.loc 18 7 0
	.cfi_startproc
	@ args = 0, pretend = 0, frame = 8
	@ frame_needed = 0, uses_anonymous_args = 0
	str	lr, [sp, #-4]!
.LCFI59:
	.cfi_def_cfa_offset 4
	sub	sp, sp, #12
.LCFI60:
	.cfi_def_cfa_offset 16
	str	r0, [sp, #4]
	.loc 18 7 0
	ldr	r3, [sp, #4]
	mov	r0, r3
	.cfi_offset 14, -4
	bl	_ZN8CIwFVec2C1Ev
	ldr	r3, [sp, #4]
	add	r3, r3, #8
	mov	r0, r3
	bl	_ZN8CIwSVec2C1Ev
	ldr	r3, [sp, #4]
	add	r3, r3, #16
	mov	r0, r3
	mov	r1, #0
	bl	_ZN8CIwArrayIPc12CIwAllocatorIS0_15CIwMallocRouterIS0_EE17ReallocateDefaultIS0_S4_EEC1Ej
	ldr	r3, [sp, #4]
	mov	r0, r3
	add	sp, sp, #12
	ldmfd	sp!, {pc}
	.cfi_endproc
.LFE3401:
	.size	_ZN3NPCC1Ev, .-_ZN3NPCC1Ev
	.section	.text._ZN12TileObstacleC1ERKS_,"axG",%progbits,_ZN12TileObstacleC1ERKS_,comdat
	.align	2
	.weak	_ZN12TileObstacleC1ERKS_
	.hidden	_ZN12TileObstacleC1ERKS_
	.type	_ZN12TileObstacleC1ERKS_, %function
_ZN12TileObstacleC1ERKS_:
.LFB3404:
	.loc 9 10 0
	.cfi_startproc
	@ args = 0, pretend = 0, frame = 8
	@ frame_needed = 0, uses_anonymous_args = 0
	str	lr, [sp, #-4]!
.LCFI61:
	.cfi_def_cfa_offset 4
	sub	sp, sp, #12
.LCFI62:
	.cfi_def_cfa_offset 16
	str	r0, [sp, #4]
	str	r1, [sp, #0]
	.loc 9 10 0
	ldr	r3, [sp, #4]
	ldr	r2, [sp, #0]
	ldmia	r2, {r0, r1}
	stmia	r3, {r0, r1}
	ldr	r2, [sp, #4]
	ldr	r3, [sp, #0]
	add	ip, r2, #8
	add	r3, r3, #8
	ldmia	r3, {r0, r1, r2, r3}
	stmia	ip, {r0, r1, r2, r3}
	ldr	r3, [sp, #4]
	add	r2, r3, #24
	ldr	r3, [sp, #0]
	add	r3, r3, #24
	mov	r0, r2
	mov	r1, r3
	.cfi_offset 14, -4
	bl	_ZN4_STL6vectorI8ObstacleNS_9allocatorIS1_EEEC1ERKS4_
	ldr	r3, [sp, #4]
	ldr	r2, [sp, #0]
	ldr	r2, [r2, #36]
	str	r2, [r3, #36]
	ldr	r3, [sp, #0]
	ldrb	r2, [r3, #40]	@ zero_extendqisi2
	ldr	r3, [sp, #4]
	strb	r2, [r3, #40]
	ldr	r3, [sp, #4]
	mov	r0, r3
	add	sp, sp, #12
	ldmfd	sp!, {pc}
	.cfi_endproc
.LFE3404:
	.size	_ZN12TileObstacleC1ERKS_, .-_ZN12TileObstacleC1ERKS_
	.section	.rodata
	.align	2
.LC12:
	.ascii	"We have been waiting for someone to help for a whil"
	.ascii	"e now.\000"
	.align	2
.LC13:
	.ascii	"Will it be you?\000"
	.align	2
.LC14:
	.ascii	"Do you think you can help us? It would not take up "
	.ascii	"too much of your time.\000"
	.section	.text._ZN3Map4LoadEPc,"ax",%progbits
	.align	2
	.global	_ZN3Map4LoadEPc
	.hidden	_ZN3Map4LoadEPc
	.type	_ZN3Map4LoadEPc, %function
_ZN3Map4LoadEPc:
.LFB3398:
	.loc 17 84 0
	.cfi_startproc
	@ args = 0, pretend = 0, frame = 96
	@ frame_needed = 0, uses_anonymous_args = 0
	stmfd	sp!, {r4, lr}
.LCFI63:
	.cfi_def_cfa_offset 8
	sub	sp, sp, #96
.LCFI64:
	.cfi_def_cfa_offset 104
	str	r0, [sp, #4]
	str	r1, [sp, #0]
.LBB4:
	.loc 17 85 0
	mov	r3, #0
	str	r3, [sp, #56]
	mov	r3, #0
	str	r3, [sp, #60]
	.loc 17 86 0
	ldr	r3, [sp, #4]
	add	r2, r3, #16
	add	r3, sp, #56
	mov	r0, r2
	mov	r1, r3
	mov	r2, #8
	.cfi_offset 14, -4
	.cfi_offset 4, -8
	bl	memcpy
	.loc 17 87 0
	ldr	r3, [sp, #4]
	add	r2, r3, #180
	add	r3, sp, #56
	mov	r0, r2
	mov	r1, r3
	mov	r2, #8
	bl	memcpy
	.loc 17 88 0
	ldr	r3, [sp, #4]
	mvn	r2, #0
	str	r2, [r3, #284]
	.loc 17 89 0
	bl	IwGxGetScreenHeight
	mov	r3, r0
	mov	r2, r3
	ldr	r3, [sp, #4]
	str	r2, [r3, #56]
	.loc 17 90 0
	bl	IwGxGetScreenWidth
	mov	r3, r0
	mov	r2, r3
	ldr	r3, [sp, #4]
	str	r2, [r3, #60]
	.loc 17 91 0
	mov	r0, #80
	bl	_Znwj
	mov	r3, r0
	mov	r4, r3
	mov	r3, r4
	mov	r0, r3
	bl	_ZN5LayerC1Ev
	mov	r2, r4
	ldr	r3, [sp, #4]
	str	r2, [r3, #68]
	.loc 17 92 0
	mov	r0, #80
	bl	_Znwj
	mov	r3, r0
	mov	r4, r3
	mov	r3, r4
	mov	r0, r3
	bl	_ZN5LayerC1Ev
	mov	r2, r4
	ldr	r3, [sp, #4]
	str	r2, [r3, #72]
	.loc 17 93 0
	mov	r0, #80
	bl	_Znwj
	mov	r3, r0
	mov	r4, r3
	mov	r3, r4
	mov	r0, r3
	bl	_ZN5LayerC1Ev
	mov	r2, r4
	ldr	r3, [sp, #4]
	str	r2, [r3, #76]
	.loc 17 94 0
	mov	r0, #80
	bl	_Znwj
	mov	r3, r0
	mov	r4, r3
	mov	r3, r4
	mov	r0, r3
	bl	_ZN5LayerC1Ev
	mov	r2, r4
	ldr	r3, [sp, #4]
	str	r2, [r3, #84]
	.loc 17 95 0
	mov	r0, #80
	bl	_Znwj
	mov	r3, r0
	mov	r4, r3
	mov	r3, r4
	mov	r0, r3
	bl	_ZN5LayerC1Ev
	mov	r2, r4
	ldr	r3, [sp, #4]
	str	r2, [r3, #80]
	.loc 17 96 0
	mov	r0, #76
	bl	_Znwj
	mov	r3, r0
	mov	r4, r3
	mov	r3, r4
	mov	r0, r3
	bl	_ZN7TileSetC1Ev
	mov	r2, r4
	ldr	r3, [sp, #4]
	str	r2, [r3, #88]
	.loc 17 97 0
	mov	r0, #76
	bl	_Znwj
	mov	r3, r0
	mov	r4, r3
	mov	r3, r4
	mov	r0, r3
	bl	_ZN7TileSetC1Ev
	mov	r2, r4
	ldr	r3, [sp, #4]
	str	r2, [r3, #92]
	.loc 17 98 0
	mov	r0, #76
	bl	_Znwj
	mov	r3, r0
	mov	r4, r3
	mov	r3, r4
	mov	r0, r3
	bl	_ZN7TileSetC1Ev
	mov	r2, r4
	ldr	r3, [sp, #4]
	str	r2, [r3, #96]
	.loc 17 99 0
	mov	r0, #40
	bl	_Znwj
	mov	r3, r0
	mov	r4, r3
	mov	r3, r4
	mov	r0, r3
	bl	_ZN4PathC1Ev
	mov	r2, r4
	ldr	r3, [sp, #4]
	str	r2, [r3, #100]
	.loc 17 100 0
	ldr	r0, [sp, #4]
	ldr	r1, [sp, #0]
	bl	_ZN3Map12ReadJsonFileEPc
	.loc 17 101 0
	ldr	r3, [sp, #4]
	mov	r2, #0
	str	r2, [r3, #148]
.LBB5:
	.loc 17 102 0
	mov	r3, #0
	str	r3, [sp, #88]
	b	.L155
.L160:
.LBB6:
	.loc 17 104 0
	mov	r0, #36
	bl	_Znwj
	mov	r3, r0
	mov	r4, r3
	mov	r3, r4
	mov	r0, r3
	bl	_ZN3NPCC1Ev
	mov	r3, r4
	str	r3, [sp, #52]
	.loc 17 105 0
	ldr	r3, [sp, #4]
	add	r3, r3, #324
	mov	r0, r3
	ldr	r1, [sp, #88]
	bl	_ZNK8CIwArrayIi12CIwAllocatorIi15CIwMallocRouterIiEE17ReallocateDefaultIiS3_EEixEi
	mov	r3, r0
	ldr	r3, [r3, #0]
	cmp	r3, #3
	beq	.L158
	cmp	r3, #6
	beq	.L159
	cmp	r3, #2
	bne	.L156
.L157:
	.loc 17 108 0
	ldr	r3, [sp, #52]
	add	r2, r3, #16
	ldr	r3, .L164
	str	r3, [sp, #64]
	add	r3, sp, #64
	mov	r0, r2
	mov	r1, r3
	bl	_ZN8CIwArrayIPc12CIwAllocatorIS0_15CIwMallocRouterIS0_EE17ReallocateDefaultIS0_S4_EE6appendERKS0_
	.loc 17 109 0
	b	.L156
.L158:
	.loc 17 111 0
	ldr	r3, [sp, #52]
	add	r2, r3, #16
	ldr	r3, .L164+4
	str	r3, [sp, #68]
	add	r3, sp, #68
	mov	r0, r2
	mov	r1, r3
	bl	_ZN8CIwArrayIPc12CIwAllocatorIS0_15CIwMallocRouterIS0_EE17ReallocateDefaultIS0_S4_EE6appendERKS0_
	.loc 17 112 0
	b	.L156
.L159:
	.loc 17 114 0
	ldr	r3, [sp, #52]
	add	r2, r3, #16
	ldr	r3, .L164+8
	str	r3, [sp, #72]
	add	r3, sp, #72
	mov	r0, r2
	mov	r1, r3
	bl	_ZN8CIwArrayIPc12CIwAllocatorIS0_15CIwMallocRouterIS0_EE17ReallocateDefaultIS0_S4_EE6appendERKS0_
.L156:
	.loc 17 117 0
	ldr	r4, [sp, #52]
	ldr	r3, [sp, #4]
	add	r3, r3, #308
	mov	r0, r3
	ldr	r1, [sp, #88]
	bl	_ZNK8CIwArrayIi12CIwAllocatorIi15CIwMallocRouterIiEE17ReallocateDefaultIiS3_EEixEi
	mov	r3, r0
	ldr	r3, [r3, #0]
	mov	r0, r4
	mov	r1, r3
	bl	_ZN3NPC4InitEi
	.loc 17 118 0
	ldr	r3, [sp, #4]
	add	r2, r3, #256
	add	r3, sp, #52
	mov	r0, r2
	mov	r1, r3
	bl	_ZN8CIwArrayIP3NPC12CIwAllocatorIS1_15CIwMallocRouterIS1_EE17ReallocateDefaultIS1_S5_EE6appendERKS1_
.LBE6:
	.loc 17 102 0
	ldr	r3, [sp, #88]
	add	r3, r3, #1
	str	r3, [sp, #88]
.L155:
	ldr	r4, [sp, #88]
	ldr	r3, [sp, #4]
	add	r3, r3, #292
	mov	r0, r3
	bl	_ZNK8CIwArrayIi12CIwAllocatorIi15CIwMallocRouterIiEE17ReallocateDefaultIiS3_EE4sizeEv
	mov	r3, r0
	cmp	r4, r3
	moveq	r3, #0
	movne	r3, #1
	and	r3, r3, #255
	cmp	r3, #0
	bne	.L160
.LBE5:
.LBB7:
	.loc 17 146 0
	mov	r3, #0
	str	r3, [sp, #92]
	b	.L161
.L162:
.LBB8:
	.loc 17 148 0
	add	r3, sp, #8
	mov	r0, r3
	bl	_ZN12TileObstacleC1Ev
	.loc 17 149 0
	add	r3, sp, #76
	mov	r0, r3
	ldr	r1, .L164+12	@ float
	ldr	r2, .L164+12	@ float
	bl	_ZN8CIwFVec2C1Eff
	ldr	r3, [sp, #4]
	ldr	r3, [r3, #112]
	mov	r3, r3, asl #16
	mov	r2, r3, lsr #16
	ldr	r3, [sp, #4]
	ldr	r3, [r3, #108]
	mov	r3, r3, asl #16
	mov	r3, r3, lsr #16
	add	r1, sp, #84
	mov	r2, r2, asl #16
	mov	r2, r2, asr #16
	mov	r3, r3, asl #16
	mov	r3, r3, asr #16
	mov	r0, r1
	mov	r1, r2
	mov	r2, r3
	bl	_ZN8CIwSVec2C1Ess
	add	r3, sp, #8
	mov	r0, r3
	add	r3, sp, #76
	ldmia	r3, {r1, r2}
	ldr	r3, [sp, #84]
	bl	_ZN12TileObstacle15InitialObstacleE8CIwFVec28CIwSVec2
	.loc 17 150 0
	ldr	r3, [sp, #4]
	add	r2, r3, #132
	add	r3, sp, #8
	mov	r0, r2
	mov	r1, r3
	bl	_ZN8CIwArrayI12TileObstacle12CIwAllocatorIS0_15CIwMallocRouterIS0_EE17ReallocateDefaultIS0_S4_EE6appendERKS0_
	.loc 17 146 0
	add	r3, sp, #8
	mov	r0, r3
	bl	_ZN12TileObstacleD1Ev
.LBE8:
	ldr	r3, [sp, #92]
	add	r3, r3, #1
	str	r3, [sp, #92]
.L161:
	ldr	r3, [sp, #92]
	cmp	r3, #9
	moveq	r3, #0
	movne	r3, #1
	and	r3, r3, #255
	cmp	r3, #0
	bne	.L162
.LBE7:
.LBE4:
	.loc 17 153 0
	add	sp, sp, #96
	ldmfd	sp!, {r4, pc}
.L165:
	.align	2
.L164:
	.word	.LC12
	.word	.LC13
	.word	.LC14
	.word	0
	.cfi_endproc
.LFE3398:
	.size	_ZN3Map4LoadEPc, .-_ZN3Map4LoadEPc
	.section	.text._ZN3Map4InitEv,"ax",%progbits
	.align	2
	.global	_ZN3Map4InitEv
	.hidden	_ZN3Map4InitEv
	.type	_ZN3Map4InitEv, %function
_ZN3Map4InitEv:
.LFB3405:
	.loc 17 156 0
	.cfi_startproc
	@ args = 0, pretend = 0, frame = 24
	@ frame_needed = 0, uses_anonymous_args = 0
	stmfd	sp!, {r4, lr}
.LCFI65:
	.cfi_def_cfa_offset 8
	fstmfdd	sp!, {d8}
.LCFI66:
	.cfi_def_cfa_offset 16
	sub	sp, sp, #24
.LCFI67:
	.cfi_def_cfa_offset 40
	str	r0, [sp, #4]
.LBB9:
	.loc 17 157 0
	ldr	r3, [sp, #4]
	mvn	r2, #0
	str	r2, [r3, #288]
	.loc 17 158 0
	ldr	r3, [sp, #4]
	mov	r2, #0
	strb	r2, [r3, #276]
	.loc 17 159 0
	mov	r0, #40
	.cfi_offset 80, -16
	.cfi_offset 14, -4
	.cfi_offset 4, -8
	bl	_Znwj
	mov	r3, r0
	mov	r4, r3
	mov	r3, r4
	mov	r0, r3
	bl	_ZN4PathC1Ev
	mov	r2, r4
	ldr	r3, [sp, #4]
	str	r2, [r3, #100]
	.loc 17 160 0
	ldr	r3, [sp, #4]
	mov	r2, #0
	str	r2, [r3, #272]
	.loc 17 161 0
	ldr	r4, [sp, #4]
	ldr	r3, [sp, #4]
	ldr	r3, [r3, #16]
	ldr	r2, [sp, #4]
	ldr	r2, [r2, #112]
	mul	r1, r2, r3
	fmsr	s15, r1	@ int
	fsitos	s16, s15
	bl	_Z19Iw2DGetSurfaceWidthv
	fmsr	s15, r0	@ int
	fsitos	s14, s15
	flds	s15, .L170
	fdivs	s15, s14, s15
	fadds	s17, s16, s15
	ldr	r3, [sp, #4]
	ldr	r3, [r3, #20]
	ldr	r2, [sp, #4]
	ldr	r2, [r2, #108]
	mul	r1, r2, r3
	fmsr	s15, r1	@ int
	fsitos	s16, s15
	bl	_Z20Iw2DGetSurfaceHeightv
	fmsr	s15, r0	@ int
	fsitos	s14, s15
	flds	s15, .L170
	fdivs	s15, s14, s15
	fadds	s15, s16, s15
	add	r3, sp, #8
	mov	r0, r3
	fmrs	r1, s17
	fmrs	r2, s15
	bl	_ZN8CIwFVec2C1Eff
	add	r3, sp, #8
	mov	r0, r4
	mov	r1, r3
	bl	_ZN8CIwFVec2aSERKS_
	.loc 17 162 0
	ldr	r3, [sp, #4]
	mov	r2, #0
	strb	r2, [r3, #44]
	.loc 17 163 0
	ldr	r3, [sp, #4]
	add	r3, r3, #116
	mov	r0, r3
	bl	_ZN8CIwArrayIi12CIwAllocatorIi15CIwMallocRouterIiEE17ReallocateDefaultIiS3_EE15clear_optimisedEv
.LBB10:
	.loc 17 165 0
	mov	r3, #0
	str	r3, [sp, #20]
	b	.L167
.L168:
	.loc 17 167 0
	ldr	r3, [sp, #4]
	add	r2, r3, #116
	mov	r3, #0
	str	r3, [sp, #16]
	add	r3, sp, #16
	mov	r0, r2
	mov	r1, r3
	bl	_ZN8CIwArrayIi12CIwAllocatorIi15CIwMallocRouterIiEE17ReallocateDefaultIiS3_EE6appendERKi
	.loc 17 165 0
	ldr	r3, [sp, #20]
	add	r3, r3, #1
	str	r3, [sp, #20]
.L167:
	ldr	r3, [sp, #4]
	ldr	r2, [r3, #104]
	ldr	r3, [sp, #20]
	cmp	r2, r3
	moveq	r3, #0
	movne	r3, #1
	and	r3, r3, #255
	cmp	r3, #0
	bne	.L168
.LBE10:
.LBE9:
	.loc 17 169 0
	add	sp, sp, #24
	fldmfdd	sp!, {d8}
	ldmfd	sp!, {r4, pc}
.L171:
	.align	2
.L170:
	.word	-1073741824
	.cfi_endproc
.LFE3405:
	.size	_ZN3Map4InitEv, .-_ZN3Map4InitEv
	.section	.text._ZN3Map4InitEPi,"ax",%progbits
	.align	2
	.global	_ZN3Map4InitEPi
	.hidden	_ZN3Map4InitEPi
	.type	_ZN3Map4InitEPi, %function
_ZN3Map4InitEPi:
.LFB3406:
	.loc 17 171 0
	.cfi_startproc
	@ args = 0, pretend = 0, frame = 24
	@ frame_needed = 0, uses_anonymous_args = 0
	stmfd	sp!, {r4, lr}
.LCFI68:
	.cfi_def_cfa_offset 8
	fstmfdd	sp!, {d8}
.LCFI69:
	.cfi_def_cfa_offset 16
	sub	sp, sp, #24
.LCFI70:
	.cfi_def_cfa_offset 40
	str	r0, [sp, #4]
	str	r1, [sp, #0]
.LBB11:
	.loc 17 172 0
	ldr	r3, [sp, #4]
	mvn	r2, #0
	str	r2, [r3, #288]
	.loc 17 173 0
	ldr	r3, [sp, #4]
	mov	r2, #0
	strb	r2, [r3, #276]
	.loc 17 174 0
	mov	r0, #40
	.cfi_offset 80, -16
	.cfi_offset 14, -4
	.cfi_offset 4, -8
	bl	_Znwj
	mov	r3, r0
	mov	r4, r3
	mov	r3, r4
	mov	r0, r3
	bl	_ZN4PathC1Ev
	mov	r2, r4
	ldr	r3, [sp, #4]
	str	r2, [r3, #100]
	.loc 17 175 0
	ldr	r3, [sp, #4]
	mov	r2, #0
	str	r2, [r3, #272]
	.loc 17 176 0
	ldr	r4, [sp, #4]
	ldr	r3, [sp, #0]
	ldr	r3, [r3, #0]
	ldr	r2, [sp, #4]
	ldr	r2, [r2, #112]
	mul	r1, r2, r3
	fmsr	s15, r1	@ int
	fsitos	s16, s15
	bl	_Z19Iw2DGetSurfaceWidthv
	fmsr	s15, r0	@ int
	fsitos	s14, s15
	flds	s15, .L176
	fdivs	s15, s14, s15
	fadds	s17, s16, s15
	ldr	r3, [sp, #0]
	add	r3, r3, #4
	ldr	r3, [r3, #0]
	ldr	r2, [sp, #4]
	ldr	r2, [r2, #108]
	mul	r1, r2, r3
	fmsr	s15, r1	@ int
	fsitos	s16, s15
	bl	_Z20Iw2DGetSurfaceHeightv
	fmsr	s15, r0	@ int
	fsitos	s14, s15
	flds	s15, .L176
	fdivs	s15, s14, s15
	fadds	s15, s16, s15
	add	r3, sp, #8
	mov	r0, r3
	fmrs	r1, s17
	fmrs	r2, s15
	bl	_ZN8CIwFVec2C1Eff
	add	r3, sp, #8
	mov	r0, r4
	mov	r1, r3
	bl	_ZN8CIwFVec2aSERKS_
	.loc 17 177 0
	ldr	r3, [sp, #4]
	mov	r2, #0
	strb	r2, [r3, #44]
	.loc 17 178 0
	ldr	r3, [sp, #4]
	add	r3, r3, #116
	mov	r0, r3
	bl	_ZN8CIwArrayIi12CIwAllocatorIi15CIwMallocRouterIiEE17ReallocateDefaultIiS3_EE15clear_optimisedEv
.LBB12:
	.loc 17 180 0
	mov	r3, #0
	str	r3, [sp, #20]
	b	.L173
.L174:
	.loc 17 182 0
	ldr	r3, [sp, #4]
	add	r2, r3, #116
	mov	r3, #0
	str	r3, [sp, #16]
	add	r3, sp, #16
	mov	r0, r2
	mov	r1, r3
	bl	_ZN8CIwArrayIi12CIwAllocatorIi15CIwMallocRouterIiEE17ReallocateDefaultIiS3_EE6appendERKi
	.loc 17 180 0
	ldr	r3, [sp, #20]
	add	r3, r3, #1
	str	r3, [sp, #20]
.L173:
	ldr	r3, [sp, #4]
	ldr	r2, [r3, #104]
	ldr	r3, [sp, #20]
	cmp	r2, r3
	moveq	r3, #0
	movne	r3, #1
	and	r3, r3, #255
	cmp	r3, #0
	bne	.L174
.LBE12:
.LBE11:
	.loc 17 184 0
	add	sp, sp, #24
	fldmfdd	sp!, {d8}
	ldmfd	sp!, {r4, pc}
.L177:
	.align	2
.L176:
	.word	-1073741824
	.cfi_endproc
.LFE3406:
	.size	_ZN3Map4InitEPi, .-_ZN3Map4InitEPi
	.section	.rodata
	.align	2
.LC15:
	.ascii	"rb\000"
	.align	2
.LC16:
	.ascii	"height\000"
	.align	2
.LC17:
	.ascii	"layers\000"
	.align	2
.LC18:
	.ascii	"tileheight\000"
	.align	2
.LC19:
	.ascii	"tilewidth\000"
	.align	2
.LC20:
	.ascii	"width\000"
	.align	2
.LC21:
	.ascii	"name\000"
	.align	2
.LC22:
	.ascii	"NPC\000"
	.align	2
.LC23:
	.ascii	"indicator\000"
	.align	2
.LC24:
	.ascii	"tilesets\000"
	.align	2
.LC25:
	.ascii	"properties\000"
	.align	2
.LC26:
	.ascii	",\000"
	.align	2
.LC27:
	.ascii	"Block\000"
	.align	2
.LC28:
	.ascii	"BG\000"
	.align	2
.LC29:
	.ascii	"2\000"
	.align	2
.LC30:
	.ascii	"6\000"
	.align	2
.LC31:
	.ascii	"3\000"
	.align	2
.LC32:
	.ascii	"NPCPos\000"
	.align	2
.LC33:
	.ascii	"Door\000"
	.align	2
.LC34:
	.ascii	"EndPoint\000"
	.align	2
.LC35:
	.ascii	"StartPoint\000"
	.align	2
.LC36:
	.ascii	"emaze\000"
	.align	2
.LC37:
	.ascii	"etmaze\000"
	.align	2
.LC38:
	.ascii	"smaze\000"
	.align	2
.LC39:
	.ascii	"stmaze\000"
	.section	.text._ZN3Map12ReadJsonFileEPc,"ax",%progbits
	.align	2
	.global	_ZN3Map12ReadJsonFileEPc
	.hidden	_ZN3Map12ReadJsonFileEPc
	.type	_ZN3Map12ReadJsonFileEPc, %function
_ZN3Map12ReadJsonFileEPc:
.LFB3407:
	.loc 17 187 0
	.cfi_startproc
	@ args = 0, pretend = 0, frame = 192
	@ frame_needed = 0, uses_anonymous_args = 0
	stmfd	sp!, {r4, r5, lr}
.LCFI71:
	.cfi_def_cfa_offset 12
	sub	sp, sp, #196
.LCFI72:
	.cfi_def_cfa_offset 208
	str	r0, [sp, #4]
	str	r1, [sp, #0]
.LBB13:
	.loc 17 188 0
	ldr	r3, [sp, #4]
	ldr	r2, [sp, #0]
	str	r2, [r3, #40]
	.loc 17 192 0
	ldr	r0, [sp, #0]
	ldr	r1, .L228
	.cfi_offset 14, -4
	.cfi_offset 5, -8
	.cfi_offset 4, -12
	bl	s3eFileOpen
	mov	r3, r0
	str	r3, [sp, #120]
	.loc 17 193 0
	ldr	r3, [sp, #120]
	cmp	r3, #0
	beq	.L179
.LBB14:
	.loc 17 196 0
	ldr	r0, [sp, #120]
	bl	s3eFileGetSize
	mov	r3, r0
	str	r3, [sp, #144]
	.loc 17 197 0
	ldr	r3, [sp, #144]
	add	r3, r3, #1
	mov	r0, r3
	bl	s3eMallocBase
	mov	r3, r0
	str	r3, [sp, #116]
	.loc 17 200 0
	ldr	r3, [sp, #144]
	add	r3, r3, #1
	ldr	r0, [sp, #116]
	mov	r1, r3
	mov	r2, #1
	ldr	r3, [sp, #120]
	bl	s3eFileRead
	mov	r3, r0
	cmp	r3, #1
	moveq	r3, #0
	movne	r3, #1
	and	r3, r3, #255
	cmp	r3, #0
	beq	.L180
	.loc 17 203 0
	bl	s3eFileGetErrorString
	mov	r3, r0
	ldr	r0, .L228+4
	mov	r1, r3
	bl	_ZN4_STLlsINS_11char_traitsIcEEEERNS_13basic_ostreamIcT_EES6_PKc
	mov	r3, r0
	mov	r0, r3
	ldr	r1, .L228+8
	bl	_ZN4_STL13basic_ostreamIcNS_11char_traitsIcEEElsEPFRS3_S4_E
	.loc 17 208 0
	b	.L182
.L180:
	ldr	r2, [sp, #144]
	ldr	r3, [sp, #116]
	add	r3, r2, r3
	mov	r2, #0
	strb	r2, [r3, #0]
	b	.L182
.L179:
.LBE14:
	.loc 17 214 0
	bl	s3eFileGetErrorString
	mov	r3, r0
	ldr	r0, .L228+4
	mov	r1, r3
	bl	_ZN4_STLlsINS_11char_traitsIcEEEERNS_13basic_ostreamIcT_EES6_PKc
	mov	r3, r0
	mov	r0, r3
	ldr	r1, .L228+8
	bl	_ZN4_STL13basic_ostreamIcNS_11char_traitsIcEEElsEPFRS3_S4_E
.L182:
	.loc 17 216 0
	ldr	r3, [sp, #120]
	cmp	r3, #0
	beq	.L183
	.loc 17 217 0
	ldr	r0, [sp, #120]
	bl	s3eFileClose
.L183:
	.loc 17 218 0
	ldr	r0, [sp, #116]
	bl	cJSON_Parse
	mov	r3, r0
	str	r3, [sp, #112]
	.loc 17 219 0
	ldr	r0, [sp, #120]
	bl	s3eFileFlush
	.loc 17 221 0
	ldr	r0, [sp, #112]
	ldr	r1, .L228+12
	bl	cJSON_GetObjectItem
	mov	r3, r0
	ldr	r2, [r3, #20]
	ldr	r3, [sp, #4]
	str	r2, [r3, #48]
	.loc 17 222 0
	ldr	r0, [sp, #112]
	ldr	r1, .L228+16
	bl	cJSON_GetObjectItem
	mov	r3, r0
	str	r3, [sp, #124]
	.loc 17 223 0
	ldr	r0, [sp, #112]
	ldr	r1, .L228+20
	bl	cJSON_GetObjectItem
	mov	r3, r0
	ldr	r2, [r3, #20]
	ldr	r3, [sp, #4]
	str	r2, [r3, #108]
	.loc 17 224 0
	ldr	r0, [sp, #112]
	ldr	r1, .L228+24
	bl	cJSON_GetObjectItem
	mov	r3, r0
	ldr	r2, [r3, #20]
	ldr	r3, [sp, #4]
	str	r2, [r3, #112]
	.loc 17 225 0
	ldr	r0, [sp, #112]
	ldr	r1, .L228+28
	bl	cJSON_GetObjectItem
	mov	r3, r0
	ldr	r2, [r3, #20]
	ldr	r3, [sp, #4]
	str	r2, [r3, #52]
	.loc 17 227 0
	ldr	r3, [sp, #4]
	ldr	r4, [r3, #68]
	ldr	r0, [sp, #124]
	mov	r1, #0
	bl	cJSON_GetArrayItem
	mov	r3, r0
	mov	r0, r4
	mov	r1, r3
	bl	_ZN5Layer4InitEP5cJSON
	.loc 17 228 0
	ldr	r3, [sp, #4]
	ldr	r4, [r3, #72]
	ldr	r0, [sp, #124]
	mov	r1, #1
	bl	cJSON_GetArrayItem
	mov	r3, r0
	mov	r0, r4
	mov	r1, r3
	bl	_ZN5Layer4InitEP5cJSON
	.loc 17 229 0
	ldr	r3, [sp, #4]
	ldr	r4, [r3, #76]
	ldr	r0, [sp, #124]
	mov	r1, #2
	bl	cJSON_GetArrayItem
	mov	r3, r0
	mov	r0, r4
	mov	r1, r3
	bl	_ZN5Layer4InitEP5cJSON
	.loc 17 230 0
	ldr	r0, [sp, #124]
	bl	cJSON_GetArraySize
	mov	r3, r0
	cmp	r3, #3
	movle	r3, #0
	movgt	r3, #1
	and	r3, r3, #255
	cmp	r3, #0
	beq	.L184
.LBB15:
	.loc 17 232 0
	ldr	r0, [sp, #124]
	mov	r1, #3
	bl	cJSON_GetArrayItem
	mov	r3, r0
	str	r3, [sp, #148]
	.loc 17 233 0
	ldr	r0, [sp, #148]
	ldr	r1, .L228+32
	bl	cJSON_GetObjectItem
	mov	r3, r0
	ldr	r3, [r3, #16]
	str	r3, [sp, #152]
	.loc 17 234 0
	ldr	r0, [sp, #152]
	ldr	r1, .L228+36
	mov	r2, #4
	bl	_Z7CharCMPPcS_i
	mov	r3, r0
	cmp	r3, #0
	moveq	r3, #0
	movne	r3, #1
	and	r3, r3, #255
	cmp	r3, #0
	beq	.L185
	.loc 17 235 0
	ldr	r3, [sp, #4]
	ldr	r3, [r3, #84]
	mov	r0, r3
	ldr	r1, [sp, #148]
	bl	_ZN5Layer4InitEP5cJSON
	b	.L186
.L185:
	.loc 17 236 0
	ldr	r0, [sp, #152]
	ldr	r1, .L228+40
	mov	r2, #10
	bl	_Z7CharCMPPcS_i
	mov	r3, r0
	cmp	r3, #0
	moveq	r3, #0
	movne	r3, #1
	and	r3, r3, #255
	cmp	r3, #0
	beq	.L186
	.loc 17 237 0
	ldr	r3, [sp, #4]
	ldr	r3, [r3, #80]
	mov	r0, r3
	ldr	r1, [sp, #148]
	bl	_ZN5Layer4InitEP5cJSON
.L186:
	.loc 17 238 0
	ldr	r0, [sp, #124]
	bl	cJSON_GetArraySize
	mov	r3, r0
	cmp	r3, #4
	movle	r3, #0
	movgt	r3, #1
	and	r3, r3, #255
	cmp	r3, #0
	beq	.L184
.LBB16:
	.loc 17 240 0
	ldr	r0, [sp, #124]
	mov	r1, #4
	bl	cJSON_GetArrayItem
	mov	r3, r0
	str	r3, [sp, #156]
	.loc 17 241 0
	ldr	r0, [sp, #156]
	ldr	r1, .L228+32
	bl	cJSON_GetObjectItem
	mov	r3, r0
	ldr	r3, [r3, #16]
	str	r3, [sp, #160]
	.loc 17 242 0
	ldr	r0, [sp, #160]
	ldr	r1, .L228+36
	mov	r2, #4
	bl	_Z7CharCMPPcS_i
	mov	r3, r0
	cmp	r3, #0
	moveq	r3, #0
	movne	r3, #1
	and	r3, r3, #255
	cmp	r3, #0
	beq	.L187
	.loc 17 243 0
	ldr	r3, [sp, #4]
	ldr	r3, [r3, #84]
	mov	r0, r3
	ldr	r1, [sp, #156]
	bl	_ZN5Layer4InitEP5cJSON
	b	.L184
.L187:
	.loc 17 244 0
	ldr	r0, [sp, #160]
	ldr	r1, .L228+40
	mov	r2, #10
	bl	_Z7CharCMPPcS_i
	mov	r3, r0
	cmp	r3, #0
	moveq	r3, #0
	movne	r3, #1
	and	r3, r3, #255
	cmp	r3, #0
	beq	.L184
	.loc 17 245 0
	ldr	r3, [sp, #4]
	ldr	r3, [r3, #80]
	mov	r0, r3
	ldr	r1, [sp, #156]
	bl	_ZN5Layer4InitEP5cJSON
.L184:
.LBE16:
.LBE15:
	.loc 17 249 0
	ldr	r0, [sp, #112]
	ldr	r1, .L228+44
	bl	cJSON_GetObjectItem
	mov	r3, r0
	str	r3, [sp, #128]
	.loc 17 250 0
	ldr	r3, [sp, #4]
	ldr	r4, [r3, #88]
	ldr	r0, [sp, #128]
	mov	r1, #0
	bl	cJSON_GetArrayItem
	mov	r3, r0
	mov	r0, r4
	mov	r1, r3
	bl	_ZN7TileSet4InitEP5cJSON
	.loc 17 251 0
	ldr	r3, [sp, #4]
	ldr	r4, [r3, #92]
	ldr	r0, [sp, #128]
	mov	r1, #1
	bl	cJSON_GetArrayItem
	mov	r3, r0
	mov	r0, r4
	mov	r1, r3
	bl	_ZN7TileSet4InitEP5cJSON
	.loc 17 252 0
	ldr	r0, [sp, #128]
	bl	cJSON_GetArraySize
	mov	r3, r0
	cmp	r3, #2
	movle	r3, #0
	movgt	r3, #1
	and	r3, r3, #255
	cmp	r3, #0
	beq	.L188
	.loc 17 253 0
	ldr	r3, [sp, #4]
	ldr	r4, [r3, #96]
	ldr	r0, [sp, #128]
	mov	r1, #2
	bl	cJSON_GetArrayItem
	mov	r3, r0
	mov	r0, r4
	mov	r1, r3
	bl	_ZN7TileSet4InitEP5cJSON
.L188:
	.loc 17 256 0
	ldr	r3, [sp, #4]
	ldr	r3, [r3, #80]
	add	r3, r3, #20
	mov	r0, r3
	bl	_ZNK8CIwArrayIi12CIwAllocatorIi15CIwMallocRouterIiEE17ReallocateDefaultIiS3_EE4sizeEv
	mov	r3, r0
	str	r3, [sp, #132]
	.loc 17 257 0
	add	r3, sp, #44
	mov	r0, r3
	mov	r1, #0
	bl	_ZN8CIwArrayIi12CIwAllocatorIi15CIwMallocRouterIiEE17ReallocateDefaultIiS3_EEC1Ej
.LBB17:
	.loc 17 259 0
	mov	r3, #0
	str	r3, [sp, #164]
	b	.L189
.L190:
	.loc 17 261 0
	mov	r3, #0
	str	r3, [sp, #60]
	add	r2, sp, #44
	add	r3, sp, #60
	mov	r0, r2
	mov	r1, r3
	bl	_ZN8CIwArrayIi12CIwAllocatorIi15CIwMallocRouterIiEE17ReallocateDefaultIiS3_EE6appendERKi
	.loc 17 262 0
	ldr	r3, [sp, #4]
	ldr	r3, [r3, #80]
	add	r3, r3, #20
	mov	r0, r3
	ldr	r1, [sp, #164]
	bl	_ZNK8CIwArrayIi12CIwAllocatorIi15CIwMallocRouterIiEE17ReallocateDefaultIiS3_EEixEi
	mov	r3, r0
	ldr	r1, [r3, #0]
	ldr	r2, [sp, #4]
	ldr	r2, [r2, #96]
	ldr	r2, [r2, #32]
	rsb	r2, r2, r1
	str	r2, [r3, #0]
	.loc 17 259 0
	ldr	r3, [sp, #164]
	add	r3, r3, #1
	str	r3, [sp, #164]
.L189:
	ldr	r2, [sp, #164]
	ldr	r3, [sp, #132]
	cmp	r2, r3
	moveq	r3, #0
	movne	r3, #1
	and	r3, r3, #255
	cmp	r3, #0
	bne	.L190
.LBE17:
.LBB18:
	.loc 17 264 0
	mov	r3, #0
	str	r3, [sp, #168]
	b	.L191
.L192:
	.loc 17 266 0
	ldr	r3, [sp, #4]
	ldr	r3, [r3, #80]
	add	r3, r3, #20
	mov	r0, r3
	ldr	r1, [sp, #168]
	bl	_ZNK8CIwArrayIi12CIwAllocatorIi15CIwMallocRouterIiEE17ReallocateDefaultIiS3_EEixEi
	mov	r3, r0
	ldr	r3, [r3, #0]
	add	r2, sp, #44
	mov	r0, r2
	mov	r1, r3
	bl	_ZNK8CIwArrayIi12CIwAllocatorIi15CIwMallocRouterIiEE17ReallocateDefaultIiS3_EEixEi
	mov	r3, r0
	ldr	r2, [sp, #168]
	str	r2, [r3, #0]
	.loc 17 264 0
	ldr	r3, [sp, #168]
	add	r3, r3, #1
	str	r3, [sp, #168]
.L191:
	ldr	r2, [sp, #168]
	ldr	r3, [sp, #132]
	cmp	r2, r3
	moveq	r3, #0
	movne	r3, #1
	and	r3, r3, #255
	cmp	r3, #0
	bne	.L192
.LBE18:
	.loc 17 268 0
	add	r3, sp, #28
	mov	r0, r3
	mov	r1, #0
	bl	_ZN8CIwArrayIi12CIwAllocatorIi15CIwMallocRouterIiEE17ReallocateDefaultIiS3_EEC1Ej
	.loc 17 269 0
	add	r3, sp, #12
	mov	r0, r3
	mov	r1, #0
	bl	_ZN8CIwArrayIi12CIwAllocatorIi15CIwMallocRouterIiEE17ReallocateDefaultIiS3_EEC1Ej
.LBB19:
	.loc 17 270 0
	mov	r3, #0
	str	r3, [sp, #172]
	b	.L193
.L194:
	.loc 17 272 0
	add	r3, sp, #28
	mov	r0, r3
	ldr	r1, [sp, #172]
	bl	_ZNK8CIwArrayIi12CIwAllocatorIi15CIwMallocRouterIiEE17ReallocateDefaultIiS3_EEixEi
	mov	r4, r0
	ldr	r3, [sp, #4]
	ldr	r3, [r3, #80]
	add	r5, r3, #20
	add	r3, sp, #44
	mov	r0, r3
	ldr	r1, [sp, #172]
	bl	_ZNK8CIwArrayIi12CIwAllocatorIi15CIwMallocRouterIiEE17ReallocateDefaultIiS3_EEixEi
	mov	r3, r0
	ldr	r3, [r3, #0]
	mov	r0, r5
	mov	r1, r3
	bl	_ZNK8CIwArrayIi12CIwAllocatorIi15CIwMallocRouterIiEE17ReallocateDefaultIiS3_EEixEi
	mov	r3, r0
	ldr	r3, [r3, #0]
	str	r3, [r4, #0]
	.loc 17 273 0
	add	r3, sp, #12
	mov	r0, r3
	ldr	r1, [sp, #172]
	bl	_ZNK8CIwArrayIi12CIwAllocatorIi15CIwMallocRouterIiEE17ReallocateDefaultIiS3_EEixEi
	mov	r4, r0
	ldr	r3, [sp, #4]
	ldr	r3, [r3, #80]
	add	r5, r3, #36
	add	r3, sp, #44
	mov	r0, r3
	ldr	r1, [sp, #172]
	bl	_ZNK8CIwArrayIi12CIwAllocatorIi15CIwMallocRouterIiEE17ReallocateDefaultIiS3_EEixEi
	mov	r3, r0
	ldr	r3, [r3, #0]
	mov	r0, r5
	mov	r1, r3
	bl	_ZNK8CIwArrayIi12CIwAllocatorIi15CIwMallocRouterIiEE17ReallocateDefaultIiS3_EEixEi
	mov	r3, r0
	ldr	r3, [r3, #0]
	str	r3, [r4, #0]
	.loc 17 270 0
	ldr	r3, [sp, #172]
	add	r3, r3, #1
	str	r3, [sp, #172]
.L193:
	ldr	r2, [sp, #172]
	ldr	r3, [sp, #132]
	cmp	r2, r3
	moveq	r3, #0
	movne	r3, #1
	and	r3, r3, #255
	cmp	r3, #0
	bne	.L194
.LBE19:
	.loc 17 275 0
	ldr	r3, [sp, #4]
	ldr	r3, [r3, #80]
	add	r2, r3, #20
	add	r3, sp, #28
	mov	r0, r2
	mov	r1, r3
	bl	_ZN8CIwArrayIi12CIwAllocatorIi15CIwMallocRouterIiEE17ReallocateDefaultIiS3_EE4swapERS6_
	.loc 17 276 0
	ldr	r3, [sp, #4]
	ldr	r3, [r3, #80]
	add	r2, r3, #36
	add	r3, sp, #12
	mov	r0, r2
	mov	r1, r3
	bl	_ZN8CIwArrayIi12CIwAllocatorIi15CIwMallocRouterIiEE17ReallocateDefaultIiS3_EE4swapERS6_
	.loc 17 279 0
	ldr	r0, [sp, #112]
	ldr	r1, .L228+48
	bl	cJSON_GetObjectItem
	mov	r3, r0
	str	r3, [sp, #136]
	.loc 17 280 0
	ldr	r0, [sp, #136]
	bl	cJSON_GetArraySize
	mov	r3, r0
	str	r3, [sp, #140]
.LBB20:
	.loc 17 281 0
	ldr	r3, [sp, #140]
	sub	r3, r3, #1
	str	r3, [sp, #176]
	b	.L195
.L226:
.LBB21:
	.loc 17 283 0
	ldr	r0, [sp, #136]
	ldr	r1, [sp, #176]
	bl	cJSON_GetArrayItem
	mov	r3, r0
	str	r3, [sp, #180]
	.loc 17 284 0
	ldr	r3, [sp, #180]
	ldr	r3, [r3, #16]
	str	r3, [sp, #8]
	.loc 17 286 0
	ldr	r3, [sp, #180]
	ldr	r3, [r3, #32]
	str	r3, [sp, #184]
	.loc 17 288 0
	ldr	r3, [sp, #8]
	mov	r0, r3
	ldr	r1, .L228+52
	bl	strtok
	mov	r3, r0
	str	r3, [sp, #188]
	.loc 17 289 0
	ldr	r0, [sp, #184]
	ldr	r1, .L228+56
	mov	r2, #6
	bl	_Z7CharCMPPcS_i
	mov	r3, r0
	cmp	r3, #0
	moveq	r3, #0
	movne	r3, #1
	and	r3, r3, #255
	cmp	r3, #0
	beq	.L196
	.loc 17 291 0
	b	.L197
.L198:
	.loc 17 293 0
	ldr	r3, [sp, #4]
	add	r4, r3, #164
	ldr	r0, [sp, #188]
	bl	atoi
	mov	r3, r0
	str	r3, [sp, #64]
	add	r3, sp, #64
	mov	r0, r4
	mov	r1, r3
	bl	_ZN8CIwArrayIi12CIwAllocatorIi15CIwMallocRouterIiEE17ReallocateDefaultIiS3_EE6appendERKi
	.loc 17 294 0
	mov	r0, #0
	ldr	r1, .L228+52
	bl	strtok
	mov	r3, r0
	str	r3, [sp, #188]
.L197:
	.loc 17 291 0
	ldr	r3, [sp, #188]
	cmp	r3, #0
	moveq	r3, #0
	movne	r3, #1
	and	r3, r3, #255
	cmp	r3, #0
	bne	.L198
	b	.L199
.L196:
	.loc 17 297 0
	ldr	r0, [sp, #184]
	ldr	r1, .L228+60
	mov	r2, #3
	bl	_Z7CharCMPPcS_i
	mov	r3, r0
	cmp	r3, #0
	moveq	r3, #0
	movne	r3, #1
	and	r3, r3, #255
	cmp	r3, #0
	beq	.L200
	.loc 17 299 0
	ldr	r3, [sp, #8]
	mov	r0, r3
	bl	_Z23Iw2DCreateImageResourcePKc
	mov	r2, r0
	ldr	r3, [sp, #4]
	str	r2, [r3, #280]
	b	.L199
.L200:
	.loc 17 301 0
	ldr	r0, [sp, #184]
	ldr	r1, .L228+36
	mov	r2, #4
	bl	_Z7CharCMPPcS_i
	mov	r3, r0
	cmp	r3, #0
	moveq	r3, #0
	movne	r3, #1
	and	r3, r3, #255
	cmp	r3, #0
	beq	.L201
	.loc 17 303 0
	b	.L202
.L203:
	.loc 17 305 0
	ldr	r3, [sp, #4]
	add	r4, r3, #292
	ldr	r0, [sp, #188]
	bl	atoi
	mov	r3, r0
	str	r3, [sp, #68]
	add	r3, sp, #68
	mov	r0, r4
	mov	r1, r3
	bl	_ZN8CIwArrayIi12CIwAllocatorIi15CIwMallocRouterIiEE17ReallocateDefaultIiS3_EE6appendERKi
	.loc 17 306 0
	mov	r0, #0
	ldr	r1, .L228+52
	bl	strtok
	mov	r3, r0
	str	r3, [sp, #188]
.L202:
	.loc 17 303 0
	ldr	r3, [sp, #188]
	cmp	r3, #0
	moveq	r3, #0
	movne	r3, #1
	and	r3, r3, #255
	cmp	r3, #0
	bne	.L203
	b	.L199
.L201:
	.loc 17 309 0
	ldr	r0, [sp, #184]
	ldr	r1, .L228+64
	mov	r2, #2
	bl	_Z7CharCMPPcS_i
	mov	r3, r0
	cmp	r3, #0
	moveq	r3, #0
	movne	r3, #1
	and	r3, r3, #255
	cmp	r3, #0
	beq	.L204
	.loc 17 311 0
	ldr	r3, [sp, #4]
	add	r2, r3, #340
	add	r3, sp, #8
	mov	r0, r2
	mov	r1, r3
	bl	_ZN8CIwArrayIPc12CIwAllocatorIS0_15CIwMallocRouterIS0_EE17ReallocateDefaultIS0_S4_EE6appendERKS0_
	.loc 17 312 0
	ldr	r3, [sp, #4]
	add	r2, r3, #324
	mov	r3, #2
	str	r3, [sp, #72]
	add	r3, sp, #72
	mov	r0, r2
	mov	r1, r3
	bl	_ZN8CIwArrayIi12CIwAllocatorIi15CIwMallocRouterIiEE17ReallocateDefaultIiS3_EE6appendERKi
	b	.L199
.L204:
	.loc 17 314 0
	ldr	r0, [sp, #184]
	ldr	r1, .L228+68
	mov	r2, #2
	bl	_Z7CharCMPPcS_i
	mov	r3, r0
	cmp	r3, #0
	moveq	r3, #0
	movne	r3, #1
	and	r3, r3, #255
	cmp	r3, #0
	beq	.L205
	.loc 17 316 0
	ldr	r3, [sp, #4]
	add	r2, r3, #340
	add	r3, sp, #8
	mov	r0, r2
	mov	r1, r3
	bl	_ZN8CIwArrayIPc12CIwAllocatorIS0_15CIwMallocRouterIS0_EE17ReallocateDefaultIS0_S4_EE6appendERKS0_
	.loc 17 317 0
	ldr	r3, [sp, #4]
	add	r2, r3, #324
	mov	r3, #6
	str	r3, [sp, #76]
	add	r3, sp, #76
	mov	r0, r2
	mov	r1, r3
	bl	_ZN8CIwArrayIi12CIwAllocatorIi15CIwMallocRouterIiEE17ReallocateDefaultIiS3_EE6appendERKi
	b	.L199
.L205:
	.loc 17 319 0
	ldr	r0, [sp, #184]
	ldr	r1, .L228+72
	mov	r2, #2
	bl	_Z7CharCMPPcS_i
	mov	r3, r0
	cmp	r3, #0
	moveq	r3, #0
	movne	r3, #1
	and	r3, r3, #255
	cmp	r3, #0
	beq	.L206
	.loc 17 321 0
	ldr	r3, [sp, #4]
	add	r2, r3, #340
	add	r3, sp, #8
	mov	r0, r2
	mov	r1, r3
	bl	_ZN8CIwArrayIPc12CIwAllocatorIS0_15CIwMallocRouterIS0_EE17ReallocateDefaultIS0_S4_EE6appendERKS0_
	.loc 17 322 0
	ldr	r3, [sp, #4]
	add	r2, r3, #324
	mov	r3, #3
	str	r3, [sp, #80]
	add	r3, sp, #80
	mov	r0, r2
	mov	r1, r3
	bl	_ZN8CIwArrayIi12CIwAllocatorIi15CIwMallocRouterIiEE17ReallocateDefaultIiS3_EE6appendERKi
	b	.L199
.L206:
	.loc 17 324 0
	ldr	r0, [sp, #184]
	ldr	r1, .L228+76
	mov	r2, #7
	bl	_Z7CharCMPPcS_i
	mov	r3, r0
	cmp	r3, #0
	moveq	r3, #0
	movne	r3, #1
	and	r3, r3, #255
	cmp	r3, #0
	beq	.L207
	.loc 17 326 0
	b	.L208
.L209:
	.loc 17 328 0
	ldr	r3, [sp, #4]
	add	r4, r3, #308
	ldr	r0, [sp, #188]
	bl	atoi
	mov	r3, r0
	str	r3, [sp, #84]
	add	r3, sp, #84
	mov	r0, r4
	mov	r1, r3
	bl	_ZN8CIwArrayIi12CIwAllocatorIi15CIwMallocRouterIiEE17ReallocateDefaultIiS3_EE6appendERKi
	.loc 17 329 0
	mov	r0, #0
	ldr	r1, .L228+52
	bl	strtok
	mov	r3, r0
	str	r3, [sp, #188]
.L208:
	.loc 17 326 0
	ldr	r3, [sp, #188]
	cmp	r3, #0
	moveq	r3, #0
	movne	r3, #1
	and	r3, r3, #255
	cmp	r3, #0
	bne	.L209
	b	.L199
.L207:
	.loc 17 332 0
	ldr	r0, [sp, #184]
	ldr	r1, .L228+80
	mov	r2, #5
	bl	_Z7CharCMPPcS_i
	mov	r3, r0
	cmp	r3, #0
	moveq	r3, #0
	movne	r3, #1
	and	r3, r3, #255
	cmp	r3, #0
	beq	.L210
	.loc 17 334 0
	b	.L211
.L212:
	.loc 17 336 0
	ldr	r3, [sp, #4]
	add	r4, r3, #24
	ldr	r0, [sp, #188]
	bl	atoi
	mov	r3, r0
	str	r3, [sp, #88]
	add	r3, sp, #88
	mov	r0, r4
	mov	r1, r3
	bl	_ZN8CIwArrayIi12CIwAllocatorIi15CIwMallocRouterIiEE17ReallocateDefaultIiS3_EE6appendERKi
	.loc 17 337 0
	mov	r0, #0
	ldr	r1, .L228+52
	bl	strtok
	mov	r3, r0
	str	r3, [sp, #188]
.L211:
	.loc 17 334 0
	ldr	r3, [sp, #188]
	cmp	r3, #0
	moveq	r3, #0
	movne	r3, #1
	and	r3, r3, #255
	cmp	r3, #0
	bne	.L212
	b	.L199
.L210:
	.loc 17 340 0
	ldr	r0, [sp, #184]
	ldr	r1, .L228+84
	mov	r2, #9
	bl	_Z7CharCMPPcS_i
	mov	r3, r0
	cmp	r3, #0
	moveq	r3, #0
	movne	r3, #1
	and	r3, r3, #255
	cmp	r3, #0
	beq	.L213
	.loc 17 342 0
	ldr	r0, [sp, #188]
	bl	atoi
	mov	r2, r0
	ldr	r3, [sp, #4]
	str	r2, [r3, #180]
	.loc 17 343 0
	mov	r0, #0
	ldr	r1, .L228+52
	bl	strtok
	mov	r3, r0
	str	r3, [sp, #188]
	.loc 17 344 0
	ldr	r0, [sp, #188]
	bl	atoi
	mov	r2, r0
	ldr	r3, [sp, #4]
	str	r2, [r3, #184]
	b	.L199
.L213:
	.loc 17 346 0
	ldr	r0, [sp, #184]
	ldr	r1, .L228+88
	mov	r2, #11
	bl	_Z7CharCMPPcS_i
	mov	r3, r0
	cmp	r3, #0
	moveq	r3, #0
	movne	r3, #1
	and	r3, r3, #255
	cmp	r3, #0
	beq	.L214
	.loc 17 348 0
	ldr	r0, [sp, #188]
	bl	atoi
	mov	r2, r0
	ldr	r3, [sp, #4]
	str	r2, [r3, #16]
	.loc 17 349 0
	mov	r0, #0
	ldr	r1, .L228+52
	bl	strtok
	mov	r3, r0
	str	r3, [sp, #188]
	.loc 17 350 0
	ldr	r0, [sp, #188]
	bl	atoi
	mov	r2, r0
	ldr	r3, [sp, #4]
	str	r2, [r3, #20]
	b	.L199
.L214:
	.loc 17 352 0
	ldr	r0, [sp, #184]
	ldr	r1, .L228+92
	mov	r2, #6
	bl	_Z7CharCMPPcS_i
	mov	r3, r0
	cmp	r3, #0
	moveq	r3, #0
	movne	r3, #1
	and	r3, r3, #255
	cmp	r3, #0
	beq	.L215
	.loc 17 354 0
	b	.L216
.L217:
	.loc 17 356 0
	ldr	r3, [sp, #4]
	add	r4, r3, #208
	ldr	r0, [sp, #188]
	bl	atoi
	mov	r3, r0
	str	r3, [sp, #92]
	add	r3, sp, #92
	mov	r0, r4
	mov	r1, r3
	bl	_ZN8CIwArrayIi12CIwAllocatorIi15CIwMallocRouterIiEE17ReallocateDefaultIiS3_EE6appendERKi
	.loc 17 357 0
	mov	r0, #0
	ldr	r1, .L228+52
	bl	strtok
	mov	r3, r0
	str	r3, [sp, #188]
.L216:
	.loc 17 354 0
	ldr	r3, [sp, #188]
	cmp	r3, #0
	moveq	r3, #0
	movne	r3, #1
	and	r3, r3, #255
	cmp	r3, #0
	bne	.L217
	b	.L199
.L215:
	.loc 17 360 0
	ldr	r0, [sp, #184]
	ldr	r1, .L228+96
	mov	r2, #7
	bl	_Z7CharCMPPcS_i
	mov	r3, r0
	cmp	r3, #0
	moveq	r3, #0
	movne	r3, #1
	and	r3, r3, #255
	cmp	r3, #0
	beq	.L218
	.loc 17 362 0
	b	.L219
.L220:
	.loc 17 364 0
	ldr	r3, [sp, #4]
	add	r4, r3, #192
	ldr	r0, [sp, #188]
	bl	atoi
	mov	r3, r0
	str	r3, [sp, #96]
	add	r3, sp, #96
	mov	r0, r4
	mov	r1, r3
	bl	_ZN8CIwArrayIi12CIwAllocatorIi15CIwMallocRouterIiEE17ReallocateDefaultIiS3_EE6appendERKi
	.loc 17 365 0
	mov	r0, #0
	ldr	r1, .L228+52
	bl	strtok
	mov	r3, r0
	str	r3, [sp, #188]
.L219:
	.loc 17 362 0
	ldr	r3, [sp, #188]
	cmp	r3, #0
	moveq	r3, #0
	movne	r3, #1
	and	r3, r3, #255
	cmp	r3, #0
	bne	.L220
	b	.L199
.L218:
	.loc 17 368 0
	ldr	r0, [sp, #184]
	ldr	r1, .L228+100
	mov	r2, #6
	bl	_Z7CharCMPPcS_i
	mov	r3, r0
	cmp	r3, #0
	moveq	r3, #0
	movne	r3, #1
	and	r3, r3, #255
	cmp	r3, #0
	beq	.L221
	.loc 17 370 0
	b	.L222
.L223:
	.loc 17 372 0
	ldr	r3, [sp, #4]
	add	r4, r3, #240
	ldr	r0, [sp, #188]
	bl	atoi
	mov	r3, r0
	str	r3, [sp, #100]
	add	r3, sp, #100
	mov	r0, r4
	mov	r1, r3
	bl	_ZN8CIwArrayIi12CIwAllocatorIi15CIwMallocRouterIiEE17ReallocateDefaultIiS3_EE6appendERKi
	.loc 17 373 0
	mov	r0, #0
	ldr	r1, .L228+52
	bl	strtok
	mov	r3, r0
	str	r3, [sp, #188]
.L222:
	.loc 17 370 0
	ldr	r3, [sp, #188]
	cmp	r3, #0
	moveq	r3, #0
	movne	r3, #1
	and	r3, r3, #255
	cmp	r3, #0
	bne	.L223
	b	.L199
.L221:
	.loc 17 376 0
	ldr	r0, [sp, #184]
	ldr	r1, .L228+104
	mov	r2, #7
	bl	_Z7CharCMPPcS_i
	mov	r3, r0
	cmp	r3, #0
	moveq	r3, #0
	movne	r3, #1
	and	r3, r3, #255
	cmp	r3, #0
	beq	.L199
	.loc 17 378 0
	b	.L224
.L225:
	.loc 17 380 0
	ldr	r3, [sp, #4]
	add	r4, r3, #224
	ldr	r0, [sp, #188]
	bl	atoi
	mov	r3, r0
	str	r3, [sp, #104]
	add	r3, sp, #104
	mov	r0, r4
	mov	r1, r3
	bl	_ZN8CIwArrayIi12CIwAllocatorIi15CIwMallocRouterIiEE17ReallocateDefaultIiS3_EE6appendERKi
	.loc 17 381 0
	mov	r0, #0
	ldr	r1, .L228+52
	bl	strtok
	mov	r3, r0
	str	r3, [sp, #188]
.L224:
	.loc 17 378 0
	ldr	r3, [sp, #188]
	cmp	r3, #0
	moveq	r3, #0
	movne	r3, #1
	and	r3, r3, #255
	cmp	r3, #0
	bne	.L225
.L199:
.LBE21:
	.loc 17 281 0
	ldr	r3, [sp, #176]
	sub	r3, r3, #1
	str	r3, [sp, #176]
.L195:
	ldr	r3, [sp, #176]
	cmn	r3, #1
	moveq	r3, #0
	movne	r3, #1
	and	r3, r3, #255
	cmp	r3, #0
	bne	.L226
.LBE20:
	.loc 17 386 0
	ldr	r3, [sp, #4]
	ldr	r3, [r3, #48]
	ldr	r2, [sp, #4]
	ldr	r2, [r2, #52]
	mul	r2, r3, r2
	ldr	r3, [sp, #4]
	str	r2, [r3, #104]
	.loc 17 387 0
	ldr	r3, [sp, #4]
	add	r4, r3, #64
	ldr	r3, [sp, #4]
	ldr	r3, [r3, #52]
	mov	r3, r3, asl #16
	mov	r3, r3, lsr #16
	ldr	r2, [sp, #4]
	ldr	r2, [r2, #112]
	mov	r2, r2, asl #16
	mov	r2, r2, lsr #16
	mul	r3, r2, r3
	mov	r3, r3, asl #16
	mov	r3, r3, lsr #16
	mov	r2, r3
	ldr	r3, [sp, #4]
	ldr	r3, [r3, #48]
	mov	r3, r3, asl #16
	mov	r3, r3, lsr #16
	ldr	r1, [sp, #4]
	ldr	r1, [r1, #108]
	mov	r1, r1, asl #16
	mov	r1, r1, lsr #16
	mul	r3, r1, r3
	mov	r3, r3, asl #16
	mov	r3, r3, lsr #16
	add	r1, sp, #108
	mov	r2, r2, asl #16
	mov	r2, r2, asr #16
	mov	r3, r3, asl #16
	mov	r3, r3, asr #16
	mov	r0, r1
	mov	r1, r2
	mov	r2, r3
	bl	_ZN8CIwSVec2C1Ess
	add	r3, sp, #108
	mov	r0, r4
	mov	r1, r3
	bl	_ZN8CIwSVec2aSERKS_
	add	r3, sp, #12
	mov	r0, r3
	bl	_ZN8CIwArrayIi12CIwAllocatorIi15CIwMallocRouterIiEE17ReallocateDefaultIiS3_EED1Ev
	add	r3, sp, #28
	mov	r0, r3
	bl	_ZN8CIwArrayIi12CIwAllocatorIi15CIwMallocRouterIiEE17ReallocateDefaultIiS3_EED1Ev
	add	r3, sp, #44
	mov	r0, r3
	bl	_ZN8CIwArrayIi12CIwAllocatorIi15CIwMallocRouterIiEE17ReallocateDefaultIiS3_EED1Ev
.LBE13:
	.loc 17 389 0
	add	sp, sp, #196
	ldmfd	sp!, {r4, r5, pc}
.L229:
	.align	2
.L228:
	.word	.LC15
	.word	_ZN4_STL4coutE
	.word	_ZN4_STL4endlIcNS_11char_traitsIcEEEERNS_13basic_ostreamIT_T0_EES7_
	.word	.LC16
	.word	.LC17
	.word	.LC18
	.word	.LC19
	.word	.LC20
	.word	.LC21
	.word	.LC22
	.word	.LC23
	.word	.LC24
	.word	.LC25
	.word	.LC26
	.word	.LC27
	.word	.LC28
	.word	.LC29
	.word	.LC30
	.word	.LC31
	.word	.LC32
	.word	.LC33
	.word	.LC34
	.word	.LC35
	.word	.LC36
	.word	.LC37
	.word	.LC38
	.word	.LC39
	.cfi_endproc
.LFE3407:
	.size	_ZN3Map12ReadJsonFileEPc, .-_ZN3Map12ReadJsonFileEPc
	.section	.text._ZN3Map6UpdateEi,"ax",%progbits
	.align	2
	.global	_ZN3Map6UpdateEi
	.hidden	_ZN3Map6UpdateEi
	.type	_ZN3Map6UpdateEi, %function
_ZN3Map6UpdateEi:
.LFB3408:
	.loc 17 392 0
	.cfi_startproc
	@ args = 0, pretend = 0, frame = 8
	@ frame_needed = 0, uses_anonymous_args = 0
	@ link register save eliminated.
	sub	sp, sp, #8
.LCFI73:
	.cfi_def_cfa_offset 8
	str	r0, [sp, #4]
	str	r1, [sp, #0]
	.loc 17 394 0
	add	sp, sp, #8
	bx	lr
	.cfi_endproc
.LFE3408:
	.size	_ZN3Map6UpdateEi, .-_ZN3Map6UpdateEi
	.section	.text._ZN3Map8CheckNPCEi,"ax",%progbits
	.align	2
	.global	_ZN3Map8CheckNPCEi
	.hidden	_ZN3Map8CheckNPCEi
	.type	_ZN3Map8CheckNPCEi, %function
_ZN3Map8CheckNPCEi:
.LFB3409:
	.loc 17 397 0
	.cfi_startproc
	@ args = 0, pretend = 0, frame = 16
	@ frame_needed = 0, uses_anonymous_args = 0
	str	lr, [sp, #-4]!
.LCFI74:
	.cfi_def_cfa_offset 4
	sub	sp, sp, #20
.LCFI75:
	.cfi_def_cfa_offset 24
	str	r0, [sp, #4]
	str	r1, [sp, #0]
.LBB22:
.LBB23:
	.loc 17 398 0
	ldr	r3, [sp, #4]
	add	r3, r3, #256
	mov	r0, r3
	.cfi_offset 14, -4
	bl	_ZNK8CIwArrayIP3NPC12CIwAllocatorIS1_15CIwMallocRouterIS1_EE17ReallocateDefaultIS1_S5_EE4sizeEv
	mov	r3, r0
	sub	r3, r3, #1
	str	r3, [sp, #12]
	b	.L233
.L236:
	.loc 17 400 0
	ldr	r3, [sp, #4]
	add	r3, r3, #256
	mov	r0, r3
	ldr	r1, [sp, #12]
	bl	_ZNK8CIwArrayIP3NPC12CIwAllocatorIS1_15CIwMallocRouterIS1_EE17ReallocateDefaultIS1_S5_EEixEi
	mov	r3, r0
	ldr	r3, [r3, #0]
	ldr	r2, [r3, #12]
	ldr	r3, [sp, #0]
	cmp	r2, r3
	movne	r3, #0
	moveq	r3, #1
	and	r3, r3, #255
	cmp	r3, #0
	beq	.L234
	.loc 17 401 0
	ldr	r3, [sp, #12]
	b	.L235
.L234:
	.loc 17 398 0
	ldr	r3, [sp, #12]
	sub	r3, r3, #1
	str	r3, [sp, #12]
.L233:
	ldr	r3, [sp, #12]
	cmn	r3, #1
	moveq	r3, #0
	movne	r3, #1
	and	r3, r3, #255
	cmp	r3, #0
	bne	.L236
.LBE23:
	.loc 17 403 0
	mvn	r3, #0
.L235:
.LBE22:
	.loc 17 404 0
	mov	r0, r3
	add	sp, sp, #20
	ldmfd	sp!, {pc}
	.cfi_endproc
.LFE3409:
	.size	_ZN3Map8CheckNPCEi, .-_ZN3Map8CheckNPCEi
	.global	__aeabi_idiv
	.section	.text._ZN3Map17SetCharacterIndexE8CIwFVec2,"ax",%progbits
	.align	2
	.global	_ZN3Map17SetCharacterIndexE8CIwFVec2
	.hidden	_ZN3Map17SetCharacterIndexE8CIwFVec2
	.type	_ZN3Map17SetCharacterIndexE8CIwFVec2, %function
_ZN3Map17SetCharacterIndexE8CIwFVec2:
.LFB3410:
	.loc 17 407 0
	.cfi_startproc
	@ args = 0, pretend = 0, frame = 24
	@ frame_needed = 0, uses_anonymous_args = 0
	str	lr, [sp, #-4]!
.LCFI76:
	.cfi_def_cfa_offset 4
	sub	sp, sp, #28
.LCFI77:
	.cfi_def_cfa_offset 32
	str	r0, [sp, #12]
	add	r3, sp, #4
	stmia	r3, {r1, r2}
.LBB24:
	.loc 17 409 0
	flds	s15, [sp, #4]
	ftosizs	s15, s15
	ldr	r3, [sp, #12]
	ldr	r3, [r3, #112]
	fmrs	r0, s15	@ int
	mov	r1, r3
	.cfi_offset 14, -4
	bl	__aeabi_idiv
	mov	r3, r0
	mov	r2, r3
	ldr	r3, [sp, #12]
	str	r2, [r3, #156]
	.loc 17 410 0
	flds	s15, [sp, #8]
	ftosizs	s15, s15
	ldr	r3, [sp, #12]
	ldr	r3, [r3, #108]
	fmrs	r0, s15	@ int
	mov	r1, r3
	bl	__aeabi_idiv
	mov	r3, r0
	mov	r2, r3
	ldr	r3, [sp, #12]
	str	r2, [r3, #160]
	.loc 17 411 0
	ldr	r3, [sp, #12]
	ldr	r2, [r3, #156]
	ldr	r3, [sp, #12]
	ldr	r3, [r3, #160]
	ldr	r1, [sp, #12]
	ldr	r1, [r1, #52]
	mul	r3, r1, r3
	add	r3, r2, r3
	str	r3, [sp, #20]
	.loc 17 412 0
	ldr	r3, [sp, #12]
	ldr	r3, [r3, #152]
	cmp	r3, #0
	blt	.L239
	ldr	r3, [sp, #12]
	ldr	r2, [r3, #152]
	ldr	r3, [sp, #20]
	cmp	r2, r3
	beq	.L239
	.loc 17 413 0
	ldr	r3, [sp, #12]
	ldr	r2, [r3, #152]
	ldr	r3, [sp, #12]
	str	r2, [r3, #148]
.L239:
	.loc 17 414 0
	ldr	r3, [sp, #12]
	ldr	r2, [sp, #20]
	str	r2, [r3, #152]
.LBE24:
	.loc 17 416 0
	add	sp, sp, #28
	ldmfd	sp!, {pc}
	.cfi_endproc
.LFE3410:
	.size	_ZN3Map17SetCharacterIndexE8CIwFVec2, .-_ZN3Map17SetCharacterIndexE8CIwFVec2
	.section	.text._ZN3Map10CheckBlockEv,"ax",%progbits
	.align	2
	.global	_ZN3Map10CheckBlockEv
	.hidden	_ZN3Map10CheckBlockEv
	.type	_ZN3Map10CheckBlockEv, %function
_ZN3Map10CheckBlockEv:
.LFB3411:
	.loc 17 419 0
	.cfi_startproc
	@ args = 0, pretend = 0, frame = 8
	@ frame_needed = 0, uses_anonymous_args = 0
	stmfd	sp!, {r4, lr}
.LCFI78:
	.cfi_def_cfa_offset 8
	sub	sp, sp, #8
.LCFI79:
	.cfi_def_cfa_offset 16
	str	r0, [sp, #4]
	.loc 17 420 0
	ldr	r3, [sp, #4]
	mov	r2, #0
	strb	r2, [r3, #276]
	.loc 17 421 0
	ldr	r3, [sp, #4]
	add	r3, r3, #164
	mov	r0, r3
	.cfi_offset 14, -4
	.cfi_offset 4, -8
	bl	_ZNK8CIwArrayIi12CIwAllocatorIi15CIwMallocRouterIiEE17ReallocateDefaultIiS3_EE5emptyEv
	mov	r3, r0
	cmp	r3, #0
	beq	.L242
	.loc 17 422 0
	ldr	r3, [sp, #4]
	mov	r2, #0
	strb	r2, [r3, #276]
	b	.L243
.L242:
	.loc 17 423 0
	ldr	r3, [sp, #4]
	ldr	r3, [r3, #272]
	mov	r4, r3
	ldr	r3, [sp, #4]
	add	r3, r3, #164
	mov	r0, r3
	bl	_ZNK8CIwArrayIi12CIwAllocatorIi15CIwMallocRouterIiEE17ReallocateDefaultIiS3_EE4sizeEv
	mov	r3, r0
	cmp	r4, r3
	bcs	.L244
	ldr	r3, [sp, #4]
	add	r2, r3, #164
	ldr	r3, [sp, #4]
	ldr	r3, [r3, #272]
	mov	r0, r2
	mov	r1, r3
	bl	_ZNK8CIwArrayIi12CIwAllocatorIi15CIwMallocRouterIiEE17ReallocateDefaultIiS3_EEixEi
	mov	r3, r0
	ldr	r2, [r3, #0]
	ldr	r3, [sp, #4]
	ldr	r3, [r3, #152]
	cmp	r2, r3
	bne	.L244
	ldr	r3, [sp, #4]
	ldr	r3, [r3, #76]
	mov	r2, r3
	ldr	r3, [sp, #4]
	ldr	r3, [r3, #148]
	mov	r0, r2
	mov	r1, r3
	bl	_ZNK8CIwArrayIi12CIwAllocatorIi15CIwMallocRouterIiEE17ReallocateDefaultIiS3_EEixEi
	mov	r3, r0
	ldr	r2, [r3, #0]
	ldr	r3, [sp, #4]
	ldr	r3, [r3, #92]
	ldr	r3, [r3, #32]
	rsb	r3, r3, r2
	cmp	r3, #0
	bge	.L244
	mov	r3, #1
	b	.L245
.L244:
	mov	r3, #0
.L245:
	cmp	r3, #0
	beq	.L243
	.loc 17 424 0
	ldr	r3, [sp, #4]
	mov	r2, #1
	strb	r2, [r3, #276]
.L243:
	.loc 17 425 0
	ldr	r3, [sp, #4]
	ldrb	r3, [r3, #276]	@ zero_extendqisi2
	.loc 17 426 0
	mov	r0, r3
	add	sp, sp, #8
	ldmfd	sp!, {r4, pc}
	.cfi_endproc
.LFE3411:
	.size	_ZN3Map10CheckBlockEv, .-_ZN3Map10CheckBlockEv
	.section	.text._ZN3Map9CheckDoorEv,"ax",%progbits
	.align	2
	.global	_ZN3Map9CheckDoorEv
	.hidden	_ZN3Map9CheckDoorEv
	.type	_ZN3Map9CheckDoorEv, %function
_ZN3Map9CheckDoorEv:
.LFB3412:
	.loc 17 429 0
	.cfi_startproc
	@ args = 0, pretend = 0, frame = 24
	@ frame_needed = 0, uses_anonymous_args = 0
	str	lr, [sp, #-4]!
.LCFI80:
	.cfi_def_cfa_offset 4
	sub	sp, sp, #28
.LCFI81:
	.cfi_def_cfa_offset 32
	str	r0, [sp, #4]
.LBB25:
	.loc 17 431 0
	ldr	r3, [sp, #4]
	ldr	r3, [r3, #68]
	mov	r2, r3
	ldr	r3, [sp, #4]
	ldr	r3, [r3, #152]
	mov	r0, r2
	mov	r1, r3
	.cfi_offset 14, -4
	bl	_ZNK8CIwArrayIi12CIwAllocatorIi15CIwMallocRouterIiEE17ReallocateDefaultIiS3_EEixEi
	mov	r3, r0
	ldr	r2, [r3, #0]
	ldr	r3, [sp, #4]
	ldr	r3, [r3, #88]
	ldr	r3, [r3, #32]
	rsb	r3, r3, r2
	str	r3, [sp, #8]
	.loc 17 432 0
	ldr	r3, [sp, #4]
	ldr	r3, [r3, #88]
	mov	r0, r3
	ldr	r1, [sp, #8]
	bl	_ZN7TileSet11GetTileUnitEi
	mov	r3, r0
	ldrb	r3, [r3, #8]
	strb	r3, [sp, #15]
	.loc 17 434 0
	ldr	r3, [sp, #4]
	ldr	r3, [r3, #72]
	mov	r2, r3
	ldr	r3, [sp, #4]
	ldr	r3, [r3, #152]
	mov	r0, r2
	mov	r1, r3
	bl	_ZNK8CIwArrayIi12CIwAllocatorIi15CIwMallocRouterIiEE17ReallocateDefaultIiS3_EEixEi
	mov	r3, r0
	ldr	r2, [r3, #0]
	ldr	r3, [sp, #4]
	ldr	r3, [r3, #88]
	ldr	r3, [r3, #32]
	rsb	r3, r3, r2
	str	r3, [sp, #16]
	.loc 17 435 0
	ldr	r3, [sp, #4]
	ldr	r3, [r3, #88]
	mov	r0, r3
	ldr	r1, [sp, #16]
	bl	_ZN7TileSet11GetTileUnitEi
	mov	r3, r0
	ldrb	r3, [r3, #8]
	strb	r3, [sp, #23]
	.loc 17 441 0
	ldrb	r3, [sp, #15]	@ zero_extendqisi2
	cmp	r3, #0
	bne	.L248
	ldrb	r3, [sp, #23]	@ zero_extendqisi2
	cmp	r3, #0
	beq	.L249
.L248:
	.loc 17 443 0
	ldr	r3, [sp, #4]
	add	r2, r3, #24
	ldr	r3, [sp, #4]
	add	r3, r3, #152
	mov	r0, r2
	mov	r1, r3
	bl	_ZNK8CIwArrayIi12CIwAllocatorIi15CIwMallocRouterIiEE17ReallocateDefaultIiS3_EE4findERKi
	mov	r3, r0
	b	.L250
.L249:
	.loc 17 445 0
	mvn	r3, #0
.L250:
.LBE25:
	.loc 17 446 0
	mov	r0, r3
	add	sp, sp, #28
	ldmfd	sp!, {pc}
	.cfi_endproc
.LFE3412:
	.size	_ZN3Map9CheckDoorEv, .-_ZN3Map9CheckDoorEv
	.section	.text._ZN3Map13CheckEndPointEv,"ax",%progbits
	.align	2
	.global	_ZN3Map13CheckEndPointEv
	.hidden	_ZN3Map13CheckEndPointEv
	.type	_ZN3Map13CheckEndPointEv, %function
_ZN3Map13CheckEndPointEv:
.LFB3413:
	.loc 17 449 0
	.cfi_startproc
	@ args = 0, pretend = 0, frame = 16
	@ frame_needed = 0, uses_anonymous_args = 0
	@ link register save eliminated.
	sub	sp, sp, #16
.LCFI82:
	.cfi_def_cfa_offset 16
	str	r0, [sp, #4]
.LBB26:
	.loc 17 450 0
	ldr	r3, [sp, #4]
	ldr	r2, [r3, #180]
	ldr	r3, [sp, #4]
	ldr	r3, [r3, #184]
	ldr	r1, [sp, #4]
	ldr	r1, [r1, #52]
	mul	r3, r1, r3
	add	r3, r2, r3
	str	r3, [sp, #12]
	.loc 17 451 0
	ldr	r3, [sp, #4]
	ldr	r2, [r3, #152]
	ldr	r3, [sp, #12]
	cmp	r2, r3
	bne	.L253
	.loc 17 452 0
	mov	r3, #1
	b	.L254
.L253:
	.loc 17 454 0
	mov	r3, #0
.L254:
.LBE26:
	.loc 17 455 0
	mov	r0, r3
	add	sp, sp, #16
	bx	lr
	.cfi_endproc
.LFE3413:
	.size	_ZN3Map13CheckEndPointEv, .-_ZN3Map13CheckEndPointEv
	.section	.text._ZN3Map12CheckMapEdgeER8CIwFVec2,"ax",%progbits
	.align	2
	.global	_ZN3Map12CheckMapEdgeER8CIwFVec2
	.hidden	_ZN3Map12CheckMapEdgeER8CIwFVec2
	.type	_ZN3Map12CheckMapEdgeER8CIwFVec2, %function
_ZN3Map12CheckMapEdgeER8CIwFVec2:
.LFB3414:
	.loc 17 459 0
	.cfi_startproc
	@ args = 0, pretend = 0, frame = 8
	@ frame_needed = 0, uses_anonymous_args = 0
	str	lr, [sp, #-4]!
.LCFI83:
	.cfi_def_cfa_offset 4
	fstmfdd	sp!, {d8}
.LCFI84:
	.cfi_def_cfa_offset 12
	sub	sp, sp, #12
.LCFI85:
	.cfi_def_cfa_offset 24
	str	r0, [sp, #4]
	str	r1, [sp, #0]
	.loc 17 460 0
	ldr	r3, [sp, #0]
	flds	s15, [r3, #0]
	fcmpezs	s15
	fmstat
	movpl	r3, #0
	movmi	r3, #1
	and	r3, r3, #255
	cmp	r3, #0
	beq	.L257
	.cfi_offset 80, -12
	.cfi_offset 14, -4
	.loc 17 462 0
	ldr	r3, [sp, #0]
	flds	s15, .L263
	fsts	s15, [r3, #0]
	.loc 17 463 0
	mov	r3, #0
	b	.L258
.L257:
	.loc 17 465 0
	ldr	r3, [sp, #0]
	flds	s15, [r3, #4]
	fcmpezs	s15
	fmstat
	movpl	r3, #0
	movmi	r3, #1
	and	r3, r3, #255
	cmp	r3, #0
	beq	.L259
	.loc 17 467 0
	ldr	r3, [sp, #0]
	flds	s15, .L263
	fsts	s15, [r3, #4]
	.loc 17 468 0
	mov	r3, #0
	b	.L258
.L259:
	.loc 17 470 0
	ldr	r3, [sp, #0]
	flds	s16, [r3, #0]
	bl	_Z19Iw2DGetSurfaceWidthv
	fmsr	s15, r0	@ int
	fsitos	s15, s15
	fadds	s14, s16, s15
	ldr	r3, [sp, #4]
	ldrh	r3, [r3, #64]
	mov	r3, r3, asl #16
	mov	r3, r3, asr #16
	fmsr	s15, r3	@ int
	fsitos	s15, s15
	fcmpes	s14, s15
	fmstat
	movle	r3, #0
	movgt	r3, #1
	and	r3, r3, #255
	cmp	r3, #0
	beq	.L260
	.loc 17 472 0
	ldr	r3, [sp, #4]
	ldrh	r3, [r3, #64]
	mov	r3, r3, asl #16
	mov	r3, r3, asr #16
	fmsr	s15, r3	@ int
	fsitos	s16, s15
	bl	_Z19Iw2DGetSurfaceWidthv
	fmsr	s15, r0	@ int
	fsitos	s15, s15
	fsubs	s15, s16, s15
	ldr	r3, [sp, #0]
	fsts	s15, [r3, #0]
	.loc 17 473 0
	mov	r3, #0
	b	.L258
.L260:
	.loc 17 475 0
	ldr	r3, [sp, #0]
	flds	s16, [r3, #4]
	bl	_Z20Iw2DGetSurfaceHeightv
	fmsr	s15, r0	@ int
	fsitos	s15, s15
	fadds	s14, s16, s15
	ldr	r3, [sp, #4]
	ldrh	r3, [r3, #66]
	mov	r3, r3, asl #16
	mov	r3, r3, asr #16
	fmsr	s15, r3	@ int
	fsitos	s15, s15
	fcmpes	s14, s15
	fmstat
	movle	r3, #0
	movgt	r3, #1
	and	r3, r3, #255
	cmp	r3, #0
	beq	.L261
	.loc 17 477 0
	ldr	r3, [sp, #4]
	ldrh	r3, [r3, #66]
	mov	r3, r3, asl #16
	mov	r3, r3, asr #16
	fmsr	s15, r3	@ int
	fsitos	s16, s15
	bl	_Z20Iw2DGetSurfaceHeightv
	fmsr	s15, r0	@ int
	fsitos	s15, s15
	fsubs	s15, s16, s15
	ldr	r3, [sp, #0]
	fsts	s15, [r3, #4]
	.loc 17 478 0
	mov	r3, #0
	b	.L258
.L261:
	.loc 17 480 0
	mov	r3, #1
.L258:
	.loc 17 481 0
	mov	r0, r3
	add	sp, sp, #12
	fldmfdd	sp!, {d8}
	ldmfd	sp!, {pc}
.L264:
	.align	2
.L263:
	.word	0
	.cfi_endproc
.LFE3414:
	.size	_ZN3Map12CheckMapEdgeER8CIwFVec2, .-_ZN3Map12CheckMapEdgeER8CIwFVec2
	.section	.text._ZN3Map12CheckMapEdgeEv,"ax",%progbits
	.align	2
	.global	_ZN3Map12CheckMapEdgeEv
	.hidden	_ZN3Map12CheckMapEdgeEv
	.type	_ZN3Map12CheckMapEdgeEv, %function
_ZN3Map12CheckMapEdgeEv:
.LFB3415:
	.loc 17 484 0
	.cfi_startproc
	@ args = 0, pretend = 0, frame = 8
	@ frame_needed = 0, uses_anonymous_args = 0
	str	lr, [sp, #-4]!
.LCFI86:
	.cfi_def_cfa_offset 4
	fstmfdd	sp!, {d8}
.LCFI87:
	.cfi_def_cfa_offset 12
	sub	sp, sp, #12
.LCFI88:
	.cfi_def_cfa_offset 24
	str	r0, [sp, #4]
	.loc 17 485 0
	ldr	r3, [sp, #4]
	flds	s15, [r3, #0]
	fcmpezs	s15
	fmstat
	movpl	r3, #0
	movmi	r3, #1
	and	r3, r3, #255
	cmp	r3, #0
	beq	.L266
	.cfi_offset 80, -12
	.cfi_offset 14, -4
	.loc 17 487 0
	ldr	r3, [sp, #4]
	flds	s15, .L272
	fsts	s15, [r3, #0]
	.loc 17 488 0
	mov	r3, #0
	b	.L267
.L266:
	.loc 17 490 0
	ldr	r3, [sp, #4]
	flds	s15, [r3, #4]
	fcmpezs	s15
	fmstat
	movpl	r3, #0
	movmi	r3, #1
	and	r3, r3, #255
	cmp	r3, #0
	beq	.L268
	.loc 17 492 0
	ldr	r3, [sp, #4]
	flds	s15, .L272
	fsts	s15, [r3, #4]
	.loc 17 493 0
	mov	r3, #0
	b	.L267
.L268:
	.loc 17 495 0
	ldr	r3, [sp, #4]
	flds	s16, [r3, #0]
	bl	_Z19Iw2DGetSurfaceWidthv
	fmsr	s15, r0	@ int
	fsitos	s15, s15
	fadds	s14, s16, s15
	ldr	r3, [sp, #4]
	ldrh	r3, [r3, #64]
	mov	r3, r3, asl #16
	mov	r3, r3, asr #16
	fmsr	s15, r3	@ int
	fsitos	s15, s15
	fcmpes	s14, s15
	fmstat
	movle	r3, #0
	movgt	r3, #1
	and	r3, r3, #255
	cmp	r3, #0
	beq	.L269
	.loc 17 497 0
	ldr	r3, [sp, #4]
	ldrh	r3, [r3, #64]
	mov	r3, r3, asl #16
	mov	r3, r3, asr #16
	fmsr	s15, r3	@ int
	fsitos	s16, s15
	bl	_Z19Iw2DGetSurfaceWidthv
	fmsr	s15, r0	@ int
	fsitos	s15, s15
	fsubs	s15, s16, s15
	ldr	r3, [sp, #4]
	fsts	s15, [r3, #0]
	.loc 17 498 0
	mov	r3, #0
	b	.L267
.L269:
	.loc 17 500 0
	ldr	r3, [sp, #4]
	flds	s16, [r3, #4]
	bl	_Z20Iw2DGetSurfaceHeightv
	fmsr	s15, r0	@ int
	fsitos	s15, s15
	fadds	s14, s16, s15
	ldr	r3, [sp, #4]
	ldrh	r3, [r3, #66]
	mov	r3, r3, asl #16
	mov	r3, r3, asr #16
	fmsr	s15, r3	@ int
	fsitos	s15, s15
	fcmpes	s14, s15
	fmstat
	movle	r3, #0
	movgt	r3, #1
	and	r3, r3, #255
	cmp	r3, #0
	beq	.L270
	.loc 17 502 0
	ldr	r3, [sp, #4]
	ldrh	r3, [r3, #66]
	mov	r3, r3, asl #16
	mov	r3, r3, asr #16
	fmsr	s15, r3	@ int
	fsitos	s16, s15
	bl	_Z20Iw2DGetSurfaceHeightv
	fmsr	s15, r0	@ int
	fsitos	s15, s15
	fsubs	s15, s16, s15
	ldr	r3, [sp, #4]
	fsts	s15, [r3, #4]
	.loc 17 503 0
	mov	r3, #0
	b	.L267
.L270:
	.loc 17 505 0
	mov	r3, #1
.L267:
	.loc 17 506 0
	mov	r0, r3
	add	sp, sp, #12
	fldmfdd	sp!, {d8}
	ldmfd	sp!, {pc}
.L273:
	.align	2
.L272:
	.word	0
	.cfi_endproc
.LFE3415:
	.size	_ZN3Map12CheckMapEdgeEv, .-_ZN3Map12CheckMapEdgeEv
	.section	.text._ZN3Map13CheckTileConnEii,"ax",%progbits
	.align	2
	.global	_ZN3Map13CheckTileConnEii
	.hidden	_ZN3Map13CheckTileConnEii
	.type	_ZN3Map13CheckTileConnEii, %function
_ZN3Map13CheckTileConnEii:
.LFB3416:
	.loc 17 509 0
	.cfi_startproc
	@ args = 0, pretend = 0, frame = 16
	@ frame_needed = 0, uses_anonymous_args = 0
	str	lr, [sp, #-4]!
.LCFI89:
	.cfi_def_cfa_offset 4
	sub	sp, sp, #20
.LCFI90:
	.cfi_def_cfa_offset 24
	str	r0, [sp, #12]
	str	r1, [sp, #8]
	str	r2, [sp, #4]
	.loc 17 510 0
	ldr	r0, [sp, #12]
	ldr	r1, [sp, #8]
	.cfi_offset 14, -4
	bl	_ZN3Map11CheckBorderEi
	.loc 17 512 0
	ldr	r3, [sp, #12]
	ldrb	r3, [r3, #188]	@ zero_extendqisi2
	eor	r3, r3, #1
	and	r3, r3, #255
	cmp	r3, #0
	beq	.L275
	ldr	r3, [sp, #12]
	ldr	r3, [r3, #52]
	ldr	r2, [sp, #8]
	rsb	r2, r3, r2
	ldr	r3, [sp, #4]
	cmp	r2, r3
	bne	.L275
	.loc 17 514 0
	mov	r3, #1
	b	.L276
.L275:
	.loc 17 516 0
	ldr	r3, [sp, #12]
	ldrb	r3, [r3, #189]	@ zero_extendqisi2
	eor	r3, r3, #1
	and	r3, r3, #255
	cmp	r3, #0
	beq	.L277
	ldr	r3, [sp, #8]
	add	r2, r3, #1
	ldr	r3, [sp, #4]
	cmp	r2, r3
	bne	.L277
	.loc 17 518 0
	mov	r3, #1
	b	.L276
.L277:
	.loc 17 520 0
	ldr	r3, [sp, #12]
	ldrb	r3, [r3, #190]	@ zero_extendqisi2
	eor	r3, r3, #1
	and	r3, r3, #255
	cmp	r3, #0
	beq	.L278
	ldr	r3, [sp, #12]
	ldr	r2, [r3, #52]
	ldr	r3, [sp, #8]
	add	r2, r2, r3
	ldr	r3, [sp, #4]
	cmp	r2, r3
	bne	.L278
	.loc 17 522 0
	mov	r3, #1
	b	.L276
.L278:
	.loc 17 524 0
	ldr	r3, [sp, #12]
	ldrb	r3, [r3, #191]	@ zero_extendqisi2
	eor	r3, r3, #1
	and	r3, r3, #255
	cmp	r3, #0
	beq	.L279
	ldr	r3, [sp, #8]
	sub	r2, r3, #1
	ldr	r3, [sp, #4]
	cmp	r2, r3
	bne	.L279
	.loc 17 526 0
	mov	r3, #1
	b	.L276
.L279:
	.loc 17 528 0
	mov	r3, #0
.L276:
	.loc 17 529 0
	mov	r0, r3
	add	sp, sp, #20
	ldmfd	sp!, {pc}
	.cfi_endproc
.LFE3416:
	.size	_ZN3Map13CheckTileConnEii, .-_ZN3Map13CheckTileConnEii
	.section	.text._ZN3Map17CheckMazeTileConnEiii,"ax",%progbits
	.align	2
	.global	_ZN3Map17CheckMazeTileConnEiii
	.hidden	_ZN3Map17CheckMazeTileConnEiii
	.type	_ZN3Map17CheckMazeTileConnEiii, %function
_ZN3Map17CheckMazeTileConnEiii:
.LFB3417:
	.loc 17 532 0
	.cfi_startproc
	@ args = 0, pretend = 0, frame = 16
	@ frame_needed = 0, uses_anonymous_args = 0
	str	lr, [sp, #-4]!
.LCFI91:
	.cfi_def_cfa_offset 4
	sub	sp, sp, #20
.LCFI92:
	.cfi_def_cfa_offset 24
	str	r0, [sp, #12]
	str	r1, [sp, #8]
	str	r2, [sp, #4]
	str	r3, [sp, #0]
	.loc 17 534 0
	ldr	r3, [sp, #4]
	cmp	r3, #0
	bne	.L282
	.cfi_offset 14, -4
	ldr	r3, [sp, #12]
	ldr	r3, [r3, #52]
	ldr	r2, [sp, #8]
	rsb	r2, r3, r2
	ldr	r3, [sp, #0]
	cmp	r2, r3
	bne	.L282
	.loc 17 536 0
	ldr	r0, [sp, #12]
	ldr	r1, [sp, #0]
	bl	_ZN3Map11CheckBorderEi
	.loc 17 537 0
	ldr	r3, [sp, #12]
	ldrb	r3, [r3, #190]	@ zero_extendqisi2
	eor	r3, r3, #1
	and	r3, r3, #255
	cmp	r3, #0
	beq	.L282
	.loc 17 538 0
	mov	r3, #1
	b	.L283
.L282:
	.loc 17 540 0
	ldr	r3, [sp, #4]
	cmp	r3, #1
	bne	.L284
	ldr	r3, [sp, #8]
	add	r2, r3, #1
	ldr	r3, [sp, #0]
	cmp	r2, r3
	bne	.L284
	.loc 17 542 0
	ldr	r0, [sp, #12]
	ldr	r1, [sp, #0]
	bl	_ZN3Map11CheckBorderEi
	.loc 17 543 0
	ldr	r3, [sp, #12]
	ldrb	r3, [r3, #191]	@ zero_extendqisi2
	eor	r3, r3, #1
	and	r3, r3, #255
	cmp	r3, #0
	beq	.L284
	.loc 17 544 0
	mov	r3, #1
	b	.L283
.L284:
	.loc 17 546 0
	ldr	r3, [sp, #4]
	cmp	r3, #2
	bne	.L285
	ldr	r3, [sp, #12]
	ldr	r2, [r3, #52]
	ldr	r3, [sp, #8]
	add	r2, r2, r3
	ldr	r3, [sp, #0]
	cmp	r2, r3
	bne	.L285
	.loc 17 548 0
	ldr	r0, [sp, #12]
	ldr	r1, [sp, #0]
	bl	_ZN3Map11CheckBorderEi
	.loc 17 549 0
	ldr	r3, [sp, #12]
	ldrb	r3, [r3, #188]	@ zero_extendqisi2
	eor	r3, r3, #1
	and	r3, r3, #255
	cmp	r3, #0
	beq	.L285
	.loc 17 550 0
	mov	r3, #1
	b	.L283
.L285:
	.loc 17 552 0
	ldr	r3, [sp, #4]
	cmp	r3, #3
	bne	.L286
	ldr	r3, [sp, #8]
	sub	r2, r3, #1
	ldr	r3, [sp, #0]
	cmp	r2, r3
	bne	.L286
	.loc 17 554 0
	ldr	r0, [sp, #12]
	ldr	r1, [sp, #0]
	bl	_ZN3Map11CheckBorderEi
	.loc 17 555 0
	ldr	r3, [sp, #12]
	ldrb	r3, [r3, #189]	@ zero_extendqisi2
	eor	r3, r3, #1
	and	r3, r3, #255
	cmp	r3, #0
	beq	.L286
	.loc 17 556 0
	mov	r3, #1
	b	.L283
.L286:
	.loc 17 558 0
	mov	r3, #0
.L283:
	.loc 17 559 0
	mov	r0, r3
	add	sp, sp, #20
	ldmfd	sp!, {pc}
	.cfi_endproc
.LFE3417:
	.size	_ZN3Map17CheckMazeTileConnEiii, .-_ZN3Map17CheckMazeTileConnEiii
	.section	.rodata
	.align	2
.LC40:
	.ascii	"MAP::CHECKMAZEPATH()\000"
	.align	2
.LC41:
	.ascii	"MAP::CHECKMAZEPATH()-memcpy\000"
	.align	2
.LC42:
	.ascii	"MAP::CHECKMAZEPATH()-index_Layer_Maze\000"
	.section	.text._ZN3Map13CheckMazePathEv,"ax",%progbits
	.align	2
	.global	_ZN3Map13CheckMazePathEv
	.hidden	_ZN3Map13CheckMazePathEv
	.type	_ZN3Map13CheckMazePathEv, %function
_ZN3Map13CheckMazePathEv:
.LFB3418:
	.loc 17 562 0
	.cfi_startproc
	@ args = 0, pretend = 0, frame = 80
	@ frame_needed = 0, uses_anonymous_args = 0
	stmfd	sp!, {r4, r5, lr}
.LCFI93:
	.cfi_def_cfa_offset 12
	sub	sp, sp, #84
.LCFI94:
	.cfi_def_cfa_offset 96
	str	r0, [sp, #4]
.LBB27:
	.loc 17 563 0
	add	r3, sp, #60
	mov	r0, r3
	ldr	r1, .L309
	.cfi_offset 14, -4
	.cfi_offset 5, -8
	.cfi_offset 4, -12
	bl	_ZN12CIwCallStackC1EPKc
	.loc 17 564 0
	ldr	r3, [sp, #4]
	add	r2, r3, #224
	ldr	r3, [sp, #4]
	ldr	r3, [r3, #272]
	mov	r0, r2
	mov	r1, r3
	bl	_ZNK8CIwArrayIi12CIwAllocatorIi15CIwMallocRouterIiEE17ReallocateDefaultIiS3_EEixEi
	mov	r3, r0
	ldr	r4, [r3, #0]
	ldr	r3, [sp, #4]
	add	r2, r3, #240
	ldr	r3, [sp, #4]
	ldr	r3, [r3, #272]
	mov	r0, r2
	mov	r1, r3
	bl	_ZNK8CIwArrayIi12CIwAllocatorIi15CIwMallocRouterIiEE17ReallocateDefaultIiS3_EEixEi
	mov	r3, r0
	ldr	r3, [r3, #0]
	ldr	r0, [sp, #4]
	mov	r1, r4
	mov	r2, r3
	bl	_ZN3Map13CheckTileConnEii
	mov	r3, r0
	eor	r3, r3, #1
	and	r3, r3, #255
	cmp	r3, #0
	beq	.L289
	.loc 17 565 0
	mov	r4, #0
	b	.L290
.L289:
	.loc 17 567 0
	ldr	r3, [sp, #4]
	ldr	r5, [r3, #100]
	ldr	r3, [sp, #4]
	add	r2, r3, #224
	ldr	r3, [sp, #4]
	ldr	r3, [r3, #272]
	mov	r0, r2
	mov	r1, r3
	bl	_ZNK8CIwArrayIi12CIwAllocatorIi15CIwMallocRouterIiEE17ReallocateDefaultIiS3_EEixEi
	mov	r3, r0
	ldr	r4, [r3, #0]
	ldr	r3, [sp, #4]
	add	r2, r3, #192
	ldr	r3, [sp, #4]
	ldr	r3, [r3, #272]
	mov	r0, r2
	mov	r1, r3
	bl	_ZNK8CIwArrayIi12CIwAllocatorIi15CIwMallocRouterIiEE17ReallocateDefaultIiS3_EEixEi
	mov	r3, r0
	ldr	r3, [r3, #0]
	mov	r0, r5
	mov	r1, r4
	mov	r2, r3
	bl	_ZN4Path4InitEii
	.loc 17 568 0
	add	r3, sp, #44
	mov	r0, r3
	mov	r1, #0
	bl	_ZN8CIwArrayIi12CIwAllocatorIi15CIwMallocRouterIiEE17ReallocateDefaultIiS3_EEC1Ej
	add	r3, sp, #28
	mov	r0, r3
	mov	r1, #0
	bl	_ZN8CIwArrayIi12CIwAllocatorIi15CIwMallocRouterIiEE17ReallocateDefaultIiS3_EEC1Ej
	.loc 17 570 0
	ldr	r3, [sp, #4]
	add	r2, r3, #224
	ldr	r3, [sp, #4]
	ldr	r3, [r3, #272]
	mov	r0, r2
	mov	r1, r3
	bl	_ZNK8CIwArrayIi12CIwAllocatorIi15CIwMallocRouterIiEE17ReallocateDefaultIiS3_EEixEi
	mov	r3, r0
	add	r2, sp, #44
	mov	r0, r2
	mov	r1, r3
	bl	_ZN8CIwArrayIi12CIwAllocatorIi15CIwMallocRouterIiEE17ReallocateDefaultIiS3_EE6appendERKi
.LBB28:
	.loc 17 571 0
	mov	r3, #0
	str	r3, [sp, #64]
	b	.L291
.L304:
.LBB29:
	.loc 17 573 0
	add	r3, sp, #44
	mov	r0, r3
	ldr	r1, [sp, #64]
	bl	_ZNK8CIwArrayIi12CIwAllocatorIi15CIwMallocRouterIiEE17ReallocateDefaultIiS3_EEixEi
	mov	r3, r0
	ldr	r3, [r3, #0]
	str	r3, [sp, #24]
	.loc 17 574 0
	add	r2, sp, #28
	add	r3, sp, #24
	mov	r0, r2
	mov	r1, r3
	bl	_ZNK8CIwArrayIi12CIwAllocatorIi15CIwMallocRouterIiEE17ReallocateDefaultIiS3_EE8containsERKi
	mov	r3, r0
	cmp	r3, #0
	bne	.L308
.L292:
	.loc 17 576 0
	ldr	r3, [sp, #24]
	ldr	r0, [sp, #4]
	mov	r1, r3
	bl	_ZN3Map11CheckBorderEi
	.loc 17 579 0
	ldr	r3, [sp, #4]
	add	r3, r3, #188
	add	r2, sp, #20
	mov	r0, r2
	mov	r1, r3
	mov	r2, #4
	bl	memcpy
	.loc 17 580 0
	add	r3, sp, #16
	mov	r0, r3
	ldr	r1, .L309+4
	bl	_ZN12CIwCallStackC1EPKc
.LBB30:
	.loc 17 581 0
	mov	r3, #0
	str	r3, [sp, #72]
	b	.L294
.L303:
	.loc 17 584 0
	ldr	r2, [sp, #72]
	mvn	r3, #59
	add	r1, sp, #80
	add	r2, r1, r2
	add	r3, r2, r3
	ldrb	r3, [r3, #0]	@ zero_extendqisi2
	eor	r3, r3, #1
	and	r3, r3, #255
	cmp	r3, #0
	beq	.L295
.LBB31:
	.loc 17 586 0
	ldr	r3, [sp, #24]
	str	r3, [sp, #12]
	.loc 17 587 0
	ldr	r3, [sp, #72]
	cmp	r3, #3
	ldrls	pc, [pc, r3, asl #2]
	b	.L296
.L301:
	.word	.L297
	.word	.L298
	.word	.L299
	.word	.L300
.L297:
	.loc 17 590 0
	ldr	r2, [sp, #24]
	ldr	r3, [sp, #4]
	ldr	r3, [r3, #52]
	rsb	r3, r3, r2
	str	r3, [sp, #12]
	b	.L296
.L298:
	.loc 17 592 0
	ldr	r3, [sp, #24]
	add	r3, r3, #1
	str	r3, [sp, #12]
	b	.L296
.L299:
	.loc 17 594 0
	ldr	r3, [sp, #4]
	ldr	r2, [r3, #52]
	ldr	r3, [sp, #24]
	add	r3, r2, r3
	str	r3, [sp, #12]
	b	.L296
.L300:
	.loc 17 596 0
	ldr	r3, [sp, #24]
	sub	r3, r3, #1
	str	r3, [sp, #12]
.L296:
	.loc 17 598 0
	ldr	r3, [sp, #4]
	ldr	r3, [r3, #76]
	mov	r2, r3
	ldr	r3, [sp, #12]
	mov	r0, r2
	mov	r1, r3
	bl	_ZNK8CIwArrayIi12CIwAllocatorIi15CIwMallocRouterIiEE17ReallocateDefaultIiS3_EEixEi
	mov	r3, r0
	ldr	r2, [r3, #0]
	ldr	r3, [sp, #4]
	ldr	r3, [r3, #92]
	ldr	r3, [r3, #32]
	rsb	r3, r3, r2
	str	r3, [sp, #68]
	.loc 17 599 0
	add	r3, sp, #8
	mov	r0, r3
	ldr	r1, .L309+8
	bl	_ZN12CIwCallStackC1EPKc
	.loc 17 600 0
	ldr	r3, [sp, #68]
	cmp	r3, #0
	blt	.L302
	.loc 17 602 0
	ldr	r2, [sp, #24]
	ldr	r3, [sp, #12]
	ldr	r0, [sp, #4]
	mov	r1, r2
	ldr	r2, [sp, #72]
	bl	_ZN3Map17CheckMazeTileConnEiii
	mov	r3, r0
	cmp	r3, #0
	beq	.L302
	.loc 17 604 0
	ldr	r3, [sp, #4]
	ldr	r1, [r3, #100]
	ldr	r2, [sp, #12]
	ldr	r3, [sp, #24]
	mov	r0, r1
	mov	r1, r2
	mov	r2, r3
	bl	_ZN4Path11AddPathNodeEii
	.loc 17 605 0
	add	r2, sp, #44
	add	r3, sp, #12
	mov	r0, r2
	mov	r1, r3
	bl	_ZNK8CIwArrayIi12CIwAllocatorIi15CIwMallocRouterIiEE17ReallocateDefaultIiS3_EE8containsERKi
	mov	r3, r0
	eor	r3, r3, #1
	and	r3, r3, #255
	cmp	r3, #0
	beq	.L302
	.loc 17 606 0
	add	r2, sp, #44
	add	r3, sp, #12
	mov	r0, r2
	mov	r1, r3
	bl	_ZN8CIwArrayIi12CIwAllocatorIi15CIwMallocRouterIiEE17ReallocateDefaultIiS3_EE6appendERKi
.L302:
	.loc 17 608 0
	add	r3, sp, #8
	mov	r0, r3
	bl	_ZN12CIwCallStackD1Ev
.L295:
.LBE31:
	.loc 17 581 0
	ldr	r3, [sp, #72]
	add	r3, r3, #1
	str	r3, [sp, #72]
.L294:
	ldr	r3, [sp, #72]
	cmp	r3, #4
	moveq	r3, #0
	movne	r3, #1
	and	r3, r3, #255
	cmp	r3, #0
	bne	.L303
.LBE30:
	.loc 17 611 0
	add	r3, sp, #44
	mov	r0, r3
	ldr	r1, [sp, #64]
	bl	_ZNK8CIwArrayIi12CIwAllocatorIi15CIwMallocRouterIiEE17ReallocateDefaultIiS3_EEixEi
	mov	r3, r0
	add	r2, sp, #28
	mov	r0, r2
	mov	r1, r3
	bl	_ZN8CIwArrayIi12CIwAllocatorIi15CIwMallocRouterIiEE17ReallocateDefaultIiS3_EE6appendERKi
	.loc 17 571 0
	add	r3, sp, #16
	mov	r0, r3
	bl	_ZN12CIwCallStackD1Ev
	b	.L293
.L308:
	.loc 17 575 0
	mov	r0, r0	@ nop
.L293:
.LBE29:
	.loc 17 571 0
	ldr	r3, [sp, #64]
	add	r3, r3, #1
	str	r3, [sp, #64]
.L291:
	ldr	r4, [sp, #64]
	add	r3, sp, #44
	mov	r0, r3
	bl	_ZNK8CIwArrayIi12CIwAllocatorIi15CIwMallocRouterIiEE17ReallocateDefaultIiS3_EE4sizeEv
	mov	r3, r0
	cmp	r4, r3
	movcs	r3, #0
	movcc	r3, #1
	and	r3, r3, #255
	cmp	r3, #0
	bne	.L304
.LBE28:
	.loc 17 614 0
	ldr	r3, [sp, #4]
	add	r2, r3, #192
	ldr	r3, [sp, #4]
	ldr	r3, [r3, #272]
	mov	r0, r2
	mov	r1, r3
	bl	_ZNK8CIwArrayIi12CIwAllocatorIi15CIwMallocRouterIiEE17ReallocateDefaultIiS3_EEixEi
	mov	r3, r0
	add	r2, sp, #28
	mov	r0, r2
	mov	r1, r3
	bl	_ZNK8CIwArrayIi12CIwAllocatorIi15CIwMallocRouterIiEE17ReallocateDefaultIiS3_EE4findERKi
	mov	r3, r0
	cmn	r3, #1
	moveq	r3, #0
	movne	r3, #1
	and	r3, r3, #255
	cmp	r3, #0
	beq	.L305
	.loc 17 616 0
	ldr	r3, [sp, #4]
	add	r2, r3, #192
	ldr	r3, [sp, #4]
	ldr	r3, [r3, #272]
	mov	r0, r2
	mov	r1, r3
	bl	_ZNK8CIwArrayIi12CIwAllocatorIi15CIwMallocRouterIiEE17ReallocateDefaultIiS3_EEixEi
	mov	r3, r0
	ldr	r4, [r3, #0]
	ldr	r3, [sp, #4]
	add	r2, r3, #208
	ldr	r3, [sp, #4]
	ldr	r3, [r3, #272]
	mov	r0, r2
	mov	r1, r3
	bl	_ZNK8CIwArrayIi12CIwAllocatorIi15CIwMallocRouterIiEE17ReallocateDefaultIiS3_EEixEi
	mov	r3, r0
	ldr	r3, [r3, #0]
	ldr	r0, [sp, #4]
	mov	r1, r4
	mov	r2, r3
	bl	_ZN3Map13CheckTileConnEii
	mov	r3, r0
	cmp	r3, #0
	beq	.L305
.LBB32:
	.loc 17 618 0
	ldr	r3, [sp, #4]
	add	r4, r3, #116
	ldr	r3, [sp, #4]
	add	r2, r3, #192
	ldr	r3, [sp, #4]
	ldr	r3, [r3, #272]
	mov	r0, r2
	mov	r1, r3
	bl	_ZNK8CIwArrayIi12CIwAllocatorIi15CIwMallocRouterIiEE17ReallocateDefaultIiS3_EEixEi
	mov	r3, r0
	ldr	r3, [r3, #0]
	mov	r0, r4
	mov	r1, r3
	bl	_ZNK8CIwArrayIi12CIwAllocatorIi15CIwMallocRouterIiEE17ReallocateDefaultIiS3_EEixEi
	mov	r3, r0
	ldr	r3, [r3, #0]
	str	r3, [sp, #76]
	.loc 17 620 0
	ldr	r3, [sp, #4]
	ldr	r3, [r3, #272]
	add	r2, r3, #1
	ldr	r3, [sp, #4]
	str	r2, [r3, #272]
	.loc 17 621 0
	add	r3, sp, #44
	mov	r0, r3
	bl	_ZN8CIwArrayIi12CIwAllocatorIi15CIwMallocRouterIiEE17ReallocateDefaultIiS3_EE15clear_optimisedEv
	.loc 17 622 0
	add	r3, sp, #28
	mov	r0, r3
	bl	_ZN8CIwArrayIi12CIwAllocatorIi15CIwMallocRouterIiEE17ReallocateDefaultIiS3_EE15clear_optimisedEv
	.loc 17 623 0
	mov	r4, #1
	b	.L306
.L305:
.LBE32:
	.loc 17 627 0
	add	r3, sp, #44
	mov	r0, r3
	bl	_ZN8CIwArrayIi12CIwAllocatorIi15CIwMallocRouterIiEE17ReallocateDefaultIiS3_EE15clear_optimisedEv
	.loc 17 628 0
	add	r3, sp, #28
	mov	r0, r3
	bl	_ZN8CIwArrayIi12CIwAllocatorIi15CIwMallocRouterIiEE17ReallocateDefaultIiS3_EE15clear_optimisedEv
	.loc 17 629 0
	mov	r4, #0
.L306:
	add	r3, sp, #28
	mov	r0, r3
	bl	_ZN8CIwArrayIi12CIwAllocatorIi15CIwMallocRouterIiEE17ReallocateDefaultIiS3_EED1Ev
	add	r3, sp, #44
	mov	r0, r3
	bl	_ZN8CIwArrayIi12CIwAllocatorIi15CIwMallocRouterIiEE17ReallocateDefaultIiS3_EED1Ev
.L290:
	add	r3, sp, #60
	mov	r0, r3
	bl	_ZN12CIwCallStackD1Ev
	mov	r3, r4
.LBE27:
	.loc 17 630 0
	mov	r0, r3
	add	sp, sp, #84
	ldmfd	sp!, {r4, r5, pc}
.L310:
	.align	2
.L309:
	.word	.LC40
	.word	.LC41
	.word	.LC42
	.cfi_endproc
.LFE3418:
	.size	_ZN3Map13CheckMazePathEv, .-_ZN3Map13CheckMazePathEv
	.section	.text._ZN3Map11CheckBorderEi,"ax",%progbits
	.align	2
	.global	_ZN3Map11CheckBorderEi
	.hidden	_ZN3Map11CheckBorderEi
	.type	_ZN3Map11CheckBorderEi, %function
_ZN3Map11CheckBorderEi:
.LFB3419:
	.loc 17 633 0
	.cfi_startproc
	@ args = 0, pretend = 0, frame = 48
	@ frame_needed = 0, uses_anonymous_args = 0
	str	lr, [sp, #-4]!
.LCFI95:
	.cfi_def_cfa_offset 4
	sub	sp, sp, #52
.LCFI96:
	.cfi_def_cfa_offset 56
	str	r0, [sp, #4]
	str	r1, [sp, #0]
.LBB33:
	.loc 17 636 0
	mvn	r3, #0
	str	r3, [sp, #20]
	.loc 17 637 0
	mvn	r3, #0
	str	r3, [sp, #24]
	.loc 17 638 0
	mvn	r3, #0
	str	r3, [sp, #28]
	.loc 17 641 0
	ldr	r3, [sp, #0]
	cmp	r3, #0
	blt	.L320
	.cfi_offset 14, -4
	ldr	r3, [sp, #4]
	ldr	r2, [r3, #104]
	ldr	r3, [sp, #0]
	cmp	r2, r3
	blt	.L320
.LBB34:
	.loc 17 644 0
	ldr	r3, [sp, #4]
	ldr	r3, [r3, #68]
	mov	r0, r3
	ldr	r1, [sp, #0]
	bl	_ZNK8CIwArrayIi12CIwAllocatorIi15CIwMallocRouterIiEE17ReallocateDefaultIiS3_EEixEi
	mov	r3, r0
	ldr	r2, [r3, #0]
	ldr	r3, [sp, #4]
	ldr	r3, [r3, #88]
	ldr	r3, [r3, #32]
	rsb	r3, r3, r2
	str	r3, [sp, #20]
	.loc 17 645 0
	ldr	r3, [sp, #4]
	ldr	r3, [r3, #72]
	mov	r0, r3
	ldr	r1, [sp, #0]
	bl	_ZNK8CIwArrayIi12CIwAllocatorIi15CIwMallocRouterIiEE17ReallocateDefaultIiS3_EEixEi
	mov	r3, r0
	ldr	r2, [r3, #0]
	ldr	r3, [sp, #4]
	ldr	r3, [r3, #88]
	ldr	r3, [r3, #32]
	rsb	r3, r3, r2
	str	r3, [sp, #24]
	.loc 17 646 0
	ldr	r3, [sp, #4]
	ldr	r3, [r3, #76]
	mov	r0, r3
	ldr	r1, [sp, #0]
	bl	_ZNK8CIwArrayIi12CIwAllocatorIi15CIwMallocRouterIiEE17ReallocateDefaultIiS3_EEixEi
	mov	r3, r0
	ldr	r2, [r3, #0]
	ldr	r3, [sp, #4]
	ldr	r3, [r3, #92]
	ldr	r3, [r3, #32]
	rsb	r3, r3, r2
	str	r3, [sp, #28]
	.loc 17 648 0
	mov	r3, #0
	strb	r3, [sp, #16]
	mov	r3, #0
	strb	r3, [sp, #17]
	mov	r3, #0
	strb	r3, [sp, #18]
	mov	r3, #0
	strb	r3, [sp, #19]
	.loc 17 649 0
	mov	r3, #0
	strb	r3, [sp, #12]
	mov	r3, #0
	strb	r3, [sp, #13]
	mov	r3, #0
	strb	r3, [sp, #14]
	mov	r3, #0
	strb	r3, [sp, #15]
	.loc 17 650 0
	mov	r3, #0
	strb	r3, [sp, #8]
	mov	r3, #0
	strb	r3, [sp, #9]
	mov	r3, #0
	strb	r3, [sp, #10]
	mov	r3, #0
	strb	r3, [sp, #11]
	.loc 17 651 0
	ldr	r3, [sp, #20]
	cmp	r3, #0
	blt	.L313
.LBB35:
	.loc 17 653 0
	ldr	r3, [sp, #4]
	ldr	r3, [r3, #88]
	mov	r0, r3
	ldr	r1, [sp, #20]
	bl	_ZN7TileSet11GetTileUnitEi
	mov	r3, r0
	str	r3, [sp, #32]
	.loc 17 654 0
	ldr	r3, [sp, #32]
	add	r2, sp, #16
	mov	r0, r2
	mov	r1, r3
	mov	r2, #4
	bl	memcpy
.L313:
.LBE35:
	.loc 17 657 0
	ldr	r3, [sp, #24]
	cmp	r3, #0
	blt	.L314
.LBB36:
	.loc 17 659 0
	ldr	r3, [sp, #4]
	ldr	r3, [r3, #88]
	mov	r0, r3
	ldr	r1, [sp, #24]
	bl	_ZN7TileSet11GetTileUnitEi
	mov	r3, r0
	str	r3, [sp, #36]
	.loc 17 660 0
	ldr	r3, [sp, #36]
	add	r2, sp, #12
	mov	r0, r2
	mov	r1, r3
	mov	r2, #4
	bl	memcpy
.L314:
.LBE36:
	.loc 17 663 0
	ldr	r3, [sp, #28]
	cmp	r3, #0
	blt	.L315
.LBB37:
	.loc 17 665 0
	ldr	r3, [sp, #4]
	ldr	r3, [r3, #92]
	mov	r0, r3
	ldr	r1, [sp, #28]
	bl	_ZN7TileSet11GetTileUnitEi
	mov	r3, r0
	str	r3, [sp, #40]
	.loc 17 666 0
	ldr	r3, [sp, #4]
	ldr	r3, [r3, #76]
	ldrb	r3, [r3, #16]	@ zero_extendqisi2
	cmp	r3, #0
	beq	.L316
	ldr	r3, [sp, #4]
	add	r3, r3, #116
	mov	r0, r3
	ldr	r1, [sp, #0]
	bl	_ZNK8CIwArrayIi12CIwAllocatorIi15CIwMallocRouterIiEE17ReallocateDefaultIiS3_EEixEi
	mov	r3, r0
	ldr	r3, [r3, #0]
	b	.L317
.L316:
	mov	r3, #0
.L317:
	ldr	r0, [sp, #40]
	mov	r1, r3
	bl	_ZN8TileUnit6RotateEi
	.loc 17 667 0
	ldr	r3, [sp, #40]
	add	r3, r3, #4
	add	r2, sp, #8
	mov	r0, r2
	mov	r1, r3
	mov	r2, #4
	bl	memcpy
.L315:
.LBE37:
.LBB38:
	.loc 17 674 0
	mov	r3, #0
	str	r3, [sp, #44]
	b	.L318
.L319:
	.loc 17 675 0
	ldr	r0, [sp, #44]
	ldr	r2, [sp, #44]
	mvn	r3, #31
	add	r1, sp, #48
	add	r2, r1, r2
	add	r3, r2, r3
	ldrb	r3, [r3, #0]	@ zero_extendqisi2
	mov	r2, r3
	ldr	r1, [sp, #44]
	mvn	r3, #35
	add	ip, sp, #48
	add	r1, ip, r1
	add	r3, r1, r3
	ldrb	r3, [r3, #0]	@ zero_extendqisi2
	orr	r2, r2, r3
	ldr	r1, [sp, #44]
	mvn	r3, #39
	add	ip, sp, #48
	add	r1, ip, r1
	add	r3, r1, r3
	ldrb	r3, [r3, #0]	@ zero_extendqisi2
	orr	r3, r2, r3
	cmp	r3, #0
	moveq	r3, #0
	movne	r3, #1
	and	r2, r3, #255
	ldr	r1, [sp, #4]
	mov	r3, #184
	add	r1, r0, r1
	add	r3, r1, r3
	strb	r2, [r3, #4]
	.loc 17 674 0
	ldr	r3, [sp, #44]
	add	r3, r3, #1
	str	r3, [sp, #44]
.L318:
	ldr	r3, [sp, #44]
	cmp	r3, #4
	moveq	r3, #0
	movne	r3, #1
	and	r3, r3, #255
	cmp	r3, #0
	bne	.L319
.L320:
.LBE38:
.LBE34:
.LBE33:
	.loc 17 679 0
	add	sp, sp, #52
	ldmfd	sp!, {pc}
	.cfi_endproc
.LFE3419:
	.size	_ZN3Map11CheckBorderEi, .-_ZN3Map11CheckBorderEi
	.section	.text._ZN3Map14CheckCollisionE8CIwFVec28CIwSVec2RS0_S0_,"ax",%progbits
	.align	2
	.global	_ZN3Map14CheckCollisionE8CIwFVec28CIwSVec2RS0_S0_
	.hidden	_ZN3Map14CheckCollisionE8CIwFVec28CIwSVec2RS0_S0_
	.type	_ZN3Map14CheckCollisionE8CIwFVec28CIwSVec2RS0_S0_, %function
_ZN3Map14CheckCollisionE8CIwFVec28CIwSVec2RS0_S0_:
.LFB3420:
	.loc 17 683 0
	.cfi_startproc
	@ args = 12, pretend = 0, frame = 216
	@ frame_needed = 0, uses_anonymous_args = 0
	stmfd	sp!, {r4, r5, lr}
.LCFI97:
	.cfi_def_cfa_offset 12
	sub	sp, sp, #236
.LCFI98:
	.cfi_def_cfa_offset 248
	str	r0, [sp, #28]
	add	r0, sp, #20
	stmia	r0, {r1, r2}
	str	r3, [sp, #16]
.LBB39:
	.loc 17 688 0
	ldr	r3, [sp, #28]
	ldr	r2, [r3, #148]
	ldr	r3, [sp, #28]
	ldr	r3, [r3, #152]
	cmp	r2, r3
	beq	.L322
	.cfi_offset 14, -4
	.cfi_offset 5, -8
	.cfi_offset 4, -12
.LBB40:
	.loc 17 694 0
	ldr	r3, [sp, #28]
	ldr	r2, [r3, #152]
	ldr	r3, [sp, #28]
	ldr	r3, [r3, #52]
	rsb	r3, r3, r2
	sub	r3, r3, #1
	str	r3, [sp, #104]
	.loc 17 695 0
	ldr	r3, [sp, #28]
	ldr	r2, [r3, #152]
	ldr	r3, [sp, #28]
	ldr	r3, [r3, #52]
	rsb	r3, r3, r2
	str	r3, [sp, #108]
	.loc 17 696 0
	ldr	r3, [sp, #28]
	ldr	r2, [r3, #152]
	ldr	r3, [sp, #28]
	ldr	r3, [r3, #52]
	rsb	r3, r3, r2
	add	r3, r3, #1
	str	r3, [sp, #112]
	.loc 17 697 0
	ldr	r3, [sp, #28]
	ldr	r3, [r3, #152]
	sub	r3, r3, #1
	str	r3, [sp, #116]
	.loc 17 698 0
	ldr	r3, [sp, #28]
	ldr	r3, [r3, #152]
	str	r3, [sp, #120]
	.loc 17 699 0
	ldr	r3, [sp, #28]
	ldr	r3, [r3, #152]
	add	r3, r3, #1
	str	r3, [sp, #124]
	.loc 17 700 0
	ldr	r3, [sp, #28]
	ldr	r2, [r3, #152]
	ldr	r3, [sp, #28]
	ldr	r3, [r3, #52]
	add	r3, r2, r3
	sub	r3, r3, #1
	str	r3, [sp, #128]
	.loc 17 701 0
	ldr	r3, [sp, #28]
	ldr	r2, [r3, #152]
	ldr	r3, [sp, #28]
	ldr	r3, [r3, #52]
	add	r3, r2, r3
	str	r3, [sp, #132]
	.loc 17 702 0
	ldr	r3, [sp, #28]
	ldr	r2, [r3, #152]
	ldr	r3, [sp, #28]
	ldr	r3, [r3, #52]
	add	r3, r2, r3
	add	r3, r3, #1
	str	r3, [sp, #136]
	.loc 17 705 0
	add	r3, sp, #32
	mov	r5, r3
	mov	r4, #8
	b	.L323
.L324:
	mov	r0, r5
	bl	_ZN8CIwFVec2C1Ev
	add	r5, r5, #8
	sub	r4, r4, #1
.L323:
	cmn	r4, #1
	moveq	r3, #0
	movne	r3, #1
	and	r3, r3, #255
	cmp	r3, #0
	bne	.L324
	.loc 17 706 0
	ldr	r3, [sp, #28]
	ldr	r3, [r3, #156]
	ldr	r2, [sp, #28]
	ldr	r2, [r2, #112]
	mul	r1, r2, r3
	fmsr	s15, r1	@ int
	fsitos	s14, s15
	ldr	r3, [sp, #28]
	ldr	r3, [r3, #160]
	ldr	r2, [sp, #28]
	ldr	r2, [r2, #108]
	mul	ip, r2, r3
	fmsr	s15, ip	@ int
	fsitos	s15, s15
	add	r3, sp, #140
	mov	r0, r3
	fmrs	r1, s14
	fmrs	r2, s15
	bl	_ZN8CIwFVec2C1Eff
	add	r3, sp, #32
	add	r2, r3, #32
	add	r3, sp, #140
	mov	r0, r2
	mov	r1, r3
	bl	_ZN8CIwFVec2aSERKS_
	.loc 17 707 0
	ldr	r3, [sp, #28]
	ldr	r3, [r3, #156]
	sub	r3, r3, #1
	ldr	r2, [sp, #28]
	ldr	r2, [r2, #112]
	mul	r1, r2, r3
	fmsr	s15, r1	@ int
	fsitos	s14, s15
	ldr	r3, [sp, #28]
	ldr	r3, [r3, #160]
	sub	r3, r3, #1
	ldr	r2, [sp, #28]
	ldr	r2, [r2, #108]
	mul	ip, r2, r3
	fmsr	s15, ip	@ int
	fsitos	s15, s15
	add	r3, sp, #148
	mov	r0, r3
	fmrs	r1, s14
	fmrs	r2, s15
	bl	_ZN8CIwFVec2C1Eff
	add	r2, sp, #32
	add	r3, sp, #148
	mov	r0, r2
	mov	r1, r3
	bl	_ZN8CIwFVec2aSERKS_
	.loc 17 708 0
	ldr	r3, [sp, #28]
	ldr	r3, [r3, #156]
	ldr	r2, [sp, #28]
	ldr	r2, [r2, #112]
	mul	r1, r2, r3
	fmsr	s15, r1	@ int
	fsitos	s14, s15
	ldr	r3, [sp, #28]
	ldr	r3, [r3, #160]
	sub	r3, r3, #1
	ldr	r2, [sp, #28]
	ldr	r2, [r2, #108]
	mul	ip, r2, r3
	fmsr	s15, ip	@ int
	fsitos	s15, s15
	add	r3, sp, #156
	mov	r0, r3
	fmrs	r1, s14
	fmrs	r2, s15
	bl	_ZN8CIwFVec2C1Eff
	add	r3, sp, #32
	add	r2, r3, #8
	add	r3, sp, #156
	mov	r0, r2
	mov	r1, r3
	bl	_ZN8CIwFVec2aSERKS_
	.loc 17 709 0
	ldr	r3, [sp, #28]
	ldr	r3, [r3, #156]
	add	r3, r3, #1
	ldr	r2, [sp, #28]
	ldr	r2, [r2, #112]
	mul	r1, r2, r3
	fmsr	s15, r1	@ int
	fsitos	s14, s15
	ldr	r3, [sp, #28]
	ldr	r3, [r3, #160]
	sub	r3, r3, #1
	ldr	r2, [sp, #28]
	ldr	r2, [r2, #108]
	mul	ip, r2, r3
	fmsr	s15, ip	@ int
	fsitos	s15, s15
	add	r3, sp, #164
	mov	r0, r3
	fmrs	r1, s14
	fmrs	r2, s15
	bl	_ZN8CIwFVec2C1Eff
	add	r3, sp, #32
	add	r2, r3, #16
	add	r3, sp, #164
	mov	r0, r2
	mov	r1, r3
	bl	_ZN8CIwFVec2aSERKS_
	.loc 17 710 0
	ldr	r3, [sp, #28]
	ldr	r3, [r3, #156]
	sub	r3, r3, #1
	ldr	r2, [sp, #28]
	ldr	r2, [r2, #112]
	mul	r1, r2, r3
	fmsr	s15, r1	@ int
	fsitos	s14, s15
	ldr	r3, [sp, #28]
	ldr	r3, [r3, #160]
	ldr	r2, [sp, #28]
	ldr	r2, [r2, #108]
	mul	ip, r2, r3
	fmsr	s15, ip	@ int
	fsitos	s15, s15
	add	r3, sp, #172
	mov	r0, r3
	fmrs	r1, s14
	fmrs	r2, s15
	bl	_ZN8CIwFVec2C1Eff
	add	r3, sp, #32
	add	r2, r3, #24
	add	r3, sp, #172
	mov	r0, r2
	mov	r1, r3
	bl	_ZN8CIwFVec2aSERKS_
	.loc 17 711 0
	ldr	r3, [sp, #28]
	ldr	r3, [r3, #156]
	add	r3, r3, #1
	ldr	r2, [sp, #28]
	ldr	r2, [r2, #112]
	mul	r1, r2, r3
	fmsr	s15, r1	@ int
	fsitos	s14, s15
	ldr	r3, [sp, #28]
	ldr	r3, [r3, #160]
	ldr	r2, [sp, #28]
	ldr	r2, [r2, #108]
	mul	ip, r2, r3
	fmsr	s15, ip	@ int
	fsitos	s15, s15
	add	r3, sp, #180
	mov	r0, r3
	fmrs	r1, s14
	fmrs	r2, s15
	bl	_ZN8CIwFVec2C1Eff
	add	r3, sp, #32
	add	r2, r3, #40
	add	r3, sp, #180
	mov	r0, r2
	mov	r1, r3
	bl	_ZN8CIwFVec2aSERKS_
	.loc 17 712 0
	ldr	r3, [sp, #28]
	ldr	r3, [r3, #156]
	sub	r3, r3, #1
	ldr	r2, [sp, #28]
	ldr	r2, [r2, #112]
	mul	r1, r2, r3
	fmsr	s15, r1	@ int
	fsitos	s14, s15
	ldr	r3, [sp, #28]
	ldr	r3, [r3, #160]
	add	r3, r3, #1
	ldr	r2, [sp, #28]
	ldr	r2, [r2, #108]
	mul	ip, r2, r3
	fmsr	s15, ip	@ int
	fsitos	s15, s15
	add	r3, sp, #188
	mov	r0, r3
	fmrs	r1, s14
	fmrs	r2, s15
	bl	_ZN8CIwFVec2C1Eff
	add	r3, sp, #32
	add	r2, r3, #48
	add	r3, sp, #188
	mov	r0, r2
	mov	r1, r3
	bl	_ZN8CIwFVec2aSERKS_
	.loc 17 713 0
	ldr	r3, [sp, #28]
	ldr	r3, [r3, #156]
	ldr	r2, [sp, #28]
	ldr	r2, [r2, #112]
	mul	r1, r2, r3
	fmsr	s15, r1	@ int
	fsitos	s14, s15
	ldr	r3, [sp, #28]
	ldr	r3, [r3, #160]
	add	r3, r3, #1
	ldr	r2, [sp, #28]
	ldr	r2, [r2, #108]
	mul	ip, r2, r3
	fmsr	s15, ip	@ int
	fsitos	s15, s15
	add	r3, sp, #196
	mov	r0, r3
	fmrs	r1, s14
	fmrs	r2, s15
	bl	_ZN8CIwFVec2C1Eff
	add	r3, sp, #32
	add	r2, r3, #56
	add	r3, sp, #196
	mov	r0, r2
	mov	r1, r3
	bl	_ZN8CIwFVec2aSERKS_
	.loc 17 714 0
	ldr	r3, [sp, #28]
	ldr	r3, [r3, #156]
	add	r3, r3, #1
	ldr	r2, [sp, #28]
	ldr	r2, [r2, #112]
	mul	r1, r2, r3
	fmsr	s15, r1	@ int
	fsitos	s14, s15
	ldr	r3, [sp, #28]
	ldr	r3, [r3, #160]
	add	r3, r3, #1
	ldr	r2, [sp, #28]
	ldr	r2, [r2, #108]
	mul	ip, r2, r3
	fmsr	s15, ip	@ int
	fsitos	s15, s15
	add	r3, sp, #204
	mov	r0, r3
	fmrs	r1, s14
	fmrs	r2, s15
	bl	_ZN8CIwFVec2C1Eff
	add	r3, sp, #32
	add	r2, r3, #64
	add	r3, sp, #204
	mov	r0, r2
	mov	r1, r3
	bl	_ZN8CIwFVec2aSERKS_
.LBB41:
	.loc 17 718 0
	mov	r3, #0
	str	r3, [sp, #224]
	b	.L325
.L328:
	.loc 17 720 0
	ldr	r2, [sp, #224]
	mvn	r3, #127
	mov	r2, r2, asl #2
	add	r1, sp, #232
	add	r2, r2, r1
	add	r3, r2, r3
	ldr	r3, [r3, #0]
	ldr	r0, [sp, #28]
	mov	r1, r3
	bl	_ZN3Map11CheckBorderEi
	.loc 17 721 0
	ldr	r3, [sp, #28]
	add	r3, r3, #132
	mov	r0, r3
	ldr	r1, [sp, #224]
	bl	_ZNK8CIwArrayI12TileObstacle12CIwAllocatorIS0_15CIwMallocRouterIS0_EE17ReallocateDefaultIS0_S4_EEixEi
	mov	r1, r0
	ldr	r3, [sp, #28]
	add	r2, r3, #188
	ldr	r0, [sp, #224]
	mvn	r3, #199
	mov	r0, r0, asl #3
	add	ip, sp, #232
	add	r0, r0, ip
	add	r3, r0, r3
	mov	r0, r1
	mov	r1, r2
	ldmia	r3, {r2, r3}
	bl	_ZN12TileObstacle14UpdateObstacleEPb8CIwFVec2
	.loc 17 722 0
	ldr	r3, [sp, #28]
	add	r3, r3, #132
	mov	r0, r3
	ldr	r1, [sp, #224]
	bl	_ZNK8CIwArrayI12TileObstacle12CIwAllocatorIS0_15CIwMallocRouterIS0_EE17ReallocateDefaultIS0_S4_EEixEi
	mov	r3, r0
	ldr	r2, [sp, #248]
	str	r2, [sp, #0]
	add	ip, sp, #4
	add	r2, sp, #252
	ldmia	r2, {r0, r1}
	stmia	ip, {r0, r1}
	mov	r0, r3
	add	r3, sp, #20
	ldmia	r3, {r1, r2}
	ldr	r3, [sp, #16]
	bl	_ZN12TileObstacle14CheckCollisionE8CIwFVec28CIwSVec2RS0_S0_
	mov	r3, r0
	cmp	r3, #0
	beq	.L326
	.loc 17 723 0
	mov	r3, #1
	b	.L327
.L326:
	.loc 17 718 0
	ldr	r3, [sp, #224]
	add	r3, r3, #1
	str	r3, [sp, #224]
.L325:
	ldr	r3, [sp, #224]
	cmp	r3, #9
	moveq	r3, #0
	movne	r3, #1
	and	r3, r3, #255
	cmp	r3, #0
	bne	.L328
	b	.L329
.L322:
.LBE41:
.LBE40:
.LBB42:
	.loc 17 728 0
	mov	r3, #0
	str	r3, [sp, #228]
	b	.L330
.L332:
	.loc 17 730 0
	ldr	r3, [sp, #28]
	add	r3, r3, #132
	mov	r0, r3
	ldr	r1, [sp, #228]
	bl	_ZNK8CIwArrayI12TileObstacle12CIwAllocatorIS0_15CIwMallocRouterIS0_EE17ReallocateDefaultIS0_S4_EEixEi
	mov	r3, r0
	ldr	r2, [sp, #248]
	str	r2, [sp, #0]
	add	ip, sp, #4
	add	r2, sp, #252
	ldmia	r2, {r0, r1}
	stmia	ip, {r0, r1}
	mov	r0, r3
	add	r3, sp, #20
	ldmia	r3, {r1, r2}
	ldr	r3, [sp, #16]
	bl	_ZN12TileObstacle14CheckCollisionE8CIwFVec28CIwSVec2RS0_S0_
	mov	r3, r0
	cmp	r3, #0
	beq	.L331
	.loc 17 731 0
	mov	r3, #1
	b	.L327
.L331:
	.loc 17 728 0
	ldr	r3, [sp, #228]
	add	r3, r3, #1
	str	r3, [sp, #228]
.L330:
	ldr	r3, [sp, #228]
	cmp	r3, #9
	moveq	r3, #0
	movne	r3, #1
	and	r3, r3, #255
	cmp	r3, #0
	bne	.L332
.L329:
.LBE42:
	.loc 17 734 0
	mov	r3, #0
.L327:
.LBE39:
	.loc 17 735 0
	mov	r0, r3
	add	sp, sp, #236
	ldmfd	sp!, {r4, r5, pc}
	.cfi_endproc
.LFE3420:
	.size	_ZN3Map14CheckCollisionE8CIwFVec28CIwSVec2RS0_S0_, .-_ZN3Map14CheckCollisionE8CIwFVec28CIwSVec2RS0_S0_
	.section	.rodata
	.align	2
.LC43:
	.ascii	"MAP::Render()\000"
	.align	2
.LC44:
	.ascii	"NPC!!!\000"
	.align	2
.LC45:
	.ascii	"x:\000"
	.align	2
.LC46:
	.ascii	", y:\000"
	.align	2
.LC47:
	.ascii	", index: \000"
	.global	__aeabi_idivmod
	.section	.text._ZN3Map6RenderE8CIwSVec2,"ax",%progbits
	.align	2
	.global	_ZN3Map6RenderE8CIwSVec2
	.hidden	_ZN3Map6RenderE8CIwSVec2
	.type	_ZN3Map6RenderE8CIwSVec2, %function
_ZN3Map6RenderE8CIwSVec2:
.LFB3421:
	.loc 17 738 0
	.cfi_startproc
	@ args = 0, pretend = 0, frame = 88
	@ frame_needed = 0, uses_anonymous_args = 0
	stmfd	sp!, {r4, r5, lr}
.LCFI99:
	.cfi_def_cfa_offset 12
	fstmfdd	sp!, {d8}
.LCFI100:
	.cfi_def_cfa_offset 20
	sub	sp, sp, #100
.LCFI101:
	.cfi_def_cfa_offset 120
	str	r0, [sp, #20]
	str	r1, [sp, #16]
.LBB43:
	.loc 17 739 0
	add	r3, sp, #36
	mov	r0, r3
	ldr	r1, .L356
	.cfi_offset 80, -20
	.cfi_offset 14, -4
	.cfi_offset 5, -8
	.cfi_offset 4, -12
	bl	_ZN12CIwCallStackC1EPKc
	.loc 17 740 0
	ldr	r3, [sp, #20]
	ldr	r3, [r3, #280]
	cmp	r3, #0
	beq	.L335
	.loc 17 741 0
	ldr	r3, [sp, #20]
	ldr	r4, [r3, #280]
	add	r3, sp, #40
	mov	r0, r3
	mov	r1, #0
	mov	r2, #0
	bl	_ZN8CIwSVec2C1Ess
	mov	r0, r4
	ldr	r1, [sp, #40]
	bl	_Z13Iw2DDrawImageP10CIw2DImage8CIwSVec2
.L335:
	.loc 17 742 0
	mvn	r3, #0
	str	r3, [sp, #60]
	.loc 17 743 0
	ldr	r3, [sp, #20]
	mov	r2, #0
	strb	r2, [r3, #44]
	.loc 17 745 0
	ldr	r3, .L356+4
	ldr	r3, [r3, #0]
	cmp	r3, #1
	bne	.L336
.LBB44:
	.loc 17 747 0
	ldr	r4, [sp, #20]
	add	r3, sp, #44
	mov	r0, r3
	mov	r1, #1
	bl	_Z10GetTouches15s3ePointerState
	add	r2, sp, #28
	add	r3, sp, #44
	mov	r0, r2
	mov	r1, r4
	mov	r2, r3
	bl	_ZNK8CIwFVec2plERKS_
	.loc 17 748 0
	flds	s15, [sp, #32]
	ftosizs	s16, s15
	ldr	r3, [sp, #20]
	ldr	r3, [r3, #88]
	mov	r0, r3
	bl	_ZN7TileSet7GetSizeEv
	strh	r0, [sp, #8]	@ movhi
	mov	r3, r0, lsr #16
	strh	r3, [sp, #10]	@ movhi
	ldr	r3, [sp, #8]
	str	r3, [sp, #52]
	ldrh	r3, [sp, #54]
	mov	r3, r3, asl #16
	mov	r3, r3, asr #16
	fmrs	r0, s16	@ int
	mov	r1, r3
	bl	__aeabi_idiv
	mov	r3, r0
	str	r3, [sp, #72]
	.loc 17 749 0
	flds	s15, [sp, #28]
	ftosizs	s16, s15
	ldr	r3, [sp, #20]
	ldr	r3, [r3, #88]
	mov	r0, r3
	bl	_ZN7TileSet7GetSizeEv
	strh	r0, [sp, #8]	@ movhi
	mov	r3, r0, lsr #16
	strh	r3, [sp, #10]	@ movhi
	ldr	r3, [sp, #8]
	str	r3, [sp, #56]
	ldrh	r3, [sp, #56]
	mov	r3, r3, asl #16
	mov	r3, r3, asr #16
	fmrs	r0, s16	@ int
	mov	r1, r3
	bl	__aeabi_idiv
	mov	r3, r0
	str	r3, [sp, #76]
	.loc 17 750 0
	ldr	r3, [sp, #20]
	ldr	r3, [r3, #52]
	ldr	r2, [sp, #72]
	mul	r2, r3, r2
	ldr	r3, [sp, #76]
	add	r3, r2, r3
	str	r3, [sp, #60]
	.loc 17 751 0
	ldr	r0, [sp, #20]
	ldr	r1, [sp, #60]
	bl	_ZN3Map8CheckNPCEi
	mov	r2, r0
	ldr	r3, [sp, #20]
	str	r2, [r3, #288]
	.loc 17 752 0
	ldr	r3, [sp, #20]
	ldr	r3, [r3, #288]
	cmp	r3, #0
	blt	.L337
	.loc 17 754 0
	ldr	r0, .L356+8
	ldr	r1, .L356+12
	bl	_ZN4_STLlsINS_11char_traitsIcEEEERNS_13basic_ostreamIcT_EES6_PKc
	mov	r3, r0
	mov	r0, r3
	ldr	r1, .L356+16
	bl	_ZN4_STL13basic_ostreamIcNS_11char_traitsIcEEElsEPFRS3_S4_E
	.loc 17 755 0
	ldr	r3, [sp, #20]
	ldr	r3, [r3, #284]
	add	r2, r3, #1
	ldr	r3, [sp, #20]
	str	r2, [r3, #284]
	.loc 17 756 0
	ldr	r3, [sp, #20]
	ldr	r3, [r3, #284]
	mov	r4, r3
	ldr	r3, [sp, #20]
	add	r2, r3, #256
	ldr	r3, [sp, #20]
	ldr	r3, [r3, #288]
	mov	r0, r2
	mov	r1, r3
	bl	_ZNK8CIwArrayIP3NPC12CIwAllocatorIS1_15CIwMallocRouterIS1_EE17ReallocateDefaultIS1_S5_EEixEi
	mov	r3, r0
	ldr	r3, [r3, #0]
	add	r3, r3, #16
	mov	r0, r3
	bl	_ZNK8CIwArrayIPc12CIwAllocatorIS0_15CIwMallocRouterIS0_EE17ReallocateDefaultIS0_S4_EE4sizeEv
	mov	r3, r0
	cmp	r4, r3
	movcc	r3, #0
	movcs	r3, #1
	and	r3, r3, #255
	cmp	r3, #0
	beq	.L337
	.loc 17 757 0
	ldr	r3, [sp, #20]
	mvn	r2, #0
	str	r2, [r3, #284]
.L337:
	.loc 17 759 0
	ldr	r3, [sp, #20]
	ldrb	r3, [r3, #276]	@ zero_extendqisi2
	cmp	r3, #0
	beq	.L338
	ldr	r3, [sp, #20]
	ldr	r3, [r3, #76]
	mov	r0, r3
	ldr	r1, [sp, #60]
	bl	_ZNK8CIwArrayIi12CIwAllocatorIi15CIwMallocRouterIiEE17ReallocateDefaultIiS3_EEixEi
	mov	r3, r0
	ldr	r2, [r3, #0]
	ldr	r3, [sp, #20]
	ldr	r3, [r3, #92]
	ldr	r3, [r3, #32]
	rsb	r3, r3, r2
	cmp	r3, #0
	blt	.L338
	mov	r3, #1
	b	.L339
.L338:
	mov	r3, #0
.L339:
	cmp	r3, #0
	beq	.L340
	.loc 17 761 0
	ldr	r3, [sp, #20]
	mov	r2, #1
	strb	r2, [r3, #44]
	.loc 17 762 0
	ldr	r3, [sp, #20]
	add	r3, r3, #116
	mov	r0, r3
	ldr	r1, [sp, #60]
	bl	_ZNK8CIwArrayIi12CIwAllocatorIi15CIwMallocRouterIiEE17ReallocateDefaultIiS3_EEixEi
	mov	r3, r0
	ldr	r2, [r3, #0]
	add	r2, r2, #1
	str	r2, [r3, #0]
	.loc 17 763 0
	ldr	r3, [sp, #20]
	add	r3, r3, #116
	mov	r0, r3
	ldr	r1, [sp, #60]
	bl	_ZNK8CIwArrayIi12CIwAllocatorIi15CIwMallocRouterIiEE17ReallocateDefaultIiS3_EEixEi
	mov	r3, r0
	ldr	r3, [r3, #0]
	cmp	r3, #4
	movne	r3, #0
	moveq	r3, #1
	and	r3, r3, #255
	cmp	r3, #0
	beq	.L340
	.loc 17 764 0
	ldr	r3, [sp, #20]
	add	r3, r3, #116
	mov	r0, r3
	ldr	r1, [sp, #60]
	bl	_ZNK8CIwArrayIi12CIwAllocatorIi15CIwMallocRouterIiEE17ReallocateDefaultIiS3_EEixEi
	mov	r3, r0
	mov	r2, #0
	str	r2, [r3, #0]
.L340:
	.loc 17 766 0
	ldr	r0, .L356+8
	ldr	r1, .L356+20
	bl	_ZN4_STLlsINS_11char_traitsIcEEEERNS_13basic_ostreamIcT_EES6_PKc
	mov	r3, r0
	mov	r0, r3
	ldr	r1, [sp, #76]
	bl	_ZN4_STL13basic_ostreamIcNS_11char_traitsIcEEElsEi
	mov	r3, r0
	mov	r0, r3
	ldr	r1, .L356+24
	bl	_ZN4_STLlsINS_11char_traitsIcEEEERNS_13basic_ostreamIcT_EES6_PKc
	mov	r3, r0
	mov	r0, r3
	ldr	r1, [sp, #72]
	bl	_ZN4_STL13basic_ostreamIcNS_11char_traitsIcEEElsEi
	mov	r3, r0
	mov	r0, r3
	ldr	r1, .L356+28
	bl	_ZN4_STLlsINS_11char_traitsIcEEEERNS_13basic_ostreamIcT_EES6_PKc
	mov	r3, r0
	mov	r0, r3
	ldr	r1, [sp, #60]
	bl	_ZN4_STL13basic_ostreamIcNS_11char_traitsIcEEElsEi
	mov	r3, r0
	mov	r0, r3
	ldr	r1, .L356+16
	bl	_ZN4_STL13basic_ostreamIcNS_11char_traitsIcEEElsEPFRS3_S4_E
.L336:
.LBE44:
	.loc 17 769 0
	ldr	r3, [sp, #20]
	flds	s15, [r3, #0]
	ftosizs	s15, s15
	ldr	r3, [sp, #20]
	ldr	r3, [r3, #112]
	fmrs	r0, s15	@ int
	mov	r1, r3
	bl	__aeabi_idiv
	mov	r3, r0
	mov	r4, r3
	ldr	r3, [sp, #20]
	flds	s15, [r3, #4]
	ftosizs	s15, s15
	ldr	r3, [sp, #20]
	ldr	r3, [r3, #108]
	fmrs	r0, s15	@ int
	mov	r1, r3
	bl	__aeabi_idiv
	mov	r3, r0
	ldr	r2, [sp, #20]
	ldr	r2, [r2, #52]
	mul	r3, r2, r3
	add	r3, r4, r3
	str	r3, [sp, #64]
	.loc 17 770 0
	ldr	r3, [sp, #20]
	ldr	r2, [r3, #52]
	ldr	r3, [sp, #64]
	cmp	r2, r3
	bgt	.L341
	.loc 17 771 0
	ldr	r3, [sp, #20]
	ldr	r3, [r3, #52]
	ldr	r2, [sp, #64]
	rsb	r3, r3, r2
	str	r3, [sp, #64]
.L341:
	.loc 17 772 0
	ldr	r3, [sp, #20]
	flds	s15, [r3, #0]
	ftosizs	s15, s15
	ldr	r3, [sp, #20]
	ldr	r3, [r3, #60]
	fmrs	r0, s15	@ int
	add	r2, r0, r3
	ldr	r3, [sp, #20]
	ldr	r3, [r3, #112]
	mov	r0, r2
	mov	r1, r3
	bl	__aeabi_idiv
	mov	r3, r0
	mov	r4, r3
	ldr	r3, [sp, #20]
	flds	s15, [r3, #4]
	ftosizs	s15, s15
	ldr	r3, [sp, #20]
	ldr	r3, [r3, #56]
	fmrs	r1, s15	@ int
	add	r2, r1, r3
	ldr	r3, [sp, #20]
	ldr	r3, [r3, #108]
	mov	r0, r2
	mov	r1, r3
	bl	__aeabi_idiv
	mov	r3, r0
	ldr	r2, [sp, #20]
	ldr	r2, [r2, #52]
	mul	r3, r2, r3
	add	r3, r4, r3
	add	r3, r3, #1
	str	r3, [sp, #68]
.LBB45:
	.loc 17 773 0
	ldr	r3, [sp, #64]
	str	r3, [sp, #80]
	b	.L342
.L351:
.LBB46:
	.loc 17 775 0
	ldr	r3, [sp, #20]
	ldr	r3, [r3, #52]
	ldr	r2, [sp, #80]
	mov	r0, r2
	mov	r1, r3
	bl	__aeabi_idivmod
	mov	r3, r1
	str	r3, [sp, #84]
	.loc 17 776 0
	ldr	r3, [sp, #20]
	ldr	r3, [r3, #52]
	ldr	r0, [sp, #80]
	mov	r1, r3
	bl	__aeabi_idiv
	mov	r3, r0
	str	r3, [sp, #88]
	.loc 17 778 0
	ldr	r3, [sp, #20]
	ldr	r3, [r3, #112]
	ldr	r2, [sp, #84]
	mul	r0, r2, r3
	fmsr	s15, r0	@ int
	fsitos	s14, s15
	ldr	r3, [sp, #20]
	flds	s15, [r3, #0]
	fsubs	s15, s14, s15
	ftosizs	s15, s15
	fmrs	r1, s15	@ int
	mov	r3, r1, asl #16
	mov	r2, r3, lsr #16
	ldr	r3, [sp, #20]
	ldr	r3, [r3, #108]
	ldr	r1, [sp, #88]
	mul	r0, r1, r3
	fmsr	s15, r0	@ int
	fsitos	s14, s15
	ldr	r3, [sp, #20]
	flds	s15, [r3, #4]
	fsubs	s15, s14, s15
	ftosizs	s15, s15
	fmrs	r1, s15	@ int
	mov	r3, r1, asl #16
	mov	r3, r3, lsr #16
	add	r1, sp, #24
	mov	r2, r2, asl #16
	mov	r2, r2, asr #16
	mov	r3, r3, asl #16
	mov	r3, r3, asr #16
	mov	r0, r1
	mov	r1, r2
	mov	r2, r3
	bl	_ZN8CIwSVec2C1Ess
	.loc 17 780 0
	ldr	r3, [sp, #20]
	ldr	r5, [r3, #88]
	ldr	r3, [sp, #20]
	ldr	r3, [r3, #68]
	mov	r0, r3
	ldr	r1, [sp, #80]
	bl	_ZNK8CIwArrayIi12CIwAllocatorIi15CIwMallocRouterIiEE17ReallocateDefaultIiS3_EEixEi
	mov	r3, r0
	ldr	r4, [r3, #0]
	ldr	r3, [sp, #20]
	ldr	r3, [r3, #68]
	ldrb	r3, [r3, #16]	@ zero_extendqisi2
	cmp	r3, #0
	beq	.L343
	ldr	r3, [sp, #20]
	add	r3, r3, #116
	mov	r0, r3
	ldr	r1, [sp, #80]
	bl	_ZNK8CIwArrayIi12CIwAllocatorIi15CIwMallocRouterIiEE17ReallocateDefaultIiS3_EEixEi
	mov	r3, r0
	ldr	r3, [r3, #0]
	b	.L344
.L343:
	mov	r3, #0
.L344:
	mov	r0, r5
	mov	r1, r4
	ldr	r2, [sp, #24]
	bl	_ZN7TileSet6RenderEi8CIwSVec2i
	.loc 17 781 0
	ldr	r3, [sp, #20]
	ldr	r5, [r3, #88]
	ldr	r3, [sp, #20]
	ldr	r3, [r3, #72]
	mov	r0, r3
	ldr	r1, [sp, #80]
	bl	_ZNK8CIwArrayIi12CIwAllocatorIi15CIwMallocRouterIiEE17ReallocateDefaultIiS3_EEixEi
	mov	r3, r0
	ldr	r4, [r3, #0]
	ldr	r3, [sp, #20]
	ldr	r3, [r3, #72]
	ldrb	r3, [r3, #16]	@ zero_extendqisi2
	cmp	r3, #0
	beq	.L345
	ldr	r3, [sp, #20]
	add	r3, r3, #116
	mov	r0, r3
	ldr	r1, [sp, #80]
	bl	_ZNK8CIwArrayIi12CIwAllocatorIi15CIwMallocRouterIiEE17ReallocateDefaultIiS3_EEixEi
	mov	r3, r0
	ldr	r3, [r3, #0]
	b	.L346
.L345:
	mov	r3, #0
.L346:
	mov	r0, r5
	mov	r1, r4
	ldr	r2, [sp, #24]
	bl	_ZN7TileSet6RenderEi8CIwSVec2i
	.loc 17 782 0
	ldr	r3, [sp, #20]
	ldr	r5, [r3, #92]
	ldr	r3, [sp, #20]
	ldr	r3, [r3, #76]
	mov	r0, r3
	ldr	r1, [sp, #80]
	bl	_ZNK8CIwArrayIi12CIwAllocatorIi15CIwMallocRouterIiEE17ReallocateDefaultIiS3_EEixEi
	mov	r3, r0
	ldr	r4, [r3, #0]
	ldr	r3, [sp, #20]
	ldr	r3, [r3, #76]
	ldrb	r3, [r3, #16]	@ zero_extendqisi2
	cmp	r3, #0
	beq	.L347
	ldr	r3, [sp, #20]
	add	r3, r3, #116
	mov	r0, r3
	ldr	r1, [sp, #80]
	bl	_ZNK8CIwArrayIi12CIwAllocatorIi15CIwMallocRouterIiEE17ReallocateDefaultIiS3_EEixEi
	mov	r3, r0
	ldr	r3, [r3, #0]
	b	.L348
.L347:
	mov	r3, #0
.L348:
	mov	r0, r5
	mov	r1, r4
	ldr	r2, [sp, #24]
	bl	_ZN7TileSet6RenderEi8CIwSVec2i
	.loc 17 783 0
	ldr	r3, [sp, #20]
	ldr	r5, [r3, #88]
	ldr	r3, [sp, #20]
	ldr	r3, [r3, #84]
	mov	r0, r3
	ldr	r1, [sp, #80]
	bl	_ZNK8CIwArrayIi12CIwAllocatorIi15CIwMallocRouterIiEE17ReallocateDefaultIiS3_EEixEi
	mov	r3, r0
	ldr	r4, [r3, #0]
	ldr	r3, [sp, #20]
	ldr	r3, [r3, #84]
	ldrb	r3, [r3, #16]	@ zero_extendqisi2
	cmp	r3, #0
	beq	.L349
	ldr	r3, [sp, #20]
	add	r3, r3, #116
	mov	r0, r3
	ldr	r1, [sp, #80]
	bl	_ZNK8CIwArrayIi12CIwAllocatorIi15CIwMallocRouterIiEE17ReallocateDefaultIiS3_EEixEi
	mov	r3, r0
	ldr	r3, [r3, #0]
	b	.L350
.L349:
	mov	r3, #0
.L350:
	mov	r0, r5
	mov	r1, r4
	ldr	r2, [sp, #24]
	bl	_ZN7TileSet6RenderEi8CIwSVec2i
.LBE46:
	.loc 17 773 0
	ldr	r3, [sp, #80]
	add	r3, r3, #1
	str	r3, [sp, #80]
.L342:
	ldr	r2, [sp, #80]
	ldr	r3, [sp, #68]
	cmp	r2, r3
	moveq	r3, #0
	movne	r3, #1
	and	r3, r3, #255
	cmp	r3, #0
	bne	.L351
.LBE45:
.LBB47:
	.loc 17 785 0
	mov	r3, #0
	str	r3, [sp, #92]
	b	.L352
.L353:
	.loc 17 787 0
	ldr	r3, [sp, #20]
	add	r3, r3, #132
	mov	r0, r3
	ldr	r1, [sp, #92]
	bl	_ZNK8CIwArrayI12TileObstacle12CIwAllocatorIS0_15CIwMallocRouterIS0_EE17ReallocateDefaultIS0_S4_EEixEi
	mov	r2, r0
	ldr	r3, [sp, #20]
	ldr	r1, [sp, #16]
	str	r1, [sp, #0]
	ldr	r1, [sp, #92]
	str	r1, [sp, #4]
	mov	r0, r2
	ldmia	r3, {r1, r2}
	mov	r3, #0
	bl	_ZN12TileObstacle6RenderE8CIwFVec2b8CIwSVec2i
	.loc 17 785 0
	ldr	r3, [sp, #92]
	add	r3, r3, #1
	str	r3, [sp, #92]
.L352:
	ldr	r3, [sp, #92]
	cmp	r3, #9
	moveq	r3, #0
	movne	r3, #1
	and	r3, r3, #255
	cmp	r3, #0
	bne	.L353
.LBE47:
	.loc 17 789 0
	ldr	r3, [sp, #20]
	ldr	r3, [r3, #284]
	cmp	r3, #0
	blt	.L354
	ldr	r3, [sp, #20]
	ldr	r3, [r3, #288]
	cmp	r3, #0
	blt	.L354
	.loc 17 791 0
	ldr	r3, [sp, #20]
	add	r2, r3, #256
	ldr	r3, [sp, #20]
	ldr	r3, [r3, #288]
	mov	r0, r2
	mov	r1, r3
	bl	_ZNK8CIwArrayIP3NPC12CIwAllocatorIS1_15CIwMallocRouterIS1_EE17ReallocateDefaultIS1_S5_EEixEi
	mov	r3, r0
	ldr	r2, [r3, #0]
	ldr	r3, [sp, #20]
	ldr	r3, [r3, #284]
	mov	r0, r2
	mov	r1, r3
	bl	_ZN3NPC6DialogEi
.L354:
	.loc 17 792 0
	add	r3, sp, #36
	mov	r0, r3
	bl	_ZN12CIwCallStackD1Ev
.LBE43:
	.loc 17 794 0
	add	sp, sp, #100
	fldmfdd	sp!, {d8}
	ldmfd	sp!, {r4, r5, pc}
.L357:
	.align	2
.L356:
	.word	.LC43
	.word	current_States
	.word	_ZN4_STL4coutE
	.word	.LC44
	.word	_ZN4_STL4endlIcNS_11char_traitsIcEEEERNS_13basic_ostreamIT_T0_EES7_
	.word	.LC45
	.word	.LC46
	.word	.LC47
	.cfi_endproc
.LFE3421:
	.size	_ZN3Map6RenderE8CIwSVec2, .-_ZN3Map6RenderE8CIwSVec2
	.section	.text._ZN8CIwArrayIi12CIwAllocatorIi15CIwMallocRouterIiEE17ReallocateDefaultIiS3_EED1Ev,"axG",%progbits,_ZN8CIwArrayIi12CIwAllocatorIi15CIwMallocRouterIiEE17ReallocateDefaultIiS3_EED1Ev,comdat
	.align	2
	.weak	_ZN8CIwArrayIi12CIwAllocatorIi15CIwMallocRouterIiEE17ReallocateDefaultIiS3_EED1Ev
	.hidden	_ZN8CIwArrayIi12CIwAllocatorIi15CIwMallocRouterIiEE17ReallocateDefaultIiS3_EED1Ev
	.type	_ZN8CIwArrayIi12CIwAllocatorIi15CIwMallocRouterIiEE17ReallocateDefaultIiS3_EED1Ev, %function
_ZN8CIwArrayIi12CIwAllocatorIi15CIwMallocRouterIiEE17ReallocateDefaultIiS3_EED1Ev:
.LFB3502:
	.file 19 "c:/marmalade/6.2/modules/iwutil/h/IwArray.h"
	.loc 19 137 0
	.cfi_startproc
	@ args = 0, pretend = 0, frame = 16
	@ frame_needed = 0, uses_anonymous_args = 0
	str	lr, [sp, #-4]!
.LCFI102:
	.cfi_def_cfa_offset 4
	sub	sp, sp, #20
.LCFI103:
	.cfi_def_cfa_offset 24
	str	r0, [sp, #4]
.LBB48:
	.loc 19 139 0
	mov	r3, #0
	str	r3, [sp, #12]
	b	.L359
	.cfi_offset 14, -4
.L360:
	ldr	r3, [sp, #12]
	add	r3, r3, #1
	str	r3, [sp, #12]
.L359:
	ldr	r3, [sp, #4]
	ldr	r2, [r3, #4]
	ldr	r3, [sp, #12]
	cmp	r2, r3
	movls	r3, #0
	movhi	r3, #1
	and	r3, r3, #255
	cmp	r3, #0
	bne	.L360
.LBE48:
	.loc 19 141 0
	ldr	r3, [sp, #4]
	ldrb	r3, [r3, #12]
	and	r3, r3, #1
	and	r3, r3, #255
	eor	r3, r3, #1
	and	r3, r3, #255
	cmp	r3, #0
	beq	.L361
	.loc 19 143 0
	ldr	r3, [sp, #4]
	add	r1, r3, #13
	ldr	r3, [sp, #4]
	ldr	r2, [r3, #0]
	ldr	r3, [sp, #4]
	ldr	r3, [r3, #4]
	mov	r0, r1
	mov	r1, r2
	mov	r2, r3
	bl	_ZN12CIwAllocatorIi15CIwMallocRouterIiEE10deallocateEPij
	.loc 19 144 0
	ldr	r3, [sp, #4]
	mov	r2, #0
	str	r2, [r3, #0]
.L361:
	ldr	r3, [sp, #4]
	.loc 19 146 0
	mov	r0, r3
	add	sp, sp, #20
	ldmfd	sp!, {pc}
	.cfi_endproc
.LFE3502:
	.size	_ZN8CIwArrayIi12CIwAllocatorIi15CIwMallocRouterIiEE17ReallocateDefaultIiS3_EED1Ev, .-_ZN8CIwArrayIi12CIwAllocatorIi15CIwMallocRouterIiEE17ReallocateDefaultIiS3_EED1Ev
	.section	.text._ZN4_STL9allocatorI8ObstacleEC1Ev,"axG",%progbits,_ZN4_STL9allocatorI8ObstacleEC1Ev,comdat
	.align	2
	.weak	_ZN4_STL9allocatorI8ObstacleEC1Ev
	.hidden	_ZN4_STL9allocatorI8ObstacleEC1Ev
	.type	_ZN4_STL9allocatorI8ObstacleEC1Ev, %function
_ZN4_STL9allocatorI8ObstacleEC1Ev:
.LFB3507:
	.file 20 "c:/marmalade/6.2/s3e/h/std/c++/stl/_alloc.h"
	.loc 20 345 0
	.cfi_startproc
	@ args = 0, pretend = 0, frame = 8
	@ frame_needed = 0, uses_anonymous_args = 0
	@ link register save eliminated.
	sub	sp, sp, #8
.LCFI104:
	.cfi_def_cfa_offset 8
	str	r0, [sp, #4]
	.loc 20 345 0
	ldr	r3, [sp, #4]
	mov	r0, r3
	add	sp, sp, #8
	bx	lr
	.cfi_endproc
.LFE3507:
	.size	_ZN4_STL9allocatorI8ObstacleEC1Ev, .-_ZN4_STL9allocatorI8ObstacleEC1Ev
	.section	.text._ZN4_STL9allocatorI8ObstacleED2Ev,"axG",%progbits,_ZN4_STL9allocatorI8ObstacleED2Ev,comdat
	.align	2
	.weak	_ZN4_STL9allocatorI8ObstacleED2Ev
	.hidden	_ZN4_STL9allocatorI8ObstacleED2Ev
	.type	_ZN4_STL9allocatorI8ObstacleED2Ev, %function
_ZN4_STL9allocatorI8ObstacleED2Ev:
.LFB3509:
	.loc 20 350 0
	.cfi_startproc
	@ args = 0, pretend = 0, frame = 8
	@ frame_needed = 0, uses_anonymous_args = 0
	@ link register save eliminated.
	sub	sp, sp, #8
.LCFI105:
	.cfi_def_cfa_offset 8
	str	r0, [sp, #4]
	.loc 20 350 0
	ldr	r3, [sp, #4]
	mov	r0, r3
	add	sp, sp, #8
	bx	lr
	.cfi_endproc
.LFE3509:
	.size	_ZN4_STL9allocatorI8ObstacleED2Ev, .-_ZN4_STL9allocatorI8ObstacleED2Ev
	.section	.text._ZN4_STL9allocatorI8ObstacleED1Ev,"axG",%progbits,_ZN4_STL9allocatorI8ObstacleED1Ev,comdat
	.align	2
	.weak	_ZN4_STL9allocatorI8ObstacleED1Ev
	.hidden	_ZN4_STL9allocatorI8ObstacleED1Ev
	.type	_ZN4_STL9allocatorI8ObstacleED1Ev, %function
_ZN4_STL9allocatorI8ObstacleED1Ev:
.LFB3510:
	.loc 20 350 0
	.cfi_startproc
	@ args = 0, pretend = 0, frame = 8
	@ frame_needed = 0, uses_anonymous_args = 0
	@ link register save eliminated.
	sub	sp, sp, #8
.LCFI106:
	.cfi_def_cfa_offset 8
	str	r0, [sp, #4]
	.loc 20 350 0
	ldr	r3, [sp, #4]
	mov	r0, r3
	add	sp, sp, #8
	bx	lr
	.cfi_endproc
.LFE3510:
	.size	_ZN4_STL9allocatorI8ObstacleED1Ev, .-_ZN4_STL9allocatorI8ObstacleED1Ev
	.section	.text._ZN4_STL6vectorI8ObstacleNS_9allocatorIS1_EEEC1ERKS3_,"axG",%progbits,_ZN4_STL6vectorI8ObstacleNS_9allocatorIS1_EEEC1ERKS3_,comdat
	.align	2
	.weak	_ZN4_STL6vectorI8ObstacleNS_9allocatorIS1_EEEC1ERKS3_
	.hidden	_ZN4_STL6vectorI8ObstacleNS_9allocatorIS1_EEEC1ERKS3_
	.type	_ZN4_STL6vectorI8ObstacleNS_9allocatorIS1_EEEC1ERKS3_, %function
_ZN4_STL6vectorI8ObstacleNS_9allocatorIS1_EEEC1ERKS3_:
.LFB3513:
	.file 21 "c:/marmalade/6.2/s3e/h/std/c++/stl/_vector.h"
	.loc 21 198 0
	.cfi_startproc
	@ args = 0, pretend = 0, frame = 8
	@ frame_needed = 0, uses_anonymous_args = 0
	str	lr, [sp, #-4]!
.LCFI107:
	.cfi_def_cfa_offset 4
	sub	sp, sp, #12
.LCFI108:
	.cfi_def_cfa_offset 16
	str	r0, [sp, #4]
	str	r1, [sp, #0]
	.loc 21 199 0
	ldr	r3, [sp, #4]
	mov	r0, r3
	ldr	r1, [sp, #0]
	.cfi_offset 14, -4
	bl	_ZN4_STL12_Vector_baseI8ObstacleNS_9allocatorIS1_EEEC2ERKS3_
	ldr	r3, [sp, #4]
	mov	r0, r3
	add	sp, sp, #12
	ldmfd	sp!, {pc}
	.cfi_endproc
.LFE3513:
	.size	_ZN4_STL6vectorI8ObstacleNS_9allocatorIS1_EEEC1ERKS3_, .-_ZN4_STL6vectorI8ObstacleNS_9allocatorIS1_EEEC1ERKS3_
	.section	.text._ZN4_STL6vectorI8ObstacleNS_9allocatorIS1_EEED1Ev,"axG",%progbits,_ZN4_STL6vectorI8ObstacleNS_9allocatorIS1_EEED1Ev,comdat
	.align	2
	.weak	_ZN4_STL6vectorI8ObstacleNS_9allocatorIS1_EEED1Ev
	.hidden	_ZN4_STL6vectorI8ObstacleNS_9allocatorIS1_EEED1Ev
	.type	_ZN4_STL6vectorI8ObstacleNS_9allocatorIS1_EEED1Ev, %function
_ZN4_STL6vectorI8ObstacleNS_9allocatorIS1_EEED1Ev:
.LFB3516:
	.loc 21 258 0
	.cfi_startproc
	@ args = 0, pretend = 0, frame = 8
	@ frame_needed = 0, uses_anonymous_args = 0
	str	lr, [sp, #-4]!
.LCFI109:
	.cfi_def_cfa_offset 4
	sub	sp, sp, #12
.LCFI110:
	.cfi_def_cfa_offset 16
	str	r0, [sp, #4]
	.loc 21 258 0
	ldr	r3, [sp, #4]
	ldr	r2, [r3, #0]
	ldr	r3, [sp, #4]
	ldr	r3, [r3, #4]
	mov	r0, r2
	mov	r1, r3
	.cfi_offset 14, -4
	bl	_ZN4_STL8_DestroyIP8ObstacleEEvT_S3_
	ldr	r3, [sp, #4]
	mov	r0, r3
	bl	_ZN4_STL12_Vector_baseI8ObstacleNS_9allocatorIS1_EEED2Ev
	ldr	r3, [sp, #4]
	mov	r0, r3
	add	sp, sp, #12
	ldmfd	sp!, {pc}
	.cfi_endproc
.LFE3516:
	.size	_ZN4_STL6vectorI8ObstacleNS_9allocatorIS1_EEED1Ev, .-_ZN4_STL6vectorI8ObstacleNS_9allocatorIS1_EEED1Ev
	.section	.text._ZN8CIwArrayIi12CIwAllocatorIi15CIwMallocRouterIiEE17ReallocateDefaultIiS3_EEC1Ej,"axG",%progbits,_ZN8CIwArrayIi12CIwAllocatorIi15CIwMallocRouterIiEE17ReallocateDefaultIiS3_EEC1Ej,comdat
	.align	2
	.weak	_ZN8CIwArrayIi12CIwAllocatorIi15CIwMallocRouterIiEE17ReallocateDefaultIiS3_EEC1Ej
	.hidden	_ZN8CIwArrayIi12CIwAllocatorIi15CIwMallocRouterIiEE17ReallocateDefaultIiS3_EEC1Ej
	.type	_ZN8CIwArrayIi12CIwAllocatorIi15CIwMallocRouterIiEE17ReallocateDefaultIiS3_EEC1Ej, %function
_ZN8CIwArrayIi12CIwAllocatorIi15CIwMallocRouterIiEE17ReallocateDefaultIiS3_EEC1Ej:
.LFB3519:
	.loc 19 131 0
	.cfi_startproc
	@ args = 0, pretend = 0, frame = 8
	@ frame_needed = 0, uses_anonymous_args = 0
	str	lr, [sp, #-4]!
.LCFI111:
	.cfi_def_cfa_offset 4
	sub	sp, sp, #12
.LCFI112:
	.cfi_def_cfa_offset 16
	str	r0, [sp, #4]
	str	r1, [sp, #0]
	.loc 19 131 0
	ldr	r3, [sp, #4]
	mov	r2, #0
	str	r2, [r3, #0]
	ldr	r3, [sp, #4]
	mov	r2, #0
	str	r2, [r3, #4]
	ldr	r3, [sp, #4]
	mov	r2, #0
	str	r2, [r3, #8]
	ldr	r2, [sp, #4]
	ldrb	r3, [r2, #12]
	bic	r3, r3, #1
	strb	r3, [r2, #12]
	ldr	r2, [sp, #4]
	ldrb	r3, [r2, #12]
	bic	r3, r3, #2
	strb	r3, [r2, #12]
	.loc 19 133 0
	ldr	r0, [sp, #4]
	ldr	r1, [sp, #0]
	.cfi_offset 14, -4
	bl	_ZN8CIwArrayIi12CIwAllocatorIi15CIwMallocRouterIiEE17ReallocateDefaultIiS3_EE6resizeEj
	.loc 19 134 0
	ldr	r0, [sp, #4]
	bl	_ZN8CIwArrayIi12CIwAllocatorIi15CIwMallocRouterIiEE17ReallocateDefaultIiS3_EE5clearEv
	ldr	r3, [sp, #4]
	.loc 19 135 0
	mov	r0, r3
	add	sp, sp, #12
	ldmfd	sp!, {pc}
	.cfi_endproc
.LFE3519:
	.size	_ZN8CIwArrayIi12CIwAllocatorIi15CIwMallocRouterIiEE17ReallocateDefaultIiS3_EEC1Ej, .-_ZN8CIwArrayIi12CIwAllocatorIi15CIwMallocRouterIiEE17ReallocateDefaultIiS3_EEC1Ej
	.section	.text._ZN8CIwArrayIi12CIwAllocatorIi15CIwMallocRouterIiEE17ReallocateDefaultIiS3_EE15clear_optimisedEv,"axG",%progbits,_ZN8CIwArrayIi12CIwAllocatorIi15CIwMallocRouterIiEE17ReallocateDefaultIiS3_EE15clear_optimisedEv,comdat
	.align	2
	.weak	_ZN8CIwArrayIi12CIwAllocatorIi15CIwMallocRouterIiEE17ReallocateDefaultIiS3_EE15clear_optimisedEv
	.hidden	_ZN8CIwArrayIi12CIwAllocatorIi15CIwMallocRouterIiEE17ReallocateDefaultIiS3_EE15clear_optimisedEv
	.type	_ZN8CIwArrayIi12CIwAllocatorIi15CIwMallocRouterIiEE17ReallocateDefaultIiS3_EE15clear_optimisedEv, %function
_ZN8CIwArrayIi12CIwAllocatorIi15CIwMallocRouterIiEE17ReallocateDefaultIiS3_EE15clear_optimisedEv:
.LFB3520:
	.loc 19 209 0
	.cfi_startproc
	@ args = 0, pretend = 0, frame = 8
	@ frame_needed = 0, uses_anonymous_args = 0
	str	lr, [sp, #-4]!
.LCFI113:
	.cfi_def_cfa_offset 4
	sub	sp, sp, #12
.LCFI114:
	.cfi_def_cfa_offset 16
	str	r0, [sp, #4]
	.loc 19 211 0
	ldr	r0, [sp, #4]
	mov	r1, #0
	.cfi_offset 14, -4
	bl	_ZN8CIwArrayIi12CIwAllocatorIi15CIwMallocRouterIiEE17ReallocateDefaultIiS3_EE8truncateEj
	.loc 19 212 0
	ldr	r0, [sp, #4]
	mov	r1, #0
	bl	_ZN8CIwArrayIi12CIwAllocatorIi15CIwMallocRouterIiEE17ReallocateDefaultIiS3_EE12set_capacityEj
	.loc 19 213 0
	add	sp, sp, #12
	ldmfd	sp!, {pc}
	.cfi_endproc
.LFE3520:
	.size	_ZN8CIwArrayIi12CIwAllocatorIi15CIwMallocRouterIiEE17ReallocateDefaultIiS3_EE15clear_optimisedEv, .-_ZN8CIwArrayIi12CIwAllocatorIi15CIwMallocRouterIiEE17ReallocateDefaultIiS3_EE15clear_optimisedEv
	.section	.text._ZN8CIwArrayI8TileUnit12CIwAllocatorIS0_15CIwMallocRouterIS0_EE17ReallocateDefaultIS0_S4_EEC1Ej,"axG",%progbits,_ZN8CIwArrayI8TileUnit12CIwAllocatorIS0_15CIwMallocRouterIS0_EE17ReallocateDefaultIS0_S4_EEC1Ej,comdat
	.align	2
	.weak	_ZN8CIwArrayI8TileUnit12CIwAllocatorIS0_15CIwMallocRouterIS0_EE17ReallocateDefaultIS0_S4_EEC1Ej
	.hidden	_ZN8CIwArrayI8TileUnit12CIwAllocatorIS0_15CIwMallocRouterIS0_EE17ReallocateDefaultIS0_S4_EEC1Ej
	.type	_ZN8CIwArrayI8TileUnit12CIwAllocatorIS0_15CIwMallocRouterIS0_EE17ReallocateDefaultIS0_S4_EEC1Ej, %function
_ZN8CIwArrayI8TileUnit12CIwAllocatorIS0_15CIwMallocRouterIS0_EE17ReallocateDefaultIS0_S4_EEC1Ej:
.LFB3523:
	.loc 19 131 0
	.cfi_startproc
	@ args = 0, pretend = 0, frame = 8
	@ frame_needed = 0, uses_anonymous_args = 0
	str	lr, [sp, #-4]!
.LCFI115:
	.cfi_def_cfa_offset 4
	sub	sp, sp, #12
.LCFI116:
	.cfi_def_cfa_offset 16
	str	r0, [sp, #4]
	str	r1, [sp, #0]
	.loc 19 131 0
	ldr	r3, [sp, #4]
	mov	r2, #0
	str	r2, [r3, #0]
	ldr	r3, [sp, #4]
	mov	r2, #0
	str	r2, [r3, #4]
	ldr	r3, [sp, #4]
	mov	r2, #0
	str	r2, [r3, #8]
	ldr	r2, [sp, #4]
	ldrb	r3, [r2, #12]
	bic	r3, r3, #1
	strb	r3, [r2, #12]
	ldr	r2, [sp, #4]
	ldrb	r3, [r2, #12]
	bic	r3, r3, #2
	strb	r3, [r2, #12]
	.loc 19 133 0
	ldr	r0, [sp, #4]
	ldr	r1, [sp, #0]
	.cfi_offset 14, -4
	bl	_ZN8CIwArrayI8TileUnit12CIwAllocatorIS0_15CIwMallocRouterIS0_EE17ReallocateDefaultIS0_S4_EE6resizeEj
	.loc 19 134 0
	ldr	r0, [sp, #4]
	bl	_ZN8CIwArrayI8TileUnit12CIwAllocatorIS0_15CIwMallocRouterIS0_EE17ReallocateDefaultIS0_S4_EE5clearEv
	ldr	r3, [sp, #4]
	.loc 19 135 0
	mov	r0, r3
	add	sp, sp, #12
	ldmfd	sp!, {pc}
	.cfi_endproc
.LFE3523:
	.size	_ZN8CIwArrayI8TileUnit12CIwAllocatorIS0_15CIwMallocRouterIS0_EE17ReallocateDefaultIS0_S4_EEC1Ej, .-_ZN8CIwArrayI8TileUnit12CIwAllocatorIS0_15CIwMallocRouterIS0_EE17ReallocateDefaultIS0_S4_EEC1Ej
	.section	.text._ZN8CIwArrayI8TileUnit12CIwAllocatorIS0_15CIwMallocRouterIS0_EE17ReallocateDefaultIS0_S4_EED1Ev,"axG",%progbits,_ZN8CIwArrayI8TileUnit12CIwAllocatorIS0_15CIwMallocRouterIS0_EE17ReallocateDefaultIS0_S4_EED1Ev,comdat
	.align	2
	.weak	_ZN8CIwArrayI8TileUnit12CIwAllocatorIS0_15CIwMallocRouterIS0_EE17ReallocateDefaultIS0_S4_EED1Ev
	.hidden	_ZN8CIwArrayI8TileUnit12CIwAllocatorIS0_15CIwMallocRouterIS0_EE17ReallocateDefaultIS0_S4_EED1Ev
	.type	_ZN8CIwArrayI8TileUnit12CIwAllocatorIS0_15CIwMallocRouterIS0_EE17ReallocateDefaultIS0_S4_EED1Ev, %function
_ZN8CIwArrayI8TileUnit12CIwAllocatorIS0_15CIwMallocRouterIS0_EE17ReallocateDefaultIS0_S4_EED1Ev:
.LFB3526:
	.loc 19 137 0
	.cfi_startproc
	@ args = 0, pretend = 0, frame = 16
	@ frame_needed = 0, uses_anonymous_args = 0
	str	lr, [sp, #-4]!
.LCFI117:
	.cfi_def_cfa_offset 4
	sub	sp, sp, #20
.LCFI118:
	.cfi_def_cfa_offset 24
	str	r0, [sp, #4]
.LBB49:
	.loc 19 139 0
	mov	r3, #0
	str	r3, [sp, #12]
	b	.L387
	.cfi_offset 14, -4
.L388:
	.loc 19 140 0
	ldr	r3, [sp, #4]
	ldr	r2, [r3, #0]
	ldr	r3, [sp, #12]
	mov	r3, r3, asl #4
	add	r3, r2, r3
	mov	r0, r3
	bl	_ZN8TileUnitD1Ev
	.loc 19 139 0
	ldr	r3, [sp, #12]
	add	r3, r3, #1
	str	r3, [sp, #12]
.L387:
	ldr	r3, [sp, #4]
	ldr	r2, [r3, #4]
	ldr	r3, [sp, #12]
	cmp	r2, r3
	movls	r3, #0
	movhi	r3, #1
	and	r3, r3, #255
	cmp	r3, #0
	bne	.L388
.LBE49:
	.loc 19 141 0
	ldr	r3, [sp, #4]
	ldrb	r3, [r3, #12]
	and	r3, r3, #1
	and	r3, r3, #255
	eor	r3, r3, #1
	and	r3, r3, #255
	cmp	r3, #0
	beq	.L389
	.loc 19 143 0
	ldr	r3, [sp, #4]
	add	r1, r3, #13
	ldr	r3, [sp, #4]
	ldr	r2, [r3, #0]
	ldr	r3, [sp, #4]
	ldr	r3, [r3, #4]
	mov	r0, r1
	mov	r1, r2
	mov	r2, r3
	bl	_ZN12CIwAllocatorI8TileUnit15CIwMallocRouterIS0_EE10deallocateEPS0_j
	.loc 19 144 0
	ldr	r3, [sp, #4]
	mov	r2, #0
	str	r2, [r3, #0]
.L389:
	ldr	r3, [sp, #4]
	.loc 19 146 0
	mov	r0, r3
	add	sp, sp, #20
	ldmfd	sp!, {pc}
	.cfi_endproc
.LFE3526:
	.size	_ZN8CIwArrayI8TileUnit12CIwAllocatorIS0_15CIwMallocRouterIS0_EE17ReallocateDefaultIS0_S4_EED1Ev, .-_ZN8CIwArrayI8TileUnit12CIwAllocatorIS0_15CIwMallocRouterIS0_EE17ReallocateDefaultIS0_S4_EED1Ev
	.section	.text._ZN8CIwArrayI8TileUnit12CIwAllocatorIS0_15CIwMallocRouterIS0_EE17ReallocateDefaultIS0_S4_EE15clear_optimisedEv,"axG",%progbits,_ZN8CIwArrayI8TileUnit12CIwAllocatorIS0_15CIwMallocRouterIS0_EE17ReallocateDefaultIS0_S4_EE15clear_optimisedEv,comdat
	.align	2
	.weak	_ZN8CIwArrayI8TileUnit12CIwAllocatorIS0_15CIwMallocRouterIS0_EE17ReallocateDefaultIS0_S4_EE15clear_optimisedEv
	.hidden	_ZN8CIwArrayI8TileUnit12CIwAllocatorIS0_15CIwMallocRouterIS0_EE17ReallocateDefaultIS0_S4_EE15clear_optimisedEv
	.type	_ZN8CIwArrayI8TileUnit12CIwAllocatorIS0_15CIwMallocRouterIS0_EE17ReallocateDefaultIS0_S4_EE15clear_optimisedEv, %function
_ZN8CIwArrayI8TileUnit12CIwAllocatorIS0_15CIwMallocRouterIS0_EE17ReallocateDefaultIS0_S4_EE15clear_optimisedEv:
.LFB3527:
	.loc 19 209 0
	.cfi_startproc
	@ args = 0, pretend = 0, frame = 8
	@ frame_needed = 0, uses_anonymous_args = 0
	str	lr, [sp, #-4]!
.LCFI119:
	.cfi_def_cfa_offset 4
	sub	sp, sp, #12
.LCFI120:
	.cfi_def_cfa_offset 16
	str	r0, [sp, #4]
	.loc 19 211 0
	ldr	r0, [sp, #4]
	mov	r1, #0
	.cfi_offset 14, -4
	bl	_ZN8CIwArrayI8TileUnit12CIwAllocatorIS0_15CIwMallocRouterIS0_EE17ReallocateDefaultIS0_S4_EE8truncateEj
	.loc 19 212 0
	ldr	r0, [sp, #4]
	mov	r1, #0
	bl	_ZN8CIwArrayI8TileUnit12CIwAllocatorIS0_15CIwMallocRouterIS0_EE17ReallocateDefaultIS0_S4_EE12set_capacityEj
	.loc 19 213 0
	add	sp, sp, #12
	ldmfd	sp!, {pc}
	.cfi_endproc
.LFE3527:
	.size	_ZN8CIwArrayI8TileUnit12CIwAllocatorIS0_15CIwMallocRouterIS0_EE17ReallocateDefaultIS0_S4_EE15clear_optimisedEv, .-_ZN8CIwArrayI8TileUnit12CIwAllocatorIS0_15CIwMallocRouterIS0_EE17ReallocateDefaultIS0_S4_EE15clear_optimisedEv
	.section	.text._ZN8CIwArrayI8PathNode12CIwAllocatorIS0_15CIwMallocRouterIS0_EE17ReallocateDefaultIS0_S4_EEC1Ej,"axG",%progbits,_ZN8CIwArrayI8PathNode12CIwAllocatorIS0_15CIwMallocRouterIS0_EE17ReallocateDefaultIS0_S4_EEC1Ej,comdat
	.align	2
	.weak	_ZN8CIwArrayI8PathNode12CIwAllocatorIS0_15CIwMallocRouterIS0_EE17ReallocateDefaultIS0_S4_EEC1Ej
	.hidden	_ZN8CIwArrayI8PathNode12CIwAllocatorIS0_15CIwMallocRouterIS0_EE17ReallocateDefaultIS0_S4_EEC1Ej
	.type	_ZN8CIwArrayI8PathNode12CIwAllocatorIS0_15CIwMallocRouterIS0_EE17ReallocateDefaultIS0_S4_EEC1Ej, %function
_ZN8CIwArrayI8PathNode12CIwAllocatorIS0_15CIwMallocRouterIS0_EE17ReallocateDefaultIS0_S4_EEC1Ej:
.LFB3530:
	.loc 19 131 0
	.cfi_startproc
	@ args = 0, pretend = 0, frame = 8
	@ frame_needed = 0, uses_anonymous_args = 0
	str	lr, [sp, #-4]!
.LCFI121:
	.cfi_def_cfa_offset 4
	sub	sp, sp, #12
.LCFI122:
	.cfi_def_cfa_offset 16
	str	r0, [sp, #4]
	str	r1, [sp, #0]
	.loc 19 131 0
	ldr	r3, [sp, #4]
	mov	r2, #0
	str	r2, [r3, #0]
	ldr	r3, [sp, #4]
	mov	r2, #0
	str	r2, [r3, #4]
	ldr	r3, [sp, #4]
	mov	r2, #0
	str	r2, [r3, #8]
	ldr	r2, [sp, #4]
	ldrb	r3, [r2, #12]
	bic	r3, r3, #1
	strb	r3, [r2, #12]
	ldr	r2, [sp, #4]
	ldrb	r3, [r2, #12]
	bic	r3, r3, #2
	strb	r3, [r2, #12]
	.loc 19 133 0
	ldr	r0, [sp, #4]
	ldr	r1, [sp, #0]
	.cfi_offset 14, -4
	bl	_ZN8CIwArrayI8PathNode12CIwAllocatorIS0_15CIwMallocRouterIS0_EE17ReallocateDefaultIS0_S4_EE6resizeEj
	.loc 19 134 0
	ldr	r0, [sp, #4]
	bl	_ZN8CIwArrayI8PathNode12CIwAllocatorIS0_15CIwMallocRouterIS0_EE17ReallocateDefaultIS0_S4_EE5clearEv
	ldr	r3, [sp, #4]
	.loc 19 135 0
	mov	r0, r3
	add	sp, sp, #12
	ldmfd	sp!, {pc}
	.cfi_endproc
.LFE3530:
	.size	_ZN8CIwArrayI8PathNode12CIwAllocatorIS0_15CIwMallocRouterIS0_EE17ReallocateDefaultIS0_S4_EEC1Ej, .-_ZN8CIwArrayI8PathNode12CIwAllocatorIS0_15CIwMallocRouterIS0_EE17ReallocateDefaultIS0_S4_EEC1Ej
	.section	.text._ZN8PathNodeD1Ev,"axG",%progbits,_ZN8PathNodeD1Ev,comdat
	.align	2
	.weak	_ZN8PathNodeD1Ev
	.hidden	_ZN8PathNodeD1Ev
	.type	_ZN8PathNodeD1Ev, %function
_ZN8PathNodeD1Ev:
.LFB3534:
	.loc 13 6 0
	.cfi_startproc
	@ args = 0, pretend = 0, frame = 8
	@ frame_needed = 0, uses_anonymous_args = 0
	@ link register save eliminated.
	sub	sp, sp, #8
.LCFI123:
	.cfi_def_cfa_offset 8
	str	r0, [sp, #4]
	.loc 13 6 0
	ldr	r3, [sp, #4]
	mov	r0, r3
	add	sp, sp, #8
	bx	lr
	.cfi_endproc
.LFE3534:
	.size	_ZN8PathNodeD1Ev, .-_ZN8PathNodeD1Ev
	.section	.text._ZN8CIwArrayI8PathNode12CIwAllocatorIS0_15CIwMallocRouterIS0_EE17ReallocateDefaultIS0_S4_EED1Ev,"axG",%progbits,_ZN8CIwArrayI8PathNode12CIwAllocatorIS0_15CIwMallocRouterIS0_EE17ReallocateDefaultIS0_S4_EED1Ev,comdat
	.align	2
	.weak	_ZN8CIwArrayI8PathNode12CIwAllocatorIS0_15CIwMallocRouterIS0_EE17ReallocateDefaultIS0_S4_EED1Ev
	.hidden	_ZN8CIwArrayI8PathNode12CIwAllocatorIS0_15CIwMallocRouterIS0_EE17ReallocateDefaultIS0_S4_EED1Ev
	.type	_ZN8CIwArrayI8PathNode12CIwAllocatorIS0_15CIwMallocRouterIS0_EE17ReallocateDefaultIS0_S4_EED1Ev, %function
_ZN8CIwArrayI8PathNode12CIwAllocatorIS0_15CIwMallocRouterIS0_EE17ReallocateDefaultIS0_S4_EED1Ev:
.LFB3536:
	.loc 19 137 0
	.cfi_startproc
	@ args = 0, pretend = 0, frame = 16
	@ frame_needed = 0, uses_anonymous_args = 0
	str	lr, [sp, #-4]!
.LCFI124:
	.cfi_def_cfa_offset 4
	sub	sp, sp, #20
.LCFI125:
	.cfi_def_cfa_offset 24
	str	r0, [sp, #4]
.LBB50:
	.loc 19 139 0
	mov	r3, #0
	str	r3, [sp, #12]
	b	.L400
	.cfi_offset 14, -4
.L401:
	.loc 19 140 0
	ldr	r3, [sp, #4]
	ldr	r1, [r3, #0]
	ldr	r2, [sp, #12]
	mov	r3, r2
	mov	r3, r3, asl #2
	add	r3, r3, r2
	mov	r3, r3, asl #2
	add	r3, r1, r3
	mov	r0, r3
	bl	_ZN8PathNodeD1Ev
	.loc 19 139 0
	ldr	r3, [sp, #12]
	add	r3, r3, #1
	str	r3, [sp, #12]
.L400:
	ldr	r3, [sp, #4]
	ldr	r2, [r3, #4]
	ldr	r3, [sp, #12]
	cmp	r2, r3
	movls	r3, #0
	movhi	r3, #1
	and	r3, r3, #255
	cmp	r3, #0
	bne	.L401
.LBE50:
	.loc 19 141 0
	ldr	r3, [sp, #4]
	ldrb	r3, [r3, #12]
	and	r3, r3, #1
	and	r3, r3, #255
	eor	r3, r3, #1
	and	r3, r3, #255
	cmp	r3, #0
	beq	.L402
	.loc 19 143 0
	ldr	r3, [sp, #4]
	add	r1, r3, #13
	ldr	r3, [sp, #4]
	ldr	r2, [r3, #0]
	ldr	r3, [sp, #4]
	ldr	r3, [r3, #4]
	mov	r0, r1
	mov	r1, r2
	mov	r2, r3
	bl	_ZN12CIwAllocatorI8PathNode15CIwMallocRouterIS0_EE10deallocateEPS0_j
	.loc 19 144 0
	ldr	r3, [sp, #4]
	mov	r2, #0
	str	r2, [r3, #0]
.L402:
	ldr	r3, [sp, #4]
	.loc 19 146 0
	mov	r0, r3
	add	sp, sp, #20
	ldmfd	sp!, {pc}
	.cfi_endproc
.LFE3536:
	.size	_ZN8CIwArrayI8PathNode12CIwAllocatorIS0_15CIwMallocRouterIS0_EE17ReallocateDefaultIS0_S4_EED1Ev, .-_ZN8CIwArrayI8PathNode12CIwAllocatorIS0_15CIwMallocRouterIS0_EE17ReallocateDefaultIS0_S4_EED1Ev
	.section	.text._ZN8CIwArrayI8PathNode12CIwAllocatorIS0_15CIwMallocRouterIS0_EE17ReallocateDefaultIS0_S4_EE15clear_optimisedEv,"axG",%progbits,_ZN8CIwArrayI8PathNode12CIwAllocatorIS0_15CIwMallocRouterIS0_EE17ReallocateDefaultIS0_S4_EE15clear_optimisedEv,comdat
	.align	2
	.weak	_ZN8CIwArrayI8PathNode12CIwAllocatorIS0_15CIwMallocRouterIS0_EE17ReallocateDefaultIS0_S4_EE15clear_optimisedEv
	.hidden	_ZN8CIwArrayI8PathNode12CIwAllocatorIS0_15CIwMallocRouterIS0_EE17ReallocateDefaultIS0_S4_EE15clear_optimisedEv
	.type	_ZN8CIwArrayI8PathNode12CIwAllocatorIS0_15CIwMallocRouterIS0_EE17ReallocateDefaultIS0_S4_EE15clear_optimisedEv, %function
_ZN8CIwArrayI8PathNode12CIwAllocatorIS0_15CIwMallocRouterIS0_EE17ReallocateDefaultIS0_S4_EE15clear_optimisedEv:
.LFB3537:
	.loc 19 209 0
	.cfi_startproc
	@ args = 0, pretend = 0, frame = 8
	@ frame_needed = 0, uses_anonymous_args = 0
	str	lr, [sp, #-4]!
.LCFI126:
	.cfi_def_cfa_offset 4
	sub	sp, sp, #12
.LCFI127:
	.cfi_def_cfa_offset 16
	str	r0, [sp, #4]
	.loc 19 211 0
	ldr	r0, [sp, #4]
	mov	r1, #0
	.cfi_offset 14, -4
	bl	_ZN8CIwArrayI8PathNode12CIwAllocatorIS0_15CIwMallocRouterIS0_EE17ReallocateDefaultIS0_S4_EE8truncateEj
	.loc 19 212 0
	ldr	r0, [sp, #4]
	mov	r1, #0
	bl	_ZN8CIwArrayI8PathNode12CIwAllocatorIS0_15CIwMallocRouterIS0_EE17ReallocateDefaultIS0_S4_EE12set_capacityEj
	.loc 19 213 0
	add	sp, sp, #12
	ldmfd	sp!, {pc}
	.cfi_endproc
.LFE3537:
	.size	_ZN8CIwArrayI8PathNode12CIwAllocatorIS0_15CIwMallocRouterIS0_EE17ReallocateDefaultIS0_S4_EE15clear_optimisedEv, .-_ZN8CIwArrayI8PathNode12CIwAllocatorIS0_15CIwMallocRouterIS0_EE17ReallocateDefaultIS0_S4_EE15clear_optimisedEv
	.section	.text._ZN8CIwArrayIPc12CIwAllocatorIS0_15CIwMallocRouterIS0_EE17ReallocateDefaultIS0_S4_EED1Ev,"axG",%progbits,_ZN8CIwArrayIPc12CIwAllocatorIS0_15CIwMallocRouterIS0_EE17ReallocateDefaultIS0_S4_EED1Ev,comdat
	.align	2
	.weak	_ZN8CIwArrayIPc12CIwAllocatorIS0_15CIwMallocRouterIS0_EE17ReallocateDefaultIS0_S4_EED1Ev
	.hidden	_ZN8CIwArrayIPc12CIwAllocatorIS0_15CIwMallocRouterIS0_EE17ReallocateDefaultIS0_S4_EED1Ev
	.type	_ZN8CIwArrayIPc12CIwAllocatorIS0_15CIwMallocRouterIS0_EE17ReallocateDefaultIS0_S4_EED1Ev, %function
_ZN8CIwArrayIPc12CIwAllocatorIS0_15CIwMallocRouterIS0_EE17ReallocateDefaultIS0_S4_EED1Ev:
.LFB3553:
	.loc 19 137 0
	.cfi_startproc
	@ args = 0, pretend = 0, frame = 16
	@ frame_needed = 0, uses_anonymous_args = 0
	str	lr, [sp, #-4]!
.LCFI128:
	.cfi_def_cfa_offset 4
	sub	sp, sp, #20
.LCFI129:
	.cfi_def_cfa_offset 24
	str	r0, [sp, #4]
.LBB51:
	.loc 19 139 0
	mov	r3, #0
	str	r3, [sp, #12]
	b	.L407
	.cfi_offset 14, -4
.L408:
	ldr	r3, [sp, #12]
	add	r3, r3, #1
	str	r3, [sp, #12]
.L407:
	ldr	r3, [sp, #4]
	ldr	r2, [r3, #4]
	ldr	r3, [sp, #12]
	cmp	r2, r3
	movls	r3, #0
	movhi	r3, #1
	and	r3, r3, #255
	cmp	r3, #0
	bne	.L408
.LBE51:
	.loc 19 141 0
	ldr	r3, [sp, #4]
	ldrb	r3, [r3, #12]
	and	r3, r3, #1
	and	r3, r3, #255
	eor	r3, r3, #1
	and	r3, r3, #255
	cmp	r3, #0
	beq	.L409
	.loc 19 143 0
	ldr	r3, [sp, #4]
	add	r1, r3, #13
	ldr	r3, [sp, #4]
	ldr	r2, [r3, #0]
	ldr	r3, [sp, #4]
	ldr	r3, [r3, #4]
	mov	r0, r1
	mov	r1, r2
	mov	r2, r3
	bl	_ZN12CIwAllocatorIPc15CIwMallocRouterIS0_EE10deallocateEPS0_j
	.loc 19 144 0
	ldr	r3, [sp, #4]
	mov	r2, #0
	str	r2, [r3, #0]
.L409:
	ldr	r3, [sp, #4]
	.loc 19 146 0
	mov	r0, r3
	add	sp, sp, #20
	ldmfd	sp!, {pc}
	.cfi_endproc
.LFE3553:
	.size	_ZN8CIwArrayIPc12CIwAllocatorIS0_15CIwMallocRouterIS0_EE17ReallocateDefaultIS0_S4_EED1Ev, .-_ZN8CIwArrayIPc12CIwAllocatorIS0_15CIwMallocRouterIS0_EE17ReallocateDefaultIS0_S4_EED1Ev
	.section	.text._ZN8CIwArrayI12TileObstacle12CIwAllocatorIS0_15CIwMallocRouterIS0_EE17ReallocateDefaultIS0_S4_EED1Ev,"axG",%progbits,_ZN8CIwArrayI12TileObstacle12CIwAllocatorIS0_15CIwMallocRouterIS0_EE17ReallocateDefaultIS0_S4_EED1Ev,comdat
	.align	2
	.weak	_ZN8CIwArrayI12TileObstacle12CIwAllocatorIS0_15CIwMallocRouterIS0_EE17ReallocateDefaultIS0_S4_EED1Ev
	.hidden	_ZN8CIwArrayI12TileObstacle12CIwAllocatorIS0_15CIwMallocRouterIS0_EE17ReallocateDefaultIS0_S4_EED1Ev
	.type	_ZN8CIwArrayI12TileObstacle12CIwAllocatorIS0_15CIwMallocRouterIS0_EE17ReallocateDefaultIS0_S4_EED1Ev, %function
_ZN8CIwArrayI12TileObstacle12CIwAllocatorIS0_15CIwMallocRouterIS0_EE17ReallocateDefaultIS0_S4_EED1Ev:
.LFB3560:
	.loc 19 137 0
	.cfi_startproc
	@ args = 0, pretend = 0, frame = 16
	@ frame_needed = 0, uses_anonymous_args = 0
	str	lr, [sp, #-4]!
.LCFI130:
	.cfi_def_cfa_offset 4
	sub	sp, sp, #20
.LCFI131:
	.cfi_def_cfa_offset 24
	str	r0, [sp, #4]
.LBB52:
	.loc 19 139 0
	mov	r3, #0
	str	r3, [sp, #12]
	b	.L412
	.cfi_offset 14, -4
.L413:
	.loc 19 140 0
	ldr	r3, [sp, #4]
	ldr	r2, [r3, #0]
	ldr	r3, [sp, #12]
	mov	r1, #44
	mul	r3, r1, r3
	add	r3, r2, r3
	mov	r0, r3
	bl	_ZN12TileObstacleD1Ev
	.loc 19 139 0
	ldr	r3, [sp, #12]
	add	r3, r3, #1
	str	r3, [sp, #12]
.L412:
	ldr	r3, [sp, #4]
	ldr	r2, [r3, #4]
	ldr	r3, [sp, #12]
	cmp	r2, r3
	movls	r3, #0
	movhi	r3, #1
	and	r3, r3, #255
	cmp	r3, #0
	bne	.L413
.LBE52:
	.loc 19 141 0
	ldr	r3, [sp, #4]
	ldrb	r3, [r3, #12]
	and	r3, r3, #1
	and	r3, r3, #255
	eor	r3, r3, #1
	and	r3, r3, #255
	cmp	r3, #0
	beq	.L414
	.loc 19 143 0
	ldr	r3, [sp, #4]
	add	r1, r3, #13
	ldr	r3, [sp, #4]
	ldr	r2, [r3, #0]
	ldr	r3, [sp, #4]
	ldr	r3, [r3, #4]
	mov	r0, r1
	mov	r1, r2
	mov	r2, r3
	bl	_ZN12CIwAllocatorI12TileObstacle15CIwMallocRouterIS0_EE10deallocateEPS0_j
	.loc 19 144 0
	ldr	r3, [sp, #4]
	mov	r2, #0
	str	r2, [r3, #0]
.L414:
	ldr	r3, [sp, #4]
	.loc 19 146 0
	mov	r0, r3
	add	sp, sp, #20
	ldmfd	sp!, {pc}
	.cfi_endproc
.LFE3560:
	.size	_ZN8CIwArrayI12TileObstacle12CIwAllocatorIS0_15CIwMallocRouterIS0_EE17ReallocateDefaultIS0_S4_EED1Ev, .-_ZN8CIwArrayI12TileObstacle12CIwAllocatorIS0_15CIwMallocRouterIS0_EE17ReallocateDefaultIS0_S4_EED1Ev
	.section	.text._ZN8CIwArrayIP3NPC12CIwAllocatorIS1_15CIwMallocRouterIS1_EE17ReallocateDefaultIS1_S5_EED1Ev,"axG",%progbits,_ZN8CIwArrayIP3NPC12CIwAllocatorIS1_15CIwMallocRouterIS1_EE17ReallocateDefaultIS1_S5_EED1Ev,comdat
	.align	2
	.weak	_ZN8CIwArrayIP3NPC12CIwAllocatorIS1_15CIwMallocRouterIS1_EE17ReallocateDefaultIS1_S5_EED1Ev
	.hidden	_ZN8CIwArrayIP3NPC12CIwAllocatorIS1_15CIwMallocRouterIS1_EE17ReallocateDefaultIS1_S5_EED1Ev
	.type	_ZN8CIwArrayIP3NPC12CIwAllocatorIS1_15CIwMallocRouterIS1_EE17ReallocateDefaultIS1_S5_EED1Ev, %function
_ZN8CIwArrayIP3NPC12CIwAllocatorIS1_15CIwMallocRouterIS1_EE17ReallocateDefaultIS1_S5_EED1Ev:
.LFB3566:
	.loc 19 137 0
	.cfi_startproc
	@ args = 0, pretend = 0, frame = 16
	@ frame_needed = 0, uses_anonymous_args = 0
	str	lr, [sp, #-4]!
.LCFI132:
	.cfi_def_cfa_offset 4
	sub	sp, sp, #20
.LCFI133:
	.cfi_def_cfa_offset 24
	str	r0, [sp, #4]
.LBB53:
	.loc 19 139 0
	mov	r3, #0
	str	r3, [sp, #12]
	b	.L417
	.cfi_offset 14, -4
.L418:
	ldr	r3, [sp, #12]
	add	r3, r3, #1
	str	r3, [sp, #12]
.L417:
	ldr	r3, [sp, #4]
	ldr	r2, [r3, #4]
	ldr	r3, [sp, #12]
	cmp	r2, r3
	movls	r3, #0
	movhi	r3, #1
	and	r3, r3, #255
	cmp	r3, #0
	bne	.L418
.LBE53:
	.loc 19 141 0
	ldr	r3, [sp, #4]
	ldrb	r3, [r3, #12]
	and	r3, r3, #1
	and	r3, r3, #255
	eor	r3, r3, #1
	and	r3, r3, #255
	cmp	r3, #0
	beq	.L419
	.loc 19 143 0
	ldr	r3, [sp, #4]
	add	r1, r3, #13
	ldr	r3, [sp, #4]
	ldr	r2, [r3, #0]
	ldr	r3, [sp, #4]
	ldr	r3, [r3, #4]
	mov	r0, r1
	mov	r1, r2
	mov	r2, r3
	bl	_ZN12CIwAllocatorIP3NPC15CIwMallocRouterIS1_EE10deallocateEPS1_j
	.loc 19 144 0
	ldr	r3, [sp, #4]
	mov	r2, #0
	str	r2, [r3, #0]
.L419:
	ldr	r3, [sp, #4]
	.loc 19 146 0
	mov	r0, r3
	add	sp, sp, #20
	ldmfd	sp!, {pc}
	.cfi_endproc
.LFE3566:
	.size	_ZN8CIwArrayIP3NPC12CIwAllocatorIS1_15CIwMallocRouterIS1_EE17ReallocateDefaultIS1_S5_EED1Ev, .-_ZN8CIwArrayIP3NPC12CIwAllocatorIS1_15CIwMallocRouterIS1_EE17ReallocateDefaultIS1_S5_EED1Ev
	.section	.text._ZN8CIwArrayIPc12CIwAllocatorIS0_15CIwMallocRouterIS0_EE17ReallocateDefaultIS0_S4_EEC1Ej,"axG",%progbits,_ZN8CIwArrayIPc12CIwAllocatorIS0_15CIwMallocRouterIS0_EE17ReallocateDefaultIS0_S4_EEC1Ej,comdat
	.align	2
	.weak	_ZN8CIwArrayIPc12CIwAllocatorIS0_15CIwMallocRouterIS0_EE17ReallocateDefaultIS0_S4_EEC1Ej
	.hidden	_ZN8CIwArrayIPc12CIwAllocatorIS0_15CIwMallocRouterIS0_EE17ReallocateDefaultIS0_S4_EEC1Ej
	.type	_ZN8CIwArrayIPc12CIwAllocatorIS0_15CIwMallocRouterIS0_EE17ReallocateDefaultIS0_S4_EEC1Ej, %function
_ZN8CIwArrayIPc12CIwAllocatorIS0_15CIwMallocRouterIS0_EE17ReallocateDefaultIS0_S4_EEC1Ej:
.LFB3569:
	.loc 19 131 0
	.cfi_startproc
	@ args = 0, pretend = 0, frame = 8
	@ frame_needed = 0, uses_anonymous_args = 0
	str	lr, [sp, #-4]!
.LCFI134:
	.cfi_def_cfa_offset 4
	sub	sp, sp, #12
.LCFI135:
	.cfi_def_cfa_offset 16
	str	r0, [sp, #4]
	str	r1, [sp, #0]
	.loc 19 131 0
	ldr	r3, [sp, #4]
	mov	r2, #0
	str	r2, [r3, #0]
	ldr	r3, [sp, #4]
	mov	r2, #0
	str	r2, [r3, #4]
	ldr	r3, [sp, #4]
	mov	r2, #0
	str	r2, [r3, #8]
	ldr	r2, [sp, #4]
	ldrb	r3, [r2, #12]
	bic	r3, r3, #1
	strb	r3, [r2, #12]
	ldr	r2, [sp, #4]
	ldrb	r3, [r2, #12]
	bic	r3, r3, #2
	strb	r3, [r2, #12]
	.loc 19 133 0
	ldr	r0, [sp, #4]
	ldr	r1, [sp, #0]
	.cfi_offset 14, -4
	bl	_ZN8CIwArrayIPc12CIwAllocatorIS0_15CIwMallocRouterIS0_EE17ReallocateDefaultIS0_S4_EE6resizeEj
	.loc 19 134 0
	ldr	r0, [sp, #4]
	bl	_ZN8CIwArrayIPc12CIwAllocatorIS0_15CIwMallocRouterIS0_EE17ReallocateDefaultIS0_S4_EE5clearEv
	ldr	r3, [sp, #4]
	.loc 19 135 0
	mov	r0, r3
	add	sp, sp, #12
	ldmfd	sp!, {pc}
	.cfi_endproc
.LFE3569:
	.size	_ZN8CIwArrayIPc12CIwAllocatorIS0_15CIwMallocRouterIS0_EE17ReallocateDefaultIS0_S4_EEC1Ej, .-_ZN8CIwArrayIPc12CIwAllocatorIS0_15CIwMallocRouterIS0_EE17ReallocateDefaultIS0_S4_EEC1Ej
	.section	.text._ZN8CIwArrayIP3NPC12CIwAllocatorIS1_15CIwMallocRouterIS1_EE17ReallocateDefaultIS1_S5_EE15clear_optimisedEv,"axG",%progbits,_ZN8CIwArrayIP3NPC12CIwAllocatorIS1_15CIwMallocRouterIS1_EE17ReallocateDefaultIS1_S5_EE15clear_optimisedEv,comdat
	.align	2
	.weak	_ZN8CIwArrayIP3NPC12CIwAllocatorIS1_15CIwMallocRouterIS1_EE17ReallocateDefaultIS1_S5_EE15clear_optimisedEv
	.hidden	_ZN8CIwArrayIP3NPC12CIwAllocatorIS1_15CIwMallocRouterIS1_EE17ReallocateDefaultIS1_S5_EE15clear_optimisedEv
	.type	_ZN8CIwArrayIP3NPC12CIwAllocatorIS1_15CIwMallocRouterIS1_EE17ReallocateDefaultIS1_S5_EE15clear_optimisedEv, %function
_ZN8CIwArrayIP3NPC12CIwAllocatorIS1_15CIwMallocRouterIS1_EE17ReallocateDefaultIS1_S5_EE15clear_optimisedEv:
.LFB3582:
	.loc 19 209 0
	.cfi_startproc
	@ args = 0, pretend = 0, frame = 8
	@ frame_needed = 0, uses_anonymous_args = 0
	str	lr, [sp, #-4]!
.LCFI136:
	.cfi_def_cfa_offset 4
	sub	sp, sp, #12
.LCFI137:
	.cfi_def_cfa_offset 16
	str	r0, [sp, #4]
	.loc 19 211 0
	ldr	r0, [sp, #4]
	mov	r1, #0
	.cfi_offset 14, -4
	bl	_ZN8CIwArrayIP3NPC12CIwAllocatorIS1_15CIwMallocRouterIS1_EE17ReallocateDefaultIS1_S5_EE8truncateEj
	.loc 19 212 0
	ldr	r0, [sp, #4]
	mov	r1, #0
	bl	_ZN8CIwArrayIP3NPC12CIwAllocatorIS1_15CIwMallocRouterIS1_EE17ReallocateDefaultIS1_S5_EE12set_capacityEj
	.loc 19 213 0
	add	sp, sp, #12
	ldmfd	sp!, {pc}
	.cfi_endproc
.LFE3582:
	.size	_ZN8CIwArrayIP3NPC12CIwAllocatorIS1_15CIwMallocRouterIS1_EE17ReallocateDefaultIS1_S5_EE15clear_optimisedEv, .-_ZN8CIwArrayIP3NPC12CIwAllocatorIS1_15CIwMallocRouterIS1_EE17ReallocateDefaultIS1_S5_EE15clear_optimisedEv
	.section	.text._ZN8CIwArrayI12TileObstacle12CIwAllocatorIS0_15CIwMallocRouterIS0_EE17ReallocateDefaultIS0_S4_EE15clear_optimisedEv,"axG",%progbits,_ZN8CIwArrayI12TileObstacle12CIwAllocatorIS0_15CIwMallocRouterIS0_EE17ReallocateDefaultIS0_S4_EE15clear_optimisedEv,comdat
	.align	2
	.weak	_ZN8CIwArrayI12TileObstacle12CIwAllocatorIS0_15CIwMallocRouterIS0_EE17ReallocateDefaultIS0_S4_EE15clear_optimisedEv
	.hidden	_ZN8CIwArrayI12TileObstacle12CIwAllocatorIS0_15CIwMallocRouterIS0_EE17ReallocateDefaultIS0_S4_EE15clear_optimisedEv
	.type	_ZN8CIwArrayI12TileObstacle12CIwAllocatorIS0_15CIwMallocRouterIS0_EE17ReallocateDefaultIS0_S4_EE15clear_optimisedEv, %function
_ZN8CIwArrayI12TileObstacle12CIwAllocatorIS0_15CIwMallocRouterIS0_EE17ReallocateDefaultIS0_S4_EE15clear_optimisedEv:
.LFB3583:
	.loc 19 209 0
	.cfi_startproc
	@ args = 0, pretend = 0, frame = 8
	@ frame_needed = 0, uses_anonymous_args = 0
	str	lr, [sp, #-4]!
.LCFI138:
	.cfi_def_cfa_offset 4
	sub	sp, sp, #12
.LCFI139:
	.cfi_def_cfa_offset 16
	str	r0, [sp, #4]
	.loc 19 211 0
	ldr	r0, [sp, #4]
	mov	r1, #0
	.cfi_offset 14, -4
	bl	_ZN8CIwArrayI12TileObstacle12CIwAllocatorIS0_15CIwMallocRouterIS0_EE17ReallocateDefaultIS0_S4_EE8truncateEj
	.loc 19 212 0
	ldr	r0, [sp, #4]
	mov	r1, #0
	bl	_ZN8CIwArrayI12TileObstacle12CIwAllocatorIS0_15CIwMallocRouterIS0_EE17ReallocateDefaultIS0_S4_EE12set_capacityEj
	.loc 19 213 0
	add	sp, sp, #12
	ldmfd	sp!, {pc}
	.cfi_endproc
.LFE3583:
	.size	_ZN8CIwArrayI12TileObstacle12CIwAllocatorIS0_15CIwMallocRouterIS0_EE17ReallocateDefaultIS0_S4_EE15clear_optimisedEv, .-_ZN8CIwArrayI12TileObstacle12CIwAllocatorIS0_15CIwMallocRouterIS0_EE17ReallocateDefaultIS0_S4_EE15clear_optimisedEv
	.section	.text._ZNK8CIwArrayIi12CIwAllocatorIi15CIwMallocRouterIiEE17ReallocateDefaultIiS3_EE4sizeEv,"axG",%progbits,_ZNK8CIwArrayIi12CIwAllocatorIi15CIwMallocRouterIiEE17ReallocateDefaultIiS3_EE4sizeEv,comdat
	.align	2
	.weak	_ZNK8CIwArrayIi12CIwAllocatorIi15CIwMallocRouterIiEE17ReallocateDefaultIiS3_EE4sizeEv
	.hidden	_ZNK8CIwArrayIi12CIwAllocatorIi15CIwMallocRouterIiEE17ReallocateDefaultIiS3_EE4sizeEv
	.type	_ZNK8CIwArrayIi12CIwAllocatorIi15CIwMallocRouterIiEE17ReallocateDefaultIiS3_EE4sizeEv, %function
_ZNK8CIwArrayIi12CIwAllocatorIi15CIwMallocRouterIiEE17ReallocateDefaultIiS3_EE4sizeEv:
.LFB3584:
	.loc 19 113 0
	.cfi_startproc
	@ args = 0, pretend = 0, frame = 8
	@ frame_needed = 0, uses_anonymous_args = 0
	@ link register save eliminated.
	sub	sp, sp, #8
.LCFI140:
	.cfi_def_cfa_offset 8
	str	r0, [sp, #4]
	.loc 19 113 0
	ldr	r3, [sp, #4]
	ldr	r3, [r3, #4]
	mov	r0, r3
	add	sp, sp, #8
	bx	lr
	.cfi_endproc
.LFE3584:
	.size	_ZNK8CIwArrayIi12CIwAllocatorIi15CIwMallocRouterIiEE17ReallocateDefaultIiS3_EE4sizeEv, .-_ZNK8CIwArrayIi12CIwAllocatorIi15CIwMallocRouterIiEE17ReallocateDefaultIiS3_EE4sizeEv
	.section	.rodata
	.align	2
.LC48:
	.ascii	"CORE\000"
	.align	2
.LC49:
	.ascii	"invalid index (%d) into array of size %u\000"
	.align	2
.LC50:
	.ascii	"i>=0 && index<num_p\000"
	.align	2
.LC51:
	.ascii	"c:/marmalade/6.2/modules/iwutil/h/IwArray.h\000"
	.section	.text._ZNK8CIwArrayIi12CIwAllocatorIi15CIwMallocRouterIiEE17ReallocateDefaultIiS3_EEixEi,"axG",%progbits,_ZNK8CIwArrayIi12CIwAllocatorIi15CIwMallocRouterIiEE17ReallocateDefaultIiS3_EEixEi,comdat
	.align	2
	.weak	_ZNK8CIwArrayIi12CIwAllocatorIi15CIwMallocRouterIiEE17ReallocateDefaultIiS3_EEixEi
	.hidden	_ZNK8CIwArrayIi12CIwAllocatorIi15CIwMallocRouterIiEE17ReallocateDefaultIiS3_EEixEi
	.type	_ZNK8CIwArrayIi12CIwAllocatorIi15CIwMallocRouterIiEE17ReallocateDefaultIiS3_EEixEi, %function
_ZNK8CIwArrayIi12CIwAllocatorIi15CIwMallocRouterIiEE17ReallocateDefaultIiS3_EEixEi:
.LFB3585:
	.loc 19 694 0
	.cfi_startproc
	@ args = 0, pretend = 0, frame = 16
	@ frame_needed = 0, uses_anonymous_args = 0
	str	lr, [sp, #-4]!
.LCFI141:
	.cfi_def_cfa_offset 4
	sub	sp, sp, #20
.LCFI142:
	.cfi_def_cfa_offset 24
	str	r0, [sp, #4]
	str	r1, [sp, #0]
.LBB54:
	.loc 19 696 0
	ldr	r3, [sp, #0]
	str	r3, [sp, #12]
.LBB55:
	.loc 19 697 0
	ldr	r3, [sp, #0]
	cmp	r3, #0
	blt	.L431
	.cfi_offset 14, -4
	ldr	r3, [sp, #4]
	ldr	r2, [r3, #4]
	ldr	r3, [sp, #12]
	cmp	r2, r3
	bhi	.L432
.L431:
	ldr	r0, .L443
	bl	IwDebugAssertIsChannelOn
	mov	r3, r0
	cmp	r3, #0
	beq	.L432
	ldr	r3, .L443+4
	ldrb	r3, [r3, #0]	@ zero_extendqisi2
	cmp	r3, #0
	bne	.L432
	mov	r3, #1
	b	.L433
.L432:
	mov	r3, #0
.L433:
	cmp	r3, #0
	beq	.L434
	mov	r0, #0
	bl	IwDebugAssertSetSolution
	ldr	r0, .L443+8
	bl	IwDebugAssertSetUID
	ldr	r3, [sp, #4]
	ldr	r3, [r3, #4]
	ldr	r0, .L443+12
	ldr	r1, [sp, #0]
	mov	r2, r3
	bl	IwDebugAssertSetMessage
	ldr	r0, .L443+16
	ldr	r1, .L443+20
	ldr	r2, .L443+24
	mov	r3, #1
	bl	IwDebugAssertShow
	mov	r3, r0
	cmp	r3, #1
	beq	.L436
	cmp	r3, #2
	beq	.L437
	b	.L435
.L436:
	bl	s3eDebugIsDebuggerPresent
	mov	r3, r0
	cmp	r3, #0
	moveq	r3, #0
	movne	r3, #1
	and	r3, r3, #255
	cmp	r3, #0
	beq	.L438
	bl	s3eDebugIsDebuggerPresent
	mov	r3, r0
	cmp	r3, #0
	moveq	r3, #0
	movne	r3, #1
	and	r3, r3, #255
	cmp	r3, #0
	beq	.L442
	mvn	r3, #11
	mov	r2, #0
	str	r2, [r3, #0]
	b	.L435
.L438:
	bl	_ZL11IwDebugExitv
	b	.L435
.L437:
	ldr	r3, .L443+4
	mov	r2, #1
	strb	r2, [r3, #0]
	b	.L435
.L442:
	mov	r0, r0	@ nop
.L435:
	mov	r0, #0
	bl	IwDebugAssertSetUID
.L434:
.LBE55:
	.loc 19 698 0
	ldr	r3, [sp, #4]
	ldr	r2, [r3, #0]
	ldr	r3, [sp, #12]
	mov	r3, r3, asl #2
	add	r3, r2, r3
.LBE54:
	.loc 19 699 0
	mov	r0, r3
	add	sp, sp, #20
	ldmfd	sp!, {pc}
.L444:
	.align	2
.L443:
	.word	.LC48
	.word	_ZZNK8CIwArrayIi12CIwAllocatorIi15CIwMallocRouterIiEE17ReallocateDefaultIiS3_EEixEiE21_s_IwAssertIgnoreThis
	.word	1731
	.word	.LC49
	.word	.LC50
	.word	.LC51
	.word	697
	.cfi_endproc
.LFE3585:
	.size	_ZNK8CIwArrayIi12CIwAllocatorIi15CIwMallocRouterIiEE17ReallocateDefaultIiS3_EEixEi, .-_ZNK8CIwArrayIi12CIwAllocatorIi15CIwMallocRouterIiEE17ReallocateDefaultIiS3_EEixEi
	.section	.text._ZN8CIwArrayIPc12CIwAllocatorIS0_15CIwMallocRouterIS0_EE17ReallocateDefaultIS0_S4_EE6appendERKS0_,"axG",%progbits,_ZN8CIwArrayIPc12CIwAllocatorIS0_15CIwMallocRouterIS0_EE17ReallocateDefaultIS0_S4_EE6appendERKS0_,comdat
	.align	2
	.weak	_ZN8CIwArrayIPc12CIwAllocatorIS0_15CIwMallocRouterIS0_EE17ReallocateDefaultIS0_S4_EE6appendERKS0_
	.hidden	_ZN8CIwArrayIPc12CIwAllocatorIS0_15CIwMallocRouterIS0_EE17ReallocateDefaultIS0_S4_EE6appendERKS0_
	.type	_ZN8CIwArrayIPc12CIwAllocatorIS0_15CIwMallocRouterIS0_EE17ReallocateDefaultIS0_S4_EE6appendERKS0_, %function
_ZN8CIwArrayIPc12CIwAllocatorIS0_15CIwMallocRouterIS0_EE17ReallocateDefaultIS0_S4_EE6appendERKS0_:
.LFB3586:
	.loc 19 594 0
	.cfi_startproc
	@ args = 0, pretend = 0, frame = 8
	@ frame_needed = 0, uses_anonymous_args = 0
	str	lr, [sp, #-4]!
.LCFI143:
	.cfi_def_cfa_offset 4
	sub	sp, sp, #12
.LCFI144:
	.cfi_def_cfa_offset 16
	str	r0, [sp, #4]
	str	r1, [sp, #0]
	.loc 19 594 0
	ldr	r0, [sp, #4]
	ldr	r1, [sp, #0]
	.cfi_offset 14, -4
	bl	_ZN8CIwArrayIPc12CIwAllocatorIS0_15CIwMallocRouterIS0_EE17ReallocateDefaultIS0_S4_EE9push_backERKS0_
	mov	r3, r0
	mov	r0, r3
	add	sp, sp, #12
	ldmfd	sp!, {pc}
	.cfi_endproc
.LFE3586:
	.size	_ZN8CIwArrayIPc12CIwAllocatorIS0_15CIwMallocRouterIS0_EE17ReallocateDefaultIS0_S4_EE6appendERKS0_, .-_ZN8CIwArrayIPc12CIwAllocatorIS0_15CIwMallocRouterIS0_EE17ReallocateDefaultIS0_S4_EE6appendERKS0_
	.section	.text._ZN8CIwArrayIP3NPC12CIwAllocatorIS1_15CIwMallocRouterIS1_EE17ReallocateDefaultIS1_S5_EE6appendERKS1_,"axG",%progbits,_ZN8CIwArrayIP3NPC12CIwAllocatorIS1_15CIwMallocRouterIS1_EE17ReallocateDefaultIS1_S5_EE6appendERKS1_,comdat
	.align	2
	.weak	_ZN8CIwArrayIP3NPC12CIwAllocatorIS1_15CIwMallocRouterIS1_EE17ReallocateDefaultIS1_S5_EE6appendERKS1_
	.hidden	_ZN8CIwArrayIP3NPC12CIwAllocatorIS1_15CIwMallocRouterIS1_EE17ReallocateDefaultIS1_S5_EE6appendERKS1_
	.type	_ZN8CIwArrayIP3NPC12CIwAllocatorIS1_15CIwMallocRouterIS1_EE17ReallocateDefaultIS1_S5_EE6appendERKS1_, %function
_ZN8CIwArrayIP3NPC12CIwAllocatorIS1_15CIwMallocRouterIS1_EE17ReallocateDefaultIS1_S5_EE6appendERKS1_:
.LFB3587:
	.loc 19 594 0
	.cfi_startproc
	@ args = 0, pretend = 0, frame = 8
	@ frame_needed = 0, uses_anonymous_args = 0
	str	lr, [sp, #-4]!
.LCFI145:
	.cfi_def_cfa_offset 4
	sub	sp, sp, #12
.LCFI146:
	.cfi_def_cfa_offset 16
	str	r0, [sp, #4]
	str	r1, [sp, #0]
	.loc 19 594 0
	ldr	r0, [sp, #4]
	ldr	r1, [sp, #0]
	.cfi_offset 14, -4
	bl	_ZN8CIwArrayIP3NPC12CIwAllocatorIS1_15CIwMallocRouterIS1_EE17ReallocateDefaultIS1_S5_EE9push_backERKS1_
	mov	r3, r0
	mov	r0, r3
	add	sp, sp, #12
	ldmfd	sp!, {pc}
	.cfi_endproc
.LFE3587:
	.size	_ZN8CIwArrayIP3NPC12CIwAllocatorIS1_15CIwMallocRouterIS1_EE17ReallocateDefaultIS1_S5_EE6appendERKS1_, .-_ZN8CIwArrayIP3NPC12CIwAllocatorIS1_15CIwMallocRouterIS1_EE17ReallocateDefaultIS1_S5_EE6appendERKS1_
	.section	.text._ZN4_STL6vectorI8ObstacleNS_9allocatorIS1_EEEC1ERKS4_,"axG",%progbits,_ZN4_STL6vectorI8ObstacleNS_9allocatorIS1_EEEC1ERKS4_,comdat
	.align	2
	.weak	_ZN4_STL6vectorI8ObstacleNS_9allocatorIS1_EEEC1ERKS4_
	.hidden	_ZN4_STL6vectorI8ObstacleNS_9allocatorIS1_EEEC1ERKS4_
	.type	_ZN4_STL6vectorI8ObstacleNS_9allocatorIS1_EEEC1ERKS4_, %function
_ZN4_STL6vectorI8ObstacleNS_9allocatorIS1_EEEC1ERKS4_:
.LFB3590:
	.loc 21 212 0
	.cfi_startproc
	@ args = 0, pretend = 0, frame = 16
	@ frame_needed = 0, uses_anonymous_args = 0
	stmfd	sp!, {r4, r5, lr}
.LCFI147:
	.cfi_def_cfa_offset 12
	sub	sp, sp, #20
.LCFI148:
	.cfi_def_cfa_offset 32
	str	r0, [sp, #4]
	str	r1, [sp, #0]
	.loc 21 213 0
	ldr	r5, [sp, #4]
	.cfi_offset 14, -4
	.cfi_offset 5, -8
	.cfi_offset 4, -12
	ldr	r0, [sp, #0]
	bl	_ZNK4_STL6vectorI8ObstacleNS_9allocatorIS1_EEE4sizeEv
	mov	r4, r0
	add	r3, sp, #8
	mov	r0, r3
	ldr	r1, [sp, #0]
	bl	_ZNK4_STL6vectorI8ObstacleNS_9allocatorIS1_EEE13get_allocatorEv
	add	r3, sp, #8
	mov	r0, r5
	mov	r1, r4
	mov	r2, r3
	bl	_ZN4_STL12_Vector_baseI8ObstacleNS_9allocatorIS1_EEEC2EjRKS3_
	add	r3, sp, #8
	mov	r0, r3
	bl	_ZN4_STL9allocatorI8ObstacleED1Ev
	.loc 21 214 0
	ldr	r3, [sp, #0]
	ldr	r0, [r3, #0]
	ldr	r3, [sp, #0]
	ldr	r1, [r3, #4]
	ldr	r3, [sp, #4]
	ldr	r2, [r3, #0]
	add	r3, sp, #12
	bl	_ZN4_STL20__uninitialized_copyIPK8ObstaclePS1_EET0_T_S6_S5_RKNS_12__false_typeE
	mov	r2, r0
	ldr	r3, [sp, #4]
	str	r2, [r3, #4]
	ldr	r3, [sp, #4]
	.loc 21 216 0
	mov	r0, r3
	add	sp, sp, #20
	ldmfd	sp!, {r4, r5, pc}
	.cfi_endproc
.LFE3590:
	.size	_ZN4_STL6vectorI8ObstacleNS_9allocatorIS1_EEEC1ERKS4_, .-_ZN4_STL6vectorI8ObstacleNS_9allocatorIS1_EEEC1ERKS4_
	.section	.text._ZN8CIwArrayI12TileObstacle12CIwAllocatorIS0_15CIwMallocRouterIS0_EE17ReallocateDefaultIS0_S4_EE6appendERKS0_,"axG",%progbits,_ZN8CIwArrayI12TileObstacle12CIwAllocatorIS0_15CIwMallocRouterIS0_EE17ReallocateDefaultIS0_S4_EE6appendERKS0_,comdat
	.align	2
	.weak	_ZN8CIwArrayI12TileObstacle12CIwAllocatorIS0_15CIwMallocRouterIS0_EE17ReallocateDefaultIS0_S4_EE6appendERKS0_
	.hidden	_ZN8CIwArrayI12TileObstacle12CIwAllocatorIS0_15CIwMallocRouterIS0_EE17ReallocateDefaultIS0_S4_EE6appendERKS0_
	.type	_ZN8CIwArrayI12TileObstacle12CIwAllocatorIS0_15CIwMallocRouterIS0_EE17ReallocateDefaultIS0_S4_EE6appendERKS0_, %function
_ZN8CIwArrayI12TileObstacle12CIwAllocatorIS0_15CIwMallocRouterIS0_EE17ReallocateDefaultIS0_S4_EE6appendERKS0_:
.LFB3591:
	.loc 19 594 0
	.cfi_startproc
	@ args = 0, pretend = 0, frame = 8
	@ frame_needed = 0, uses_anonymous_args = 0
	str	lr, [sp, #-4]!
.LCFI149:
	.cfi_def_cfa_offset 4
	sub	sp, sp, #12
.LCFI150:
	.cfi_def_cfa_offset 16
	str	r0, [sp, #4]
	str	r1, [sp, #0]
	.loc 19 594 0
	ldr	r0, [sp, #4]
	ldr	r1, [sp, #0]
	.cfi_offset 14, -4
	bl	_ZN8CIwArrayI12TileObstacle12CIwAllocatorIS0_15CIwMallocRouterIS0_EE17ReallocateDefaultIS0_S4_EE9push_backERKS0_
	mov	r3, r0
	mov	r0, r3
	add	sp, sp, #12
	ldmfd	sp!, {pc}
	.cfi_endproc
.LFE3591:
	.size	_ZN8CIwArrayI12TileObstacle12CIwAllocatorIS0_15CIwMallocRouterIS0_EE17ReallocateDefaultIS0_S4_EE6appendERKS0_, .-_ZN8CIwArrayI12TileObstacle12CIwAllocatorIS0_15CIwMallocRouterIS0_EE17ReallocateDefaultIS0_S4_EE6appendERKS0_
	.section	.text._ZN8CIwArrayIi12CIwAllocatorIi15CIwMallocRouterIiEE17ReallocateDefaultIiS3_EE6appendERKi,"axG",%progbits,_ZN8CIwArrayIi12CIwAllocatorIi15CIwMallocRouterIiEE17ReallocateDefaultIiS3_EE6appendERKi,comdat
	.align	2
	.weak	_ZN8CIwArrayIi12CIwAllocatorIi15CIwMallocRouterIiEE17ReallocateDefaultIiS3_EE6appendERKi
	.hidden	_ZN8CIwArrayIi12CIwAllocatorIi15CIwMallocRouterIiEE17ReallocateDefaultIiS3_EE6appendERKi
	.type	_ZN8CIwArrayIi12CIwAllocatorIi15CIwMallocRouterIiEE17ReallocateDefaultIiS3_EE6appendERKi, %function
_ZN8CIwArrayIi12CIwAllocatorIi15CIwMallocRouterIiEE17ReallocateDefaultIiS3_EE6appendERKi:
.LFB3592:
	.loc 19 594 0
	.cfi_startproc
	@ args = 0, pretend = 0, frame = 8
	@ frame_needed = 0, uses_anonymous_args = 0
	str	lr, [sp, #-4]!
.LCFI151:
	.cfi_def_cfa_offset 4
	sub	sp, sp, #12
.LCFI152:
	.cfi_def_cfa_offset 16
	str	r0, [sp, #4]
	str	r1, [sp, #0]
	.loc 19 594 0
	ldr	r0, [sp, #4]
	ldr	r1, [sp, #0]
	.cfi_offset 14, -4
	bl	_ZN8CIwArrayIi12CIwAllocatorIi15CIwMallocRouterIiEE17ReallocateDefaultIiS3_EE9push_backERKi
	mov	r3, r0
	mov	r0, r3
	add	sp, sp, #12
	ldmfd	sp!, {pc}
	.cfi_endproc
.LFE3592:
	.size	_ZN8CIwArrayIi12CIwAllocatorIi15CIwMallocRouterIiEE17ReallocateDefaultIiS3_EE6appendERKi, .-_ZN8CIwArrayIi12CIwAllocatorIi15CIwMallocRouterIiEE17ReallocateDefaultIiS3_EE6appendERKi
	.section	.text._ZN4_STLlsINS_11char_traitsIcEEEERNS_13basic_ostreamIcT_EES6_PKc,"axG",%progbits,_ZN4_STLlsINS_11char_traitsIcEEEERNS_13basic_ostreamIcT_EES6_PKc,comdat
	.align	2
	.weak	_ZN4_STLlsINS_11char_traitsIcEEEERNS_13basic_ostreamIcT_EES6_PKc
	.hidden	_ZN4_STLlsINS_11char_traitsIcEEEERNS_13basic_ostreamIcT_EES6_PKc
	.type	_ZN4_STLlsINS_11char_traitsIcEEEERNS_13basic_ostreamIcT_EES6_PKc, %function
_ZN4_STLlsINS_11char_traitsIcEEEERNS_13basic_ostreamIcT_EES6_PKc:
.LFB3593:
	.file 22 "c:/marmalade/6.2/s3e/h/std/c++/stl/_ostream.h"
	.loc 22 307 0
	.cfi_startproc
	@ args = 0, pretend = 0, frame = 8
	@ frame_needed = 0, uses_anonymous_args = 0
	str	lr, [sp, #-4]!
.LCFI153:
	.cfi_def_cfa_offset 4
	sub	sp, sp, #12
.LCFI154:
	.cfi_def_cfa_offset 16
	str	r0, [sp, #4]
	str	r1, [sp, #0]
	.loc 22 308 0
	ldr	r0, [sp, #4]
	ldr	r1, [sp, #0]
	.cfi_offset 14, -4
	bl	_ZN4_STL13basic_ostreamIcNS_11char_traitsIcEEE14_M_put_nowidenEPKc
	.loc 22 309 0
	ldr	r3, [sp, #4]
	.loc 22 310 0
	mov	r0, r3
	add	sp, sp, #12
	ldmfd	sp!, {pc}
	.cfi_endproc
.LFE3593:
	.size	_ZN4_STLlsINS_11char_traitsIcEEEERNS_13basic_ostreamIcT_EES6_PKc, .-_ZN4_STLlsINS_11char_traitsIcEEEERNS_13basic_ostreamIcT_EES6_PKc
	.section	.text._ZN4_STL4endlIcNS_11char_traitsIcEEEERNS_13basic_ostreamIT_T0_EES7_,"axG",%progbits,_ZN4_STL4endlIcNS_11char_traitsIcEEEERNS_13basic_ostreamIT_T0_EES7_,comdat
	.align	2
	.weak	_ZN4_STL4endlIcNS_11char_traitsIcEEEERNS_13basic_ostreamIT_T0_EES7_
	.hidden	_ZN4_STL4endlIcNS_11char_traitsIcEEEERNS_13basic_ostreamIT_T0_EES7_
	.type	_ZN4_STL4endlIcNS_11char_traitsIcEEEERNS_13basic_ostreamIT_T0_EES7_, %function
_ZN4_STL4endlIcNS_11char_traitsIcEEEERNS_13basic_ostreamIT_T0_EES7_:
.LFB3594:
	.loc 22 332 0
	.cfi_startproc
	@ args = 0, pretend = 0, frame = 8
	@ frame_needed = 0, uses_anonymous_args = 0
	str	lr, [sp, #-4]!
.LCFI155:
	.cfi_def_cfa_offset 4
	sub	sp, sp, #12
.LCFI156:
	.cfi_def_cfa_offset 16
	str	r0, [sp, #4]
	.loc 22 333 0
	ldr	r2, [sp, #4]
	ldr	r3, [sp, #4]
	ldr	r3, [r3, #0]
	sub	r3, r3, #12
	ldr	r3, [r3, #0]
	add	r3, r2, r3
	mov	r0, r3
	mov	r1, #10
	.cfi_offset 14, -4
	bl	_ZNK4_STL9basic_iosIcNS_11char_traitsIcEEE5widenEc
	mov	r3, r0
	ldr	r0, [sp, #4]
	mov	r1, r3
	bl	_ZN4_STL13basic_ostreamIcNS_11char_traitsIcEEE3putEc
	.loc 22 334 0
	ldr	r0, [sp, #4]
	bl	_ZN4_STL13basic_ostreamIcNS_11char_traitsIcEEE5flushEv
	.loc 22 335 0
	ldr	r3, [sp, #4]
	.loc 22 336 0
	mov	r0, r3
	add	sp, sp, #12
	ldmfd	sp!, {pc}
	.cfi_endproc
.LFE3594:
	.size	_ZN4_STL4endlIcNS_11char_traitsIcEEEERNS_13basic_ostreamIT_T0_EES7_, .-_ZN4_STL4endlIcNS_11char_traitsIcEEEERNS_13basic_ostreamIT_T0_EES7_
	.section	.text._ZN4_STL13basic_ostreamIcNS_11char_traitsIcEEElsEPFRS3_S4_E,"axG",%progbits,_ZN4_STL13basic_ostreamIcNS_11char_traitsIcEEElsEPFRS3_S4_E,comdat
	.align	2
	.weak	_ZN4_STL13basic_ostreamIcNS_11char_traitsIcEEElsEPFRS3_S4_E
	.hidden	_ZN4_STL13basic_ostreamIcNS_11char_traitsIcEEElsEPFRS3_S4_E
	.type	_ZN4_STL13basic_ostreamIcNS_11char_traitsIcEEElsEPFRS3_S4_E, %function
_ZN4_STL13basic_ostreamIcNS_11char_traitsIcEEElsEPFRS3_S4_E:
.LFB3595:
	.loc 22 78 0
	.cfi_startproc
	@ args = 0, pretend = 0, frame = 8
	@ frame_needed = 0, uses_anonymous_args = 0
	str	lr, [sp, #-4]!
.LCFI157:
	.cfi_def_cfa_offset 4
	sub	sp, sp, #12
.LCFI158:
	.cfi_def_cfa_offset 16
	str	r0, [sp, #4]
	str	r1, [sp, #0]
	.loc 22 78 0
	ldr	r3, [sp, #0]
	ldr	r0, [sp, #4]
	.cfi_offset 14, -4
	blx	r3
	mov	r3, r0
	mov	r0, r3
	add	sp, sp, #12
	ldmfd	sp!, {pc}
	.cfi_endproc
.LFE3595:
	.size	_ZN4_STL13basic_ostreamIcNS_11char_traitsIcEEElsEPFRS3_S4_E, .-_ZN4_STL13basic_ostreamIcNS_11char_traitsIcEEElsEPFRS3_S4_E
	.section	.text._ZN8CIwArrayIi12CIwAllocatorIi15CIwMallocRouterIiEE17ReallocateDefaultIiS3_EE4swapERS6_,"axG",%progbits,_ZN8CIwArrayIi12CIwAllocatorIi15CIwMallocRouterIiEE17ReallocateDefaultIiS3_EE4swapERS6_,comdat
	.align	2
	.weak	_ZN8CIwArrayIi12CIwAllocatorIi15CIwMallocRouterIiEE17ReallocateDefaultIiS3_EE4swapERS6_
	.hidden	_ZN8CIwArrayIi12CIwAllocatorIi15CIwMallocRouterIiEE17ReallocateDefaultIiS3_EE4swapERS6_
	.type	_ZN8CIwArrayIi12CIwAllocatorIi15CIwMallocRouterIiEE17ReallocateDefaultIiS3_EE4swapERS6_, %function
_ZN8CIwArrayIi12CIwAllocatorIi15CIwMallocRouterIiEE17ReallocateDefaultIiS3_EE4swapERS6_:
.LFB3596:
	.loc 19 778 0
	.cfi_startproc
	@ args = 0, pretend = 0, frame = 24
	@ frame_needed = 0, uses_anonymous_args = 0
	@ link register save eliminated.
	sub	sp, sp, #24
.LCFI159:
	.cfi_def_cfa_offset 24
	str	r0, [sp, #4]
	str	r1, [sp, #0]
.LBB56:
	.loc 19 780 0
	ldr	r3, [sp, #4]
	ldr	r3, [r3, #0]
	str	r3, [sp, #8]
	.loc 19 781 0
	ldr	r3, [sp, #4]
	ldr	r3, [r3, #4]
	str	r3, [sp, #12]
	.loc 19 782 0
	ldr	r3, [sp, #4]
	ldr	r3, [r3, #8]
	str	r3, [sp, #16]
	.loc 19 783 0
	ldr	r3, [sp, #4]
	ldrb	r3, [r3, #12]
	and	r3, r3, #1
	strb	r3, [sp, #22]
	.loc 19 784 0
	ldr	r3, [sp, #4]
	ldrb	r3, [r3, #12]	@ zero_extendqisi2
	mov	r3, r3, lsr #1
	and	r3, r3, #1
	strb	r3, [sp, #23]
	.loc 19 786 0
	ldr	r3, [sp, #0]
	ldr	r2, [r3, #0]
	ldr	r3, [sp, #4]
	str	r2, [r3, #0]
	.loc 19 787 0
	ldr	r3, [sp, #0]
	ldr	r2, [r3, #4]
	ldr	r3, [sp, #4]
	str	r2, [r3, #4]
	.loc 19 788 0
	ldr	r3, [sp, #0]
	ldr	r2, [r3, #8]
	ldr	r3, [sp, #4]
	str	r2, [r3, #8]
	.loc 19 789 0
	ldr	r3, [sp, #0]
	ldrb	r3, [r3, #12]
	and	r3, r3, #1
	and	r1, r3, #255
	ldr	r2, [sp, #4]
	ldrb	r3, [r2, #12]
	and	r1, r1, #1
	bic	r3, r3, #1
	orr	r3, r1, r3
	strb	r3, [r2, #12]
	.loc 19 790 0
	ldr	r3, [sp, #0]
	ldrb	r3, [r3, #12]	@ zero_extendqisi2
	mov	r3, r3, lsr #1
	and	r3, r3, #1
	and	r2, r3, #255
	ldr	r1, [sp, #4]
	ldrb	r3, [r1, #12]
	and	r2, r2, #1
	bic	r3, r3, #2
	mov	r2, r2, asl #1
	orr	r3, r2, r3
	strb	r3, [r1, #12]
	.loc 19 792 0
	ldr	r3, [sp, #0]
	ldr	r2, [sp, #8]
	str	r2, [r3, #0]
	.loc 19 793 0
	ldr	r3, [sp, #0]
	ldr	r2, [sp, #12]
	str	r2, [r3, #4]
	.loc 19 794 0
	ldr	r3, [sp, #0]
	ldr	r2, [sp, #16]
	str	r2, [r3, #8]
	.loc 19 795 0
	ldr	r2, [sp, #0]
	ldrb	r3, [r2, #12]
	ldrb	r1, [sp, #22]
	and	r1, r1, #1
	bic	r3, r3, #1
	orr	r3, r1, r3
	strb	r3, [r2, #12]
	.loc 19 796 0
	ldr	r1, [sp, #0]
	ldrb	r3, [r1, #12]
	ldrb	r2, [sp, #23]
	and	r2, r2, #1
	bic	r3, r3, #2
	mov	r2, r2, asl #1
	orr	r3, r2, r3
	strb	r3, [r1, #12]
.LBE56:
	.loc 19 797 0
	add	sp, sp, #24
	bx	lr
	.cfi_endproc
.LFE3596:
	.size	_ZN8CIwArrayIi12CIwAllocatorIi15CIwMallocRouterIiEE17ReallocateDefaultIiS3_EE4swapERS6_, .-_ZN8CIwArrayIi12CIwAllocatorIi15CIwMallocRouterIiEE17ReallocateDefaultIiS3_EE4swapERS6_
	.section	.text._ZNK8CIwArrayIP3NPC12CIwAllocatorIS1_15CIwMallocRouterIS1_EE17ReallocateDefaultIS1_S5_EE4sizeEv,"axG",%progbits,_ZNK8CIwArrayIP3NPC12CIwAllocatorIS1_15CIwMallocRouterIS1_EE17ReallocateDefaultIS1_S5_EE4sizeEv,comdat
	.align	2
	.weak	_ZNK8CIwArrayIP3NPC12CIwAllocatorIS1_15CIwMallocRouterIS1_EE17ReallocateDefaultIS1_S5_EE4sizeEv
	.hidden	_ZNK8CIwArrayIP3NPC12CIwAllocatorIS1_15CIwMallocRouterIS1_EE17ReallocateDefaultIS1_S5_EE4sizeEv
	.type	_ZNK8CIwArrayIP3NPC12CIwAllocatorIS1_15CIwMallocRouterIS1_EE17ReallocateDefaultIS1_S5_EE4sizeEv, %function
_ZNK8CIwArrayIP3NPC12CIwAllocatorIS1_15CIwMallocRouterIS1_EE17ReallocateDefaultIS1_S5_EE4sizeEv:
.LFB3597:
	.loc 19 113 0
	.cfi_startproc
	@ args = 0, pretend = 0, frame = 8
	@ frame_needed = 0, uses_anonymous_args = 0
	@ link register save eliminated.
	sub	sp, sp, #8
.LCFI160:
	.cfi_def_cfa_offset 8
	str	r0, [sp, #4]
	.loc 19 113 0
	ldr	r3, [sp, #4]
	ldr	r3, [r3, #4]
	mov	r0, r3
	add	sp, sp, #8
	bx	lr
	.cfi_endproc
.LFE3597:
	.size	_ZNK8CIwArrayIP3NPC12CIwAllocatorIS1_15CIwMallocRouterIS1_EE17ReallocateDefaultIS1_S5_EE4sizeEv, .-_ZNK8CIwArrayIP3NPC12CIwAllocatorIS1_15CIwMallocRouterIS1_EE17ReallocateDefaultIS1_S5_EE4sizeEv
	.section	.text._ZNK8CIwArrayIP3NPC12CIwAllocatorIS1_15CIwMallocRouterIS1_EE17ReallocateDefaultIS1_S5_EEixEi,"axG",%progbits,_ZNK8CIwArrayIP3NPC12CIwAllocatorIS1_15CIwMallocRouterIS1_EE17ReallocateDefaultIS1_S5_EEixEi,comdat
	.align	2
	.weak	_ZNK8CIwArrayIP3NPC12CIwAllocatorIS1_15CIwMallocRouterIS1_EE17ReallocateDefaultIS1_S5_EEixEi
	.hidden	_ZNK8CIwArrayIP3NPC12CIwAllocatorIS1_15CIwMallocRouterIS1_EE17ReallocateDefaultIS1_S5_EEixEi
	.type	_ZNK8CIwArrayIP3NPC12CIwAllocatorIS1_15CIwMallocRouterIS1_EE17ReallocateDefaultIS1_S5_EEixEi, %function
_ZNK8CIwArrayIP3NPC12CIwAllocatorIS1_15CIwMallocRouterIS1_EE17ReallocateDefaultIS1_S5_EEixEi:
.LFB3598:
	.loc 19 694 0
	.cfi_startproc
	@ args = 0, pretend = 0, frame = 16
	@ frame_needed = 0, uses_anonymous_args = 0
	str	lr, [sp, #-4]!
.LCFI161:
	.cfi_def_cfa_offset 4
	sub	sp, sp, #20
.LCFI162:
	.cfi_def_cfa_offset 24
	str	r0, [sp, #4]
	str	r1, [sp, #0]
.LBB57:
	.loc 19 696 0
	ldr	r3, [sp, #0]
	str	r3, [sp, #12]
.LBB58:
	.loc 19 697 0
	ldr	r3, [sp, #0]
	cmp	r3, #0
	blt	.L467
	.cfi_offset 14, -4
	ldr	r3, [sp, #4]
	ldr	r2, [r3, #4]
	ldr	r3, [sp, #12]
	cmp	r2, r3
	bhi	.L468
.L467:
	ldr	r0, .L479
	bl	IwDebugAssertIsChannelOn
	mov	r3, r0
	cmp	r3, #0
	beq	.L468
	ldr	r3, .L479+4
	ldrb	r3, [r3, #0]	@ zero_extendqisi2
	cmp	r3, #0
	bne	.L468
	mov	r3, #1
	b	.L469
.L468:
	mov	r3, #0
.L469:
	cmp	r3, #0
	beq	.L470
	mov	r0, #0
	bl	IwDebugAssertSetSolution
	ldr	r0, .L479+8
	bl	IwDebugAssertSetUID
	ldr	r3, [sp, #4]
	ldr	r3, [r3, #4]
	ldr	r0, .L479+12
	ldr	r1, [sp, #0]
	mov	r2, r3
	bl	IwDebugAssertSetMessage
	ldr	r0, .L479+16
	ldr	r1, .L479+20
	ldr	r2, .L479+24
	mov	r3, #1
	bl	IwDebugAssertShow
	mov	r3, r0
	cmp	r3, #1
	beq	.L472
	cmp	r3, #2
	beq	.L473
	b	.L471
.L472:
	bl	s3eDebugIsDebuggerPresent
	mov	r3, r0
	cmp	r3, #0
	moveq	r3, #0
	movne	r3, #1
	and	r3, r3, #255
	cmp	r3, #0
	beq	.L474
	bl	s3eDebugIsDebuggerPresent
	mov	r3, r0
	cmp	r3, #0
	moveq	r3, #0
	movne	r3, #1
	and	r3, r3, #255
	cmp	r3, #0
	beq	.L478
	mvn	r3, #11
	mov	r2, #0
	str	r2, [r3, #0]
	b	.L471
.L474:
	bl	_ZL11IwDebugExitv
	b	.L471
.L473:
	ldr	r3, .L479+4
	mov	r2, #1
	strb	r2, [r3, #0]
	b	.L471
.L478:
	mov	r0, r0	@ nop
.L471:
	mov	r0, #0
	bl	IwDebugAssertSetUID
.L470:
.LBE58:
	.loc 19 698 0
	ldr	r3, [sp, #4]
	ldr	r2, [r3, #0]
	ldr	r3, [sp, #12]
	mov	r3, r3, asl #2
	add	r3, r2, r3
.LBE57:
	.loc 19 699 0
	mov	r0, r3
	add	sp, sp, #20
	ldmfd	sp!, {pc}
.L480:
	.align	2
.L479:
	.word	.LC48
	.word	_ZZNK8CIwArrayIP3NPC12CIwAllocatorIS1_15CIwMallocRouterIS1_EE17ReallocateDefaultIS1_S5_EEixEiE21_s_IwAssertIgnoreThis
	.word	1731
	.word	.LC49
	.word	.LC50
	.word	.LC51
	.word	697
	.cfi_endproc
.LFE3598:
	.size	_ZNK8CIwArrayIP3NPC12CIwAllocatorIS1_15CIwMallocRouterIS1_EE17ReallocateDefaultIS1_S5_EEixEi, .-_ZNK8CIwArrayIP3NPC12CIwAllocatorIS1_15CIwMallocRouterIS1_EE17ReallocateDefaultIS1_S5_EEixEi
	.section	.text._ZNK8CIwArrayIi12CIwAllocatorIi15CIwMallocRouterIiEE17ReallocateDefaultIiS3_EE5emptyEv,"axG",%progbits,_ZNK8CIwArrayIi12CIwAllocatorIi15CIwMallocRouterIiEE17ReallocateDefaultIiS3_EE5emptyEv,comdat
	.align	2
	.weak	_ZNK8CIwArrayIi12CIwAllocatorIi15CIwMallocRouterIiEE17ReallocateDefaultIiS3_EE5emptyEv
	.hidden	_ZNK8CIwArrayIi12CIwAllocatorIi15CIwMallocRouterIiEE17ReallocateDefaultIiS3_EE5emptyEv
	.type	_ZNK8CIwArrayIi12CIwAllocatorIi15CIwMallocRouterIiEE17ReallocateDefaultIiS3_EE5emptyEv, %function
_ZNK8CIwArrayIi12CIwAllocatorIi15CIwMallocRouterIiEE17ReallocateDefaultIiS3_EE5emptyEv:
.LFB3599:
	.loc 19 108 0
	.cfi_startproc
	@ args = 0, pretend = 0, frame = 8
	@ frame_needed = 0, uses_anonymous_args = 0
	@ link register save eliminated.
	sub	sp, sp, #8
.LCFI163:
	.cfi_def_cfa_offset 8
	str	r0, [sp, #4]
	.loc 19 108 0
	ldr	r3, [sp, #4]
	ldr	r3, [r3, #4]
	cmp	r3, #0
	movne	r3, #0
	moveq	r3, #1
	and	r3, r3, #255
	mov	r0, r3
	add	sp, sp, #8
	bx	lr
	.cfi_endproc
.LFE3599:
	.size	_ZNK8CIwArrayIi12CIwAllocatorIi15CIwMallocRouterIiEE17ReallocateDefaultIiS3_EE5emptyEv, .-_ZNK8CIwArrayIi12CIwAllocatorIi15CIwMallocRouterIiEE17ReallocateDefaultIiS3_EE5emptyEv
	.section	.text._ZNK8CIwArrayIi12CIwAllocatorIi15CIwMallocRouterIiEE17ReallocateDefaultIiS3_EE4findERKi,"axG",%progbits,_ZNK8CIwArrayIi12CIwAllocatorIi15CIwMallocRouterIiEE17ReallocateDefaultIiS3_EE4findERKi,comdat
	.align	2
	.weak	_ZNK8CIwArrayIi12CIwAllocatorIi15CIwMallocRouterIiEE17ReallocateDefaultIiS3_EE4findERKi
	.hidden	_ZNK8CIwArrayIi12CIwAllocatorIi15CIwMallocRouterIiEE17ReallocateDefaultIiS3_EE4findERKi
	.type	_ZNK8CIwArrayIi12CIwAllocatorIi15CIwMallocRouterIiEE17ReallocateDefaultIiS3_EE4findERKi, %function
_ZNK8CIwArrayIi12CIwAllocatorIi15CIwMallocRouterIiEE17ReallocateDefaultIiS3_EE4findERKi:
.LFB3600:
	.loc 19 308 0
	.cfi_startproc
	@ args = 0, pretend = 0, frame = 16
	@ frame_needed = 0, uses_anonymous_args = 0
	@ link register save eliminated.
	sub	sp, sp, #16
.LCFI164:
	.cfi_def_cfa_offset 16
	str	r0, [sp, #4]
	str	r1, [sp, #0]
.LBB59:
.LBB60:
	.loc 19 310 0
	mov	r3, #0
	str	r3, [sp, #12]
	b	.L484
.L487:
	.loc 19 311 0
	ldr	r3, [sp, #4]
	ldr	r2, [r3, #0]
	ldr	r3, [sp, #12]
	mov	r3, r3, asl #2
	add	r3, r2, r3
	ldr	r2, [r3, #0]
	ldr	r3, [sp, #0]
	ldr	r3, [r3, #0]
	cmp	r2, r3
	bne	.L485
	.loc 19 313 0
	ldr	r3, [sp, #12]
	b	.L486
.L485:
	.loc 19 310 0
	ldr	r3, [sp, #12]
	add	r3, r3, #1
	str	r3, [sp, #12]
.L484:
	ldr	r3, [sp, #4]
	ldr	r2, [r3, #4]
	ldr	r3, [sp, #12]
	cmp	r2, r3
	movls	r3, #0
	movhi	r3, #1
	and	r3, r3, #255
	cmp	r3, #0
	bne	.L487
.LBE60:
	.loc 19 315 0
	mvn	r3, #0
.L486:
.LBE59:
	.loc 19 316 0
	mov	r0, r3
	add	sp, sp, #16
	bx	lr
	.cfi_endproc
.LFE3600:
	.size	_ZNK8CIwArrayIi12CIwAllocatorIi15CIwMallocRouterIiEE17ReallocateDefaultIiS3_EE4findERKi, .-_ZNK8CIwArrayIi12CIwAllocatorIi15CIwMallocRouterIiEE17ReallocateDefaultIiS3_EE4findERKi
	.section	.text._ZNK8CIwArrayIi12CIwAllocatorIi15CIwMallocRouterIiEE17ReallocateDefaultIiS3_EE8containsERKi,"axG",%progbits,_ZNK8CIwArrayIi12CIwAllocatorIi15CIwMallocRouterIiEE17ReallocateDefaultIiS3_EE8containsERKi,comdat
	.align	2
	.weak	_ZNK8CIwArrayIi12CIwAllocatorIi15CIwMallocRouterIiEE17ReallocateDefaultIiS3_EE8containsERKi
	.hidden	_ZNK8CIwArrayIi12CIwAllocatorIi15CIwMallocRouterIiEE17ReallocateDefaultIiS3_EE8containsERKi
	.type	_ZNK8CIwArrayIi12CIwAllocatorIi15CIwMallocRouterIiEE17ReallocateDefaultIiS3_EE8containsERKi, %function
_ZNK8CIwArrayIi12CIwAllocatorIi15CIwMallocRouterIiEE17ReallocateDefaultIiS3_EE8containsERKi:
.LFB3601:
	.loc 19 323 0
	.cfi_startproc
	@ args = 0, pretend = 0, frame = 16
	@ frame_needed = 0, uses_anonymous_args = 0
	@ link register save eliminated.
	sub	sp, sp, #16
.LCFI165:
	.cfi_def_cfa_offset 16
	str	r0, [sp, #4]
	str	r1, [sp, #0]
.LBB61:
.LBB62:
	.loc 19 325 0
	mov	r3, #0
	str	r3, [sp, #12]
	b	.L490
.L493:
	.loc 19 326 0
	ldr	r3, [sp, #4]
	ldr	r2, [r3, #0]
	ldr	r3, [sp, #12]
	mov	r3, r3, asl #2
	add	r3, r2, r3
	ldr	r2, [r3, #0]
	ldr	r3, [sp, #0]
	ldr	r3, [r3, #0]
	cmp	r2, r3
	bne	.L491
	.loc 19 328 0
	mov	r3, #1
	b	.L492
.L491:
	.loc 19 325 0
	ldr	r3, [sp, #12]
	add	r3, r3, #1
	str	r3, [sp, #12]
.L490:
	ldr	r3, [sp, #4]
	ldr	r2, [r3, #4]
	ldr	r3, [sp, #12]
	cmp	r2, r3
	movls	r3, #0
	movhi	r3, #1
	and	r3, r3, #255
	cmp	r3, #0
	bne	.L493
.LBE62:
	.loc 19 330 0
	mov	r3, #0
.L492:
.LBE61:
	.loc 19 331 0
	mov	r0, r3
	add	sp, sp, #16
	bx	lr
	.cfi_endproc
.LFE3601:
	.size	_ZNK8CIwArrayIi12CIwAllocatorIi15CIwMallocRouterIiEE17ReallocateDefaultIiS3_EE8containsERKi, .-_ZNK8CIwArrayIi12CIwAllocatorIi15CIwMallocRouterIiEE17ReallocateDefaultIiS3_EE8containsERKi
	.section	.text._ZNK8CIwArrayI12TileObstacle12CIwAllocatorIS0_15CIwMallocRouterIS0_EE17ReallocateDefaultIS0_S4_EEixEi,"axG",%progbits,_ZNK8CIwArrayI12TileObstacle12CIwAllocatorIS0_15CIwMallocRouterIS0_EE17ReallocateDefaultIS0_S4_EEixEi,comdat
	.align	2
	.weak	_ZNK8CIwArrayI12TileObstacle12CIwAllocatorIS0_15CIwMallocRouterIS0_EE17ReallocateDefaultIS0_S4_EEixEi
	.hidden	_ZNK8CIwArrayI12TileObstacle12CIwAllocatorIS0_15CIwMallocRouterIS0_EE17ReallocateDefaultIS0_S4_EEixEi
	.type	_ZNK8CIwArrayI12TileObstacle12CIwAllocatorIS0_15CIwMallocRouterIS0_EE17ReallocateDefaultIS0_S4_EEixEi, %function
_ZNK8CIwArrayI12TileObstacle12CIwAllocatorIS0_15CIwMallocRouterIS0_EE17ReallocateDefaultIS0_S4_EEixEi:
.LFB3602:
	.loc 19 694 0
	.cfi_startproc
	@ args = 0, pretend = 0, frame = 16
	@ frame_needed = 0, uses_anonymous_args = 0
	str	lr, [sp, #-4]!
.LCFI166:
	.cfi_def_cfa_offset 4
	sub	sp, sp, #20
.LCFI167:
	.cfi_def_cfa_offset 24
	str	r0, [sp, #4]
	str	r1, [sp, #0]
.LBB63:
	.loc 19 696 0
	ldr	r3, [sp, #0]
	str	r3, [sp, #12]
.LBB64:
	.loc 19 697 0
	ldr	r3, [sp, #0]
	cmp	r3, #0
	blt	.L496
	.cfi_offset 14, -4
	ldr	r3, [sp, #4]
	ldr	r2, [r3, #4]
	ldr	r3, [sp, #12]
	cmp	r2, r3
	bhi	.L497
.L496:
	ldr	r0, .L508
	bl	IwDebugAssertIsChannelOn
	mov	r3, r0
	cmp	r3, #0
	beq	.L497
	ldr	r3, .L508+4
	ldrb	r3, [r3, #0]	@ zero_extendqisi2
	cmp	r3, #0
	bne	.L497
	mov	r3, #1
	b	.L498
.L497:
	mov	r3, #0
.L498:
	cmp	r3, #0
	beq	.L499
	mov	r0, #0
	bl	IwDebugAssertSetSolution
	ldr	r0, .L508+8
	bl	IwDebugAssertSetUID
	ldr	r3, [sp, #4]
	ldr	r3, [r3, #4]
	ldr	r0, .L508+12
	ldr	r1, [sp, #0]
	mov	r2, r3
	bl	IwDebugAssertSetMessage
	ldr	r0, .L508+16
	ldr	r1, .L508+20
	ldr	r2, .L508+24
	mov	r3, #1
	bl	IwDebugAssertShow
	mov	r3, r0
	cmp	r3, #1
	beq	.L501
	cmp	r3, #2
	beq	.L502
	b	.L500
.L501:
	bl	s3eDebugIsDebuggerPresent
	mov	r3, r0
	cmp	r3, #0
	moveq	r3, #0
	movne	r3, #1
	and	r3, r3, #255
	cmp	r3, #0
	beq	.L503
	bl	s3eDebugIsDebuggerPresent
	mov	r3, r0
	cmp	r3, #0
	moveq	r3, #0
	movne	r3, #1
	and	r3, r3, #255
	cmp	r3, #0
	beq	.L507
	mvn	r3, #11
	mov	r2, #0
	str	r2, [r3, #0]
	b	.L500
.L503:
	bl	_ZL11IwDebugExitv
	b	.L500
.L502:
	ldr	r3, .L508+4
	mov	r2, #1
	strb	r2, [r3, #0]
	b	.L500
.L507:
	mov	r0, r0	@ nop
.L500:
	mov	r0, #0
	bl	IwDebugAssertSetUID
.L499:
.LBE64:
	.loc 19 698 0
	ldr	r3, [sp, #4]
	ldr	r2, [r3, #0]
	ldr	r3, [sp, #12]
	mov	r1, #44
	mul	r3, r1, r3
	add	r3, r2, r3
.LBE63:
	.loc 19 699 0
	mov	r0, r3
	add	sp, sp, #20
	ldmfd	sp!, {pc}
.L509:
	.align	2
.L508:
	.word	.LC48
	.word	_ZZNK8CIwArrayI12TileObstacle12CIwAllocatorIS0_15CIwMallocRouterIS0_EE17ReallocateDefaultIS0_S4_EEixEiE21_s_IwAssertIgnoreThis
	.word	1731
	.word	.LC49
	.word	.LC50
	.word	.LC51
	.word	697
	.cfi_endproc
.LFE3602:
	.size	_ZNK8CIwArrayI12TileObstacle12CIwAllocatorIS0_15CIwMallocRouterIS0_EE17ReallocateDefaultIS0_S4_EEixEi, .-_ZNK8CIwArrayI12TileObstacle12CIwAllocatorIS0_15CIwMallocRouterIS0_EE17ReallocateDefaultIS0_S4_EEixEi
	.section	.text._ZNK8CIwArrayIPc12CIwAllocatorIS0_15CIwMallocRouterIS0_EE17ReallocateDefaultIS0_S4_EE4sizeEv,"axG",%progbits,_ZNK8CIwArrayIPc12CIwAllocatorIS0_15CIwMallocRouterIS0_EE17ReallocateDefaultIS0_S4_EE4sizeEv,comdat
	.align	2
	.weak	_ZNK8CIwArrayIPc12CIwAllocatorIS0_15CIwMallocRouterIS0_EE17ReallocateDefaultIS0_S4_EE4sizeEv
	.hidden	_ZNK8CIwArrayIPc12CIwAllocatorIS0_15CIwMallocRouterIS0_EE17ReallocateDefaultIS0_S4_EE4sizeEv
	.type	_ZNK8CIwArrayIPc12CIwAllocatorIS0_15CIwMallocRouterIS0_EE17ReallocateDefaultIS0_S4_EE4sizeEv, %function
_ZNK8CIwArrayIPc12CIwAllocatorIS0_15CIwMallocRouterIS0_EE17ReallocateDefaultIS0_S4_EE4sizeEv:
.LFB3603:
	.loc 19 113 0
	.cfi_startproc
	@ args = 0, pretend = 0, frame = 8
	@ frame_needed = 0, uses_anonymous_args = 0
	@ link register save eliminated.
	sub	sp, sp, #8
.LCFI168:
	.cfi_def_cfa_offset 8
	str	r0, [sp, #4]
	.loc 19 113 0
	ldr	r3, [sp, #4]
	ldr	r3, [r3, #4]
	mov	r0, r3
	add	sp, sp, #8
	bx	lr
	.cfi_endproc
.LFE3603:
	.size	_ZNK8CIwArrayIPc12CIwAllocatorIS0_15CIwMallocRouterIS0_EE17ReallocateDefaultIS0_S4_EE4sizeEv, .-_ZNK8CIwArrayIPc12CIwAllocatorIS0_15CIwMallocRouterIS0_EE17ReallocateDefaultIS0_S4_EE4sizeEv
	.section	.text._ZN4_STL13basic_ostreamIcNS_11char_traitsIcEEElsEi,"axG",%progbits,_ZN4_STL13basic_ostreamIcNS_11char_traitsIcEEElsEi,comdat
	.align	2
	.weak	_ZN4_STL13basic_ostreamIcNS_11char_traitsIcEEElsEi
	.hidden	_ZN4_STL13basic_ostreamIcNS_11char_traitsIcEEElsEi
	.type	_ZN4_STL13basic_ostreamIcNS_11char_traitsIcEEElsEi, %function
_ZN4_STL13basic_ostreamIcNS_11char_traitsIcEEElsEi:
.LFB3604:
	.loc 22 108 0
	.cfi_startproc
	@ args = 0, pretend = 0, frame = 8
	@ frame_needed = 0, uses_anonymous_args = 0
	str	lr, [sp, #-4]!
.LCFI169:
	.cfi_def_cfa_offset 4
	sub	sp, sp, #12
.LCFI170:
	.cfi_def_cfa_offset 16
	str	r0, [sp, #4]
	str	r1, [sp, #0]
	.loc 22 108 0
	ldr	r0, [sp, #4]
	ldr	r1, [sp, #0]
	.cfi_offset 14, -4
	bl	_ZN4_STL10_M_put_numIcNS_11char_traitsIcEElEERNS_13basic_ostreamIT_T0_EES7_T1_
	mov	r3, r0
	mov	r0, r3
	add	sp, sp, #12
	ldmfd	sp!, {pc}
	.cfi_endproc
.LFE3604:
	.size	_ZN4_STL13basic_ostreamIcNS_11char_traitsIcEEElsEi, .-_ZN4_STL13basic_ostreamIcNS_11char_traitsIcEEElsEi
	.section	.text._ZN12CIwAllocatorIi15CIwMallocRouterIiEE10deallocateEPij,"axG",%progbits,_ZN12CIwAllocatorIi15CIwMallocRouterIiEE10deallocateEPij,comdat
	.align	2
	.weak	_ZN12CIwAllocatorIi15CIwMallocRouterIiEE10deallocateEPij
	.hidden	_ZN12CIwAllocatorIi15CIwMallocRouterIiEE10deallocateEPij
	.type	_ZN12CIwAllocatorIi15CIwMallocRouterIiEE10deallocateEPij, %function
_ZN12CIwAllocatorIi15CIwMallocRouterIiEE10deallocateEPij:
.LFB3635:
	.file 23 "c:/marmalade/6.2/modules/iwutil/h/IwAllocator.h"
	.loc 23 147 0
	.cfi_startproc
	@ args = 0, pretend = 0, frame = 16
	@ frame_needed = 0, uses_anonymous_args = 0
	str	lr, [sp, #-4]!
.LCFI171:
	.cfi_def_cfa_offset 4
	sub	sp, sp, #20
.LCFI172:
	.cfi_def_cfa_offset 24
	str	r0, [sp, #12]
	str	r1, [sp, #8]
	str	r2, [sp, #4]
	.loc 23 147 0
	ldr	r0, [sp, #8]
	.cfi_offset 14, -4
	bl	_ZN15CIwMallocRouterIiE6DoFreeEPv
	add	sp, sp, #20
	ldmfd	sp!, {pc}
	.cfi_endproc
.LFE3635:
	.size	_ZN12CIwAllocatorIi15CIwMallocRouterIiEE10deallocateEPij, .-_ZN12CIwAllocatorIi15CIwMallocRouterIiEE10deallocateEPij
	.section	.text._ZN4_STL17_STLP_alloc_proxyIP8ObstacleS1_NS_9allocatorIS1_EEED1Ev,"axG",%progbits,_ZN4_STL17_STLP_alloc_proxyIP8ObstacleS1_NS_9allocatorIS1_EEED1Ev,comdat
	.align	2
	.weak	_ZN4_STL17_STLP_alloc_proxyIP8ObstacleS1_NS_9allocatorIS1_EEED1Ev
	.hidden	_ZN4_STL17_STLP_alloc_proxyIP8ObstacleS1_NS_9allocatorIS1_EEED1Ev
	.type	_ZN4_STL17_STLP_alloc_proxyIP8ObstacleS1_NS_9allocatorIS1_EEED1Ev, %function
_ZN4_STL17_STLP_alloc_proxyIP8ObstacleS1_NS_9allocatorIS1_EEED1Ev:
.LFB3641:
	.loc 20 481 0
	.cfi_startproc
	@ args = 0, pretend = 0, frame = 8
	@ frame_needed = 0, uses_anonymous_args = 0
	str	lr, [sp, #-4]!
.LCFI173:
	.cfi_def_cfa_offset 4
	sub	sp, sp, #12
.LCFI174:
	.cfi_def_cfa_offset 16
	str	r0, [sp, #4]
	.loc 20 481 0
	ldr	r3, [sp, #4]
	mov	r0, r3
	.cfi_offset 14, -4
	bl	_ZN4_STL9allocatorI8ObstacleED2Ev
	ldr	r3, [sp, #4]
	mov	r0, r3
	add	sp, sp, #12
	ldmfd	sp!, {pc}
	.cfi_endproc
.LFE3641:
	.size	_ZN4_STL17_STLP_alloc_proxyIP8ObstacleS1_NS_9allocatorIS1_EEED1Ev, .-_ZN4_STL17_STLP_alloc_proxyIP8ObstacleS1_NS_9allocatorIS1_EEED1Ev
	.section	.text._ZN4_STL12_Vector_baseI8ObstacleNS_9allocatorIS1_EEEC2ERKS3_,"axG",%progbits,_ZN4_STL12_Vector_baseI8ObstacleNS_9allocatorIS1_EEEC2ERKS3_,comdat
	.align	2
	.weak	_ZN4_STL12_Vector_baseI8ObstacleNS_9allocatorIS1_EEEC2ERKS3_
	.hidden	_ZN4_STL12_Vector_baseI8ObstacleNS_9allocatorIS1_EEEC2ERKS3_
	.type	_ZN4_STL12_Vector_baseI8ObstacleNS_9allocatorIS1_EEEC2ERKS3_, %function
_ZN4_STL12_Vector_baseI8ObstacleNS_9allocatorIS1_EEEC2ERKS3_:
.LFB3642:
	.loc 21 71 0
	.cfi_startproc
	@ args = 0, pretend = 0, frame = 8
	@ frame_needed = 0, uses_anonymous_args = 0
	str	lr, [sp, #-4]!
.LCFI175:
	.cfi_def_cfa_offset 4
	sub	sp, sp, #12
.LCFI176:
	.cfi_def_cfa_offset 16
	str	r0, [sp, #4]
	str	r1, [sp, #0]
	.loc 21 72 0
	ldr	r3, [sp, #4]
	mov	r2, #0
	str	r2, [r3, #0]
	ldr	r3, [sp, #4]
	mov	r2, #0
	str	r2, [r3, #4]
	ldr	r3, [sp, #4]
	add	r3, r3, #8
	mov	r0, r3
	ldr	r1, [sp, #0]
	mov	r2, #0
	.cfi_offset 14, -4
	bl	_ZN4_STL17_STLP_alloc_proxyIP8ObstacleS1_NS_9allocatorIS1_EEEC1ERKS4_S2_
	ldr	r3, [sp, #4]
	.loc 21 73 0
	mov	r0, r3
	add	sp, sp, #12
	ldmfd	sp!, {pc}
	.cfi_endproc
.LFE3642:
	.size	_ZN4_STL12_Vector_baseI8ObstacleNS_9allocatorIS1_EEEC2ERKS3_, .-_ZN4_STL12_Vector_baseI8ObstacleNS_9allocatorIS1_EEEC2ERKS3_
	.section	.text._ZN4_STL12_Vector_baseI8ObstacleNS_9allocatorIS1_EEED2Ev,"axG",%progbits,_ZN4_STL12_Vector_baseI8ObstacleNS_9allocatorIS1_EEED2Ev,comdat
	.align	2
	.weak	_ZN4_STL12_Vector_baseI8ObstacleNS_9allocatorIS1_EEED2Ev
	.hidden	_ZN4_STL12_Vector_baseI8ObstacleNS_9allocatorIS1_EEED2Ev
	.type	_ZN4_STL12_Vector_baseI8ObstacleNS_9allocatorIS1_EEED2Ev, %function
_ZN4_STL12_Vector_baseI8ObstacleNS_9allocatorIS1_EEED2Ev:
.LFB3645:
	.loc 21 83 0
	.cfi_startproc
	@ args = 0, pretend = 0, frame = 8
	@ frame_needed = 0, uses_anonymous_args = 0
	str	lr, [sp, #-4]!
.LCFI177:
	.cfi_def_cfa_offset 4
	sub	sp, sp, #12
.LCFI178:
	.cfi_def_cfa_offset 16
	str	r0, [sp, #4]
	.loc 21 84 0
	ldr	r3, [sp, #4]
	ldr	r3, [r3, #0]
	cmp	r3, #0
	beq	.L523
	.cfi_offset 14, -4
	.loc 21 85 0
	ldr	r3, [sp, #4]
	add	r3, r3, #8
	mov	r1, r3
	ldr	r3, [sp, #4]
	ldr	r2, [r3, #0]
	ldr	r3, [sp, #4]
	ldr	r3, [r3, #8]
	mov	r0, r3
	ldr	r3, [sp, #4]
	ldr	r3, [r3, #0]
	rsb	r3, r3, r0
	mov	r3, r3, asr #4
	mov	r0, r1
	mov	r1, r2
	mov	r2, r3
	bl	_ZN4_STL9allocatorI8ObstacleE10deallocateEPS1_j
.L523:
	ldr	r3, [sp, #4]
	add	r3, r3, #8
	mov	r0, r3
	bl	_ZN4_STL17_STLP_alloc_proxyIP8ObstacleS1_NS_9allocatorIS1_EEED1Ev
	ldr	r3, [sp, #4]
	.loc 21 86 0
	mov	r0, r3
	add	sp, sp, #12
	ldmfd	sp!, {pc}
	.cfi_endproc
.LFE3645:
	.size	_ZN4_STL12_Vector_baseI8ObstacleNS_9allocatorIS1_EEED2Ev, .-_ZN4_STL12_Vector_baseI8ObstacleNS_9allocatorIS1_EEED2Ev
	.section	.text._ZN4_STL8_DestroyIP8ObstacleEEvT_S3_,"axG",%progbits,_ZN4_STL8_DestroyIP8ObstacleEEvT_S3_,comdat
	.align	2
	.weak	_ZN4_STL8_DestroyIP8ObstacleEEvT_S3_
	.hidden	_ZN4_STL8_DestroyIP8ObstacleEEvT_S3_
	.type	_ZN4_STL8_DestroyIP8ObstacleEEvT_S3_, %function
_ZN4_STL8_DestroyIP8ObstacleEEvT_S3_:
.LFB3647:
	.file 24 "c:/marmalade/6.2/s3e/h/std/c++/stl/_construct.h"
	.loc 24 138 0
	.cfi_startproc
	@ args = 0, pretend = 0, frame = 8
	@ frame_needed = 0, uses_anonymous_args = 0
	str	lr, [sp, #-4]!
.LCFI179:
	.cfi_def_cfa_offset 4
	sub	sp, sp, #12
.LCFI180:
	.cfi_def_cfa_offset 16
	str	r0, [sp, #4]
	str	r1, [sp, #0]
	.loc 24 139 0
	ldr	r0, [sp, #4]
	ldr	r1, [sp, #0]
	mov	r2, #0
	.cfi_offset 14, -4
	bl	_ZN4_STL9__destroyIP8ObstacleS1_EEvT_S3_PT0_
	.loc 24 140 0
	add	sp, sp, #12
	ldmfd	sp!, {pc}
	.cfi_endproc
.LFE3647:
	.size	_ZN4_STL8_DestroyIP8ObstacleEEvT_S3_, .-_ZN4_STL8_DestroyIP8ObstacleEEvT_S3_
	.section	.text._ZN8CIwArrayIi12CIwAllocatorIi15CIwMallocRouterIiEE17ReallocateDefaultIiS3_EE6resizeEj,"axG",%progbits,_ZN8CIwArrayIi12CIwAllocatorIi15CIwMallocRouterIiEE17ReallocateDefaultIiS3_EE6resizeEj,comdat
	.align	2
	.weak	_ZN8CIwArrayIi12CIwAllocatorIi15CIwMallocRouterIiEE17ReallocateDefaultIiS3_EE6resizeEj
	.hidden	_ZN8CIwArrayIi12CIwAllocatorIi15CIwMallocRouterIiEE17ReallocateDefaultIiS3_EE6resizeEj
	.type	_ZN8CIwArrayIi12CIwAllocatorIi15CIwMallocRouterIiEE17ReallocateDefaultIiS3_EE6resizeEj, %function
_ZN8CIwArrayIi12CIwAllocatorIi15CIwMallocRouterIiEE17ReallocateDefaultIiS3_EE6resizeEj:
.LFB3648:
	.loc 19 292 0
	.cfi_startproc
	@ args = 0, pretend = 0, frame = 8
	@ frame_needed = 0, uses_anonymous_args = 0
	str	lr, [sp, #-4]!
.LCFI181:
	.cfi_def_cfa_offset 4
	sub	sp, sp, #12
.LCFI182:
	.cfi_def_cfa_offset 16
	str	r0, [sp, #4]
	str	r1, [sp, #0]
	.loc 19 294 0
	ldr	r3, [sp, #4]
	ldr	r2, [r3, #4]
	ldr	r3, [sp, #0]
	cmp	r2, r3
	bcc	.L529
	.cfi_offset 14, -4
	.loc 19 295 0
	ldr	r0, [sp, #4]
	ldr	r1, [sp, #0]
	bl	_ZN8CIwArrayIi12CIwAllocatorIi15CIwMallocRouterIiEE17ReallocateDefaultIiS3_EE8truncateEj
	b	.L531
.L529:
	.loc 19 297 0
	ldr	r3, [sp, #4]
	ldr	r3, [r3, #4]
	ldr	r2, [sp, #0]
	rsb	r3, r3, r2
	ldr	r0, [sp, #4]
	mov	r1, r3
	bl	_ZN8CIwArrayIi12CIwAllocatorIi15CIwMallocRouterIiEE17ReallocateDefaultIiS3_EE13push_back_qtyEi
.L531:
	.loc 19 298 0
	add	sp, sp, #12
	ldmfd	sp!, {pc}
	.cfi_endproc
.LFE3648:
	.size	_ZN8CIwArrayIi12CIwAllocatorIi15CIwMallocRouterIiEE17ReallocateDefaultIiS3_EE6resizeEj, .-_ZN8CIwArrayIi12CIwAllocatorIi15CIwMallocRouterIiEE17ReallocateDefaultIiS3_EE6resizeEj
	.section	.text._ZN8CIwArrayIi12CIwAllocatorIi15CIwMallocRouterIiEE17ReallocateDefaultIiS3_EE5clearEv,"axG",%progbits,_ZN8CIwArrayIi12CIwAllocatorIi15CIwMallocRouterIiEE17ReallocateDefaultIiS3_EE5clearEv,comdat
	.align	2
	.weak	_ZN8CIwArrayIi12CIwAllocatorIi15CIwMallocRouterIiEE17ReallocateDefaultIiS3_EE5clearEv
	.hidden	_ZN8CIwArrayIi12CIwAllocatorIi15CIwMallocRouterIiEE17ReallocateDefaultIiS3_EE5clearEv
	.type	_ZN8CIwArrayIi12CIwAllocatorIi15CIwMallocRouterIiEE17ReallocateDefaultIiS3_EE5clearEv, %function
_ZN8CIwArrayIi12CIwAllocatorIi15CIwMallocRouterIiEE17ReallocateDefaultIiS3_EE5clearEv:
.LFB3649:
	.loc 19 199 0
	.cfi_startproc
	@ args = 0, pretend = 0, frame = 8
	@ frame_needed = 0, uses_anonymous_args = 0
	str	lr, [sp, #-4]!
.LCFI183:
	.cfi_def_cfa_offset 4
	sub	sp, sp, #12
.LCFI184:
	.cfi_def_cfa_offset 16
	str	r0, [sp, #4]
	.loc 19 201 0
	ldr	r0, [sp, #4]
	mov	r1, #0
	.cfi_offset 14, -4
	bl	_ZN8CIwArrayIi12CIwAllocatorIi15CIwMallocRouterIiEE17ReallocateDefaultIiS3_EE8truncateEj
	.loc 19 202 0
	add	sp, sp, #12
	ldmfd	sp!, {pc}
	.cfi_endproc
.LFE3649:
	.size	_ZN8CIwArrayIi12CIwAllocatorIi15CIwMallocRouterIiEE17ReallocateDefaultIiS3_EE5clearEv, .-_ZN8CIwArrayIi12CIwAllocatorIi15CIwMallocRouterIiEE17ReallocateDefaultIiS3_EE5clearEv
	.section	.rodata
	.align	2
.LC52:
	.ascii	"q<=num_p\000"
	.section	.text._ZN8CIwArrayIi12CIwAllocatorIi15CIwMallocRouterIiEE17ReallocateDefaultIiS3_EE8truncateEj,"axG",%progbits,_ZN8CIwArrayIi12CIwAllocatorIi15CIwMallocRouterIiEE17ReallocateDefaultIiS3_EE8truncateEj,comdat
	.align	2
	.weak	_ZN8CIwArrayIi12CIwAllocatorIi15CIwMallocRouterIiEE17ReallocateDefaultIiS3_EE8truncateEj
	.hidden	_ZN8CIwArrayIi12CIwAllocatorIi15CIwMallocRouterIiEE17ReallocateDefaultIiS3_EE8truncateEj
	.type	_ZN8CIwArrayIi12CIwAllocatorIi15CIwMallocRouterIiEE17ReallocateDefaultIiS3_EE8truncateEj, %function
_ZN8CIwArrayIi12CIwAllocatorIi15CIwMallocRouterIiEE17ReallocateDefaultIiS3_EE8truncateEj:
.LFB3650:
	.loc 19 765 0
	.cfi_startproc
	@ args = 0, pretend = 0, frame = 16
	@ frame_needed = 0, uses_anonymous_args = 0
	str	lr, [sp, #-4]!
.LCFI185:
	.cfi_def_cfa_offset 4
	sub	sp, sp, #20
.LCFI186:
	.cfi_def_cfa_offset 24
	str	r0, [sp, #4]
	str	r1, [sp, #0]
.LBB65:
.LBB66:
	.loc 19 767 0
	ldr	r3, [sp, #4]
	ldr	r2, [r3, #4]
	ldr	r3, [sp, #0]
	cmp	r2, r3
	bcs	.L535
	.cfi_offset 14, -4
	ldr	r0, .L548
	bl	IwDebugAssertIsChannelOn
	mov	r3, r0
	cmp	r3, #0
	beq	.L535
	ldr	r3, .L548+4
	ldrb	r3, [r3, #0]	@ zero_extendqisi2
	cmp	r3, #0
	bne	.L535
	mov	r3, #1
	b	.L536
.L535:
	mov	r3, #0
.L536:
	cmp	r3, #0
	beq	.L537
	mov	r0, #0
	bl	IwDebugAssertSetSolution
	mov	r0, #0
	bl	IwDebugAssertSetUID
	mov	r0, #0
	bl	IwDebugAssertSetMessage
	ldr	r0, .L548+8
	ldr	r1, .L548+12
	ldr	r2, .L548+16
	mov	r3, #1
	bl	IwDebugAssertShow
	mov	r3, r0
	cmp	r3, #1
	beq	.L539
	cmp	r3, #2
	beq	.L540
	b	.L538
.L539:
	bl	s3eDebugIsDebuggerPresent
	mov	r3, r0
	cmp	r3, #0
	moveq	r3, #0
	movne	r3, #1
	and	r3, r3, #255
	cmp	r3, #0
	beq	.L541
	bl	s3eDebugIsDebuggerPresent
	mov	r3, r0
	cmp	r3, #0
	moveq	r3, #0
	movne	r3, #1
	and	r3, r3, #255
	cmp	r3, #0
	beq	.L547
	mvn	r3, #11
	mov	r2, #0
	str	r2, [r3, #0]
	b	.L538
.L541:
	bl	_ZL11IwDebugExitv
	b	.L538
.L540:
	ldr	r3, .L548+4
	mov	r2, #1
	strb	r2, [r3, #0]
	b	.L538
.L547:
	mov	r0, r0	@ nop
.L538:
	mov	r0, #0
	bl	IwDebugAssertSetUID
.L537:
.LBE66:
.LBB67:
	.loc 19 769 0
	ldr	r3, [sp, #0]
	str	r3, [sp, #12]
	b	.L544
.L545:
	ldr	r3, [sp, #12]
	add	r3, r3, #1
	str	r3, [sp, #12]
.L544:
	ldr	r3, [sp, #4]
	ldr	r2, [r3, #4]
	ldr	r3, [sp, #12]
	cmp	r2, r3
	movls	r3, #0
	movhi	r3, #1
	and	r3, r3, #255
	cmp	r3, #0
	bne	.L545
.LBE67:
	.loc 19 771 0
	ldr	r3, [sp, #4]
	ldr	r2, [sp, #0]
	str	r2, [r3, #4]
.LBE65:
	.loc 19 772 0
	add	sp, sp, #20
	ldmfd	sp!, {pc}
.L549:
	.align	2
.L548:
	.word	.LC48
	.word	_ZZN8CIwArrayIi12CIwAllocatorIi15CIwMallocRouterIiEE17ReallocateDefaultIiS3_EE8truncateEjE21_s_IwAssertIgnoreThis
	.word	.LC52
	.word	.LC51
	.word	767
	.cfi_endproc
.LFE3650:
	.size	_ZN8CIwArrayIi12CIwAllocatorIi15CIwMallocRouterIiEE17ReallocateDefaultIiS3_EE8truncateEj, .-_ZN8CIwArrayIi12CIwAllocatorIi15CIwMallocRouterIiEE17ReallocateDefaultIiS3_EE8truncateEj
	.section	.rodata
	.align	2
.LC53:
	.ascii	"Attempting to change capacity of an array that does"
	.ascii	"n't own its data allocation.\000"
	.align	2
.LC54:
	.ascii	"!block_delete\000"
	.align	2
.LC55:
	.ascii	"Attempting to expand an array that has its size loc"
	.ascii	"ked.\000"
	.align	2
.LC56:
	.ascii	"!no_grow || q <= max_p\000"
	.align	2
.LC57:
	.ascii	"q>=num_p\000"
	.section	.text._ZN8CIwArrayIi12CIwAllocatorIi15CIwMallocRouterIiEE17ReallocateDefaultIiS3_EE12set_capacityEj,"axG",%progbits,_ZN8CIwArrayIi12CIwAllocatorIi15CIwMallocRouterIiEE17ReallocateDefaultIiS3_EE12set_capacityEj,comdat
	.align	2
	.weak	_ZN8CIwArrayIi12CIwAllocatorIi15CIwMallocRouterIiEE17ReallocateDefaultIiS3_EE12set_capacityEj
	.hidden	_ZN8CIwArrayIi12CIwAllocatorIi15CIwMallocRouterIiEE17ReallocateDefaultIiS3_EE12set_capacityEj
	.type	_ZN8CIwArrayIi12CIwAllocatorIi15CIwMallocRouterIiEE17ReallocateDefaultIiS3_EE12set_capacityEj, %function
_ZN8CIwArrayIi12CIwAllocatorIi15CIwMallocRouterIiEE17ReallocateDefaultIiS3_EE12set_capacityEj:
.LFB3651:
	.loc 19 804 0
	.cfi_startproc
	@ args = 0, pretend = 0, frame = 8
	@ frame_needed = 0, uses_anonymous_args = 0
	str	lr, [sp, #-4]!
.LCFI187:
	.cfi_def_cfa_offset 4
	sub	sp, sp, #20
.LCFI188:
	.cfi_def_cfa_offset 24
	str	r0, [sp, #12]
	str	r1, [sp, #8]
.LBB68:
.LBB69:
	.loc 19 806 0
	ldr	r3, [sp, #12]
	ldrb	r3, [r3, #12]
	and	r3, r3, #1
	and	r3, r3, #255
	cmp	r3, #0
	beq	.L551
	.cfi_offset 14, -4
	ldr	r0, .L588
	bl	IwDebugAssertIsChannelOn
	mov	r3, r0
	cmp	r3, #0
	beq	.L552
	ldr	r3, .L588+4
	ldrb	r3, [r3, #0]	@ zero_extendqisi2
	cmp	r3, #0
	bne	.L552
	mov	r3, #1
	b	.L553
.L552:
	mov	r3, #0
.L553:
	cmp	r3, #0
	beq	.L583
	ldr	r0, .L588+8
	bl	IwDebugAssertSetUID
	ldr	r0, .L588+12
	bl	IwDebugAssertSetMessage
	ldr	r0, .L588+16
	ldr	r1, .L588+20
	ldr	r2, .L588+24
	mov	r3, #1
	bl	IwDebugAssertShow
	mov	r3, r0
	cmp	r3, #1
	beq	.L556
	cmp	r3, #2
	beq	.L557
	b	.L555
.L556:
	bl	s3eDebugIsDebuggerPresent
	mov	r3, r0
	cmp	r3, #0
	moveq	r3, #0
	movne	r3, #1
	and	r3, r3, #255
	cmp	r3, #0
	beq	.L558
	bl	s3eDebugIsDebuggerPresent
	mov	r3, r0
	cmp	r3, #0
	moveq	r3, #0
	movne	r3, #1
	and	r3, r3, #255
	cmp	r3, #0
	beq	.L584
	mvn	r3, #11
	mov	r2, #0
	str	r2, [r3, #0]
	b	.L555
.L558:
	bl	_ZL11IwDebugExitv
	b	.L555
.L557:
	ldr	r3, .L588+4
	mov	r2, #1
	strb	r2, [r3, #0]
	b	.L555
.L584:
	mov	r0, r0	@ nop
.L555:
	mov	r0, #0
	bl	IwDebugAssertSetUID
	b	.L582
.L551:
.LBE69:
.LBB70:
	.loc 19 807 0
	ldr	r3, [sp, #12]
	ldrb	r3, [r3, #12]	@ zero_extendqisi2
	mov	r3, r3, lsr #1
	and	r3, r3, #1
	and	r3, r3, #255
	cmp	r3, #0
	beq	.L562
	ldr	r3, [sp, #12]
	ldr	r2, [r3, #8]
	ldr	r3, [sp, #8]
	cmp	r2, r3
	bcs	.L562
	ldr	r0, .L588
	bl	IwDebugAssertIsChannelOn
	mov	r3, r0
	cmp	r3, #0
	beq	.L562
	ldr	r3, .L588+28
	ldrb	r3, [r3, #0]	@ zero_extendqisi2
	cmp	r3, #0
	bne	.L562
	mov	r3, #1
	b	.L563
.L562:
	mov	r3, #0
.L563:
	cmp	r3, #0
	beq	.L564
	mov	r0, #0
	bl	IwDebugAssertSetSolution
	ldr	r0, .L588+32
	bl	IwDebugAssertSetUID
	ldr	r0, .L588+36
	bl	IwDebugAssertSetMessage
	ldr	r0, .L588+40
	ldr	r1, .L588+20
	ldr	r2, .L588+44
	mov	r3, #1
	bl	IwDebugAssertShow
	mov	r3, r0
	cmp	r3, #1
	beq	.L566
	cmp	r3, #2
	beq	.L567
	b	.L565
.L566:
	bl	s3eDebugIsDebuggerPresent
	mov	r3, r0
	cmp	r3, #0
	moveq	r3, #0
	movne	r3, #1
	and	r3, r3, #255
	cmp	r3, #0
	beq	.L568
	bl	s3eDebugIsDebuggerPresent
	mov	r3, r0
	cmp	r3, #0
	moveq	r3, #0
	movne	r3, #1
	and	r3, r3, #255
	cmp	r3, #0
	beq	.L585
	mvn	r3, #11
	mov	r2, #0
	str	r2, [r3, #0]
	b	.L565
.L568:
	bl	_ZL11IwDebugExitv
	b	.L565
.L567:
	ldr	r3, .L588+28
	mov	r2, #1
	strb	r2, [r3, #0]
	b	.L565
.L585:
	mov	r0, r0	@ nop
.L565:
	mov	r0, #0
	bl	IwDebugAssertSetUID
.L564:
.LBE70:
.LBB71:
	.loc 19 808 0
	ldr	r3, [sp, #12]
	ldr	r2, [r3, #4]
	ldr	r3, [sp, #8]
	cmp	r2, r3
	bls	.L571
	ldr	r0, .L588
	bl	IwDebugAssertIsChannelOn
	mov	r3, r0
	cmp	r3, #0
	beq	.L571
	ldr	r3, .L588+48
	ldrb	r3, [r3, #0]	@ zero_extendqisi2
	cmp	r3, #0
	bne	.L571
	mov	r3, #1
	b	.L572
.L571:
	mov	r3, #0
.L572:
	cmp	r3, #0
	beq	.L573
	mov	r0, #0
	bl	IwDebugAssertSetSolution
	mov	r0, #0
	bl	IwDebugAssertSetUID
	mov	r0, #0
	bl	IwDebugAssertSetMessage
	ldr	r0, .L588+52
	ldr	r1, .L588+20
	mov	r2, #808
	mov	r3, #1
	bl	IwDebugAssertShow
	mov	r3, r0
	cmp	r3, #1
	beq	.L575
	cmp	r3, #2
	beq	.L576
	b	.L574
.L575:
	bl	s3eDebugIsDebuggerPresent
	mov	r3, r0
	cmp	r3, #0
	moveq	r3, #0
	movne	r3, #1
	and	r3, r3, #255
	cmp	r3, #0
	beq	.L577
	bl	s3eDebugIsDebuggerPresent
	mov	r3, r0
	cmp	r3, #0
	moveq	r3, #0
	movne	r3, #1
	and	r3, r3, #255
	cmp	r3, #0
	beq	.L586
	mvn	r3, #11
	mov	r2, #0
	str	r2, [r3, #0]
	b	.L574
.L577:
	bl	_ZL11IwDebugExitv
	b	.L574
.L576:
	ldr	r3, .L588+48
	mov	r2, #1
	strb	r2, [r3, #0]
	b	.L574
.L586:
	mov	r0, r0	@ nop
.L574:
	mov	r0, #0
	bl	IwDebugAssertSetUID
.L573:
.LBE71:
	.loc 19 809 0
	ldr	r3, [sp, #12]
	ldr	r2, [r3, #8]
	ldr	r3, [sp, #8]
	cmp	r2, r3
	beq	.L587
.L580:
	.loc 19 810 0
	ldr	r3, [sp, #12]
	ldr	r2, [sp, #8]
	str	r2, [r3, #8]
	.loc 19 811 0
	ldr	r3, [sp, #8]
	cmp	r3, #0
	bne	.L581
	.loc 19 813 0
	ldr	r3, [sp, #12]
	add	r1, r3, #13
	ldr	r3, [sp, #12]
	ldr	r2, [r3, #0]
	ldr	r3, [sp, #12]
	ldr	r3, [r3, #8]
	mov	r0, r1
	mov	r1, r2
	mov	r2, r3
	bl	_ZN12CIwAllocatorIi15CIwMallocRouterIiEE10deallocateEPij
	.loc 19 814 0
	ldr	r3, [sp, #12]
	mov	r2, #0
	str	r2, [r3, #0]
	b	.L582
.L581:
	.loc 19 818 0
	ldr	r3, [sp, #12]
	ldr	r1, [r3, #4]
	ldr	r3, [sp, #12]
	ldr	r2, [r3, #8]
	ldr	r3, [sp, #12]
	ldr	r3, [r3, #0]
	ldr	r0, [sp, #12]
	add	r0, r0, #13
	str	r0, [sp, #0]
	ldr	r0, [sp, #8]
	bl	_ZN17ReallocateDefaultIi12CIwAllocatorIi15CIwMallocRouterIiEEE10ReallocateEjjjPiRS3_
	mov	r2, r0
	ldr	r3, [sp, #12]
	str	r2, [r3, #0]
	b	.L582
.L583:
.LBB72:
	.loc 19 806 0
	mov	r0, r0	@ nop
	b	.L582
.L587:
.LBE72:
	.loc 19 809 0
	mov	r0, r0	@ nop
.L582:
.LBE68:
	.loc 19 820 0
	add	sp, sp, #20
	ldmfd	sp!, {pc}
.L589:
	.align	2
.L588:
	.word	.LC48
	.word	_ZZN8CIwArrayIi12CIwAllocatorIi15CIwMallocRouterIiEE17ReallocateDefaultIiS3_EE12set_capacityEjE21_s_IwAssertIgnoreThis
	.word	1733
	.word	.LC53
	.word	.LC54
	.word	.LC51
	.word	806
	.word	_ZZN8CIwArrayIi12CIwAllocatorIi15CIwMallocRouterIiEE17ReallocateDefaultIiS3_EE12set_capacityEjE21_s_IwAssertIgnoreThis_0
	.word	1732
	.word	.LC55
	.word	.LC56
	.word	807
	.word	_ZZN8CIwArrayIi12CIwAllocatorIi15CIwMallocRouterIiEE17ReallocateDefaultIiS3_EE12set_capacityEjE21_s_IwAssertIgnoreThis_1
	.word	.LC57
	.cfi_endproc
.LFE3651:
	.size	_ZN8CIwArrayIi12CIwAllocatorIi15CIwMallocRouterIiEE17ReallocateDefaultIiS3_EE12set_capacityEj, .-_ZN8CIwArrayIi12CIwAllocatorIi15CIwMallocRouterIiEE17ReallocateDefaultIiS3_EE12set_capacityEj
	.section	.text._ZN8CIwArrayI8TileUnit12CIwAllocatorIS0_15CIwMallocRouterIS0_EE17ReallocateDefaultIS0_S4_EE6resizeEj,"axG",%progbits,_ZN8CIwArrayI8TileUnit12CIwAllocatorIS0_15CIwMallocRouterIS0_EE17ReallocateDefaultIS0_S4_EE6resizeEj,comdat
	.align	2
	.weak	_ZN8CIwArrayI8TileUnit12CIwAllocatorIS0_15CIwMallocRouterIS0_EE17ReallocateDefaultIS0_S4_EE6resizeEj
	.hidden	_ZN8CIwArrayI8TileUnit12CIwAllocatorIS0_15CIwMallocRouterIS0_EE17ReallocateDefaultIS0_S4_EE6resizeEj
	.type	_ZN8CIwArrayI8TileUnit12CIwAllocatorIS0_15CIwMallocRouterIS0_EE17ReallocateDefaultIS0_S4_EE6resizeEj, %function
_ZN8CIwArrayI8TileUnit12CIwAllocatorIS0_15CIwMallocRouterIS0_EE17ReallocateDefaultIS0_S4_EE6resizeEj:
.LFB3652:
	.loc 19 292 0
	.cfi_startproc
	@ args = 0, pretend = 0, frame = 8
	@ frame_needed = 0, uses_anonymous_args = 0
	str	lr, [sp, #-4]!
.LCFI189:
	.cfi_def_cfa_offset 4
	sub	sp, sp, #12
.LCFI190:
	.cfi_def_cfa_offset 16
	str	r0, [sp, #4]
	str	r1, [sp, #0]
	.loc 19 294 0
	ldr	r3, [sp, #4]
	ldr	r2, [r3, #4]
	ldr	r3, [sp, #0]
	cmp	r2, r3
	bcc	.L591
	.cfi_offset 14, -4
	.loc 19 295 0
	ldr	r0, [sp, #4]
	ldr	r1, [sp, #0]
	bl	_ZN8CIwArrayI8TileUnit12CIwAllocatorIS0_15CIwMallocRouterIS0_EE17ReallocateDefaultIS0_S4_EE8truncateEj
	b	.L593
.L591:
	.loc 19 297 0
	ldr	r3, [sp, #4]
	ldr	r3, [r3, #4]
	ldr	r2, [sp, #0]
	rsb	r3, r3, r2
	ldr	r0, [sp, #4]
	mov	r1, r3
	bl	_ZN8CIwArrayI8TileUnit12CIwAllocatorIS0_15CIwMallocRouterIS0_EE17ReallocateDefaultIS0_S4_EE13push_back_qtyEi
.L593:
	.loc 19 298 0
	add	sp, sp, #12
	ldmfd	sp!, {pc}
	.cfi_endproc
.LFE3652:
	.size	_ZN8CIwArrayI8TileUnit12CIwAllocatorIS0_15CIwMallocRouterIS0_EE17ReallocateDefaultIS0_S4_EE6resizeEj, .-_ZN8CIwArrayI8TileUnit12CIwAllocatorIS0_15CIwMallocRouterIS0_EE17ReallocateDefaultIS0_S4_EE6resizeEj
	.section	.text._ZN8CIwArrayI8TileUnit12CIwAllocatorIS0_15CIwMallocRouterIS0_EE17ReallocateDefaultIS0_S4_EE5clearEv,"axG",%progbits,_ZN8CIwArrayI8TileUnit12CIwAllocatorIS0_15CIwMallocRouterIS0_EE17ReallocateDefaultIS0_S4_EE5clearEv,comdat
	.align	2
	.weak	_ZN8CIwArrayI8TileUnit12CIwAllocatorIS0_15CIwMallocRouterIS0_EE17ReallocateDefaultIS0_S4_EE5clearEv
	.hidden	_ZN8CIwArrayI8TileUnit12CIwAllocatorIS0_15CIwMallocRouterIS0_EE17ReallocateDefaultIS0_S4_EE5clearEv
	.type	_ZN8CIwArrayI8TileUnit12CIwAllocatorIS0_15CIwMallocRouterIS0_EE17ReallocateDefaultIS0_S4_EE5clearEv, %function
_ZN8CIwArrayI8TileUnit12CIwAllocatorIS0_15CIwMallocRouterIS0_EE17ReallocateDefaultIS0_S4_EE5clearEv:
.LFB3653:
	.loc 19 199 0
	.cfi_startproc
	@ args = 0, pretend = 0, frame = 8
	@ frame_needed = 0, uses_anonymous_args = 0
	str	lr, [sp, #-4]!
.LCFI191:
	.cfi_def_cfa_offset 4
	sub	sp, sp, #12
.LCFI192:
	.cfi_def_cfa_offset 16
	str	r0, [sp, #4]
	.loc 19 201 0
	ldr	r0, [sp, #4]
	mov	r1, #0
	.cfi_offset 14, -4
	bl	_ZN8CIwArrayI8TileUnit12CIwAllocatorIS0_15CIwMallocRouterIS0_EE17ReallocateDefaultIS0_S4_EE8truncateEj
	.loc 19 202 0
	add	sp, sp, #12
	ldmfd	sp!, {pc}
	.cfi_endproc
.LFE3653:
	.size	_ZN8CIwArrayI8TileUnit12CIwAllocatorIS0_15CIwMallocRouterIS0_EE17ReallocateDefaultIS0_S4_EE5clearEv, .-_ZN8CIwArrayI8TileUnit12CIwAllocatorIS0_15CIwMallocRouterIS0_EE17ReallocateDefaultIS0_S4_EE5clearEv
	.section	.text._ZN12CIwAllocatorI8TileUnit15CIwMallocRouterIS0_EE10deallocateEPS0_j,"axG",%progbits,_ZN12CIwAllocatorI8TileUnit15CIwMallocRouterIS0_EE10deallocateEPS0_j,comdat
	.align	2
	.weak	_ZN12CIwAllocatorI8TileUnit15CIwMallocRouterIS0_EE10deallocateEPS0_j
	.hidden	_ZN12CIwAllocatorI8TileUnit15CIwMallocRouterIS0_EE10deallocateEPS0_j
	.type	_ZN12CIwAllocatorI8TileUnit15CIwMallocRouterIS0_EE10deallocateEPS0_j, %function
_ZN12CIwAllocatorI8TileUnit15CIwMallocRouterIS0_EE10deallocateEPS0_j:
.LFB3654:
	.loc 23 147 0
	.cfi_startproc
	@ args = 0, pretend = 0, frame = 16
	@ frame_needed = 0, uses_anonymous_args = 0
	str	lr, [sp, #-4]!
.LCFI193:
	.cfi_def_cfa_offset 4
	sub	sp, sp, #20
.LCFI194:
	.cfi_def_cfa_offset 24
	str	r0, [sp, #12]
	str	r1, [sp, #8]
	str	r2, [sp, #4]
	.loc 23 147 0
	ldr	r0, [sp, #8]
	.cfi_offset 14, -4
	bl	_ZN15CIwMallocRouterI8TileUnitE6DoFreeEPv
	add	sp, sp, #20
	ldmfd	sp!, {pc}
	.cfi_endproc
.LFE3654:
	.size	_ZN12CIwAllocatorI8TileUnit15CIwMallocRouterIS0_EE10deallocateEPS0_j, .-_ZN12CIwAllocatorI8TileUnit15CIwMallocRouterIS0_EE10deallocateEPS0_j
	.section	.text._ZN8CIwArrayI8TileUnit12CIwAllocatorIS0_15CIwMallocRouterIS0_EE17ReallocateDefaultIS0_S4_EE8truncateEj,"axG",%progbits,_ZN8CIwArrayI8TileUnit12CIwAllocatorIS0_15CIwMallocRouterIS0_EE17ReallocateDefaultIS0_S4_EE8truncateEj,comdat
	.align	2
	.weak	_ZN8CIwArrayI8TileUnit12CIwAllocatorIS0_15CIwMallocRouterIS0_EE17ReallocateDefaultIS0_S4_EE8truncateEj
	.hidden	_ZN8CIwArrayI8TileUnit12CIwAllocatorIS0_15CIwMallocRouterIS0_EE17ReallocateDefaultIS0_S4_EE8truncateEj
	.type	_ZN8CIwArrayI8TileUnit12CIwAllocatorIS0_15CIwMallocRouterIS0_EE17ReallocateDefaultIS0_S4_EE8truncateEj, %function
_ZN8CIwArrayI8TileUnit12CIwAllocatorIS0_15CIwMallocRouterIS0_EE17ReallocateDefaultIS0_S4_EE8truncateEj:
.LFB3655:
	.loc 19 765 0
	.cfi_startproc
	@ args = 0, pretend = 0, frame = 16
	@ frame_needed = 0, uses_anonymous_args = 0
	str	lr, [sp, #-4]!
.LCFI195:
	.cfi_def_cfa_offset 4
	sub	sp, sp, #20
.LCFI196:
	.cfi_def_cfa_offset 24
	str	r0, [sp, #4]
	str	r1, [sp, #0]
.LBB73:
.LBB74:
	.loc 19 767 0
	ldr	r3, [sp, #4]
	ldr	r2, [r3, #4]
	ldr	r3, [sp, #0]
	cmp	r2, r3
	bcs	.L599
	.cfi_offset 14, -4
	ldr	r0, .L612
	bl	IwDebugAssertIsChannelOn
	mov	r3, r0
	cmp	r3, #0
	beq	.L599
	ldr	r3, .L612+4
	ldrb	r3, [r3, #0]	@ zero_extendqisi2
	cmp	r3, #0
	bne	.L599
	mov	r3, #1
	b	.L600
.L599:
	mov	r3, #0
.L600:
	cmp	r3, #0
	beq	.L601
	mov	r0, #0
	bl	IwDebugAssertSetSolution
	mov	r0, #0
	bl	IwDebugAssertSetUID
	mov	r0, #0
	bl	IwDebugAssertSetMessage
	ldr	r0, .L612+8
	ldr	r1, .L612+12
	ldr	r2, .L612+16
	mov	r3, #1
	bl	IwDebugAssertShow
	mov	r3, r0
	cmp	r3, #1
	beq	.L603
	cmp	r3, #2
	beq	.L604
	b	.L602
.L603:
	bl	s3eDebugIsDebuggerPresent
	mov	r3, r0
	cmp	r3, #0
	moveq	r3, #0
	movne	r3, #1
	and	r3, r3, #255
	cmp	r3, #0
	beq	.L605
	bl	s3eDebugIsDebuggerPresent
	mov	r3, r0
	cmp	r3, #0
	moveq	r3, #0
	movne	r3, #1
	and	r3, r3, #255
	cmp	r3, #0
	beq	.L611
	mvn	r3, #11
	mov	r2, #0
	str	r2, [r3, #0]
	b	.L602
.L605:
	bl	_ZL11IwDebugExitv
	b	.L602
.L604:
	ldr	r3, .L612+4
	mov	r2, #1
	strb	r2, [r3, #0]
	b	.L602
.L611:
	mov	r0, r0	@ nop
.L602:
	mov	r0, #0
	bl	IwDebugAssertSetUID
.L601:
.LBE74:
.LBB75:
	.loc 19 769 0
	ldr	r3, [sp, #0]
	str	r3, [sp, #12]
	b	.L608
.L609:
	.loc 19 770 0
	ldr	r3, [sp, #4]
	ldr	r2, [r3, #0]
	ldr	r3, [sp, #12]
	mov	r3, r3, asl #4
	add	r3, r2, r3
	mov	r0, r3
	bl	_ZN8TileUnitD1Ev
	.loc 19 769 0
	ldr	r3, [sp, #12]
	add	r3, r3, #1
	str	r3, [sp, #12]
.L608:
	ldr	r3, [sp, #4]
	ldr	r2, [r3, #4]
	ldr	r3, [sp, #12]
	cmp	r2, r3
	movls	r3, #0
	movhi	r3, #1
	and	r3, r3, #255
	cmp	r3, #0
	bne	.L609
.LBE75:
	.loc 19 771 0
	ldr	r3, [sp, #4]
	ldr	r2, [sp, #0]
	str	r2, [r3, #4]
.LBE73:
	.loc 19 772 0
	add	sp, sp, #20
	ldmfd	sp!, {pc}
.L613:
	.align	2
.L612:
	.word	.LC48
	.word	_ZZN8CIwArrayI8TileUnit12CIwAllocatorIS0_15CIwMallocRouterIS0_EE17ReallocateDefaultIS0_S4_EE8truncateEjE21_s_IwAssertIgnoreThis
	.word	.LC52
	.word	.LC51
	.word	767
	.cfi_endproc
.LFE3655:
	.size	_ZN8CIwArrayI8TileUnit12CIwAllocatorIS0_15CIwMallocRouterIS0_EE17ReallocateDefaultIS0_S4_EE8truncateEj, .-_ZN8CIwArrayI8TileUnit12CIwAllocatorIS0_15CIwMallocRouterIS0_EE17ReallocateDefaultIS0_S4_EE8truncateEj
	.section	.text._ZN8CIwArrayI8TileUnit12CIwAllocatorIS0_15CIwMallocRouterIS0_EE17ReallocateDefaultIS0_S4_EE12set_capacityEj,"axG",%progbits,_ZN8CIwArrayI8TileUnit12CIwAllocatorIS0_15CIwMallocRouterIS0_EE17ReallocateDefaultIS0_S4_EE12set_capacityEj,comdat
	.align	2
	.weak	_ZN8CIwArrayI8TileUnit12CIwAllocatorIS0_15CIwMallocRouterIS0_EE17ReallocateDefaultIS0_S4_EE12set_capacityEj
	.hidden	_ZN8CIwArrayI8TileUnit12CIwAllocatorIS0_15CIwMallocRouterIS0_EE17ReallocateDefaultIS0_S4_EE12set_capacityEj
	.type	_ZN8CIwArrayI8TileUnit12CIwAllocatorIS0_15CIwMallocRouterIS0_EE17ReallocateDefaultIS0_S4_EE12set_capacityEj, %function
_ZN8CIwArrayI8TileUnit12CIwAllocatorIS0_15CIwMallocRouterIS0_EE17ReallocateDefaultIS0_S4_EE12set_capacityEj:
.LFB3656:
	.loc 19 804 0
	.cfi_startproc
	@ args = 0, pretend = 0, frame = 8
	@ frame_needed = 0, uses_anonymous_args = 0
	str	lr, [sp, #-4]!
.LCFI197:
	.cfi_def_cfa_offset 4
	sub	sp, sp, #20
.LCFI198:
	.cfi_def_cfa_offset 24
	str	r0, [sp, #12]
	str	r1, [sp, #8]
.LBB76:
.LBB77:
	.loc 19 806 0
	ldr	r3, [sp, #12]
	ldrb	r3, [r3, #12]
	and	r3, r3, #1
	and	r3, r3, #255
	cmp	r3, #0
	beq	.L615
	.cfi_offset 14, -4
	ldr	r0, .L652
	bl	IwDebugAssertIsChannelOn
	mov	r3, r0
	cmp	r3, #0
	beq	.L616
	ldr	r3, .L652+4
	ldrb	r3, [r3, #0]	@ zero_extendqisi2
	cmp	r3, #0
	bne	.L616
	mov	r3, #1
	b	.L617
.L616:
	mov	r3, #0
.L617:
	cmp	r3, #0
	beq	.L647
	ldr	r0, .L652+8
	bl	IwDebugAssertSetUID
	ldr	r0, .L652+12
	bl	IwDebugAssertSetMessage
	ldr	r0, .L652+16
	ldr	r1, .L652+20
	ldr	r2, .L652+24
	mov	r3, #1
	bl	IwDebugAssertShow
	mov	r3, r0
	cmp	r3, #1
	beq	.L620
	cmp	r3, #2
	beq	.L621
	b	.L619
.L620:
	bl	s3eDebugIsDebuggerPresent
	mov	r3, r0
	cmp	r3, #0
	moveq	r3, #0
	movne	r3, #1
	and	r3, r3, #255
	cmp	r3, #0
	beq	.L622
	bl	s3eDebugIsDebuggerPresent
	mov	r3, r0
	cmp	r3, #0
	moveq	r3, #0
	movne	r3, #1
	and	r3, r3, #255
	cmp	r3, #0
	beq	.L648
	mvn	r3, #11
	mov	r2, #0
	str	r2, [r3, #0]
	b	.L619
.L622:
	bl	_ZL11IwDebugExitv
	b	.L619
.L621:
	ldr	r3, .L652+4
	mov	r2, #1
	strb	r2, [r3, #0]
	b	.L619
.L648:
	mov	r0, r0	@ nop
.L619:
	mov	r0, #0
	bl	IwDebugAssertSetUID
	b	.L646
.L615:
.LBE77:
.LBB78:
	.loc 19 807 0
	ldr	r3, [sp, #12]
	ldrb	r3, [r3, #12]	@ zero_extendqisi2
	mov	r3, r3, lsr #1
	and	r3, r3, #1
	and	r3, r3, #255
	cmp	r3, #0
	beq	.L626
	ldr	r3, [sp, #12]
	ldr	r2, [r3, #8]
	ldr	r3, [sp, #8]
	cmp	r2, r3
	bcs	.L626
	ldr	r0, .L652
	bl	IwDebugAssertIsChannelOn
	mov	r3, r0
	cmp	r3, #0
	beq	.L626
	ldr	r3, .L652+28
	ldrb	r3, [r3, #0]	@ zero_extendqisi2
	cmp	r3, #0
	bne	.L626
	mov	r3, #1
	b	.L627
.L626:
	mov	r3, #0
.L627:
	cmp	r3, #0
	beq	.L628
	mov	r0, #0
	bl	IwDebugAssertSetSolution
	ldr	r0, .L652+32
	bl	IwDebugAssertSetUID
	ldr	r0, .L652+36
	bl	IwDebugAssertSetMessage
	ldr	r0, .L652+40
	ldr	r1, .L652+20
	ldr	r2, .L652+44
	mov	r3, #1
	bl	IwDebugAssertShow
	mov	r3, r0
	cmp	r3, #1
	beq	.L630
	cmp	r3, #2
	beq	.L631
	b	.L629
.L630:
	bl	s3eDebugIsDebuggerPresent
	mov	r3, r0
	cmp	r3, #0
	moveq	r3, #0
	movne	r3, #1
	and	r3, r3, #255
	cmp	r3, #0
	beq	.L632
	bl	s3eDebugIsDebuggerPresent
	mov	r3, r0
	cmp	r3, #0
	moveq	r3, #0
	movne	r3, #1
	and	r3, r3, #255
	cmp	r3, #0
	beq	.L649
	mvn	r3, #11
	mov	r2, #0
	str	r2, [r3, #0]
	b	.L629
.L632:
	bl	_ZL11IwDebugExitv
	b	.L629
.L631:
	ldr	r3, .L652+28
	mov	r2, #1
	strb	r2, [r3, #0]
	b	.L629
.L649:
	mov	r0, r0	@ nop
.L629:
	mov	r0, #0
	bl	IwDebugAssertSetUID
.L628:
.LBE78:
.LBB79:
	.loc 19 808 0
	ldr	r3, [sp, #12]
	ldr	r2, [r3, #4]
	ldr	r3, [sp, #8]
	cmp	r2, r3
	bls	.L635
	ldr	r0, .L652
	bl	IwDebugAssertIsChannelOn
	mov	r3, r0
	cmp	r3, #0
	beq	.L635
	ldr	r3, .L652+48
	ldrb	r3, [r3, #0]	@ zero_extendqisi2
	cmp	r3, #0
	bne	.L635
	mov	r3, #1
	b	.L636
.L635:
	mov	r3, #0
.L636:
	cmp	r3, #0
	beq	.L637
	mov	r0, #0
	bl	IwDebugAssertSetSolution
	mov	r0, #0
	bl	IwDebugAssertSetUID
	mov	r0, #0
	bl	IwDebugAssertSetMessage
	ldr	r0, .L652+52
	ldr	r1, .L652+20
	mov	r2, #808
	mov	r3, #1
	bl	IwDebugAssertShow
	mov	r3, r0
	cmp	r3, #1
	beq	.L639
	cmp	r3, #2
	beq	.L640
	b	.L638
.L639:
	bl	s3eDebugIsDebuggerPresent
	mov	r3, r0
	cmp	r3, #0
	moveq	r3, #0
	movne	r3, #1
	and	r3, r3, #255
	cmp	r3, #0
	beq	.L641
	bl	s3eDebugIsDebuggerPresent
	mov	r3, r0
	cmp	r3, #0
	moveq	r3, #0
	movne	r3, #1
	and	r3, r3, #255
	cmp	r3, #0
	beq	.L650
	mvn	r3, #11
	mov	r2, #0
	str	r2, [r3, #0]
	b	.L638
.L641:
	bl	_ZL11IwDebugExitv
	b	.L638
.L640:
	ldr	r3, .L652+48
	mov	r2, #1
	strb	r2, [r3, #0]
	b	.L638
.L650:
	mov	r0, r0	@ nop
.L638:
	mov	r0, #0
	bl	IwDebugAssertSetUID
.L637:
.LBE79:
	.loc 19 809 0
	ldr	r3, [sp, #12]
	ldr	r2, [r3, #8]
	ldr	r3, [sp, #8]
	cmp	r2, r3
	beq	.L651
.L644:
	.loc 19 810 0
	ldr	r3, [sp, #12]
	ldr	r2, [sp, #8]
	str	r2, [r3, #8]
	.loc 19 811 0
	ldr	r3, [sp, #8]
	cmp	r3, #0
	bne	.L645
	.loc 19 813 0
	ldr	r3, [sp, #12]
	add	r1, r3, #13
	ldr	r3, [sp, #12]
	ldr	r2, [r3, #0]
	ldr	r3, [sp, #12]
	ldr	r3, [r3, #8]
	mov	r0, r1
	mov	r1, r2
	mov	r2, r3
	bl	_ZN12CIwAllocatorI8TileUnit15CIwMallocRouterIS0_EE10deallocateEPS0_j
	.loc 19 814 0
	ldr	r3, [sp, #12]
	mov	r2, #0
	str	r2, [r3, #0]
	b	.L646
.L645:
	.loc 19 818 0
	ldr	r3, [sp, #12]
	ldr	r1, [r3, #4]
	ldr	r3, [sp, #12]
	ldr	r2, [r3, #8]
	ldr	r3, [sp, #12]
	ldr	r3, [r3, #0]
	ldr	r0, [sp, #12]
	add	r0, r0, #13
	str	r0, [sp, #0]
	ldr	r0, [sp, #8]
	bl	_ZN17ReallocateDefaultI8TileUnit12CIwAllocatorIS0_15CIwMallocRouterIS0_EEE10ReallocateEjjjPS0_RS4_
	mov	r2, r0
	ldr	r3, [sp, #12]
	str	r2, [r3, #0]
	b	.L646
.L647:
.LBB80:
	.loc 19 806 0
	mov	r0, r0	@ nop
	b	.L646
.L651:
.LBE80:
	.loc 19 809 0
	mov	r0, r0	@ nop
.L646:
.LBE76:
	.loc 19 820 0
	add	sp, sp, #20
	ldmfd	sp!, {pc}
.L653:
	.align	2
.L652:
	.word	.LC48
	.word	_ZZN8CIwArrayI8TileUnit12CIwAllocatorIS0_15CIwMallocRouterIS0_EE17ReallocateDefaultIS0_S4_EE12set_capacityEjE21_s_IwAssertIgnoreThis
	.word	1733
	.word	.LC53
	.word	.LC54
	.word	.LC51
	.word	806
	.word	_ZZN8CIwArrayI8TileUnit12CIwAllocatorIS0_15CIwMallocRouterIS0_EE17ReallocateDefaultIS0_S4_EE12set_capacityEjE21_s_IwAssertIgnoreThis_0
	.word	1732
	.word	.LC55
	.word	.LC56
	.word	807
	.word	_ZZN8CIwArrayI8TileUnit12CIwAllocatorIS0_15CIwMallocRouterIS0_EE17ReallocateDefaultIS0_S4_EE12set_capacityEjE21_s_IwAssertIgnoreThis_1
	.word	.LC57
	.cfi_endproc
.LFE3656:
	.size	_ZN8CIwArrayI8TileUnit12CIwAllocatorIS0_15CIwMallocRouterIS0_EE17ReallocateDefaultIS0_S4_EE12set_capacityEj, .-_ZN8CIwArrayI8TileUnit12CIwAllocatorIS0_15CIwMallocRouterIS0_EE17ReallocateDefaultIS0_S4_EE12set_capacityEj
	.section	.text._ZN8CIwArrayI8PathNode12CIwAllocatorIS0_15CIwMallocRouterIS0_EE17ReallocateDefaultIS0_S4_EE6resizeEj,"axG",%progbits,_ZN8CIwArrayI8PathNode12CIwAllocatorIS0_15CIwMallocRouterIS0_EE17ReallocateDefaultIS0_S4_EE6resizeEj,comdat
	.align	2
	.weak	_ZN8CIwArrayI8PathNode12CIwAllocatorIS0_15CIwMallocRouterIS0_EE17ReallocateDefaultIS0_S4_EE6resizeEj
	.hidden	_ZN8CIwArrayI8PathNode12CIwAllocatorIS0_15CIwMallocRouterIS0_EE17ReallocateDefaultIS0_S4_EE6resizeEj
	.type	_ZN8CIwArrayI8PathNode12CIwAllocatorIS0_15CIwMallocRouterIS0_EE17ReallocateDefaultIS0_S4_EE6resizeEj, %function
_ZN8CIwArrayI8PathNode12CIwAllocatorIS0_15CIwMallocRouterIS0_EE17ReallocateDefaultIS0_S4_EE6resizeEj:
.LFB3657:
	.loc 19 292 0
	.cfi_startproc
	@ args = 0, pretend = 0, frame = 8
	@ frame_needed = 0, uses_anonymous_args = 0
	str	lr, [sp, #-4]!
.LCFI199:
	.cfi_def_cfa_offset 4
	sub	sp, sp, #12
.LCFI200:
	.cfi_def_cfa_offset 16
	str	r0, [sp, #4]
	str	r1, [sp, #0]
	.loc 19 294 0
	ldr	r3, [sp, #4]
	ldr	r2, [r3, #4]
	ldr	r3, [sp, #0]
	cmp	r2, r3
	bcc	.L655
	.cfi_offset 14, -4
	.loc 19 295 0
	ldr	r0, [sp, #4]
	ldr	r1, [sp, #0]
	bl	_ZN8CIwArrayI8PathNode12CIwAllocatorIS0_15CIwMallocRouterIS0_EE17ReallocateDefaultIS0_S4_EE8truncateEj
	b	.L657
.L655:
	.loc 19 297 0
	ldr	r3, [sp, #4]
	ldr	r3, [r3, #4]
	ldr	r2, [sp, #0]
	rsb	r3, r3, r2
	ldr	r0, [sp, #4]
	mov	r1, r3
	bl	_ZN8CIwArrayI8PathNode12CIwAllocatorIS0_15CIwMallocRouterIS0_EE17ReallocateDefaultIS0_S4_EE13push_back_qtyEi
.L657:
	.loc 19 298 0
	add	sp, sp, #12
	ldmfd	sp!, {pc}
	.cfi_endproc
.LFE3657:
	.size	_ZN8CIwArrayI8PathNode12CIwAllocatorIS0_15CIwMallocRouterIS0_EE17ReallocateDefaultIS0_S4_EE6resizeEj, .-_ZN8CIwArrayI8PathNode12CIwAllocatorIS0_15CIwMallocRouterIS0_EE17ReallocateDefaultIS0_S4_EE6resizeEj
	.section	.text._ZN8CIwArrayI8PathNode12CIwAllocatorIS0_15CIwMallocRouterIS0_EE17ReallocateDefaultIS0_S4_EE5clearEv,"axG",%progbits,_ZN8CIwArrayI8PathNode12CIwAllocatorIS0_15CIwMallocRouterIS0_EE17ReallocateDefaultIS0_S4_EE5clearEv,comdat
	.align	2
	.weak	_ZN8CIwArrayI8PathNode12CIwAllocatorIS0_15CIwMallocRouterIS0_EE17ReallocateDefaultIS0_S4_EE5clearEv
	.hidden	_ZN8CIwArrayI8PathNode12CIwAllocatorIS0_15CIwMallocRouterIS0_EE17ReallocateDefaultIS0_S4_EE5clearEv
	.type	_ZN8CIwArrayI8PathNode12CIwAllocatorIS0_15CIwMallocRouterIS0_EE17ReallocateDefaultIS0_S4_EE5clearEv, %function
_ZN8CIwArrayI8PathNode12CIwAllocatorIS0_15CIwMallocRouterIS0_EE17ReallocateDefaultIS0_S4_EE5clearEv:
.LFB3658:
	.loc 19 199 0
	.cfi_startproc
	@ args = 0, pretend = 0, frame = 8
	@ frame_needed = 0, uses_anonymous_args = 0
	str	lr, [sp, #-4]!
.LCFI201:
	.cfi_def_cfa_offset 4
	sub	sp, sp, #12
.LCFI202:
	.cfi_def_cfa_offset 16
	str	r0, [sp, #4]
	.loc 19 201 0
	ldr	r0, [sp, #4]
	mov	r1, #0
	.cfi_offset 14, -4
	bl	_ZN8CIwArrayI8PathNode12CIwAllocatorIS0_15CIwMallocRouterIS0_EE17ReallocateDefaultIS0_S4_EE8truncateEj
	.loc 19 202 0
	add	sp, sp, #12
	ldmfd	sp!, {pc}
	.cfi_endproc
.LFE3658:
	.size	_ZN8CIwArrayI8PathNode12CIwAllocatorIS0_15CIwMallocRouterIS0_EE17ReallocateDefaultIS0_S4_EE5clearEv, .-_ZN8CIwArrayI8PathNode12CIwAllocatorIS0_15CIwMallocRouterIS0_EE17ReallocateDefaultIS0_S4_EE5clearEv
	.section	.text._ZN12CIwAllocatorI8PathNode15CIwMallocRouterIS0_EE10deallocateEPS0_j,"axG",%progbits,_ZN12CIwAllocatorI8PathNode15CIwMallocRouterIS0_EE10deallocateEPS0_j,comdat
	.align	2
	.weak	_ZN12CIwAllocatorI8PathNode15CIwMallocRouterIS0_EE10deallocateEPS0_j
	.hidden	_ZN12CIwAllocatorI8PathNode15CIwMallocRouterIS0_EE10deallocateEPS0_j
	.type	_ZN12CIwAllocatorI8PathNode15CIwMallocRouterIS0_EE10deallocateEPS0_j, %function
_ZN12CIwAllocatorI8PathNode15CIwMallocRouterIS0_EE10deallocateEPS0_j:
.LFB3659:
	.loc 23 147 0
	.cfi_startproc
	@ args = 0, pretend = 0, frame = 16
	@ frame_needed = 0, uses_anonymous_args = 0
	str	lr, [sp, #-4]!
.LCFI203:
	.cfi_def_cfa_offset 4
	sub	sp, sp, #20
.LCFI204:
	.cfi_def_cfa_offset 24
	str	r0, [sp, #12]
	str	r1, [sp, #8]
	str	r2, [sp, #4]
	.loc 23 147 0
	ldr	r0, [sp, #8]
	.cfi_offset 14, -4
	bl	_ZN15CIwMallocRouterI8PathNodeE6DoFreeEPv
	add	sp, sp, #20
	ldmfd	sp!, {pc}
	.cfi_endproc
.LFE3659:
	.size	_ZN12CIwAllocatorI8PathNode15CIwMallocRouterIS0_EE10deallocateEPS0_j, .-_ZN12CIwAllocatorI8PathNode15CIwMallocRouterIS0_EE10deallocateEPS0_j
	.section	.text._ZN8CIwArrayI8PathNode12CIwAllocatorIS0_15CIwMallocRouterIS0_EE17ReallocateDefaultIS0_S4_EE8truncateEj,"axG",%progbits,_ZN8CIwArrayI8PathNode12CIwAllocatorIS0_15CIwMallocRouterIS0_EE17ReallocateDefaultIS0_S4_EE8truncateEj,comdat
	.align	2
	.weak	_ZN8CIwArrayI8PathNode12CIwAllocatorIS0_15CIwMallocRouterIS0_EE17ReallocateDefaultIS0_S4_EE8truncateEj
	.hidden	_ZN8CIwArrayI8PathNode12CIwAllocatorIS0_15CIwMallocRouterIS0_EE17ReallocateDefaultIS0_S4_EE8truncateEj
	.type	_ZN8CIwArrayI8PathNode12CIwAllocatorIS0_15CIwMallocRouterIS0_EE17ReallocateDefaultIS0_S4_EE8truncateEj, %function
_ZN8CIwArrayI8PathNode12CIwAllocatorIS0_15CIwMallocRouterIS0_EE17ReallocateDefaultIS0_S4_EE8truncateEj:
.LFB3660:
	.loc 19 765 0
	.cfi_startproc
	@ args = 0, pretend = 0, frame = 16
	@ frame_needed = 0, uses_anonymous_args = 0
	str	lr, [sp, #-4]!
.LCFI205:
	.cfi_def_cfa_offset 4
	sub	sp, sp, #20
.LCFI206:
	.cfi_def_cfa_offset 24
	str	r0, [sp, #4]
	str	r1, [sp, #0]
.LBB81:
.LBB82:
	.loc 19 767 0
	ldr	r3, [sp, #4]
	ldr	r2, [r3, #4]
	ldr	r3, [sp, #0]
	cmp	r2, r3
	bcs	.L663
	.cfi_offset 14, -4
	ldr	r0, .L676
	bl	IwDebugAssertIsChannelOn
	mov	r3, r0
	cmp	r3, #0
	beq	.L663
	ldr	r3, .L676+4
	ldrb	r3, [r3, #0]	@ zero_extendqisi2
	cmp	r3, #0
	bne	.L663
	mov	r3, #1
	b	.L664
.L663:
	mov	r3, #0
.L664:
	cmp	r3, #0
	beq	.L665
	mov	r0, #0
	bl	IwDebugAssertSetSolution
	mov	r0, #0
	bl	IwDebugAssertSetUID
	mov	r0, #0
	bl	IwDebugAssertSetMessage
	ldr	r0, .L676+8
	ldr	r1, .L676+12
	ldr	r2, .L676+16
	mov	r3, #1
	bl	IwDebugAssertShow
	mov	r3, r0
	cmp	r3, #1
	beq	.L667
	cmp	r3, #2
	beq	.L668
	b	.L666
.L667:
	bl	s3eDebugIsDebuggerPresent
	mov	r3, r0
	cmp	r3, #0
	moveq	r3, #0
	movne	r3, #1
	and	r3, r3, #255
	cmp	r3, #0
	beq	.L669
	bl	s3eDebugIsDebuggerPresent
	mov	r3, r0
	cmp	r3, #0
	moveq	r3, #0
	movne	r3, #1
	and	r3, r3, #255
	cmp	r3, #0
	beq	.L675
	mvn	r3, #11
	mov	r2, #0
	str	r2, [r3, #0]
	b	.L666
.L669:
	bl	_ZL11IwDebugExitv
	b	.L666
.L668:
	ldr	r3, .L676+4
	mov	r2, #1
	strb	r2, [r3, #0]
	b	.L666
.L675:
	mov	r0, r0	@ nop
.L666:
	mov	r0, #0
	bl	IwDebugAssertSetUID
.L665:
.LBE82:
.LBB83:
	.loc 19 769 0
	ldr	r3, [sp, #0]
	str	r3, [sp, #12]
	b	.L672
.L673:
	.loc 19 770 0
	ldr	r3, [sp, #4]
	ldr	r1, [r3, #0]
	ldr	r2, [sp, #12]
	mov	r3, r2
	mov	r3, r3, asl #2
	add	r3, r3, r2
	mov	r3, r3, asl #2
	add	r3, r1, r3
	mov	r0, r3
	bl	_ZN8PathNodeD1Ev
	.loc 19 769 0
	ldr	r3, [sp, #12]
	add	r3, r3, #1
	str	r3, [sp, #12]
.L672:
	ldr	r3, [sp, #4]
	ldr	r2, [r3, #4]
	ldr	r3, [sp, #12]
	cmp	r2, r3
	movls	r3, #0
	movhi	r3, #1
	and	r3, r3, #255
	cmp	r3, #0
	bne	.L673
.LBE83:
	.loc 19 771 0
	ldr	r3, [sp, #4]
	ldr	r2, [sp, #0]
	str	r2, [r3, #4]
.LBE81:
	.loc 19 772 0
	add	sp, sp, #20
	ldmfd	sp!, {pc}
.L677:
	.align	2
.L676:
	.word	.LC48
	.word	_ZZN8CIwArrayI8PathNode12CIwAllocatorIS0_15CIwMallocRouterIS0_EE17ReallocateDefaultIS0_S4_EE8truncateEjE21_s_IwAssertIgnoreThis
	.word	.LC52
	.word	.LC51
	.word	767
	.cfi_endproc
.LFE3660:
	.size	_ZN8CIwArrayI8PathNode12CIwAllocatorIS0_15CIwMallocRouterIS0_EE17ReallocateDefaultIS0_S4_EE8truncateEj, .-_ZN8CIwArrayI8PathNode12CIwAllocatorIS0_15CIwMallocRouterIS0_EE17ReallocateDefaultIS0_S4_EE8truncateEj
	.section	.text._ZN8CIwArrayI8PathNode12CIwAllocatorIS0_15CIwMallocRouterIS0_EE17ReallocateDefaultIS0_S4_EE12set_capacityEj,"axG",%progbits,_ZN8CIwArrayI8PathNode12CIwAllocatorIS0_15CIwMallocRouterIS0_EE17ReallocateDefaultIS0_S4_EE12set_capacityEj,comdat
	.align	2
	.weak	_ZN8CIwArrayI8PathNode12CIwAllocatorIS0_15CIwMallocRouterIS0_EE17ReallocateDefaultIS0_S4_EE12set_capacityEj
	.hidden	_ZN8CIwArrayI8PathNode12CIwAllocatorIS0_15CIwMallocRouterIS0_EE17ReallocateDefaultIS0_S4_EE12set_capacityEj
	.type	_ZN8CIwArrayI8PathNode12CIwAllocatorIS0_15CIwMallocRouterIS0_EE17ReallocateDefaultIS0_S4_EE12set_capacityEj, %function
_ZN8CIwArrayI8PathNode12CIwAllocatorIS0_15CIwMallocRouterIS0_EE17ReallocateDefaultIS0_S4_EE12set_capacityEj:
.LFB3661:
	.loc 19 804 0
	.cfi_startproc
	@ args = 0, pretend = 0, frame = 8
	@ frame_needed = 0, uses_anonymous_args = 0
	str	lr, [sp, #-4]!
.LCFI207:
	.cfi_def_cfa_offset 4
	sub	sp, sp, #20
.LCFI208:
	.cfi_def_cfa_offset 24
	str	r0, [sp, #12]
	str	r1, [sp, #8]
.LBB84:
.LBB85:
	.loc 19 806 0
	ldr	r3, [sp, #12]
	ldrb	r3, [r3, #12]
	and	r3, r3, #1
	and	r3, r3, #255
	cmp	r3, #0
	beq	.L679
	.cfi_offset 14, -4
	ldr	r0, .L716
	bl	IwDebugAssertIsChannelOn
	mov	r3, r0
	cmp	r3, #0
	beq	.L680
	ldr	r3, .L716+4
	ldrb	r3, [r3, #0]	@ zero_extendqisi2
	cmp	r3, #0
	bne	.L680
	mov	r3, #1
	b	.L681
.L680:
	mov	r3, #0
.L681:
	cmp	r3, #0
	beq	.L711
	ldr	r0, .L716+8
	bl	IwDebugAssertSetUID
	ldr	r0, .L716+12
	bl	IwDebugAssertSetMessage
	ldr	r0, .L716+16
	ldr	r1, .L716+20
	ldr	r2, .L716+24
	mov	r3, #1
	bl	IwDebugAssertShow
	mov	r3, r0
	cmp	r3, #1
	beq	.L684
	cmp	r3, #2
	beq	.L685
	b	.L683
.L684:
	bl	s3eDebugIsDebuggerPresent
	mov	r3, r0
	cmp	r3, #0
	moveq	r3, #0
	movne	r3, #1
	and	r3, r3, #255
	cmp	r3, #0
	beq	.L686
	bl	s3eDebugIsDebuggerPresent
	mov	r3, r0
	cmp	r3, #0
	moveq	r3, #0
	movne	r3, #1
	and	r3, r3, #255
	cmp	r3, #0
	beq	.L712
	mvn	r3, #11
	mov	r2, #0
	str	r2, [r3, #0]
	b	.L683
.L686:
	bl	_ZL11IwDebugExitv
	b	.L683
.L685:
	ldr	r3, .L716+4
	mov	r2, #1
	strb	r2, [r3, #0]
	b	.L683
.L712:
	mov	r0, r0	@ nop
.L683:
	mov	r0, #0
	bl	IwDebugAssertSetUID
	b	.L710
.L679:
.LBE85:
.LBB86:
	.loc 19 807 0
	ldr	r3, [sp, #12]
	ldrb	r3, [r3, #12]	@ zero_extendqisi2
	mov	r3, r3, lsr #1
	and	r3, r3, #1
	and	r3, r3, #255
	cmp	r3, #0
	beq	.L690
	ldr	r3, [sp, #12]
	ldr	r2, [r3, #8]
	ldr	r3, [sp, #8]
	cmp	r2, r3
	bcs	.L690
	ldr	r0, .L716
	bl	IwDebugAssertIsChannelOn
	mov	r3, r0
	cmp	r3, #0
	beq	.L690
	ldr	r3, .L716+28
	ldrb	r3, [r3, #0]	@ zero_extendqisi2
	cmp	r3, #0
	bne	.L690
	mov	r3, #1
	b	.L691
.L690:
	mov	r3, #0
.L691:
	cmp	r3, #0
	beq	.L692
	mov	r0, #0
	bl	IwDebugAssertSetSolution
	ldr	r0, .L716+32
	bl	IwDebugAssertSetUID
	ldr	r0, .L716+36
	bl	IwDebugAssertSetMessage
	ldr	r0, .L716+40
	ldr	r1, .L716+20
	ldr	r2, .L716+44
	mov	r3, #1
	bl	IwDebugAssertShow
	mov	r3, r0
	cmp	r3, #1
	beq	.L694
	cmp	r3, #2
	beq	.L695
	b	.L693
.L694:
	bl	s3eDebugIsDebuggerPresent
	mov	r3, r0
	cmp	r3, #0
	moveq	r3, #0
	movne	r3, #1
	and	r3, r3, #255
	cmp	r3, #0
	beq	.L696
	bl	s3eDebugIsDebuggerPresent
	mov	r3, r0
	cmp	r3, #0
	moveq	r3, #0
	movne	r3, #1
	and	r3, r3, #255
	cmp	r3, #0
	beq	.L713
	mvn	r3, #11
	mov	r2, #0
	str	r2, [r3, #0]
	b	.L693
.L696:
	bl	_ZL11IwDebugExitv
	b	.L693
.L695:
	ldr	r3, .L716+28
	mov	r2, #1
	strb	r2, [r3, #0]
	b	.L693
.L713:
	mov	r0, r0	@ nop
.L693:
	mov	r0, #0
	bl	IwDebugAssertSetUID
.L692:
.LBE86:
.LBB87:
	.loc 19 808 0
	ldr	r3, [sp, #12]
	ldr	r2, [r3, #4]
	ldr	r3, [sp, #8]
	cmp	r2, r3
	bls	.L699
	ldr	r0, .L716
	bl	IwDebugAssertIsChannelOn
	mov	r3, r0
	cmp	r3, #0
	beq	.L699
	ldr	r3, .L716+48
	ldrb	r3, [r3, #0]	@ zero_extendqisi2
	cmp	r3, #0
	bne	.L699
	mov	r3, #1
	b	.L700
.L699:
	mov	r3, #0
.L700:
	cmp	r3, #0
	beq	.L701
	mov	r0, #0
	bl	IwDebugAssertSetSolution
	mov	r0, #0
	bl	IwDebugAssertSetUID
	mov	r0, #0
	bl	IwDebugAssertSetMessage
	ldr	r0, .L716+52
	ldr	r1, .L716+20
	mov	r2, #808
	mov	r3, #1
	bl	IwDebugAssertShow
	mov	r3, r0
	cmp	r3, #1
	beq	.L703
	cmp	r3, #2
	beq	.L704
	b	.L702
.L703:
	bl	s3eDebugIsDebuggerPresent
	mov	r3, r0
	cmp	r3, #0
	moveq	r3, #0
	movne	r3, #1
	and	r3, r3, #255
	cmp	r3, #0
	beq	.L705
	bl	s3eDebugIsDebuggerPresent
	mov	r3, r0
	cmp	r3, #0
	moveq	r3, #0
	movne	r3, #1
	and	r3, r3, #255
	cmp	r3, #0
	beq	.L714
	mvn	r3, #11
	mov	r2, #0
	str	r2, [r3, #0]
	b	.L702
.L705:
	bl	_ZL11IwDebugExitv
	b	.L702
.L704:
	ldr	r3, .L716+48
	mov	r2, #1
	strb	r2, [r3, #0]
	b	.L702
.L714:
	mov	r0, r0	@ nop
.L702:
	mov	r0, #0
	bl	IwDebugAssertSetUID
.L701:
.LBE87:
	.loc 19 809 0
	ldr	r3, [sp, #12]
	ldr	r2, [r3, #8]
	ldr	r3, [sp, #8]
	cmp	r2, r3
	beq	.L715
.L708:
	.loc 19 810 0
	ldr	r3, [sp, #12]
	ldr	r2, [sp, #8]
	str	r2, [r3, #8]
	.loc 19 811 0
	ldr	r3, [sp, #8]
	cmp	r3, #0
	bne	.L709
	.loc 19 813 0
	ldr	r3, [sp, #12]
	add	r1, r3, #13
	ldr	r3, [sp, #12]
	ldr	r2, [r3, #0]
	ldr	r3, [sp, #12]
	ldr	r3, [r3, #8]
	mov	r0, r1
	mov	r1, r2
	mov	r2, r3
	bl	_ZN12CIwAllocatorI8PathNode15CIwMallocRouterIS0_EE10deallocateEPS0_j
	.loc 19 814 0
	ldr	r3, [sp, #12]
	mov	r2, #0
	str	r2, [r3, #0]
	b	.L710
.L709:
	.loc 19 818 0
	ldr	r3, [sp, #12]
	ldr	r1, [r3, #4]
	ldr	r3, [sp, #12]
	ldr	r2, [r3, #8]
	ldr	r3, [sp, #12]
	ldr	r3, [r3, #0]
	ldr	r0, [sp, #12]
	add	r0, r0, #13
	str	r0, [sp, #0]
	ldr	r0, [sp, #8]
	bl	_ZN17ReallocateDefaultI8PathNode12CIwAllocatorIS0_15CIwMallocRouterIS0_EEE10ReallocateEjjjPS0_RS4_
	mov	r2, r0
	ldr	r3, [sp, #12]
	str	r2, [r3, #0]
	b	.L710
.L711:
.LBB88:
	.loc 19 806 0
	mov	r0, r0	@ nop
	b	.L710
.L715:
.LBE88:
	.loc 19 809 0
	mov	r0, r0	@ nop
.L710:
.LBE84:
	.loc 19 820 0
	add	sp, sp, #20
	ldmfd	sp!, {pc}
.L717:
	.align	2
.L716:
	.word	.LC48
	.word	_ZZN8CIwArrayI8PathNode12CIwAllocatorIS0_15CIwMallocRouterIS0_EE17ReallocateDefaultIS0_S4_EE12set_capacityEjE21_s_IwAssertIgnoreThis
	.word	1733
	.word	.LC53
	.word	.LC54
	.word	.LC51
	.word	806
	.word	_ZZN8CIwArrayI8PathNode12CIwAllocatorIS0_15CIwMallocRouterIS0_EE17ReallocateDefaultIS0_S4_EE12set_capacityEjE21_s_IwAssertIgnoreThis_0
	.word	1732
	.word	.LC55
	.word	.LC56
	.word	807
	.word	_ZZN8CIwArrayI8PathNode12CIwAllocatorIS0_15CIwMallocRouterIS0_EE17ReallocateDefaultIS0_S4_EE12set_capacityEjE21_s_IwAssertIgnoreThis_1
	.word	.LC57
	.cfi_endproc
.LFE3661:
	.size	_ZN8CIwArrayI8PathNode12CIwAllocatorIS0_15CIwMallocRouterIS0_EE17ReallocateDefaultIS0_S4_EE12set_capacityEj, .-_ZN8CIwArrayI8PathNode12CIwAllocatorIS0_15CIwMallocRouterIS0_EE17ReallocateDefaultIS0_S4_EE12set_capacityEj
	.section	.text._ZN12CIwAllocatorIPc15CIwMallocRouterIS0_EE10deallocateEPS0_j,"axG",%progbits,_ZN12CIwAllocatorIPc15CIwMallocRouterIS0_EE10deallocateEPS0_j,comdat
	.align	2
	.weak	_ZN12CIwAllocatorIPc15CIwMallocRouterIS0_EE10deallocateEPS0_j
	.hidden	_ZN12CIwAllocatorIPc15CIwMallocRouterIS0_EE10deallocateEPS0_j
	.type	_ZN12CIwAllocatorIPc15CIwMallocRouterIS0_EE10deallocateEPS0_j, %function
_ZN12CIwAllocatorIPc15CIwMallocRouterIS0_EE10deallocateEPS0_j:
.LFB3670:
	.loc 23 147 0
	.cfi_startproc
	@ args = 0, pretend = 0, frame = 16
	@ frame_needed = 0, uses_anonymous_args = 0
	str	lr, [sp, #-4]!
.LCFI209:
	.cfi_def_cfa_offset 4
	sub	sp, sp, #20
.LCFI210:
	.cfi_def_cfa_offset 24
	str	r0, [sp, #12]
	str	r1, [sp, #8]
	str	r2, [sp, #4]
	.loc 23 147 0
	ldr	r0, [sp, #8]
	.cfi_offset 14, -4
	bl	_ZN15CIwMallocRouterIPcE6DoFreeEPv
	add	sp, sp, #20
	ldmfd	sp!, {pc}
	.cfi_endproc
.LFE3670:
	.size	_ZN12CIwAllocatorIPc15CIwMallocRouterIS0_EE10deallocateEPS0_j, .-_ZN12CIwAllocatorIPc15CIwMallocRouterIS0_EE10deallocateEPS0_j
	.section	.text._ZN8CIwArrayIPc12CIwAllocatorIS0_15CIwMallocRouterIS0_EE17ReallocateDefaultIS0_S4_EE8truncateEj,"axG",%progbits,_ZN8CIwArrayIPc12CIwAllocatorIS0_15CIwMallocRouterIS0_EE17ReallocateDefaultIS0_S4_EE8truncateEj,comdat
	.align	2
	.weak	_ZN8CIwArrayIPc12CIwAllocatorIS0_15CIwMallocRouterIS0_EE17ReallocateDefaultIS0_S4_EE8truncateEj
	.hidden	_ZN8CIwArrayIPc12CIwAllocatorIS0_15CIwMallocRouterIS0_EE17ReallocateDefaultIS0_S4_EE8truncateEj
	.type	_ZN8CIwArrayIPc12CIwAllocatorIS0_15CIwMallocRouterIS0_EE17ReallocateDefaultIS0_S4_EE8truncateEj, %function
_ZN8CIwArrayIPc12CIwAllocatorIS0_15CIwMallocRouterIS0_EE17ReallocateDefaultIS0_S4_EE8truncateEj:
.LFB3671:
	.loc 19 765 0
	.cfi_startproc
	@ args = 0, pretend = 0, frame = 16
	@ frame_needed = 0, uses_anonymous_args = 0
	str	lr, [sp, #-4]!
.LCFI211:
	.cfi_def_cfa_offset 4
	sub	sp, sp, #20
.LCFI212:
	.cfi_def_cfa_offset 24
	str	r0, [sp, #4]
	str	r1, [sp, #0]
.LBB89:
.LBB90:
	.loc 19 767 0
	ldr	r3, [sp, #4]
	ldr	r2, [r3, #4]
	ldr	r3, [sp, #0]
	cmp	r2, r3
	bcs	.L721
	.cfi_offset 14, -4
	ldr	r0, .L734
	bl	IwDebugAssertIsChannelOn
	mov	r3, r0
	cmp	r3, #0
	beq	.L721
	ldr	r3, .L734+4
	ldrb	r3, [r3, #0]	@ zero_extendqisi2
	cmp	r3, #0
	bne	.L721
	mov	r3, #1
	b	.L722
.L721:
	mov	r3, #0
.L722:
	cmp	r3, #0
	beq	.L723
	mov	r0, #0
	bl	IwDebugAssertSetSolution
	mov	r0, #0
	bl	IwDebugAssertSetUID
	mov	r0, #0
	bl	IwDebugAssertSetMessage
	ldr	r0, .L734+8
	ldr	r1, .L734+12
	ldr	r2, .L734+16
	mov	r3, #1
	bl	IwDebugAssertShow
	mov	r3, r0
	cmp	r3, #1
	beq	.L725
	cmp	r3, #2
	beq	.L726
	b	.L724
.L725:
	bl	s3eDebugIsDebuggerPresent
	mov	r3, r0
	cmp	r3, #0
	moveq	r3, #0
	movne	r3, #1
	and	r3, r3, #255
	cmp	r3, #0
	beq	.L727
	bl	s3eDebugIsDebuggerPresent
	mov	r3, r0
	cmp	r3, #0
	moveq	r3, #0
	movne	r3, #1
	and	r3, r3, #255
	cmp	r3, #0
	beq	.L733
	mvn	r3, #11
	mov	r2, #0
	str	r2, [r3, #0]
	b	.L724
.L727:
	bl	_ZL11IwDebugExitv
	b	.L724
.L726:
	ldr	r3, .L734+4
	mov	r2, #1
	strb	r2, [r3, #0]
	b	.L724
.L733:
	mov	r0, r0	@ nop
.L724:
	mov	r0, #0
	bl	IwDebugAssertSetUID
.L723:
.LBE90:
.LBB91:
	.loc 19 769 0
	ldr	r3, [sp, #0]
	str	r3, [sp, #12]
	b	.L730
.L731:
	ldr	r3, [sp, #12]
	add	r3, r3, #1
	str	r3, [sp, #12]
.L730:
	ldr	r3, [sp, #4]
	ldr	r2, [r3, #4]
	ldr	r3, [sp, #12]
	cmp	r2, r3
	movls	r3, #0
	movhi	r3, #1
	and	r3, r3, #255
	cmp	r3, #0
	bne	.L731
.LBE91:
	.loc 19 771 0
	ldr	r3, [sp, #4]
	ldr	r2, [sp, #0]
	str	r2, [r3, #4]
.LBE89:
	.loc 19 772 0
	add	sp, sp, #20
	ldmfd	sp!, {pc}
.L735:
	.align	2
.L734:
	.word	.LC48
	.word	_ZZN8CIwArrayIPc12CIwAllocatorIS0_15CIwMallocRouterIS0_EE17ReallocateDefaultIS0_S4_EE8truncateEjE21_s_IwAssertIgnoreThis
	.word	.LC52
	.word	.LC51
	.word	767
	.cfi_endproc
.LFE3671:
	.size	_ZN8CIwArrayIPc12CIwAllocatorIS0_15CIwMallocRouterIS0_EE17ReallocateDefaultIS0_S4_EE8truncateEj, .-_ZN8CIwArrayIPc12CIwAllocatorIS0_15CIwMallocRouterIS0_EE17ReallocateDefaultIS0_S4_EE8truncateEj
	.section	.text._ZN8CIwArrayIPc12CIwAllocatorIS0_15CIwMallocRouterIS0_EE17ReallocateDefaultIS0_S4_EE12set_capacityEj,"axG",%progbits,_ZN8CIwArrayIPc12CIwAllocatorIS0_15CIwMallocRouterIS0_EE17ReallocateDefaultIS0_S4_EE12set_capacityEj,comdat
	.align	2
	.weak	_ZN8CIwArrayIPc12CIwAllocatorIS0_15CIwMallocRouterIS0_EE17ReallocateDefaultIS0_S4_EE12set_capacityEj
	.hidden	_ZN8CIwArrayIPc12CIwAllocatorIS0_15CIwMallocRouterIS0_EE17ReallocateDefaultIS0_S4_EE12set_capacityEj
	.type	_ZN8CIwArrayIPc12CIwAllocatorIS0_15CIwMallocRouterIS0_EE17ReallocateDefaultIS0_S4_EE12set_capacityEj, %function
_ZN8CIwArrayIPc12CIwAllocatorIS0_15CIwMallocRouterIS0_EE17ReallocateDefaultIS0_S4_EE12set_capacityEj:
.LFB3672:
	.loc 19 804 0
	.cfi_startproc
	@ args = 0, pretend = 0, frame = 8
	@ frame_needed = 0, uses_anonymous_args = 0
	str	lr, [sp, #-4]!
.LCFI213:
	.cfi_def_cfa_offset 4
	sub	sp, sp, #20
.LCFI214:
	.cfi_def_cfa_offset 24
	str	r0, [sp, #12]
	str	r1, [sp, #8]
.LBB92:
.LBB93:
	.loc 19 806 0
	ldr	r3, [sp, #12]
	ldrb	r3, [r3, #12]
	and	r3, r3, #1
	and	r3, r3, #255
	cmp	r3, #0
	beq	.L737
	.cfi_offset 14, -4
	ldr	r0, .L774
	bl	IwDebugAssertIsChannelOn
	mov	r3, r0
	cmp	r3, #0
	beq	.L738
	ldr	r3, .L774+4
	ldrb	r3, [r3, #0]	@ zero_extendqisi2
	cmp	r3, #0
	bne	.L738
	mov	r3, #1
	b	.L739
.L738:
	mov	r3, #0
.L739:
	cmp	r3, #0
	beq	.L769
	ldr	r0, .L774+8
	bl	IwDebugAssertSetUID
	ldr	r0, .L774+12
	bl	IwDebugAssertSetMessage
	ldr	r0, .L774+16
	ldr	r1, .L774+20
	ldr	r2, .L774+24
	mov	r3, #1
	bl	IwDebugAssertShow
	mov	r3, r0
	cmp	r3, #1
	beq	.L742
	cmp	r3, #2
	beq	.L743
	b	.L741
.L742:
	bl	s3eDebugIsDebuggerPresent
	mov	r3, r0
	cmp	r3, #0
	moveq	r3, #0
	movne	r3, #1
	and	r3, r3, #255
	cmp	r3, #0
	beq	.L744
	bl	s3eDebugIsDebuggerPresent
	mov	r3, r0
	cmp	r3, #0
	moveq	r3, #0
	movne	r3, #1
	and	r3, r3, #255
	cmp	r3, #0
	beq	.L770
	mvn	r3, #11
	mov	r2, #0
	str	r2, [r3, #0]
	b	.L741
.L744:
	bl	_ZL11IwDebugExitv
	b	.L741
.L743:
	ldr	r3, .L774+4
	mov	r2, #1
	strb	r2, [r3, #0]
	b	.L741
.L770:
	mov	r0, r0	@ nop
.L741:
	mov	r0, #0
	bl	IwDebugAssertSetUID
	b	.L768
.L737:
.LBE93:
.LBB94:
	.loc 19 807 0
	ldr	r3, [sp, #12]
	ldrb	r3, [r3, #12]	@ zero_extendqisi2
	mov	r3, r3, lsr #1
	and	r3, r3, #1
	and	r3, r3, #255
	cmp	r3, #0
	beq	.L748
	ldr	r3, [sp, #12]
	ldr	r2, [r3, #8]
	ldr	r3, [sp, #8]
	cmp	r2, r3
	bcs	.L748
	ldr	r0, .L774
	bl	IwDebugAssertIsChannelOn
	mov	r3, r0
	cmp	r3, #0
	beq	.L748
	ldr	r3, .L774+28
	ldrb	r3, [r3, #0]	@ zero_extendqisi2
	cmp	r3, #0
	bne	.L748
	mov	r3, #1
	b	.L749
.L748:
	mov	r3, #0
.L749:
	cmp	r3, #0
	beq	.L750
	mov	r0, #0
	bl	IwDebugAssertSetSolution
	ldr	r0, .L774+32
	bl	IwDebugAssertSetUID
	ldr	r0, .L774+36
	bl	IwDebugAssertSetMessage
	ldr	r0, .L774+40
	ldr	r1, .L774+20
	ldr	r2, .L774+44
	mov	r3, #1
	bl	IwDebugAssertShow
	mov	r3, r0
	cmp	r3, #1
	beq	.L752
	cmp	r3, #2
	beq	.L753
	b	.L751
.L752:
	bl	s3eDebugIsDebuggerPresent
	mov	r3, r0
	cmp	r3, #0
	moveq	r3, #0
	movne	r3, #1
	and	r3, r3, #255
	cmp	r3, #0
	beq	.L754
	bl	s3eDebugIsDebuggerPresent
	mov	r3, r0
	cmp	r3, #0
	moveq	r3, #0
	movne	r3, #1
	and	r3, r3, #255
	cmp	r3, #0
	beq	.L771
	mvn	r3, #11
	mov	r2, #0
	str	r2, [r3, #0]
	b	.L751
.L754:
	bl	_ZL11IwDebugExitv
	b	.L751
.L753:
	ldr	r3, .L774+28
	mov	r2, #1
	strb	r2, [r3, #0]
	b	.L751
.L771:
	mov	r0, r0	@ nop
.L751:
	mov	r0, #0
	bl	IwDebugAssertSetUID
.L750:
.LBE94:
.LBB95:
	.loc 19 808 0
	ldr	r3, [sp, #12]
	ldr	r2, [r3, #4]
	ldr	r3, [sp, #8]
	cmp	r2, r3
	bls	.L757
	ldr	r0, .L774
	bl	IwDebugAssertIsChannelOn
	mov	r3, r0
	cmp	r3, #0
	beq	.L757
	ldr	r3, .L774+48
	ldrb	r3, [r3, #0]	@ zero_extendqisi2
	cmp	r3, #0
	bne	.L757
	mov	r3, #1
	b	.L758
.L757:
	mov	r3, #0
.L758:
	cmp	r3, #0
	beq	.L759
	mov	r0, #0
	bl	IwDebugAssertSetSolution
	mov	r0, #0
	bl	IwDebugAssertSetUID
	mov	r0, #0
	bl	IwDebugAssertSetMessage
	ldr	r0, .L774+52
	ldr	r1, .L774+20
	mov	r2, #808
	mov	r3, #1
	bl	IwDebugAssertShow
	mov	r3, r0
	cmp	r3, #1
	beq	.L761
	cmp	r3, #2
	beq	.L762
	b	.L760
.L761:
	bl	s3eDebugIsDebuggerPresent
	mov	r3, r0
	cmp	r3, #0
	moveq	r3, #0
	movne	r3, #1
	and	r3, r3, #255
	cmp	r3, #0
	beq	.L763
	bl	s3eDebugIsDebuggerPresent
	mov	r3, r0
	cmp	r3, #0
	moveq	r3, #0
	movne	r3, #1
	and	r3, r3, #255
	cmp	r3, #0
	beq	.L772
	mvn	r3, #11
	mov	r2, #0
	str	r2, [r3, #0]
	b	.L760
.L763:
	bl	_ZL11IwDebugExitv
	b	.L760
.L762:
	ldr	r3, .L774+48
	mov	r2, #1
	strb	r2, [r3, #0]
	b	.L760
.L772:
	mov	r0, r0	@ nop
.L760:
	mov	r0, #0
	bl	IwDebugAssertSetUID
.L759:
.LBE95:
	.loc 19 809 0
	ldr	r3, [sp, #12]
	ldr	r2, [r3, #8]
	ldr	r3, [sp, #8]
	cmp	r2, r3
	beq	.L773
.L766:
	.loc 19 810 0
	ldr	r3, [sp, #12]
	ldr	r2, [sp, #8]
