	.arch armv5te
	.eabi_attribute 27, 3
	.fpu vfp
	.eabi_attribute 20, 1
	.eabi_attribute 21, 1
	.eabi_attribute 23, 3
	.eabi_attribute 24, 1
	.eabi_attribute 25, 1
	.eabi_attribute 26, 2
	.eabi_attribute 30, 6
	.eabi_attribute 18, 2
	.file	"NPC.cpp"
	.text
.Ltext0:
	.cfi_sections	.debug_frame
	.section	.text._ZnwjPv,"axG",%progbits,_ZnwjPv,comdat
	.align	2
	.weak	_ZnwjPv
	.hidden	_ZnwjPv
	.type	_ZnwjPv, %function
_ZnwjPv:
.LFB0:
	.file 1 "c:/marmalade/6.2/s3e/h/std/c++/new.h"
	.loc 1 52 0
	.cfi_startproc
	@ args = 0, pretend = 0, frame = 8
	@ frame_needed = 0, uses_anonymous_args = 0
	@ link register save eliminated.
	sub	sp, sp, #8
.LCFI0:
	.cfi_def_cfa_offset 8
	str	r0, [sp, #4]
	str	r1, [sp, #0]
	.loc 1 52 0
	ldr	r3, [sp, #0]
	mov	r0, r3
	add	sp, sp, #8
	bx	lr
	.cfi_endproc
.LFE0:
	.size	_ZnwjPv, .-_ZnwjPv
	.section	.text._ZL11IwDebugExitv,"ax",%progbits
	.align	2
	.type	_ZL11IwDebugExitv, %function
_ZL11IwDebugExitv:
.LFB24:
	.file 2 "c:/marmalade/6.2/modules/iwutil/h/IwDebug.h"
	.loc 2 354 0
	.cfi_startproc
	@ args = 0, pretend = 0, frame = 0
	@ frame_needed = 0, uses_anonymous_args = 0
	stmfd	sp!, {r3, lr}
.LCFI1:
	.cfi_def_cfa_offset 8
	.loc 2 355 0
	.cfi_offset 14, -4
	.cfi_offset 3, -8
	bl	abort
	.cfi_endproc
.LFE24:
	.size	_ZL11IwDebugExitv, .-_ZL11IwDebugExitv
	.section	.text._ZN8CIwSVec2C1Ev,"axG",%progbits,_ZN8CIwSVec2C1Ev,comdat
	.align	2
	.weak	_ZN8CIwSVec2C1Ev
	.hidden	_ZN8CIwSVec2C1Ev
	.type	_ZN8CIwSVec2C1Ev, %function
_ZN8CIwSVec2C1Ev:
.LFB223:
	.file 3 "c:/marmalade/6.2/modules/iwgeom/h/IwGeomSVec2.h"
	.loc 3 65 0
	.cfi_startproc
	@ args = 0, pretend = 0, frame = 8
	@ frame_needed = 0, uses_anonymous_args = 0
	@ link register save eliminated.
	sub	sp, sp, #8
.LCFI2:
	.cfi_def_cfa_offset 8
	str	r0, [sp, #4]
	.loc 3 65 0
	ldr	r3, [sp, #4]
	mov	r0, r3
	add	sp, sp, #8
	bx	lr
	.cfi_endproc
.LFE223:
	.size	_ZN8CIwSVec2C1Ev, .-_ZN8CIwSVec2C1Ev
	.section	.text._ZN8CIwSVec2C1Ess,"axG",%progbits,_ZN8CIwSVec2C1Ess,comdat
	.align	2
	.weak	_ZN8CIwSVec2C1Ess
	.hidden	_ZN8CIwSVec2C1Ess
	.type	_ZN8CIwSVec2C1Ess, %function
_ZN8CIwSVec2C1Ess:
.LFB226:
	.loc 3 72 0
	.cfi_startproc
	@ args = 0, pretend = 0, frame = 8
	@ frame_needed = 0, uses_anonymous_args = 0
	@ link register save eliminated.
	sub	sp, sp, #8
.LCFI3:
	.cfi_def_cfa_offset 8
	str	r0, [sp, #4]
	mov	r3, r2
	strh	r1, [sp, #2]	@ movhi
	strh	r3, [sp, #0]	@ movhi
	.loc 3 72 0
	ldr	r3, [sp, #4]
	ldrh	r2, [sp, #2]	@ movhi
	strh	r2, [r3, #0]	@ movhi
	ldr	r3, [sp, #4]
	ldrh	r2, [sp, #0]	@ movhi
	strh	r2, [r3, #2]	@ movhi
	ldr	r3, [sp, #4]
	mov	r0, r3
	add	sp, sp, #8
	bx	lr
	.cfi_endproc
.LFE226:
	.size	_ZN8CIwSVec2C1Ess, .-_ZN8CIwSVec2C1Ess
	.section	.text._ZN4_STL11char_traitsIcE6lengthEPKc,"axG",%progbits,_ZN4_STL11char_traitsIcE6lengthEPKc,comdat
	.align	2
	.weak	_ZN4_STL11char_traitsIcE6lengthEPKc
	.hidden	_ZN4_STL11char_traitsIcE6lengthEPKc
	.type	_ZN4_STL11char_traitsIcE6lengthEPKc, %function
_ZN4_STL11char_traitsIcE6lengthEPKc:
.LFB2091:
	.file 4 "c:/marmalade/6.2/s3e/h/std/c++/stl/char_traits.h"
	.loc 4 238 0
	.cfi_startproc
	@ args = 0, pretend = 0, frame = 8
	@ frame_needed = 0, uses_anonymous_args = 0
	str	lr, [sp, #-4]!
.LCFI4:
	.cfi_def_cfa_offset 4
	sub	sp, sp, #12
.LCFI5:
	.cfi_def_cfa_offset 16
	str	r0, [sp, #4]
	.loc 4 238 0
	ldr	r0, [sp, #4]
	.cfi_offset 14, -4
	bl	strlen
	mov	r3, r0
	mov	r0, r3
	add	sp, sp, #12
	ldmfd	sp!, {pc}
	.cfi_endproc
.LFE2091:
	.size	_ZN4_STL11char_traitsIcE6lengthEPKc, .-_ZN4_STL11char_traitsIcE6lengthEPKc
	.section	.text._ZN4_STL8_DestroyEPcS0_,"axG",%progbits,_ZN4_STL8_DestroyEPcS0_,comdat
	.align	2
	.weak	_ZN4_STL8_DestroyEPcS0_
	.hidden	_ZN4_STL8_DestroyEPcS0_
	.type	_ZN4_STL8_DestroyEPcS0_, %function
_ZN4_STL8_DestroyEPcS0_:
.LFB2142:
	.file 5 "c:/marmalade/6.2/s3e/h/std/c++/stl/_construct.h"
	.loc 5 142 0
	.cfi_startproc
	@ args = 0, pretend = 0, frame = 8
	@ frame_needed = 0, uses_anonymous_args = 0
	@ link register save eliminated.
	sub	sp, sp, #8
.LCFI6:
	.cfi_def_cfa_offset 8
	str	r0, [sp, #4]
	str	r1, [sp, #0]
	.loc 5 142 0
	add	sp, sp, #8
	bx	lr
	.cfi_endproc
.LFE2142:
	.size	_ZN4_STL8_DestroyEPcS0_, .-_ZN4_STL8_DestroyEPcS0_
	.section	.text._ZN4_STL14__copy_trivialEPKvS1_Pv,"axG",%progbits,_ZN4_STL14__copy_trivialEPKvS1_Pv,comdat
	.align	2
	.weak	_ZN4_STL14__copy_trivialEPKvS1_Pv
	.hidden	_ZN4_STL14__copy_trivialEPKvS1_Pv
	.type	_ZN4_STL14__copy_trivialEPKvS1_Pv, %function
_ZN4_STL14__copy_trivialEPKvS1_Pv:
.LFB2245:
	.file 6 "c:/marmalade/6.2/s3e/h/std/c++/stl/_algobase.h"
	.loc 6 147 0
	.cfi_startproc
	@ args = 0, pretend = 0, frame = 16
	@ frame_needed = 0, uses_anonymous_args = 0
	str	lr, [sp, #-4]!
.LCFI7:
	.cfi_def_cfa_offset 4
	sub	sp, sp, #20
.LCFI8:
	.cfi_def_cfa_offset 24
	str	r0, [sp, #12]
	str	r1, [sp, #8]
	str	r2, [sp, #4]
	.loc 6 150 0
	ldr	r2, [sp, #8]
	ldr	r3, [sp, #12]
	cmp	r2, r3
	beq	.L16
	.cfi_offset 14, -4
	ldr	r2, [sp, #8]
	ldr	r3, [sp, #12]
	rsb	r3, r3, r2
	ldr	r0, [sp, #4]
	ldr	r1, [sp, #12]
	mov	r2, r3
	bl	memmove
	mov	r3, r0
	mov	r2, r3
	ldr	r1, [sp, #8]
	ldr	r3, [sp, #12]
	rsb	r3, r3, r1
	add	r3, r2, r3
	b	.L17
.L16:
	ldr	r3, [sp, #4]
.L17:
	.loc 6 151 0
	mov	r0, r3
	add	sp, sp, #20
	ldmfd	sp!, {pc}
	.cfi_endproc
.LFE2245:
	.size	_ZN4_STL14__copy_trivialEPKvS1_Pv, .-_ZN4_STL14__copy_trivialEPKvS1_Pv
	.section	.text._ZN4_STL18uninitialized_copyEPKcS1_Pc,"axG",%progbits,_ZN4_STL18uninitialized_copyEPKcS1_Pc,comdat
	.align	2
	.weak	_ZN4_STL18uninitialized_copyEPKcS1_Pc
	.hidden	_ZN4_STL18uninitialized_copyEPKcS1_Pc
	.type	_ZN4_STL18uninitialized_copyEPKcS1_Pc, %function
_ZN4_STL18uninitialized_copyEPKcS1_Pc:
.LFB2344:
	.file 7 "c:/marmalade/6.2/s3e/h/std/c++/stl/_uninitialized.h"
	.loc 7 83 0
	.cfi_startproc
	@ args = 0, pretend = 0, frame = 16
	@ frame_needed = 0, uses_anonymous_args = 0
	str	lr, [sp, #-4]!
.LCFI9:
	.cfi_def_cfa_offset 4
	sub	sp, sp, #20
.LCFI10:
	.cfi_def_cfa_offset 24
	str	r0, [sp, #12]
	str	r1, [sp, #8]
	str	r2, [sp, #4]
	.loc 7 84 0
	ldr	r0, [sp, #12]
	ldr	r1, [sp, #8]
	ldr	r2, [sp, #4]
	.cfi_offset 14, -4
	bl	_ZN4_STL14__copy_trivialEPKvS1_Pv
	mov	r3, r0
	.loc 7 85 0
	mov	r0, r3
	add	sp, sp, #20
	ldmfd	sp!, {pc}
	.cfi_endproc
.LFE2344:
	.size	_ZN4_STL18uninitialized_copyEPKcS1_Pc, .-_ZN4_STL18uninitialized_copyEPKcS1_Pc
	.bss
	.align	2
_ZN4_STLL8_LocInitE:
	.space	1
	.align	2
_ZN4_STLL8_IosInitE:
	.space	1
	.section	.text._ZN5PanelC1Ev,"axG",%progbits,_ZN5PanelC1Ev,comdat
	.align	2
	.weak	_ZN5PanelC1Ev
	.hidden	_ZN5PanelC1Ev
	.type	_ZN5PanelC1Ev, %function
_ZN5PanelC1Ev:
.LFB3164:
	.file 8 "c:/users/1106786/dropbox/dropbox/pg life/project impact/code/demos/o-demo_8_magicdoor/h/panel.h"
	.loc 8 11 0
	.cfi_startproc
	@ args = 0, pretend = 0, frame = 8
	@ frame_needed = 0, uses_anonymous_args = 0
	str	lr, [sp, #-4]!
.LCFI11:
	.cfi_def_cfa_offset 4
	sub	sp, sp, #12
.LCFI12:
	.cfi_def_cfa_offset 16
	str	r0, [sp, #4]
	.loc 8 11 0
	ldr	r3, [sp, #4]
	mov	r0, r3
	mov	r1, #0
	.cfi_offset 14, -4
	bl	_ZN8CIwArrayIP6Button12CIwAllocatorIS1_15CIwMallocRouterIS1_EE17ReallocateDefaultIS1_S5_EEC1Ej
	ldr	r3, [sp, #4]
	add	r3, r3, #20
	mov	r0, r3
	mov	r1, #0
	bl	_ZN8CIwArrayIP10CIw2DImage12CIwAllocatorIS1_15CIwMallocRouterIS1_EE17ReallocateDefaultIS1_S5_EEC1Ej
	ldr	r3, [sp, #4]
	add	r3, r3, #40
	mov	r0, r3
	bl	_ZN4_STL12basic_stringIcNS_11char_traitsIcEENS_9allocatorIcEEEC1Ev
	ldr	r3, [sp, #4]
	add	r3, r3, #52
	mov	r0, r3
	bl	_ZN8CIwSVec2C1Ev
	ldr	r3, [sp, #4]
	add	r3, r3, #56
	mov	r0, r3
	bl	_ZN8CIwSVec2C1Ev
	ldr	r3, [sp, #4]
	add	r3, r3, #60
	mov	r0, r3
	bl	_ZN8CIwSVec2C1Ev
	ldr	r3, [sp, #4]
	mov	r0, r3
	add	sp, sp, #12
	ldmfd	sp!, {pc}
	.cfi_endproc
.LFE3164:
	.size	_ZN5PanelC1Ev, .-_ZN5PanelC1Ev
	.section	.text._ZN3NPC4InitEi,"ax",%progbits
	.align	2
	.global	_ZN3NPC4InitEi
	.hidden	_ZN3NPC4InitEi
	.type	_ZN3NPC4InitEi, %function
_ZN3NPC4InitEi:
.LFB3171:
	.file 9 "c:/users/1106786/dropbox/dropbox/pg life/project impact/code/demos/o-demo_8_magicdoor/src/NPC.cpp"
	.loc 9 4 0
	.cfi_startproc
	@ args = 0, pretend = 0, frame = 40
	@ frame_needed = 0, uses_anonymous_args = 0
	stmfd	sp!, {r4, r5, lr}
.LCFI13:
	.cfi_def_cfa_offset 12
	sub	sp, sp, #52
.LCFI14:
	.cfi_def_cfa_offset 64
	str	r0, [sp, #12]
	str	r1, [sp, #8]
	.loc 9 5 0
	mov	r0, #76
	.cfi_offset 14, -4
	.cfi_offset 5, -8
	.cfi_offset 4, -12
	bl	_Znwj
	mov	r3, r0
	mov	r4, r3
	mov	r3, r4
	mov	r0, r3
	bl	_ZN5PanelC1Ev
	mov	r2, r4
	ldr	r3, [sp, #12]
	str	r2, [r3, #32]
	.loc 9 6 0
	ldr	r3, [sp, #12]
	ldr	r3, [r3, #32]
	mov	r0, r3
	bl	_ZN5Panel4LoadEv
	.loc 9 8 0
	ldr	r3, [sp, #12]
	ldr	r4, [r3, #32]
	bl	_Z20Iw2DGetSurfaceHeightv
	mov	r3, r0
	mov	r3, r3, asl #16
	mov	r3, r3, lsr #16
	sub	r3, r3, #200
	mov	r3, r3, asl #16
	mov	r3, r3, lsr #16
	add	r2, sp, #20
	mov	r3, r3, asl #16
	mov	r3, r3, asr #16
	mov	r0, r2
	mov	r1, #100
	mov	r2, r3
	bl	_ZN8CIwSVec2C1Ess
	bl	_Z19Iw2DGetSurfaceWidthv
	mov	r3, r0
	mov	r3, r3, asl #16
	mov	r3, r3, lsr #16
	sub	r3, r3, #200
	mov	r3, r3, asl #16
	mov	r3, r3, lsr #16
	add	r2, sp, #24
	mov	r3, r3, asl #16
	mov	r3, r3, asr #16
	mov	r0, r2
	mov	r1, r3
	mov	r2, #150
	bl	_ZN8CIwSVec2C1Ess
	mov	r0, r4
	ldr	r1, [sp, #20]
	ldr	r2, [sp, #24]
	ldr	r3, .L26
	bl	_ZN5Panel5SetBGE8CIwSVec2S0_j
	.loc 9 9 0
	ldr	r3, [sp, #12]
	ldr	r4, [r3, #32]
	ldr	r3, [sp, #12]
	add	r3, r3, #16
	mov	r0, r3
	mov	r1, #0
	bl	_ZNK8CIwArrayIPc12CIwAllocatorIS0_15CIwMallocRouterIS0_EE17ReallocateDefaultIS0_S4_EEixEi
	mov	r3, r0
	ldr	r5, [r3, #0]
	add	r3, sp, #40
	mov	r0, r3
	bl	_ZN4_STL9allocatorIcEC1Ev
	add	r2, sp, #28
	add	r3, sp, #40
	mov	r0, r2
	mov	r1, r5
	mov	r2, r3
	bl	_ZN4_STL12basic_stringIcNS_11char_traitsIcEENS_9allocatorIcEEEC1EPKcRKS4_
	bl	_Z20Iw2DGetSurfaceHeightv
	mov	r3, r0
	mov	r3, r3, asl #16
	mov	r3, r3, lsr #16
	sub	r3, r3, #180
	mov	r3, r3, asl #16
	mov	r3, r3, lsr #16
	add	r2, sp, #44
	mov	r3, r3, asl #16
	mov	r3, r3, asr #16
	mov	r0, r2
	mov	r1, #110
	mov	r2, r3
	bl	_ZN8CIwSVec2C1Ess
	add	r3, sp, #28
	mov	r2, #34816
	str	r2, [sp, #0]
	mov	r0, r4
	mov	r1, r3
	ldr	r2, [sp, #44]
	mov	r3, #2
	bl	_ZN5Panel7SetTextEN4_STL12basic_stringIcNS0_11char_traitsIcEENS0_9allocatorIcEEEE8CIwSVec2ij
	add	r3, sp, #28
	mov	r0, r3
	bl	_ZN4_STL12basic_stringIcNS_11char_traitsIcEENS_9allocatorIcEEED1Ev
	add	r3, sp, #40
	mov	r0, r3
	bl	_ZN4_STL9allocatorIcED1Ev
	.loc 9 10 0
	ldr	r3, [sp, #12]
	ldr	r2, [sp, #8]
	str	r2, [r3, #12]
	.loc 9 11 0
	add	sp, sp, #52
	ldmfd	sp!, {r4, r5, pc}
.L27:
	.align	2
.L26:
	.word	-2004318072
	.cfi_endproc
.LFE3171:
	.size	_ZN3NPC4InitEi, .-_ZN3NPC4InitEi
	.section	.text._ZN3NPC6DialogEi,"ax",%progbits
	.align	2
	.global	_ZN3NPC6DialogEi
	.hidden	_ZN3NPC6DialogEi
	.type	_ZN3NPC6DialogEi, %function
_ZN3NPC6DialogEi:
.LFB3172:
	.loc 9 13 0
	.cfi_startproc
	@ args = 0, pretend = 0, frame = 24
	@ frame_needed = 0, uses_anonymous_args = 0
	stmfd	sp!, {r4, r5, lr}
.LCFI15:
	.cfi_def_cfa_offset 12
	sub	sp, sp, #28
.LCFI16:
	.cfi_def_cfa_offset 40
	str	r0, [sp, #4]
	str	r1, [sp, #0]
	.loc 9 14 0
	ldr	r3, [sp, #4]
	ldr	r3, [r3, #32]
	mov	r2, #1
	strb	r2, [r3, #17]
	.loc 9 15 0
	ldr	r3, [sp, #4]
	ldr	r4, [r3, #32]
	.cfi_offset 14, -4
	.cfi_offset 5, -8
	.cfi_offset 4, -12
	ldr	r3, [sp, #4]
	add	r3, r3, #16
	mov	r0, r3
	ldr	r1, [sp, #0]
	bl	_ZNK8CIwArrayIPc12CIwAllocatorIS0_15CIwMallocRouterIS0_EE17ReallocateDefaultIS0_S4_EEixEi
	mov	r3, r0
	ldr	r5, [r3, #0]
	add	r3, sp, #20
	mov	r0, r3
	bl	_ZN4_STL9allocatorIcEC1Ev
	add	r2, sp, #8
	add	r3, sp, #20
	mov	r0, r2
	mov	r1, r5
	mov	r2, r3
	bl	_ZN4_STL12basic_stringIcNS_11char_traitsIcEENS_9allocatorIcEEEC1EPKcRKS4_
	add	r3, sp, #8
	mov	r0, r4
	mov	r1, r3
	bl	_ZN5Panel7SetTextEN4_STL12basic_stringIcNS0_11char_traitsIcEENS0_9allocatorIcEEEE
	add	r3, sp, #8
	mov	r0, r3
	bl	_ZN4_STL12basic_stringIcNS_11char_traitsIcEENS_9allocatorIcEEED1Ev
	add	r3, sp, #20
	mov	r0, r3
	bl	_ZN4_STL9allocatorIcED1Ev
	.loc 9 16 0
	ldr	r3, [sp, #4]
	ldr	r3, [r3, #32]
	mov	r0, r3
	bl	_ZN5Panel6RenderEv
	.loc 9 17 0
	add	sp, sp, #28
	ldmfd	sp!, {r4, r5, pc}
	.cfi_endproc
.LFE3172:
	.size	_ZN3NPC6DialogEi, .-_ZN3NPC6DialogEi
	.section	.text._ZN4_STL12basic_stringIcNS_11char_traitsIcEENS_9allocatorIcEEED1Ev,"axG",%progbits,_ZN4_STL12basic_stringIcNS_11char_traitsIcEENS_9allocatorIcEEED1Ev,comdat
	.align	2
	.weak	_ZN4_STL12basic_stringIcNS_11char_traitsIcEENS_9allocatorIcEEED1Ev
	.hidden	_ZN4_STL12basic_stringIcNS_11char_traitsIcEENS_9allocatorIcEEED1Ev
	.type	_ZN4_STL12basic_stringIcNS_11char_traitsIcEENS_9allocatorIcEEED1Ev, %function
_ZN4_STL12basic_stringIcNS_11char_traitsIcEENS_9allocatorIcEEED1Ev:
.LFB3258:
	.file 10 "c:/marmalade/6.2/s3e/h/std/c++/stl/_string.h"
	.loc 10 305 0
	.cfi_startproc
	@ args = 0, pretend = 0, frame = 8
	@ frame_needed = 0, uses_anonymous_args = 0
	str	lr, [sp, #-4]!
.LCFI17:
	.cfi_def_cfa_offset 4
	sub	sp, sp, #12
.LCFI18:
	.cfi_def_cfa_offset 16
	str	r0, [sp, #4]
	.loc 10 305 0
	ldr	r3, [sp, #4]
	ldr	r2, [r3, #0]
	ldr	r3, [sp, #4]
	ldr	r3, [r3, #4]
	add	r3, r3, #1
	mov	r0, r2
	mov	r1, r3
	.cfi_offset 14, -4
	bl	_ZN4_STL8_DestroyEPcS0_
	ldr	r3, [sp, #4]
	mov	r0, r3
	bl	_ZN4_STL12_String_baseIcNS_9allocatorIcEEED2Ev
	ldr	r3, [sp, #4]
	mov	r0, r3
	add	sp, sp, #12
	ldmfd	sp!, {pc}
	.cfi_endproc
.LFE3258:
	.size	_ZN4_STL12basic_stringIcNS_11char_traitsIcEENS_9allocatorIcEEED1Ev, .-_ZN4_STL12basic_stringIcNS_11char_traitsIcEENS_9allocatorIcEEED1Ev
	.section	.text._ZN8CIwArrayIP6Button12CIwAllocatorIS1_15CIwMallocRouterIS1_EE17ReallocateDefaultIS1_S5_EEC1Ej,"axG",%progbits,_ZN8CIwArrayIP6Button12CIwAllocatorIS1_15CIwMallocRouterIS1_EE17ReallocateDefaultIS1_S5_EEC1Ej,comdat
	.align	2
	.weak	_ZN8CIwArrayIP6Button12CIwAllocatorIS1_15CIwMallocRouterIS1_EE17ReallocateDefaultIS1_S5_EEC1Ej
	.hidden	_ZN8CIwArrayIP6Button12CIwAllocatorIS1_15CIwMallocRouterIS1_EE17ReallocateDefaultIS1_S5_EEC1Ej
	.type	_ZN8CIwArrayIP6Button12CIwAllocatorIS1_15CIwMallocRouterIS1_EE17ReallocateDefaultIS1_S5_EEC1Ej, %function
_ZN8CIwArrayIP6Button12CIwAllocatorIS1_15CIwMallocRouterIS1_EE17ReallocateDefaultIS1_S5_EEC1Ej:
.LFB3270:
	.file 11 "c:/marmalade/6.2/modules/iwutil/h/IwArray.h"
	.loc 11 131 0
	.cfi_startproc
	@ args = 0, pretend = 0, frame = 8
	@ frame_needed = 0, uses_anonymous_args = 0
	str	lr, [sp, #-4]!
.LCFI19:
	.cfi_def_cfa_offset 4
	sub	sp, sp, #12
.LCFI20:
	.cfi_def_cfa_offset 16
	str	r0, [sp, #4]
	str	r1, [sp, #0]
	.loc 11 131 0
	ldr	r3, [sp, #4]
	mov	r2, #0
	str	r2, [r3, #0]
	ldr	r3, [sp, #4]
	mov	r2, #0
	str	r2, [r3, #4]
	ldr	r3, [sp, #4]
	mov	r2, #0
	str	r2, [r3, #8]
	ldr	r2, [sp, #4]
	ldrb	r3, [r2, #12]
	bic	r3, r3, #1
	strb	r3, [r2, #12]
	ldr	r2, [sp, #4]
	ldrb	r3, [r2, #12]
	bic	r3, r3, #2
	strb	r3, [r2, #12]
	.loc 11 133 0
	ldr	r0, [sp, #4]
	ldr	r1, [sp, #0]
	.cfi_offset 14, -4
	bl	_ZN8CIwArrayIP6Button12CIwAllocatorIS1_15CIwMallocRouterIS1_EE17ReallocateDefaultIS1_S5_EE6resizeEj
	.loc 11 134 0
	ldr	r0, [sp, #4]
	bl	_ZN8CIwArrayIP6Button12CIwAllocatorIS1_15CIwMallocRouterIS1_EE17ReallocateDefaultIS1_S5_EE5clearEv
	ldr	r3, [sp, #4]
	.loc 11 135 0
	mov	r0, r3
	add	sp, sp, #12
	ldmfd	sp!, {pc}
	.cfi_endproc
.LFE3270:
	.size	_ZN8CIwArrayIP6Button12CIwAllocatorIS1_15CIwMallocRouterIS1_EE17ReallocateDefaultIS1_S5_EEC1Ej, .-_ZN8CIwArrayIP6Button12CIwAllocatorIS1_15CIwMallocRouterIS1_EE17ReallocateDefaultIS1_S5_EEC1Ej
	.section	.text._ZN8CIwArrayIP10CIw2DImage12CIwAllocatorIS1_15CIwMallocRouterIS1_EE17ReallocateDefaultIS1_S5_EEC1Ej,"axG",%progbits,_ZN8CIwArrayIP10CIw2DImage12CIwAllocatorIS1_15CIwMallocRouterIS1_EE17ReallocateDefaultIS1_S5_EEC1Ej,comdat
	.align	2
	.weak	_ZN8CIwArrayIP10CIw2DImage12CIwAllocatorIS1_15CIwMallocRouterIS1_EE17ReallocateDefaultIS1_S5_EEC1Ej
	.hidden	_ZN8CIwArrayIP10CIw2DImage12CIwAllocatorIS1_15CIwMallocRouterIS1_EE17ReallocateDefaultIS1_S5_EEC1Ej
	.type	_ZN8CIwArrayIP10CIw2DImage12CIwAllocatorIS1_15CIwMallocRouterIS1_EE17ReallocateDefaultIS1_S5_EEC1Ej, %function
_ZN8CIwArrayIP10CIw2DImage12CIwAllocatorIS1_15CIwMallocRouterIS1_EE17ReallocateDefaultIS1_S5_EEC1Ej:
.LFB3276:
	.loc 11 131 0
	.cfi_startproc
	@ args = 0, pretend = 0, frame = 8
	@ frame_needed = 0, uses_anonymous_args = 0
	str	lr, [sp, #-4]!
.LCFI21:
	.cfi_def_cfa_offset 4
	sub	sp, sp, #12
.LCFI22:
	.cfi_def_cfa_offset 16
	str	r0, [sp, #4]
	str	r1, [sp, #0]
	.loc 11 131 0
	ldr	r3, [sp, #4]
	mov	r2, #0
	str	r2, [r3, #0]
	ldr	r3, [sp, #4]
	mov	r2, #0
	str	r2, [r3, #4]
	ldr	r3, [sp, #4]
	mov	r2, #0
	str	r2, [r3, #8]
	ldr	r2, [sp, #4]
	ldrb	r3, [r2, #12]
	bic	r3, r3, #1
	strb	r3, [r2, #12]
	ldr	r2, [sp, #4]
	ldrb	r3, [r2, #12]
	bic	r3, r3, #2
	strb	r3, [r2, #12]
	.loc 11 133 0
	ldr	r0, [sp, #4]
	ldr	r1, [sp, #0]
	.cfi_offset 14, -4
	bl	_ZN8CIwArrayIP10CIw2DImage12CIwAllocatorIS1_15CIwMallocRouterIS1_EE17ReallocateDefaultIS1_S5_EE6resizeEj
	.loc 11 134 0
	ldr	r0, [sp, #4]
	bl	_ZN8CIwArrayIP10CIw2DImage12CIwAllocatorIS1_15CIwMallocRouterIS1_EE17ReallocateDefaultIS1_S5_EE5clearEv
	ldr	r3, [sp, #4]
	.loc 11 135 0
	mov	r0, r3
	add	sp, sp, #12
	ldmfd	sp!, {pc}
	.cfi_endproc
.LFE3276:
	.size	_ZN8CIwArrayIP10CIw2DImage12CIwAllocatorIS1_15CIwMallocRouterIS1_EE17ReallocateDefaultIS1_S5_EEC1Ej, .-_ZN8CIwArrayIP10CIw2DImage12CIwAllocatorIS1_15CIwMallocRouterIS1_EE17ReallocateDefaultIS1_S5_EEC1Ej
	.section	.text._ZN4_STL12basic_stringIcNS_11char_traitsIcEENS_9allocatorIcEEEC1Ev,"axG",%progbits,_ZN4_STL12basic_stringIcNS_11char_traitsIcEENS_9allocatorIcEEEC1Ev,comdat
	.align	2
	.weak	_ZN4_STL12basic_stringIcNS_11char_traitsIcEENS_9allocatorIcEEEC1Ev
	.hidden	_ZN4_STL12basic_stringIcNS_11char_traitsIcEENS_9allocatorIcEEEC1Ev
	.type	_ZN4_STL12basic_stringIcNS_11char_traitsIcEENS_9allocatorIcEEEC1Ev, %function
_ZN4_STL12basic_stringIcNS_11char_traitsIcEENS_9allocatorIcEEEC1Ev:
.LFB3282:
	.file 12 "c:/marmalade/6.2/s3e/h/std/c++/stl/_string.c"
	.loc 12 540 0
	.cfi_startproc
	@ args = 0, pretend = 0, frame = 16
	@ frame_needed = 0, uses_anonymous_args = 0
	stmfd	sp!, {r4, lr}
.LCFI23:
	.cfi_def_cfa_offset 8
	sub	sp, sp, #16
.LCFI24:
	.cfi_def_cfa_offset 24
	str	r0, [sp, #4]
	.loc 12 541 0
	ldr	r4, [sp, #4]
	.cfi_offset 14, -4
	.cfi_offset 4, -8
	add	r3, sp, #12
	mov	r0, r3
	bl	_ZN4_STL9allocatorIcEC1Ev
	add	r3, sp, #12
	mov	r0, r4
	mov	r1, r3
	bl	_ZN4_STL12_String_baseIcNS_9allocatorIcEEEC2ERKS2_
	add	r3, sp, #12
	mov	r0, r3
	bl	_ZN4_STL9allocatorIcED1Ev
	.loc 12 542 0
	ldr	r3, [sp, #4]
	add	r3, r3, #8
	mov	r0, r3
	mov	r1, #8
	mov	r2, #0
	bl	_ZN4_STL9allocatorIcE8allocateEjPKv
	mov	r2, r0
	ldr	r3, [sp, #4]
	str	r2, [r3, #0]
	.loc 12 543 0
	ldr	r3, [sp, #4]
	ldr	r2, [r3, #0]
	ldr	r3, [sp, #4]
	str	r2, [r3, #4]
	.loc 12 544 0
	ldr	r3, [sp, #4]
	ldr	r3, [r3, #0]
	add	r2, r3, #8
	ldr	r3, [sp, #4]
	str	r2, [r3, #8]
	.loc 12 545 0
	ldr	r0, [sp, #4]
	bl	_ZN4_STL12basic_stringIcNS_11char_traitsIcEENS_9allocatorIcEEE19_M_terminate_stringEv
	ldr	r3, [sp, #4]
	.loc 12 546 0
	mov	r0, r3
	add	sp, sp, #16
	ldmfd	sp!, {r4, pc}
	.cfi_endproc
.LFE3282:
	.size	_ZN4_STL12basic_stringIcNS_11char_traitsIcEENS_9allocatorIcEEEC1Ev, .-_ZN4_STL12basic_stringIcNS_11char_traitsIcEENS_9allocatorIcEEEC1Ev
	.section	.rodata
	.align	2
.LC0:
	.ascii	"CORE\000"
	.align	2
.LC1:
	.ascii	"invalid index (%d) into array of size %u\000"
	.align	2
.LC2:
	.ascii	"i>=0 && index<num_p\000"
	.align	2
.LC3:
	.ascii	"c:/marmalade/6.2/modules/iwutil/h/IwArray.h\000"
	.section	.text._ZNK8CIwArrayIPc12CIwAllocatorIS0_15CIwMallocRouterIS0_EE17ReallocateDefaultIS0_S4_EEixEi,"axG",%progbits,_ZNK8CIwArrayIPc12CIwAllocatorIS0_15CIwMallocRouterIS0_EE17ReallocateDefaultIS0_S4_EEixEi,comdat
	.align	2
	.weak	_ZNK8CIwArrayIPc12CIwAllocatorIS0_15CIwMallocRouterIS0_EE17ReallocateDefaultIS0_S4_EEixEi
	.hidden	_ZNK8CIwArrayIPc12CIwAllocatorIS0_15CIwMallocRouterIS0_EE17ReallocateDefaultIS0_S4_EEixEi
	.type	_ZNK8CIwArrayIPc12CIwAllocatorIS0_15CIwMallocRouterIS0_EE17ReallocateDefaultIS0_S4_EEixEi, %function
_ZNK8CIwArrayIPc12CIwAllocatorIS0_15CIwMallocRouterIS0_EE17ReallocateDefaultIS0_S4_EEixEi:
.LFB3288:
	.loc 11 694 0
	.cfi_startproc
	@ args = 0, pretend = 0, frame = 16
	@ frame_needed = 0, uses_anonymous_args = 0
	str	lr, [sp, #-4]!
.LCFI25:
	.cfi_def_cfa_offset 4
	sub	sp, sp, #20
.LCFI26:
	.cfi_def_cfa_offset 24
	str	r0, [sp, #4]
	str	r1, [sp, #0]
.LBB2:
	.loc 11 696 0
	ldr	r3, [sp, #0]
	str	r3, [sp, #12]
.LBB3:
	.loc 11 697 0
	ldr	r3, [sp, #0]
	cmp	r3, #0
	blt	.L43
	.cfi_offset 14, -4
	ldr	r3, [sp, #4]
	ldr	r2, [r3, #4]
	ldr	r3, [sp, #12]
	cmp	r2, r3
	bhi	.L44
.L43:
	ldr	r0, .L55
	bl	IwDebugAssertIsChannelOn
	mov	r3, r0
	cmp	r3, #0
	beq	.L44
	ldr	r3, .L55+4
	ldrb	r3, [r3, #0]	@ zero_extendqisi2
	cmp	r3, #0
	bne	.L44
	mov	r3, #1
	b	.L45
.L44:
	mov	r3, #0
.L45:
	cmp	r3, #0
	beq	.L46
	mov	r0, #0
	bl	IwDebugAssertSetSolution
	ldr	r0, .L55+8
	bl	IwDebugAssertSetUID
	ldr	r3, [sp, #4]
	ldr	r3, [r3, #4]
	ldr	r0, .L55+12
	ldr	r1, [sp, #0]
	mov	r2, r3
	bl	IwDebugAssertSetMessage
	ldr	r0, .L55+16
	ldr	r1, .L55+20
	ldr	r2, .L55+24
	mov	r3, #1
	bl	IwDebugAssertShow
	mov	r3, r0
	cmp	r3, #1
	beq	.L48
	cmp	r3, #2
	beq	.L49
	b	.L47
.L48:
	bl	s3eDebugIsDebuggerPresent
	mov	r3, r0
	cmp	r3, #0
	moveq	r3, #0
	movne	r3, #1
	and	r3, r3, #255
	cmp	r3, #0
	beq	.L50
	bl	s3eDebugIsDebuggerPresent
	mov	r3, r0
	cmp	r3, #0
	moveq	r3, #0
	movne	r3, #1
	and	r3, r3, #255
	cmp	r3, #0
	beq	.L54
	mvn	r3, #11
	mov	r2, #0
	str	r2, [r3, #0]
	b	.L47
.L50:
	bl	_ZL11IwDebugExitv
	b	.L47
.L49:
	ldr	r3, .L55+4
	mov	r2, #1
	strb	r2, [r3, #0]
	b	.L47
.L54:
	mov	r0, r0	@ nop
.L47:
	mov	r0, #0
	bl	IwDebugAssertSetUID
.L46:
.LBE3:
	.loc 11 698 0
	ldr	r3, [sp, #4]
	ldr	r2, [r3, #0]
	ldr	r3, [sp, #12]
	mov	r3, r3, asl #2
	add	r3, r2, r3
.LBE2:
	.loc 11 699 0
	mov	r0, r3
	add	sp, sp, #20
	ldmfd	sp!, {pc}
.L56:
	.align	2
.L55:
	.word	.LC0
	.word	_ZZNK8CIwArrayIPc12CIwAllocatorIS0_15CIwMallocRouterIS0_EE17ReallocateDefaultIS0_S4_EEixEiE21_s_IwAssertIgnoreThis
	.word	1731
	.word	.LC1
	.word	.LC2
	.word	.LC3
	.word	697
	.cfi_endproc
.LFE3288:
	.size	_ZNK8CIwArrayIPc12CIwAllocatorIS0_15CIwMallocRouterIS0_EE17ReallocateDefaultIS0_S4_EEixEi, .-_ZNK8CIwArrayIPc12CIwAllocatorIS0_15CIwMallocRouterIS0_EE17ReallocateDefaultIS0_S4_EEixEi
	.section	.text._ZN4_STL9allocatorIcEC1Ev,"axG",%progbits,_ZN4_STL9allocatorIcEC1Ev,comdat
	.align	2
	.weak	_ZN4_STL9allocatorIcEC1Ev
	.hidden	_ZN4_STL9allocatorIcEC1Ev
	.type	_ZN4_STL9allocatorIcEC1Ev, %function
_ZN4_STL9allocatorIcEC1Ev:
.LFB3291:
	.file 13 "c:/marmalade/6.2/s3e/h/std/c++/stl/_alloc.h"
	.loc 13 345 0
	.cfi_startproc
	@ args = 0, pretend = 0, frame = 8
	@ frame_needed = 0, uses_anonymous_args = 0
	@ link register save eliminated.
	sub	sp, sp, #8
.LCFI27:
	.cfi_def_cfa_offset 8
	str	r0, [sp, #4]
	.loc 13 345 0
	ldr	r3, [sp, #4]
	mov	r0, r3
	add	sp, sp, #8
	bx	lr
	.cfi_endproc
.LFE3291:
	.size	_ZN4_STL9allocatorIcEC1Ev, .-_ZN4_STL9allocatorIcEC1Ev
	.section	.text._ZN4_STL9allocatorIcED2Ev,"axG",%progbits,_ZN4_STL9allocatorIcED2Ev,comdat
	.align	2
	.weak	_ZN4_STL9allocatorIcED2Ev
	.hidden	_ZN4_STL9allocatorIcED2Ev
	.type	_ZN4_STL9allocatorIcED2Ev, %function
_ZN4_STL9allocatorIcED2Ev:
.LFB3293:
	.loc 13 350 0
	.cfi_startproc
	@ args = 0, pretend = 0, frame = 8
	@ frame_needed = 0, uses_anonymous_args = 0
	@ link register save eliminated.
	sub	sp, sp, #8
.LCFI28:
	.cfi_def_cfa_offset 8
	str	r0, [sp, #4]
	.loc 13 350 0
	ldr	r3, [sp, #4]
	mov	r0, r3
	add	sp, sp, #8
	bx	lr
	.cfi_endproc
.LFE3293:
	.size	_ZN4_STL9allocatorIcED2Ev, .-_ZN4_STL9allocatorIcED2Ev
	.section	.text._ZN4_STL9allocatorIcED1Ev,"axG",%progbits,_ZN4_STL9allocatorIcED1Ev,comdat
	.align	2
	.weak	_ZN4_STL9allocatorIcED1Ev
	.hidden	_ZN4_STL9allocatorIcED1Ev
	.type	_ZN4_STL9allocatorIcED1Ev, %function
_ZN4_STL9allocatorIcED1Ev:
.LFB3294:
	.loc 13 350 0
	.cfi_startproc
	@ args = 0, pretend = 0, frame = 8
	@ frame_needed = 0, uses_anonymous_args = 0
	@ link register save eliminated.
	sub	sp, sp, #8
.LCFI29:
	.cfi_def_cfa_offset 8
	str	r0, [sp, #4]
	.loc 13 350 0
	ldr	r3, [sp, #4]
	mov	r0, r3
	add	sp, sp, #8
	bx	lr
	.cfi_endproc
.LFE3294:
	.size	_ZN4_STL9allocatorIcED1Ev, .-_ZN4_STL9allocatorIcED1Ev
	.section	.text._ZN4_STL12basic_stringIcNS_11char_traitsIcEENS_9allocatorIcEEEC1EPKcRKS4_,"axG",%progbits,_ZN4_STL12basic_stringIcNS_11char_traitsIcEENS_9allocatorIcEEEC1EPKcRKS4_,comdat
	.align	2
	.weak	_ZN4_STL12basic_stringIcNS_11char_traitsIcEENS_9allocatorIcEEEC1EPKcRKS4_
	.hidden	_ZN4_STL12basic_stringIcNS_11char_traitsIcEENS_9allocatorIcEEEC1EPKcRKS4_
	.type	_ZN4_STL12basic_stringIcNS_11char_traitsIcEENS_9allocatorIcEEEC1EPKcRKS4_, %function
_ZN4_STL12basic_stringIcNS_11char_traitsIcEENS_9allocatorIcEEEC1EPKcRKS4_:
.LFB3297:
	.loc 12 549 0
	.cfi_startproc
	@ args = 0, pretend = 0, frame = 16
	@ frame_needed = 0, uses_anonymous_args = 0
	str	lr, [sp, #-4]!
.LCFI30:
	.cfi_def_cfa_offset 4
	sub	sp, sp, #20
.LCFI31:
	.cfi_def_cfa_offset 24
	str	r0, [sp, #12]
	str	r1, [sp, #8]
	str	r2, [sp, #4]
	.loc 12 551 0
	ldr	r3, [sp, #12]
	mov	r0, r3
	ldr	r1, [sp, #4]
	.cfi_offset 14, -4
	bl	_ZN4_STL12_String_baseIcNS_9allocatorIcEEEC2ERKS2_
	.loc 12 554 0
	ldr	r0, [sp, #8]
	bl	_ZN4_STL11char_traitsIcE6lengthEPKc
	mov	r2, r0
	ldr	r3, [sp, #8]
	add	r3, r2, r3
	ldr	r0, [sp, #12]
	ldr	r1, [sp, #8]
	mov	r2, r3
	bl	_ZN4_STL12basic_stringIcNS_11char_traitsIcEENS_9allocatorIcEEE19_M_range_initializeIPKcEEvT_S9_
	ldr	r3, [sp, #12]
	.loc 12 555 0
	mov	r0, r3
	add	sp, sp, #20
	ldmfd	sp!, {pc}
	.cfi_endproc
.LFE3297:
	.size	_ZN4_STL12basic_stringIcNS_11char_traitsIcEENS_9allocatorIcEEEC1EPKcRKS4_, .-_ZN4_STL12basic_stringIcNS_11char_traitsIcEENS_9allocatorIcEEEC1EPKcRKS4_
	.section	.text._ZN4_STL17_STLP_alloc_proxyIPccNS_9allocatorIcEEED1Ev,"axG",%progbits,_ZN4_STL17_STLP_alloc_proxyIPccNS_9allocatorIcEEED1Ev,comdat
	.align	2
	.weak	_ZN4_STL17_STLP_alloc_proxyIPccNS_9allocatorIcEEED1Ev
	.hidden	_ZN4_STL17_STLP_alloc_proxyIPccNS_9allocatorIcEEED1Ev
	.type	_ZN4_STL17_STLP_alloc_proxyIPccNS_9allocatorIcEEED1Ev, %function
_ZN4_STL17_STLP_alloc_proxyIPccNS_9allocatorIcEEED1Ev:
.LFB3334:
	.loc 13 481 0
	.cfi_startproc
	@ args = 0, pretend = 0, frame = 8
	@ frame_needed = 0, uses_anonymous_args = 0
	str	lr, [sp, #-4]!
.LCFI32:
	.cfi_def_cfa_offset 4
	sub	sp, sp, #12
.LCFI33:
	.cfi_def_cfa_offset 16
	str	r0, [sp, #4]
	.loc 13 481 0
	ldr	r3, [sp, #4]
	mov	r0, r3
	.cfi_offset 14, -4
	bl	_ZN4_STL9allocatorIcED2Ev
	ldr	r3, [sp, #4]
	mov	r0, r3
	add	sp, sp, #12
	ldmfd	sp!, {pc}
	.cfi_endproc
.LFE3334:
	.size	_ZN4_STL17_STLP_alloc_proxyIPccNS_9allocatorIcEEED1Ev, .-_ZN4_STL17_STLP_alloc_proxyIPccNS_9allocatorIcEEED1Ev
	.section	.text._ZN4_STL12_String_baseIcNS_9allocatorIcEEED2Ev,"axG",%progbits,_ZN4_STL12_String_baseIcNS_9allocatorIcEEED2Ev,comdat
	.align	2
	.weak	_ZN4_STL12_String_baseIcNS_9allocatorIcEEED2Ev
	.hidden	_ZN4_STL12_String_baseIcNS_9allocatorIcEEED2Ev
	.type	_ZN4_STL12_String_baseIcNS_9allocatorIcEEED2Ev, %function
_ZN4_STL12_String_baseIcNS_9allocatorIcEEED2Ev:
.LFB3335:
	.loc 10 135 0
	.cfi_startproc
	@ args = 0, pretend = 0, frame = 8
	@ frame_needed = 0, uses_anonymous_args = 0
	str	lr, [sp, #-4]!
.LCFI34:
	.cfi_def_cfa_offset 4
	sub	sp, sp, #12
.LCFI35:
	.cfi_def_cfa_offset 16
	str	r0, [sp, #4]
	.loc 10 135 0
	ldr	r0, [sp, #4]
	.cfi_offset 14, -4
	bl	_ZN4_STL12_String_baseIcNS_9allocatorIcEEE19_M_deallocate_blockEv
	ldr	r3, [sp, #4]
	add	r3, r3, #8
	mov	r0, r3
	bl	_ZN4_STL17_STLP_alloc_proxyIPccNS_9allocatorIcEEED1Ev
	ldr	r3, [sp, #4]
	mov	r0, r3
	add	sp, sp, #12
	ldmfd	sp!, {pc}
	.cfi_endproc
.LFE3335:
	.size	_ZN4_STL12_String_baseIcNS_9allocatorIcEEED2Ev, .-_ZN4_STL12_String_baseIcNS_9allocatorIcEEED2Ev
	.section	.text._ZN4_STL12_String_baseIcNS_9allocatorIcEEEC2ERKS2_,"axG",%progbits,_ZN4_STL12_String_baseIcNS_9allocatorIcEEEC2ERKS2_,comdat
	.align	2
	.weak	_ZN4_STL12_String_baseIcNS_9allocatorIcEEEC2ERKS2_
	.hidden	_ZN4_STL12_String_baseIcNS_9allocatorIcEEEC2ERKS2_
	.type	_ZN4_STL12_String_baseIcNS_9allocatorIcEEEC2ERKS2_, %function
_ZN4_STL12_String_baseIcNS_9allocatorIcEEEC2ERKS2_:
.LFB3339:
	.loc 10 128 0
	.cfi_startproc
	@ args = 0, pretend = 0, frame = 8
	@ frame_needed = 0, uses_anonymous_args = 0
	str	lr, [sp, #-4]!
.LCFI36:
	.cfi_def_cfa_offset 4
	sub	sp, sp, #12
.LCFI37:
	.cfi_def_cfa_offset 16
	str	r0, [sp, #4]
	str	r1, [sp, #0]
	.loc 10 129 0
	ldr	r3, [sp, #4]
	mov	r2, #0
	str	r2, [r3, #0]
	ldr	r3, [sp, #4]
	mov	r2, #0
	str	r2, [r3, #4]
	ldr	r3, [sp, #4]
	add	r3, r3, #8
	mov	r0, r3
	ldr	r1, [sp, #0]
	mov	r2, #0
	.cfi_offset 14, -4
	bl	_ZN4_STL17_STLP_alloc_proxyIPccNS_9allocatorIcEEEC1ERKS3_S1_
	ldr	r3, [sp, #4]
	mov	r0, r3
	add	sp, sp, #12
	ldmfd	sp!, {pc}
	.cfi_endproc
.LFE3339:
	.size	_ZN4_STL12_String_baseIcNS_9allocatorIcEEEC2ERKS2_, .-_ZN4_STL12_String_baseIcNS_9allocatorIcEEEC2ERKS2_
	.section	.text._ZN8CIwArrayIP6Button12CIwAllocatorIS1_15CIwMallocRouterIS1_EE17ReallocateDefaultIS1_S5_EE6resizeEj,"axG",%progbits,_ZN8CIwArrayIP6Button12CIwAllocatorIS1_15CIwMallocRouterIS1_EE17ReallocateDefaultIS1_S5_EE6resizeEj,comdat
	.align	2
	.weak	_ZN8CIwArrayIP6Button12CIwAllocatorIS1_15CIwMallocRouterIS1_EE17ReallocateDefaultIS1_S5_EE6resizeEj
	.hidden	_ZN8CIwArrayIP6Button12CIwAllocatorIS1_15CIwMallocRouterIS1_EE17ReallocateDefaultIS1_S5_EE6resizeEj
	.type	_ZN8CIwArrayIP6Button12CIwAllocatorIS1_15CIwMallocRouterIS1_EE17ReallocateDefaultIS1_S5_EE6resizeEj, %function
_ZN8CIwArrayIP6Button12CIwAllocatorIS1_15CIwMallocRouterIS1_EE17ReallocateDefaultIS1_S5_EE6resizeEj:
.LFB3356:
	.loc 11 292 0
	.cfi_startproc
	@ args = 0, pretend = 0, frame = 8
	@ frame_needed = 0, uses_anonymous_args = 0
	str	lr, [sp, #-4]!
.LCFI38:
	.cfi_def_cfa_offset 4
	sub	sp, sp, #12
.LCFI39:
	.cfi_def_cfa_offset 16
	str	r0, [sp, #4]
	str	r1, [sp, #0]
	.loc 11 294 0
	ldr	r3, [sp, #4]
	ldr	r2, [r3, #4]
	ldr	r3, [sp, #0]
	cmp	r2, r3
	bcc	.L79
	.cfi_offset 14, -4
	.loc 11 295 0
	ldr	r0, [sp, #4]
	ldr	r1, [sp, #0]
	bl	_ZN8CIwArrayIP6Button12CIwAllocatorIS1_15CIwMallocRouterIS1_EE17ReallocateDefaultIS1_S5_EE8truncateEj
	b	.L81
.L79:
	.loc 11 297 0
	ldr	r3, [sp, #4]
	ldr	r3, [r3, #4]
	ldr	r2, [sp, #0]
	rsb	r3, r3, r2
	ldr	r0, [sp, #4]
	mov	r1, r3
	bl	_ZN8CIwArrayIP6Button12CIwAllocatorIS1_15CIwMallocRouterIS1_EE17ReallocateDefaultIS1_S5_EE13push_back_qtyEi
.L81:
	.loc 11 298 0
	add	sp, sp, #12
	ldmfd	sp!, {pc}
	.cfi_endproc
.LFE3356:
	.size	_ZN8CIwArrayIP6Button12CIwAllocatorIS1_15CIwMallocRouterIS1_EE17ReallocateDefaultIS1_S5_EE6resizeEj, .-_ZN8CIwArrayIP6Button12CIwAllocatorIS1_15CIwMallocRouterIS1_EE17ReallocateDefaultIS1_S5_EE6resizeEj
	.section	.text._ZN8CIwArrayIP6Button12CIwAllocatorIS1_15CIwMallocRouterIS1_EE17ReallocateDefaultIS1_S5_EE5clearEv,"axG",%progbits,_ZN8CIwArrayIP6Button12CIwAllocatorIS1_15CIwMallocRouterIS1_EE17ReallocateDefaultIS1_S5_EE5clearEv,comdat
	.align	2
	.weak	_ZN8CIwArrayIP6Button12CIwAllocatorIS1_15CIwMallocRouterIS1_EE17ReallocateDefaultIS1_S5_EE5clearEv
	.hidden	_ZN8CIwArrayIP6Button12CIwAllocatorIS1_15CIwMallocRouterIS1_EE17ReallocateDefaultIS1_S5_EE5clearEv
	.type	_ZN8CIwArrayIP6Button12CIwAllocatorIS1_15CIwMallocRouterIS1_EE17ReallocateDefaultIS1_S5_EE5clearEv, %function
_ZN8CIwArrayIP6Button12CIwAllocatorIS1_15CIwMallocRouterIS1_EE17ReallocateDefaultIS1_S5_EE5clearEv:
.LFB3357:
	.loc 11 199 0
	.cfi_startproc
	@ args = 0, pretend = 0, frame = 8
	@ frame_needed = 0, uses_anonymous_args = 0
	str	lr, [sp, #-4]!
.LCFI40:
	.cfi_def_cfa_offset 4
	sub	sp, sp, #12
.LCFI41:
	.cfi_def_cfa_offset 16
	str	r0, [sp, #4]
	.loc 11 201 0
	ldr	r0, [sp, #4]
	mov	r1, #0
	.cfi_offset 14, -4
	bl	_ZN8CIwArrayIP6Button12CIwAllocatorIS1_15CIwMallocRouterIS1_EE17ReallocateDefaultIS1_S5_EE8truncateEj
	.loc 11 202 0
	add	sp, sp, #12
	ldmfd	sp!, {pc}
	.cfi_endproc
.LFE3357:
	.size	_ZN8CIwArrayIP6Button12CIwAllocatorIS1_15CIwMallocRouterIS1_EE17ReallocateDefaultIS1_S5_EE5clearEv, .-_ZN8CIwArrayIP6Button12CIwAllocatorIS1_15CIwMallocRouterIS1_EE17ReallocateDefaultIS1_S5_EE5clearEv
	.section	.text._ZN12CIwAllocatorIP6Button15CIwMallocRouterIS1_EE10deallocateEPS1_j,"axG",%progbits,_ZN12CIwAllocatorIP6Button15CIwMallocRouterIS1_EE10deallocateEPS1_j,comdat
	.align	2
	.weak	_ZN12CIwAllocatorIP6Button15CIwMallocRouterIS1_EE10deallocateEPS1_j
	.hidden	_ZN12CIwAllocatorIP6Button15CIwMallocRouterIS1_EE10deallocateEPS1_j
	.type	_ZN12CIwAllocatorIP6Button15CIwMallocRouterIS1_EE10deallocateEPS1_j, %function
_ZN12CIwAllocatorIP6Button15CIwMallocRouterIS1_EE10deallocateEPS1_j:
.LFB3358:
	.file 14 "c:/marmalade/6.2/modules/iwutil/h/IwAllocator.h"
	.loc 14 147 0
	.cfi_startproc
	@ args = 0, pretend = 0, frame = 16
	@ frame_needed = 0, uses_anonymous_args = 0
	str	lr, [sp, #-4]!
.LCFI42:
	.cfi_def_cfa_offset 4
	sub	sp, sp, #20
.LCFI43:
	.cfi_def_cfa_offset 24
	str	r0, [sp, #12]
	str	r1, [sp, #8]
	str	r2, [sp, #4]
	.loc 14 147 0
	ldr	r0, [sp, #8]
	.cfi_offset 14, -4
	bl	_ZN15CIwMallocRouterIP6ButtonE6DoFreeEPv
	add	sp, sp, #20
	ldmfd	sp!, {pc}
	.cfi_endproc
.LFE3358:
	.size	_ZN12CIwAllocatorIP6Button15CIwMallocRouterIS1_EE10deallocateEPS1_j, .-_ZN12CIwAllocatorIP6Button15CIwMallocRouterIS1_EE10deallocateEPS1_j
	.section	.text._ZN8CIwArrayIP10CIw2DImage12CIwAllocatorIS1_15CIwMallocRouterIS1_EE17ReallocateDefaultIS1_S5_EE6resizeEj,"axG",%progbits,_ZN8CIwArrayIP10CIw2DImage12CIwAllocatorIS1_15CIwMallocRouterIS1_EE17ReallocateDefaultIS1_S5_EE6resizeEj,comdat
	.align	2
	.weak	_ZN8CIwArrayIP10CIw2DImage12CIwAllocatorIS1_15CIwMallocRouterIS1_EE17ReallocateDefaultIS1_S5_EE6resizeEj
	.hidden	_ZN8CIwArrayIP10CIw2DImage12CIwAllocatorIS1_15CIwMallocRouterIS1_EE17ReallocateDefaultIS1_S5_EE6resizeEj
	.type	_ZN8CIwArrayIP10CIw2DImage12CIwAllocatorIS1_15CIwMallocRouterIS1_EE17ReallocateDefaultIS1_S5_EE6resizeEj, %function
_ZN8CIwArrayIP10CIw2DImage12CIwAllocatorIS1_15CIwMallocRouterIS1_EE17ReallocateDefaultIS1_S5_EE6resizeEj:
.LFB3359:
	.loc 11 292 0
	.cfi_startproc
	@ args = 0, pretend = 0, frame = 8
	@ frame_needed = 0, uses_anonymous_args = 0
	str	lr, [sp, #-4]!
.LCFI44:
	.cfi_def_cfa_offset 4
	sub	sp, sp, #12
.LCFI45:
	.cfi_def_cfa_offset 16
	str	r0, [sp, #4]
	str	r1, [sp, #0]
	.loc 11 294 0
	ldr	r3, [sp, #4]
	ldr	r2, [r3, #4]
	ldr	r3, [sp, #0]
	cmp	r2, r3
	bcc	.L87
	.cfi_offset 14, -4
	.loc 11 295 0
	ldr	r0, [sp, #4]
	ldr	r1, [sp, #0]
	bl	_ZN8CIwArrayIP10CIw2DImage12CIwAllocatorIS1_15CIwMallocRouterIS1_EE17ReallocateDefaultIS1_S5_EE8truncateEj
	b	.L89
.L87:
	.loc 11 297 0
	ldr	r3, [sp, #4]
	ldr	r3, [r3, #4]
	ldr	r2, [sp, #0]
	rsb	r3, r3, r2
	ldr	r0, [sp, #4]
	mov	r1, r3
	bl	_ZN8CIwArrayIP10CIw2DImage12CIwAllocatorIS1_15CIwMallocRouterIS1_EE17ReallocateDefaultIS1_S5_EE13push_back_qtyEi
.L89:
	.loc 11 298 0
	add	sp, sp, #12
	ldmfd	sp!, {pc}
	.cfi_endproc
.LFE3359:
	.size	_ZN8CIwArrayIP10CIw2DImage12CIwAllocatorIS1_15CIwMallocRouterIS1_EE17ReallocateDefaultIS1_S5_EE6resizeEj, .-_ZN8CIwArrayIP10CIw2DImage12CIwAllocatorIS1_15CIwMallocRouterIS1_EE17ReallocateDefaultIS1_S5_EE6resizeEj
	.section	.text._ZN8CIwArrayIP10CIw2DImage12CIwAllocatorIS1_15CIwMallocRouterIS1_EE17ReallocateDefaultIS1_S5_EE5clearEv,"axG",%progbits,_ZN8CIwArrayIP10CIw2DImage12CIwAllocatorIS1_15CIwMallocRouterIS1_EE17ReallocateDefaultIS1_S5_EE5clearEv,comdat
	.align	2
	.weak	_ZN8CIwArrayIP10CIw2DImage12CIwAllocatorIS1_15CIwMallocRouterIS1_EE17ReallocateDefaultIS1_S5_EE5clearEv
	.hidden	_ZN8CIwArrayIP10CIw2DImage12CIwAllocatorIS1_15CIwMallocRouterIS1_EE17ReallocateDefaultIS1_S5_EE5clearEv
	.type	_ZN8CIwArrayIP10CIw2DImage12CIwAllocatorIS1_15CIwMallocRouterIS1_EE17ReallocateDefaultIS1_S5_EE5clearEv, %function
_ZN8CIwArrayIP10CIw2DImage12CIwAllocatorIS1_15CIwMallocRouterIS1_EE17ReallocateDefaultIS1_S5_EE5clearEv:
.LFB3360:
	.loc 11 199 0
	.cfi_startproc
	@ args = 0, pretend = 0, frame = 8
	@ frame_needed = 0, uses_anonymous_args = 0
	str	lr, [sp, #-4]!
.LCFI46:
	.cfi_def_cfa_offset 4
	sub	sp, sp, #12
.LCFI47:
	.cfi_def_cfa_offset 16
	str	r0, [sp, #4]
	.loc 11 201 0
	ldr	r0, [sp, #4]
	mov	r1, #0
	.cfi_offset 14, -4
	bl	_ZN8CIwArrayIP10CIw2DImage12CIwAllocatorIS1_15CIwMallocRouterIS1_EE17ReallocateDefaultIS1_S5_EE8truncateEj
	.loc 11 202 0
	add	sp, sp, #12
	ldmfd	sp!, {pc}
	.cfi_endproc
.LFE3360:
	.size	_ZN8CIwArrayIP10CIw2DImage12CIwAllocatorIS1_15CIwMallocRouterIS1_EE17ReallocateDefaultIS1_S5_EE5clearEv, .-_ZN8CIwArrayIP10CIw2DImage12CIwAllocatorIS1_15CIwMallocRouterIS1_EE17ReallocateDefaultIS1_S5_EE5clearEv
	.section	.text._ZN12CIwAllocatorIP10CIw2DImage15CIwMallocRouterIS1_EE10deallocateEPS1_j,"axG",%progbits,_ZN12CIwAllocatorIP10CIw2DImage15CIwMallocRouterIS1_EE10deallocateEPS1_j,comdat
	.align	2
	.weak	_ZN12CIwAllocatorIP10CIw2DImage15CIwMallocRouterIS1_EE10deallocateEPS1_j
	.hidden	_ZN12CIwAllocatorIP10CIw2DImage15CIwMallocRouterIS1_EE10deallocateEPS1_j
	.type	_ZN12CIwAllocatorIP10CIw2DImage15CIwMallocRouterIS1_EE10deallocateEPS1_j, %function
_ZN12CIwAllocatorIP10CIw2DImage15CIwMallocRouterIS1_EE10deallocateEPS1_j:
.LFB3361:
	.loc 14 147 0
	.cfi_startproc
	@ args = 0, pretend = 0, frame = 16
	@ frame_needed = 0, uses_anonymous_args = 0
	str	lr, [sp, #-4]!
.LCFI48:
	.cfi_def_cfa_offset 4
	sub	sp, sp, #20
.LCFI49:
	.cfi_def_cfa_offset 24
	str	r0, [sp, #12]
	str	r1, [sp, #8]
	str	r2, [sp, #4]
	.loc 14 147 0
	ldr	r0, [sp, #8]
	.cfi_offset 14, -4
	bl	_ZN15CIwMallocRouterIP10CIw2DImageE6DoFreeEPv
	add	sp, sp, #20
	ldmfd	sp!, {pc}
	.cfi_endproc
.LFE3361:
	.size	_ZN12CIwAllocatorIP10CIw2DImage15CIwMallocRouterIS1_EE10deallocateEPS1_j, .-_ZN12CIwAllocatorIP10CIw2DImage15CIwMallocRouterIS1_EE10deallocateEPS1_j
	.section	.text._ZN4_STL9allocatorIcE8allocateEjPKv,"axG",%progbits,_ZN4_STL9allocatorIcE8allocateEjPKv,comdat
	.align	2
	.weak	_ZN4_STL9allocatorIcE8allocateEjPKv
	.hidden	_ZN4_STL9allocatorIcE8allocateEjPKv
	.type	_ZN4_STL9allocatorIcE8allocateEjPKv, %function
_ZN4_STL9allocatorIcE8allocateEjPKv:
.LFB3362:
	.loc 13 354 0
	.cfi_startproc
	@ args = 0, pretend = 0, frame = 16
	@ frame_needed = 0, uses_anonymous_args = 0
	str	lr, [sp, #-4]!
.LCFI50:
	.cfi_def_cfa_offset 4
	sub	sp, sp, #20
.LCFI51:
	.cfi_def_cfa_offset 24
	str	r0, [sp, #12]
	str	r1, [sp, #8]
	str	r2, [sp, #4]
	.loc 13 355 0
	ldr	r3, [sp, #8]
	cmp	r3, #0
	beq	.L95
	.cfi_offset 14, -4
	ldr	r0, [sp, #8]
	bl	_ZN4_STL14__malloc_allocILi0EE8allocateEj
	mov	r3, r0
	b	.L96
.L95:
	mov	r3, #0
.L96:
	.loc 13 356 0
	mov	r0, r3
	add	sp, sp, #20
	ldmfd	sp!, {pc}
	.cfi_endproc
.LFE3362:
	.size	_ZN4_STL9allocatorIcE8allocateEjPKv, .-_ZN4_STL9allocatorIcE8allocateEjPKv
	.section	.text._ZN4_STL12basic_stringIcNS_11char_traitsIcEENS_9allocatorIcEEE19_M_terminate_stringEv,"axG",%progbits,_ZN4_STL12basic_stringIcNS_11char_traitsIcEENS_9allocatorIcEEE19_M_terminate_stringEv,comdat
	.align	2
	.weak	_ZN4_STL12basic_stringIcNS_11char_traitsIcEENS_9allocatorIcEEE19_M_terminate_stringEv
	.hidden	_ZN4_STL12basic_stringIcNS_11char_traitsIcEENS_9allocatorIcEEE19_M_terminate_stringEv
	.type	_ZN4_STL12basic_stringIcNS_11char_traitsIcEENS_9allocatorIcEEE19_M_terminate_stringEv, %function
_ZN4_STL12basic_stringIcNS_11char_traitsIcEENS_9allocatorIcEEE19_M_terminate_stringEv:
.LFB3363:
	.loc 10 354 0
	.cfi_startproc
	@ args = 0, pretend = 0, frame = 16
	@ frame_needed = 0, uses_anonymous_args = 0
	str	lr, [sp, #-4]!
.LCFI52:
	.cfi_def_cfa_offset 4
	sub	sp, sp, #20
.LCFI53:
	.cfi_def_cfa_offset 24
	str	r0, [sp, #4]
	.loc 10 355 0
	add	r3, sp, #12
	ldr	r0, [sp, #4]
	mov	r1, r3
	.cfi_offset 14, -4
	bl	_ZN4_STL12basic_stringIcNS_11char_traitsIcEENS_9allocatorIcEEE23_M_terminate_string_auxERKNS_11__true_typeE
	.loc 10 356 0
	add	sp, sp, #20
	ldmfd	sp!, {pc}
	.cfi_endproc
.LFE3363:
	.size	_ZN4_STL12basic_stringIcNS_11char_traitsIcEENS_9allocatorIcEEE19_M_terminate_stringEv, .-_ZN4_STL12basic_stringIcNS_11char_traitsIcEENS_9allocatorIcEEE19_M_terminate_stringEv
	.section	.rodata
	.align	2
.LC4:
	.ascii	"q<=num_p\000"
	.section	.text._ZN8CIwArrayIP10CIw2DImage12CIwAllocatorIS1_15CIwMallocRouterIS1_EE17ReallocateDefaultIS1_S5_EE8truncateEj,"axG",%progbits,_ZN8CIwArrayIP10CIw2DImage12CIwAllocatorIS1_15CIwMallocRouterIS1_EE17ReallocateDefaultIS1_S5_EE8truncateEj,comdat
	.align	2
	.weak	_ZN8CIwArrayIP10CIw2DImage12CIwAllocatorIS1_15CIwMallocRouterIS1_EE17ReallocateDefaultIS1_S5_EE8truncateEj
	.hidden	_ZN8CIwArrayIP10CIw2DImage12CIwAllocatorIS1_15CIwMallocRouterIS1_EE17ReallocateDefaultIS1_S5_EE8truncateEj
	.type	_ZN8CIwArrayIP10CIw2DImage12CIwAllocatorIS1_15CIwMallocRouterIS1_EE17ReallocateDefaultIS1_S5_EE8truncateEj, %function
_ZN8CIwArrayIP10CIw2DImage12CIwAllocatorIS1_15CIwMallocRouterIS1_EE17ReallocateDefaultIS1_S5_EE8truncateEj:
.LFB3364:
	.loc 11 765 0
	.cfi_startproc
	@ args = 0, pretend = 0, frame = 16
	@ frame_needed = 0, uses_anonymous_args = 0
	str	lr, [sp, #-4]!
.LCFI54:
	.cfi_def_cfa_offset 4
	sub	sp, sp, #20
.LCFI55:
	.cfi_def_cfa_offset 24
	str	r0, [sp, #4]
	str	r1, [sp, #0]
.LBB4:
.LBB5:
	.loc 11 767 0
	ldr	r3, [sp, #4]
	ldr	r2, [r3, #4]
	ldr	r3, [sp, #0]
	cmp	r2, r3
	bcs	.L101
	.cfi_offset 14, -4
	ldr	r0, .L114
	bl	IwDebugAssertIsChannelOn
	mov	r3, r0
	cmp	r3, #0
	beq	.L101
	ldr	r3, .L114+4
	ldrb	r3, [r3, #0]	@ zero_extendqisi2
	cmp	r3, #0
	bne	.L101
	mov	r3, #1
	b	.L102
.L101:
	mov	r3, #0
.L102:
	cmp	r3, #0
	beq	.L103
	mov	r0, #0
	bl	IwDebugAssertSetSolution
	mov	r0, #0
	bl	IwDebugAssertSetUID
	mov	r0, #0
	bl	IwDebugAssertSetMessage
	ldr	r0, .L114+8
	ldr	r1, .L114+12
	ldr	r2, .L114+16
	mov	r3, #1
	bl	IwDebugAssertShow
	mov	r3, r0
	cmp	r3, #1
	beq	.L105
	cmp	r3, #2
	beq	.L106
	b	.L104
.L105:
	bl	s3eDebugIsDebuggerPresent
	mov	r3, r0
	cmp	r3, #0
	moveq	r3, #0
	movne	r3, #1
	and	r3, r3, #255
	cmp	r3, #0
	beq	.L107
	bl	s3eDebugIsDebuggerPresent
	mov	r3, r0
	cmp	r3, #0
	moveq	r3, #0
	movne	r3, #1
	and	r3, r3, #255
	cmp	r3, #0
	beq	.L113
	mvn	r3, #11
	mov	r2, #0
	str	r2, [r3, #0]
	b	.L104
.L107:
	bl	_ZL11IwDebugExitv
	b	.L104
.L106:
	ldr	r3, .L114+4
	mov	r2, #1
	strb	r2, [r3, #0]
	b	.L104
.L113:
	mov	r0, r0	@ nop
.L104:
	mov	r0, #0
	bl	IwDebugAssertSetUID
.L103:
.LBE5:
.LBB6:
	.loc 11 769 0
	ldr	r3, [sp, #0]
	str	r3, [sp, #12]
	b	.L110
.L111:
	ldr	r3, [sp, #12]
	add	r3, r3, #1
	str	r3, [sp, #12]
.L110:
	ldr	r3, [sp, #4]
	ldr	r2, [r3, #4]
	ldr	r3, [sp, #12]
	cmp	r2, r3
	movls	r3, #0
	movhi	r3, #1
	and	r3, r3, #255
	cmp	r3, #0
	bne	.L111
.LBE6:
	.loc 11 771 0
	ldr	r3, [sp, #4]
	ldr	r2, [sp, #0]
	str	r2, [r3, #4]
.LBE4:
	.loc 11 772 0
	add	sp, sp, #20
	ldmfd	sp!, {pc}
.L115:
	.align	2
.L114:
	.word	.LC0
	.word	_ZZN8CIwArrayIP10CIw2DImage12CIwAllocatorIS1_15CIwMallocRouterIS1_EE17ReallocateDefaultIS1_S5_EE8truncateEjE21_s_IwAssertIgnoreThis
	.word	.LC4
	.word	.LC3
	.word	767
	.cfi_endproc
.LFE3364:
	.size	_ZN8CIwArrayIP10CIw2DImage12CIwAllocatorIS1_15CIwMallocRouterIS1_EE17ReallocateDefaultIS1_S5_EE8truncateEj, .-_ZN8CIwArrayIP10CIw2DImage12CIwAllocatorIS1_15CIwMallocRouterIS1_EE17ReallocateDefaultIS1_S5_EE8truncateEj
	.section	.rodata
	.align	2
.LC5:
	.ascii	"Attempting to change capacity of an array that does"
	.ascii	"n't own its data allocation.\000"
	.align	2
.LC6:
	.ascii	"!block_delete\000"
	.align	2
.LC7:
	.ascii	"Attempting to expand an array that has its size loc"
	.ascii	"ked.\000"
	.align	2
.LC8:
	.ascii	"!no_grow || q <= max_p\000"
	.align	2
.LC9:
	.ascii	"q>=num_p\000"
	.section	.text._ZN8CIwArrayIP10CIw2DImage12CIwAllocatorIS1_15CIwMallocRouterIS1_EE17ReallocateDefaultIS1_S5_EE12set_capacityEj,"axG",%progbits,_ZN8CIwArrayIP10CIw2DImage12CIwAllocatorIS1_15CIwMallocRouterIS1_EE17ReallocateDefaultIS1_S5_EE12set_capacityEj,comdat
	.align	2
	.weak	_ZN8CIwArrayIP10CIw2DImage12CIwAllocatorIS1_15CIwMallocRouterIS1_EE17ReallocateDefaultIS1_S5_EE12set_capacityEj
	.hidden	_ZN8CIwArrayIP10CIw2DImage12CIwAllocatorIS1_15CIwMallocRouterIS1_EE17ReallocateDefaultIS1_S5_EE12set_capacityEj
	.type	_ZN8CIwArrayIP10CIw2DImage12CIwAllocatorIS1_15CIwMallocRouterIS1_EE17ReallocateDefaultIS1_S5_EE12set_capacityEj, %function
_ZN8CIwArrayIP10CIw2DImage12CIwAllocatorIS1_15CIwMallocRouterIS1_EE17ReallocateDefaultIS1_S5_EE12set_capacityEj:
.LFB3365:
	.loc 11 804 0
	.cfi_startproc
	@ args = 0, pretend = 0, frame = 8
	@ frame_needed = 0, uses_anonymous_args = 0
	str	lr, [sp, #-4]!
.LCFI56:
	.cfi_def_cfa_offset 4
	sub	sp, sp, #20
.LCFI57:
	.cfi_def_cfa_offset 24
	str	r0, [sp, #12]
	str	r1, [sp, #8]
.LBB7:
.LBB8:
	.loc 11 806 0
	ldr	r3, [sp, #12]
	ldrb	r3, [r3, #12]
	and	r3, r3, #1
	and	r3, r3, #255
	cmp	r3, #0
	beq	.L117
	.cfi_offset 14, -4
	ldr	r0, .L154
	bl	IwDebugAssertIsChannelOn
	mov	r3, r0
	cmp	r3, #0
	beq	.L118
	ldr	r3, .L154+4
	ldrb	r3, [r3, #0]	@ zero_extendqisi2
	cmp	r3, #0
	bne	.L118
	mov	r3, #1
	b	.L119
.L118:
	mov	r3, #0
.L119:
	cmp	r3, #0
	beq	.L149
	ldr	r0, .L154+8
	bl	IwDebugAssertSetUID
	ldr	r0, .L154+12
	bl	IwDebugAssertSetMessage
	ldr	r0, .L154+16
	ldr	r1, .L154+20
	ldr	r2, .L154+24
	mov	r3, #1
	bl	IwDebugAssertShow
	mov	r3, r0
	cmp	r3, #1
	beq	.L122
	cmp	r3, #2
	beq	.L123
	b	.L121
.L122:
	bl	s3eDebugIsDebuggerPresent
	mov	r3, r0
	cmp	r3, #0
	moveq	r3, #0
	movne	r3, #1
	and	r3, r3, #255
	cmp	r3, #0
	beq	.L124
	bl	s3eDebugIsDebuggerPresent
	mov	r3, r0
	cmp	r3, #0
	moveq	r3, #0
	movne	r3, #1
	and	r3, r3, #255
	cmp	r3, #0
	beq	.L150
	mvn	r3, #11
	mov	r2, #0
	str	r2, [r3, #0]
	b	.L121
.L124:
	bl	_ZL11IwDebugExitv
	b	.L121
.L123:
	ldr	r3, .L154+4
	mov	r2, #1
	strb	r2, [r3, #0]
	b	.L121
.L150:
	mov	r0, r0	@ nop
.L121:
	mov	r0, #0
	bl	IwDebugAssertSetUID
	b	.L148
.L117:
.LBE8:
.LBB9:
	.loc 11 807 0
	ldr	r3, [sp, #12]
	ldrb	r3, [r3, #12]	@ zero_extendqisi2
	mov	r3, r3, lsr #1
	and	r3, r3, #1
	and	r3, r3, #255
	cmp	r3, #0
	beq	.L128
	ldr	r3, [sp, #12]
	ldr	r2, [r3, #8]
	ldr	r3, [sp, #8]
	cmp	r2, r3
	bcs	.L128
	ldr	r0, .L154
	bl	IwDebugAssertIsChannelOn
	mov	r3, r0
	cmp	r3, #0
	beq	.L128
	ldr	r3, .L154+28
	ldrb	r3, [r3, #0]	@ zero_extendqisi2
	cmp	r3, #0
	bne	.L128
	mov	r3, #1
	b	.L129
.L128:
	mov	r3, #0
.L129:
	cmp	r3, #0
	beq	.L130
	mov	r0, #0
	bl	IwDebugAssertSetSolution
	ldr	r0, .L154+32
	bl	IwDebugAssertSetUID
	ldr	r0, .L154+36
	bl	IwDebugAssertSetMessage
	ldr	r0, .L154+40
	ldr	r1, .L154+20
	ldr	r2, .L154+44
	mov	r3, #1
	bl	IwDebugAssertShow
	mov	r3, r0
	cmp	r3, #1
	beq	.L132
	cmp	r3, #2
	beq	.L133
	b	.L131
.L132:
	bl	s3eDebugIsDebuggerPresent
	mov	r3, r0
	cmp	r3, #0
	moveq	r3, #0
	movne	r3, #1
	and	r3, r3, #255
	cmp	r3, #0
	beq	.L134
	bl	s3eDebugIsDebuggerPresent
	mov	r3, r0
	cmp	r3, #0
	moveq	r3, #0
	movne	r3, #1
	and	r3, r3, #255
	cmp	r3, #0
	beq	.L151
	mvn	r3, #11
	mov	r2, #0
	str	r2, [r3, #0]
	b	.L131
.L134:
	bl	_ZL11IwDebugExitv
	b	.L131
.L133:
	ldr	r3, .L154+28
	mov	r2, #1
	strb	r2, [r3, #0]
	b	.L131
.L151:
	mov	r0, r0	@ nop
.L131:
	mov	r0, #0
	bl	IwDebugAssertSetUID
.L130:
.LBE9:
.LBB10:
	.loc 11 808 0
	ldr	r3, [sp, #12]
	ldr	r2, [r3, #4]
	ldr	r3, [sp, #8]
	cmp	r2, r3
	bls	.L137
	ldr	r0, .L154
	bl	IwDebugAssertIsChannelOn
	mov	r3, r0
	cmp	r3, #0
	beq	.L137
	ldr	r3, .L154+48
	ldrb	r3, [r3, #0]	@ zero_extendqisi2
	cmp	r3, #0
	bne	.L137
	mov	r3, #1
	b	.L138
.L137:
	mov	r3, #0
.L138:
	cmp	r3, #0
	beq	.L139
	mov	r0, #0
	bl	IwDebugAssertSetSolution
	mov	r0, #0
	bl	IwDebugAssertSetUID
	mov	r0, #0
	bl	IwDebugAssertSetMessage
	ldr	r0, .L154+52
	ldr	r1, .L154+20
	mov	r2, #808
	mov	r3, #1
	bl	IwDebugAssertShow
	mov	r3, r0
	cmp	r3, #1
	beq	.L141
	cmp	r3, #2
	beq	.L142
	b	.L140
.L141:
	bl	s3eDebugIsDebuggerPresent
	mov	r3, r0
	cmp	r3, #0
	moveq	r3, #0
	movne	r3, #1
	and	r3, r3, #255
	cmp	r3, #0
	beq	.L143
	bl	s3eDebugIsDebuggerPresent
	mov	r3, r0
	cmp	r3, #0
	moveq	r3, #0
	movne	r3, #1
	and	r3, r3, #255
	cmp	r3, #0
	beq	.L152
	mvn	r3, #11
	mov	r2, #0
	str	r2, [r3, #0]
	b	.L140
.L143:
	bl	_ZL11IwDebugExitv
	b	.L140
.L142:
	ldr	r3, .L154+48
	mov	r2, #1
	strb	r2, [r3, #0]
	b	.L140
.L152:
	mov	r0, r0	@ nop
.L140:
	mov	r0, #0
	bl	IwDebugAssertSetUID
.L139:
.LBE10:
	.loc 11 809 0
	ldr	r3, [sp, #12]
	ldr	r2, [r3, #8]
	ldr	r3, [sp, #8]
	cmp	r2, r3
	beq	.L153
.L146:
	.loc 11 810 0
	ldr	r3, [sp, #12]
	ldr	r2, [sp, #8]
	str	r2, [r3, #8]
	.loc 11 811 0
	ldr	r3, [sp, #8]
	cmp	r3, #0
	bne	.L147
	.loc 11 813 0
	ldr	r3, [sp, #12]
	add	r1, r3, #13
	ldr	r3, [sp, #12]
	ldr	r2, [r3, #0]
	ldr	r3, [sp, #12]
	ldr	r3, [r3, #8]
	mov	r0, r1
	mov	r1, r2
	mov	r2, r3
	bl	_ZN12CIwAllocatorIP10CIw2DImage15CIwMallocRouterIS1_EE10deallocateEPS1_j
	.loc 11 814 0
	ldr	r3, [sp, #12]
	mov	r2, #0
	str	r2, [r3, #0]
	b	.L148
.L147:
	.loc 11 818 0
	ldr	r3, [sp, #12]
	ldr	r1, [r3, #4]
	ldr	r3, [sp, #12]
	ldr	r2, [r3, #8]
	ldr	r3, [sp, #12]
	ldr	r3, [r3, #0]
	ldr	r0, [sp, #12]
	add	r0, r0, #13
	str	r0, [sp, #0]
	ldr	r0, [sp, #8]
	bl	_ZN17ReallocateDefaultIP10CIw2DImage12CIwAllocatorIS1_15CIwMallocRouterIS1_EEE10ReallocateEjjjPS1_RS5_
	mov	r2, r0
	ldr	r3, [sp, #12]
	str	r2, [r3, #0]
	b	.L148
.L149:
.LBB11:
	.loc 11 806 0
	mov	r0, r0	@ nop
	b	.L148
.L153:
.LBE11:
	.loc 11 809 0
	mov	r0, r0	@ nop
.L148:
.LBE7:
	.loc 11 820 0
	add	sp, sp, #20
	ldmfd	sp!, {pc}
.L155:
	.align	2
.L154:
	.word	.LC0
	.word	_ZZN8CIwArrayIP10CIw2DImage12CIwAllocatorIS1_15CIwMallocRouterIS1_EE17ReallocateDefaultIS1_S5_EE12set_capacityEjE21_s_IwAssertIgnoreThis
	.word	1733
	.word	.LC5
	.word	.LC6
	.word	.LC3
	.word	806
	.word	_ZZN8CIwArrayIP10CIw2DImage12CIwAllocatorIS1_15CIwMallocRouterIS1_EE17ReallocateDefaultIS1_S5_EE12set_capacityEjE21_s_IwAssertIgnoreThis_0
	.word	1732
	.word	.LC7
	.word	.LC8
	.word	807
	.word	_ZZN8CIwArrayIP10CIw2DImage12CIwAllocatorIS1_15CIwMallocRouterIS1_EE17ReallocateDefaultIS1_S5_EE12set_capacityEjE21_s_IwAssertIgnoreThis_1
	.word	.LC9
	.cfi_endproc
.LFE3365:
	.size	_ZN8CIwArrayIP10CIw2DImage12CIwAllocatorIS1_15CIwMallocRouterIS1_EE17ReallocateDefaultIS1_S5_EE12set_capacityEj, .-_ZN8CIwArrayIP10CIw2DImage12CIwAllocatorIS1_15CIwMallocRouterIS1_EE17ReallocateDefaultIS1_S5_EE12set_capacityEj
	.section	.text._ZN4_STL12basic_stringIcNS_11char_traitsIcEENS_9allocatorIcEEE19_M_range_initializeIPKcEEvT_S9_,"axG",%progbits,_ZN4_STL12basic_stringIcNS_11char_traitsIcEENS_9allocatorIcEEE19_M_range_initializeIPKcEEvT_S9_,comdat
	.align	2
	.weak	_ZN4_STL12basic_stringIcNS_11char_traitsIcEENS_9allocatorIcEEE19_M_range_initializeIPKcEEvT_S9_
	.hidden	_ZN4_STL12basic_stringIcNS_11char_traitsIcEENS_9allocatorIcEEE19_M_range_initializeIPKcEEvT_S9_
	.type	_ZN4_STL12basic_stringIcNS_11char_traitsIcEENS_9allocatorIcEEE19_M_range_initializeIPKcEEvT_S9_, %function
_ZN4_STL12basic_stringIcNS_11char_traitsIcEENS_9allocatorIcEEE19_M_range_initializeIPKcEEvT_S9_:
.LFB3369:
	.loc 10 390 0
	.cfi_startproc
	@ args = 0, pretend = 0, frame = 24
	@ frame_needed = 0, uses_anonymous_args = 0
	str	lr, [sp, #-4]!
.LCFI58:
	.cfi_def_cfa_offset 4
	sub	sp, sp, #28
.LCFI59:
	.cfi_def_cfa_offset 32
	str	r0, [sp, #12]
	str	r1, [sp, #8]
	str	r2, [sp, #4]
	.loc 10 391 0
	add	r3, sp, #20
	ldr	r0, [sp, #12]
	ldr	r1, [sp, #8]
	ldr	r2, [sp, #4]
	.cfi_offset 14, -4
	bl	_ZN4_STL12basic_stringIcNS_11char_traitsIcEENS_9allocatorIcEEE19_M_range_initializeIPKcEEvT_S9_RKNS_20forward_iterator_tagE
	.loc 10 392 0
	add	sp, sp, #28
	ldmfd	sp!, {pc}
	.cfi_endproc
.LFE3369:
	.size	_ZN4_STL12basic_stringIcNS_11char_traitsIcEENS_9allocatorIcEEE19_M_range_initializeIPKcEEvT_S9_, .-_ZN4_STL12basic_stringIcNS_11char_traitsIcEENS_9allocatorIcEEE19_M_range_initializeIPKcEEvT_S9_
	.section	.text._ZN4_STL12_String_baseIcNS_9allocatorIcEEE19_M_deallocate_blockEv,"axG",%progbits,_ZN4_STL12_String_baseIcNS_9allocatorIcEEE19_M_deallocate_blockEv,comdat
	.align	2
	.weak	_ZN4_STL12_String_baseIcNS_9allocatorIcEEE19_M_deallocate_blockEv
	.hidden	_ZN4_STL12_String_baseIcNS_9allocatorIcEEE19_M_deallocate_blockEv
	.type	_ZN4_STL12_String_baseIcNS_9allocatorIcEEE19_M_deallocate_blockEv, %function
_ZN4_STL12_String_baseIcNS_9allocatorIcEEE19_M_deallocate_blockEv:
.LFB3384:
	.loc 10 123 0
	.cfi_startproc
	@ args = 0, pretend = 0, frame = 8
	@ frame_needed = 0, uses_anonymous_args = 0
	str	lr, [sp, #-4]!
.LCFI60:
	.cfi_def_cfa_offset 4
	sub	sp, sp, #12
.LCFI61:
	.cfi_def_cfa_offset 16
	str	r0, [sp, #4]
	.loc 10 124 0
	ldr	r3, [sp, #4]
	add	r3, r3, #8
	mov	r1, r3
	ldr	r3, [sp, #4]
	ldr	r2, [r3, #0]
	ldr	r3, [sp, #4]
	ldr	r3, [r3, #8]
	mov	r0, r3
	ldr	r3, [sp, #4]
	ldr	r3, [r3, #0]
	rsb	r3, r3, r0
	mov	r0, r1
	mov	r1, r2
	mov	r2, r3
	.cfi_offset 14, -4
	bl	_ZN4_STL9allocatorIcE10deallocateEPcj
	add	sp, sp, #12
	ldmfd	sp!, {pc}
	.cfi_endproc
.LFE3384:
	.size	_ZN4_STL12_String_baseIcNS_9allocatorIcEEE19_M_deallocate_blockEv, .-_ZN4_STL12_String_baseIcNS_9allocatorIcEEE19_M_deallocate_blockEv
	.section	.text._ZN4_STL9allocatorIcEC2ERKS1_,"axG",%progbits,_ZN4_STL9allocatorIcEC2ERKS1_,comdat
	.align	2
	.weak	_ZN4_STL9allocatorIcEC2ERKS1_
	.hidden	_ZN4_STL9allocatorIcEC2ERKS1_
	.type	_ZN4_STL9allocatorIcEC2ERKS1_, %function
_ZN4_STL9allocatorIcEC2ERKS1_:
.LFB3386:
	.loc 13 349 0
	.cfi_startproc
	@ args = 0, pretend = 0, frame = 8
	@ frame_needed = 0, uses_anonymous_args = 0
	@ link register save eliminated.
	sub	sp, sp, #8
.LCFI62:
	.cfi_def_cfa_offset 8
	str	r0, [sp, #4]
	str	r1, [sp, #0]
	.loc 13 349 0
	ldr	r3, [sp, #4]
	mov	r0, r3
	add	sp, sp, #8
	bx	lr
	.cfi_endproc
.LFE3386:
	.size	_ZN4_STL9allocatorIcEC2ERKS1_, .-_ZN4_STL9allocatorIcEC2ERKS1_
	.section	.text._ZN4_STL17_STLP_alloc_proxyIPccNS_9allocatorIcEEEC1ERKS3_S1_,"axG",%progbits,_ZN4_STL17_STLP_alloc_proxyIPccNS_9allocatorIcEEEC1ERKS3_S1_,comdat
	.align	2
	.weak	_ZN4_STL17_STLP_alloc_proxyIPccNS_9allocatorIcEEEC1ERKS3_S1_
	.hidden	_ZN4_STL17_STLP_alloc_proxyIPccNS_9allocatorIcEEEC1ERKS3_S1_
	.type	_ZN4_STL17_STLP_alloc_proxyIPccNS_9allocatorIcEEEC1ERKS3_S1_, %function
_ZN4_STL17_STLP_alloc_proxyIPccNS_9allocatorIcEEEC1ERKS3_S1_:
.LFB3390:
	.loc 13 487 0
	.cfi_startproc
	@ args = 0, pretend = 0, frame = 16
	@ frame_needed = 0, uses_anonymous_args = 0
	str	lr, [sp, #-4]!
.LCFI63:
	.cfi_def_cfa_offset 4
	sub	sp, sp, #20
.LCFI64:
	.cfi_def_cfa_offset 24
	str	r0, [sp, #12]
	str	r1, [sp, #8]
	str	r2, [sp, #4]
	.loc 13 487 0
	ldr	r3, [sp, #12]
	mov	r0, r3
	ldr	r1, [sp, #8]
	.cfi_offset 14, -4
	bl	_ZN4_STL9allocatorIcEC2ERKS1_
	ldr	r3, [sp, #12]
	ldr	r2, [sp, #4]
	str	r2, [r3, #0]
	ldr	r3, [sp, #12]
	mov	r0, r3
	add	sp, sp, #20
	ldmfd	sp!, {pc}
	.cfi_endproc
.LFE3390:
	.size	_ZN4_STL17_STLP_alloc_proxyIPccNS_9allocatorIcEEEC1ERKS3_S1_, .-_ZN4_STL17_STLP_alloc_proxyIPccNS_9allocatorIcEEEC1ERKS3_S1_
	.section	.text._ZN8CIwArrayIP6Button12CIwAllocatorIS1_15CIwMallocRouterIS1_EE17ReallocateDefaultIS1_S5_EE8truncateEj,"axG",%progbits,_ZN8CIwArrayIP6Button12CIwAllocatorIS1_15CIwMallocRouterIS1_EE17ReallocateDefaultIS1_S5_EE8truncateEj,comdat
	.align	2
	.weak	_ZN8CIwArrayIP6Button12CIwAllocatorIS1_15CIwMallocRouterIS1_EE17ReallocateDefaultIS1_S5_EE8truncateEj
	.hidden	_ZN8CIwArrayIP6Button12CIwAllocatorIS1_15CIwMallocRouterIS1_EE17ReallocateDefaultIS1_S5_EE8truncateEj
	.type	_ZN8CIwArrayIP6Button12CIwAllocatorIS1_15CIwMallocRouterIS1_EE17ReallocateDefaultIS1_S5_EE8truncateEj, %function
_ZN8CIwArrayIP6Button12CIwAllocatorIS1_15CIwMallocRouterIS1_EE17ReallocateDefaultIS1_S5_EE8truncateEj:
.LFB3400:
	.loc 11 765 0
	.cfi_startproc
	@ args = 0, pretend = 0, frame = 16
	@ frame_needed = 0, uses_anonymous_args = 0
	str	lr, [sp, #-4]!
.LCFI65:
	.cfi_def_cfa_offset 4
	sub	sp, sp, #20
.LCFI66:
	.cfi_def_cfa_offset 24
	str	r0, [sp, #4]
	str	r1, [sp, #0]
.LBB12:
.LBB13:
	.loc 11 767 0
	ldr	r3, [sp, #4]
	ldr	r2, [r3, #4]
	ldr	r3, [sp, #0]
	cmp	r2, r3
	bcs	.L167
	.cfi_offset 14, -4
	ldr	r0, .L180
	bl	IwDebugAssertIsChannelOn
	mov	r3, r0
	cmp	r3, #0
	beq	.L167
	ldr	r3, .L180+4
	ldrb	r3, [r3, #0]	@ zero_extendqisi2
	cmp	r3, #0
	bne	.L167
	mov	r3, #1
	b	.L168
.L167:
	mov	r3, #0
.L168:
	cmp	r3, #0
	beq	.L169
	mov	r0, #0
	bl	IwDebugAssertSetSolution
	mov	r0, #0
	bl	IwDebugAssertSetUID
	mov	r0, #0
	bl	IwDebugAssertSetMessage
	ldr	r0, .L180+8
	ldr	r1, .L180+12
	ldr	r2, .L180+16
	mov	r3, #1
	bl	IwDebugAssertShow
	mov	r3, r0
	cmp	r3, #1
	beq	.L171
	cmp	r3, #2
	beq	.L172
	b	.L170
.L171:
	bl	s3eDebugIsDebuggerPresent
	mov	r3, r0
	cmp	r3, #0
	moveq	r3, #0
	movne	r3, #1
	and	r3, r3, #255
	cmp	r3, #0
	beq	.L173
	bl	s3eDebugIsDebuggerPresent
	mov	r3, r0
	cmp	r3, #0
	moveq	r3, #0
	movne	r3, #1
	and	r3, r3, #255
	cmp	r3, #0
	beq	.L179
	mvn	r3, #11
	mov	r2, #0
	str	r2, [r3, #0]
	b	.L170
.L173:
	bl	_ZL11IwDebugExitv
	b	.L170
.L172:
	ldr	r3, .L180+4
	mov	r2, #1
	strb	r2, [r3, #0]
	b	.L170
.L179:
	mov	r0, r0	@ nop
.L170:
	mov	r0, #0
	bl	IwDebugAssertSetUID
.L169:
.LBE13:
.LBB14:
	.loc 11 769 0
	ldr	r3, [sp, #0]
	str	r3, [sp, #12]
	b	.L176
.L177:
	ldr	r3, [sp, #12]
	add	r3, r3, #1
	str	r3, [sp, #12]
.L176:
	ldr	r3, [sp, #4]
	ldr	r2, [r3, #4]
	ldr	r3, [sp, #12]
	cmp	r2, r3
	movls	r3, #0
	movhi	r3, #1
	and	r3, r3, #255
	cmp	r3, #0
	bne	.L177
.LBE14:
	.loc 11 771 0
	ldr	r3, [sp, #4]
	ldr	r2, [sp, #0]
	str	r2, [r3, #4]
.LBE12:
	.loc 11 772 0
	add	sp, sp, #20
	ldmfd	sp!, {pc}
.L181:
	.align	2
.L180:
	.word	.LC0
	.word	_ZZN8CIwArrayIP6Button12CIwAllocatorIS1_15CIwMallocRouterIS1_EE17ReallocateDefaultIS1_S5_EE8truncateEjE21_s_IwAssertIgnoreThis
	.word	.LC4
	.word	.LC3
	.word	767
	.cfi_endproc
.LFE3400:
	.size	_ZN8CIwArrayIP6Button12CIwAllocatorIS1_15CIwMallocRouterIS1_EE17ReallocateDefaultIS1_S5_EE8truncateEj, .-_ZN8CIwArrayIP6Button12CIwAllocatorIS1_15CIwMallocRouterIS1_EE17ReallocateDefaultIS1_S5_EE8truncateEj
	.section	.rodata
	.align	2
.LC10:
	.ascii	"qty>=0\000"
	.section	.text._ZN8CIwArrayIP6Button12CIwAllocatorIS1_15CIwMallocRouterIS1_EE17ReallocateDefaultIS1_S5_EE13push_back_qtyEi,"axG",%progbits,_ZN8CIwArrayIP6Button12CIwAllocatorIS1_15CIwMallocRouterIS1_EE17ReallocateDefaultIS1_S5_EE13push_back_qtyEi,comdat
	.align	2
	.weak	_ZN8CIwArrayIP6Button12CIwAllocatorIS1_15CIwMallocRouterIS1_EE17ReallocateDefaultIS1_S5_EE13push_back_qtyEi
	.hidden	_ZN8CIwArrayIP6Button12CIwAllocatorIS1_15CIwMallocRouterIS1_EE17ReallocateDefaultIS1_S5_EE13push_back_qtyEi
	.type	_ZN8CIwArrayIP6Button12CIwAllocatorIS1_15CIwMallocRouterIS1_EE17ReallocateDefaultIS1_S5_EE13push_back_qtyEi, %function
_ZN8CIwArrayIP6Button12CIwAllocatorIS1_15CIwMallocRouterIS1_EE17ReallocateDefaultIS1_S5_EE13push_back_qtyEi:
.LFB3401:
	.loc 11 679 0
	.cfi_startproc
	@ args = 0, pretend = 0, frame = 16
	@ frame_needed = 0, uses_anonymous_args = 0
	str	lr, [sp, #-4]!
.LCFI67:
	.cfi_def_cfa_offset 4
	sub	sp, sp, #20
.LCFI68:
	.cfi_def_cfa_offset 24
	str	r0, [sp, #4]
	str	r1, [sp, #0]
.LBB15:
.LBB16:
	.loc 11 681 0
	ldr	r3, [sp, #0]
	cmp	r3, #0
	bge	.L183
	.cfi_offset 14, -4
	ldr	r0, .L196
	bl	IwDebugAssertIsChannelOn
	mov	r3, r0
	cmp	r3, #0
	beq	.L183
	ldr	r3, .L196+4
	ldrb	r3, [r3, #0]	@ zero_extendqisi2
	cmp	r3, #0
	bne	.L183
	mov	r3, #1
	b	.L184
.L183:
	mov	r3, #0
.L184:
	cmp	r3, #0
	beq	.L185
	mov	r0, #0
	bl	IwDebugAssertSetSolution
	mov	r0, #0
	bl	IwDebugAssertSetUID
	mov	r0, #0
	bl	IwDebugAssertSetMessage
	ldr	r0, .L196+8
	ldr	r1, .L196+12
	ldr	r2, .L196+16
	mov	r3, #1
	bl	IwDebugAssertShow
	mov	r3, r0
	cmp	r3, #1
	beq	.L187
	cmp	r3, #2
	beq	.L188
	b	.L186
.L187:
	bl	s3eDebugIsDebuggerPresent
	mov	r3, r0
	cmp	r3, #0
	moveq	r3, #0
	movne	r3, #1
	and	r3, r3, #255
	cmp	r3, #0
	beq	.L189
	bl	s3eDebugIsDebuggerPresent
	mov	r3, r0
	cmp	r3, #0
	moveq	r3, #0
	movne	r3, #1
	and	r3, r3, #255
	cmp	r3, #0
	beq	.L195
	mvn	r3, #11
	mov	r2, #0
	str	r2, [r3, #0]
	b	.L186
.L189:
	bl	_ZL11IwDebugExitv
	b	.L186
.L188:
	ldr	r3, .L196+4
	mov	r2, #1
	strb	r2, [r3, #0]
	b	.L186
.L195:
	mov	r0, r0	@ nop
.L186:
	mov	r0, #0
	bl	IwDebugAssertSetUID
.L185:
.LBE16:
	.loc 11 682 0
	ldr	r3, [sp, #4]
	ldr	r2, [r3, #4]
	ldr	r3, [sp, #0]
	add	r3, r2, r3
	ldr	r0, [sp, #4]
	mov	r1, r3
	bl	_ZN8CIwArrayIP6Button12CIwAllocatorIS1_15CIwMallocRouterIS1_EE17ReallocateDefaultIS1_S5_EE7reserveEj
.LBB17:
	.loc 11 683 0
	mov	r3, #0
	str	r3, [sp, #12]
	b	.L192
.L193:
	.loc 11 684 0
	ldr	r3, [sp, #4]
	ldr	r2, [r3, #0]
	ldr	r3, [sp, #4]
	ldr	r1, [r3, #4]
	ldr	r3, [sp, #12]
	add	r3, r1, r3
	mov	r3, r3, asl #2
	add	r3, r2, r3
	mov	r0, #4
	mov	r1, r3
	bl	_ZnwjPv
	.loc 11 683 0
	ldr	r3, [sp, #12]
	add	r3, r3, #1
	str	r3, [sp, #12]
.L192:
	ldr	r2, [sp, #12]
	ldr	r3, [sp, #0]
	cmp	r2, r3
	movge	r3, #0
	movlt	r3, #1
	and	r3, r3, #255
	cmp	r3, #0
	bne	.L193
.LBE17:
	.loc 11 685 0
	ldr	r3, [sp, #4]
	ldr	r2, [r3, #4]
	ldr	r3, [sp, #0]
	add	r2, r2, r3
	ldr	r3, [sp, #4]
	str	r2, [r3, #4]
.LBE15:
	.loc 11 686 0
	add	sp, sp, #20
	ldmfd	sp!, {pc}
.L197:
	.align	2
.L196:
	.word	.LC0
	.word	_ZZN8CIwArrayIP6Button12CIwAllocatorIS1_15CIwMallocRouterIS1_EE17ReallocateDefaultIS1_S5_EE13push_back_qtyEiE21_s_IwAssertIgnoreThis
	.word	.LC10
	.word	.LC3
	.word	681
	.cfi_endproc
.LFE3401:
	.size	_ZN8CIwArrayIP6Button12CIwAllocatorIS1_15CIwMallocRouterIS1_EE17ReallocateDefaultIS1_S5_EE13push_back_qtyEi, .-_ZN8CIwArrayIP6Button12CIwAllocatorIS1_15CIwMallocRouterIS1_EE17ReallocateDefaultIS1_S5_EE13push_back_qtyEi
	.section	.text._ZN15CIwMallocRouterIP6ButtonE6DoFreeEPv,"axG",%progbits,_ZN15CIwMallocRouterIP6ButtonE6DoFreeEPv,comdat
	.align	2
	.weak	_ZN15CIwMallocRouterIP6ButtonE6DoFreeEPv
	.hidden	_ZN15CIwMallocRouterIP6ButtonE6DoFreeEPv
	.type	_ZN15CIwMallocRouterIP6ButtonE6DoFreeEPv, %function
_ZN15CIwMallocRouterIP6ButtonE6DoFreeEPv:
.LFB3402:
	.loc 14 93 0
	.cfi_startproc
	@ args = 0, pretend = 0, frame = 8
	@ frame_needed = 0, uses_anonymous_args = 0
	str	lr, [sp, #-4]!
.LCFI69:
	.cfi_def_cfa_offset 4
	sub	sp, sp, #12
.LCFI70:
	.cfi_def_cfa_offset 16
	str	r0, [sp, #4]
	.loc 14 95 0
	ldr	r0, [sp, #4]
	mov	r1, #4
	.cfi_offset 14, -4
	bl	_ZN22CIwDefaultMallocRouter8BaseFreeEPvj
	.loc 14 96 0
	add	sp, sp, #12
	ldmfd	sp!, {pc}
	.cfi_endproc
.LFE3402:
	.size	_ZN15CIwMallocRouterIP6ButtonE6DoFreeEPv, .-_ZN15CIwMallocRouterIP6ButtonE6DoFreeEPv
	.section	.text._ZN8CIwArrayIP10CIw2DImage12CIwAllocatorIS1_15CIwMallocRouterIS1_EE17ReallocateDefaultIS1_S5_EE13push_back_qtyEi,"axG",%progbits,_ZN8CIwArrayIP10CIw2DImage12CIwAllocatorIS1_15CIwMallocRouterIS1_EE17ReallocateDefaultIS1_S5_EE13push_back_qtyEi,comdat
	.align	2
	.weak	_ZN8CIwArrayIP10CIw2DImage12CIwAllocatorIS1_15CIwMallocRouterIS1_EE17ReallocateDefaultIS1_S5_EE13push_back_qtyEi
	.hidden	_ZN8CIwArrayIP10CIw2DImage12CIwAllocatorIS1_15CIwMallocRouterIS1_EE17ReallocateDefaultIS1_S5_EE13push_back_qtyEi
	.type	_ZN8CIwArrayIP10CIw2DImage12CIwAllocatorIS1_15CIwMallocRouterIS1_EE17ReallocateDefaultIS1_S5_EE13push_back_qtyEi, %function
_ZN8CIwArrayIP10CIw2DImage12CIwAllocatorIS1_15CIwMallocRouterIS1_EE17ReallocateDefaultIS1_S5_EE13push_back_qtyEi:
.LFB3403:
	.loc 11 679 0
	.cfi_startproc
	@ args = 0, pretend = 0, frame = 16
	@ frame_needed = 0, uses_anonymous_args = 0
	str	lr, [sp, #-4]!
.LCFI71:
	.cfi_def_cfa_offset 4
	sub	sp, sp, #20
.LCFI72:
	.cfi_def_cfa_offset 24
	str	r0, [sp, #4]
	str	r1, [sp, #0]
.LBB18:
.LBB19:
	.loc 11 681 0
	ldr	r3, [sp, #0]
	cmp	r3, #0
	bge	.L201
	.cfi_offset 14, -4
	ldr	r0, .L214
	bl	IwDebugAssertIsChannelOn
	mov	r3, r0
	cmp	r3, #0
	beq	.L201
	ldr	r3, .L214+4
	ldrb	r3, [r3, #0]	@ zero_extendqisi2
	cmp	r3, #0
	bne	.L201
	mov	r3, #1
	b	.L202
.L201:
	mov	r3, #0
.L202:
	cmp	r3, #0
	beq	.L203
	mov	r0, #0
	bl	IwDebugAssertSetSolution
	mov	r0, #0
	bl	IwDebugAssertSetUID
	mov	r0, #0
	bl	IwDebugAssertSetMessage
	ldr	r0, .L214+8
	ldr	r1, .L214+12
	ldr	r2, .L214+16
	mov	r3, #1
	bl	IwDebugAssertShow
	mov	r3, r0
	cmp	r3, #1
	beq	.L205
	cmp	r3, #2
	beq	.L206
	b	.L204
.L205:
	bl	s3eDebugIsDebuggerPresent
	mov	r3, r0
	cmp	r3, #0
	moveq	r3, #0
	movne	r3, #1
	and	r3, r3, #255
	cmp	r3, #0
	beq	.L207
	bl	s3eDebugIsDebuggerPresent
	mov	r3, r0
	cmp	r3, #0
	moveq	r3, #0
	movne	r3, #1
	and	r3, r3, #255
	cmp	r3, #0
	beq	.L213
	mvn	r3, #11
	mov	r2, #0
	str	r2, [r3, #0]
	b	.L204
.L207:
	bl	_ZL11IwDebugExitv
	b	.L204
.L206:
	ldr	r3, .L214+4
	mov	r2, #1
	strb	r2, [r3, #0]
	b	.L204
.L213:
	mov	r0, r0	@ nop
.L204:
	mov	r0, #0
	bl	IwDebugAssertSetUID
.L203:
.LBE19:
	.loc 11 682 0
	ldr	r3, [sp, #4]
	ldr	r2, [r3, #4]
	ldr	r3, [sp, #0]
	add	r3, r2, r3
	ldr	r0, [sp, #4]
	mov	r1, r3
	bl	_ZN8CIwArrayIP10CIw2DImage12CIwAllocatorIS1_15CIwMallocRouterIS1_EE17ReallocateDefaultIS1_S5_EE7reserveEj
.LBB20:
	.loc 11 683 0
	mov	r3, #0
	str	r3, [sp, #12]
	b	.L210
.L211:
	.loc 11 684 0
	ldr	r3, [sp, #4]
	ldr	r2, [r3, #0]
	ldr	r3, [sp, #4]
	ldr	r1, [r3, #4]
	ldr	r3, [sp, #12]
	add	r3, r1, r3
	mov	r3, r3, asl #2
	add	r3, r2, r3
	mov	r0, #4
	mov	r1, r3
	bl	_ZnwjPv
	.loc 11 683 0
	ldr	r3, [sp, #12]
	add	r3, r3, #1
	str	r3, [sp, #12]
.L210:
	ldr	r2, [sp, #12]
	ldr	r3, [sp, #0]
	cmp	r2, r3
	movge	r3, #0
	movlt	r3, #1
	and	r3, r3, #255
	cmp	r3, #0
	bne	.L211
.LBE20:
	.loc 11 685 0
	ldr	r3, [sp, #4]
	ldr	r2, [r3, #4]
	ldr	r3, [sp, #0]
	add	r2, r2, r3
	ldr	r3, [sp, #4]
	str	r2, [r3, #4]
.LBE18:
	.loc 11 686 0
	add	sp, sp, #20
	ldmfd	sp!, {pc}
.L215:
	.align	2
.L214:
	.word	.LC0
	.word	_ZZN8CIwArrayIP10CIw2DImage12CIwAllocatorIS1_15CIwMallocRouterIS1_EE17ReallocateDefaultIS1_S5_EE13push_back_qtyEiE21_s_IwAssertIgnoreThis
	.word	.LC10
	.word	.LC3
	.word	681
	.cfi_endproc
.LFE3403:
	.size	_ZN8CIwArrayIP10CIw2DImage12CIwAllocatorIS1_15CIwMallocRouterIS1_EE17ReallocateDefaultIS1_S5_EE13push_back_qtyEi, .-_ZN8CIwArrayIP10CIw2DImage12CIwAllocatorIS1_15CIwMallocRouterIS1_EE17ReallocateDefaultIS1_S5_EE13push_back_qtyEi
	.section	.text._ZN15CIwMallocRouterIP10CIw2DImageE6DoFreeEPv,"axG",%progbits,_ZN15CIwMallocRouterIP10CIw2DImageE6DoFreeEPv,comdat
	.align	2
	.weak	_ZN15CIwMallocRouterIP10CIw2DImageE6DoFreeEPv
	.hidden	_ZN15CIwMallocRouterIP10CIw2DImageE6DoFreeEPv
	.type	_ZN15CIwMallocRouterIP10CIw2DImageE6DoFreeEPv, %function
_ZN15CIwMallocRouterIP10CIw2DImageE6DoFreeEPv:
.LFB3404:
	.loc 14 93 0
	.cfi_startproc
	@ args = 0, pretend = 0, frame = 8
	@ frame_needed = 0, uses_anonymous_args = 0
	str	lr, [sp, #-4]!
.LCFI73:
	.cfi_def_cfa_offset 4
	sub	sp, sp, #12
.LCFI74:
	.cfi_def_cfa_offset 16
	str	r0, [sp, #4]
	.loc 14 95 0
	ldr	r0, [sp, #4]
	mov	r1, #4
	.cfi_offset 14, -4
	bl	_ZN22CIwDefaultMallocRouter8BaseFreeEPvj
	.loc 14 96 0
	add	sp, sp, #12
	ldmfd	sp!, {pc}
	.cfi_endproc
.LFE3404:
	.size	_ZN15CIwMallocRouterIP10CIw2DImageE6DoFreeEPv, .-_ZN15CIwMallocRouterIP10CIw2DImageE6DoFreeEPv
	.section	.text._ZN4_STL14__malloc_allocILi0EE8allocateEj,"axG",%progbits,_ZN4_STL14__malloc_allocILi0EE8allocateEj,comdat
	.align	2
	.weak	_ZN4_STL14__malloc_allocILi0EE8allocateEj
	.hidden	_ZN4_STL14__malloc_allocILi0EE8allocateEj
	.type	_ZN4_STL14__malloc_allocILi0EE8allocateEj, %function
_ZN4_STL14__malloc_allocILi0EE8allocateEj:
.LFB3405:
	.loc 13 109 0
	.cfi_startproc
	@ args = 0, pretend = 0, frame = 16
	@ frame_needed = 0, uses_anonymous_args = 0
	str	lr, [sp, #-4]!
.LCFI75:
	.cfi_def_cfa_offset 4
	sub	sp, sp, #20
.LCFI76:
	.cfi_def_cfa_offset 24
	str	r0, [sp, #4]
.LBB21:
	.loc 13 110 0
	ldr	r0, [sp, #4]
	.cfi_offset 14, -4
	bl	malloc
	mov	r3, r0
	str	r3, [sp, #12]
	.loc 13 111 0
	ldr	r3, [sp, #12]
	cmp	r3, #0
	bne	.L219
	ldr	r0, [sp, #4]
	bl	_ZN4_STL14__malloc_allocILi0EE13_S_oom_mallocEj
	mov	r3, r0
	str	r3, [sp, #12]
.L219:
	.loc 13 112 0
	ldr	r3, [sp, #12]
.LBE21:
	.loc 13 113 0
	mov	r0, r3
	add	sp, sp, #20
	ldmfd	sp!, {pc}
	.cfi_endproc
.LFE3405:
	.size	_ZN4_STL14__malloc_allocILi0EE8allocateEj, .-_ZN4_STL14__malloc_allocILi0EE8allocateEj
	.section	.text._ZN4_STL12basic_stringIcNS_11char_traitsIcEENS_9allocatorIcEEE23_M_terminate_string_auxERKNS_11__true_typeE,"axG",%progbits,_ZN4_STL12basic_stringIcNS_11char_traitsIcEENS_9allocatorIcEEE23_M_terminate_string_auxERKNS_11__true_typeE,comdat
	.align	2
	.weak	_ZN4_STL12basic_stringIcNS_11char_traitsIcEENS_9allocatorIcEEE23_M_terminate_string_auxERKNS_11__true_typeE
	.hidden	_ZN4_STL12basic_stringIcNS_11char_traitsIcEENS_9allocatorIcEEE23_M_terminate_string_auxERKNS_11__true_typeE
	.type	_ZN4_STL12basic_stringIcNS_11char_traitsIcEENS_9allocatorIcEEE23_M_terminate_string_auxERKNS_11__true_typeE, %function
_ZN4_STL12basic_stringIcNS_11char_traitsIcEENS_9allocatorIcEEE23_M_terminate_string_auxERKNS_11__true_typeE:
.LFB3406:
	.loc 10 350 0
	.cfi_startproc
	@ args = 0, pretend = 0, frame = 8
	@ frame_needed = 0, uses_anonymous_args = 0
	@ link register save eliminated.
	sub	sp, sp, #8
.LCFI77:
	.cfi_def_cfa_offset 8
	str	r0, [sp, #4]
	str	r1, [sp, #0]
	.loc 10 351 0
	ldr	r3, [sp, #4]
	ldr	r3, [r3, #4]
	mov	r2, #0
	strb	r2, [r3, #0]
	.loc 10 352 0
	add	sp, sp, #8
	bx	lr
	.cfi_endproc
.LFE3406:
	.size	_ZN4_STL12basic_stringIcNS_11char_traitsIcEENS_9allocatorIcEEE23_M_terminate_string_auxERKNS_11__true_typeE, .-_ZN4_STL12basic_stringIcNS_11char_traitsIcEENS_9allocatorIcEEE23_M_terminate_string_auxERKNS_11__true_typeE
	.section	.text._ZN17ReallocateDefaultIP10CIw2DImage12CIwAllocatorIS1_15CIwMallocRouterIS1_EEE10ReallocateEjjjPS1_RS5_,"axG",%progbits,_ZN17ReallocateDefaultIP10CIw2DImage12CIwAllocatorIS1_15CIwMallocRouterIS1_EEE10ReallocateEjjjPS1_RS5_,comdat
	.align	2
	.weak	_ZN17ReallocateDefaultIP10CIw2DImage12CIwAllocatorIS1_15CIwMallocRouterIS1_EEE10ReallocateEjjjPS1_RS5_
	.hidden	_ZN17ReallocateDefaultIP10CIw2DImage12CIwAllocatorIS1_15CIwMallocRouterIS1_EEE10ReallocateEjjjPS1_RS5_
	.type	_ZN17ReallocateDefaultIP10CIw2DImage12CIwAllocatorIS1_15CIwMallocRouterIS1_EEE10ReallocateEjjjPS1_RS5_, %function
_ZN17ReallocateDefaultIP10CIw2DImage12CIwAllocatorIS1_15CIwMallocRouterIS1_EEE10ReallocateEjjjPS1_RS5_:
.LFB3407:
	.loc 11 52 0
	.cfi_startproc
	@ args = 4, pretend = 0, frame = 16
	@ frame_needed = 0, uses_anonymous_args = 0
	str	lr, [sp, #-4]!
.LCFI78:
	.cfi_def_cfa_offset 4
	sub	sp, sp, #20
.LCFI79:
	.cfi_def_cfa_offset 24
	str	r0, [sp, #12]
	str	r1, [sp, #8]
	str	r2, [sp, #4]
	str	r3, [sp, #0]
	.loc 11 54 0
	ldr	r3, [sp, #12]
	mov	r3, r3, asl #2
	ldr	r0, [sp, #24]
	ldr	r1, [sp, #0]
	mov	r2, r3
	.cfi_offset 14, -4
	bl	_ZN12CIwAllocatorIP10CIw2DImage15CIwMallocRouterIS1_EE10reallocateEPS1_j
	mov	r3, r0
	.loc 11 55 0
	mov	r0, r3
	add	sp, sp, #20
	ldmfd	sp!, {pc}
	.cfi_endproc
.LFE3407:
	.size	_ZN17ReallocateDefaultIP10CIw2DImage12CIwAllocatorIS1_15CIwMallocRouterIS1_EEE10ReallocateEjjjPS1_RS5_, .-_ZN17ReallocateDefaultIP10CIw2DImage12CIwAllocatorIS1_15CIwMallocRouterIS1_EEE10ReallocateEjjjPS1_RS5_
	.section	.text._ZN4_STL12basic_stringIcNS_11char_traitsIcEENS_9allocatorIcEEE19_M_range_initializeIPKcEEvT_S9_RKNS_20forward_iterator_tagE,"axG",%progbits,_ZN4_STL12basic_stringIcNS_11char_traitsIcEENS_9allocatorIcEEE19_M_range_initializeIPKcEEvT_S9_RKNS_20forward_iterator_tagE,comdat
	.align	2
	.weak	_ZN4_STL12basic_stringIcNS_11char_traitsIcEENS_9allocatorIcEEE19_M_range_initializeIPKcEEvT_S9_RKNS_20forward_iterator_tagE
	.hidden	_ZN4_STL12basic_stringIcNS_11char_traitsIcEENS_9allocatorIcEEE19_M_range_initializeIPKcEEvT_S9_RKNS_20forward_iterator_tagE
	.type	_ZN4_STL12basic_stringIcNS_11char_traitsIcEENS_9allocatorIcEEE19_M_range_initializeIPKcEEvT_S9_RKNS_20forward_iterator_tagE, %function
_ZN4_STL12basic_stringIcNS_11char_traitsIcEENS_9allocatorIcEEE19_M_range_initializeIPKcEEvT_S9_RKNS_20forward_iterator_tagE:
.LFB3410:
	.loc 10 382 0
	.cfi_startproc
	@ args = 0, pretend = 0, frame = 24
	@ frame_needed = 0, uses_anonymous_args = 0
	str	lr, [sp, #-4]!
.LCFI80:
	.cfi_def_cfa_offset 4
	sub	sp, sp, #28
.LCFI81:
	.cfi_def_cfa_offset 32
	str	r0, [sp, #12]
	str	r1, [sp, #8]
	str	r2, [sp, #4]
	str	r3, [sp, #0]
.LBB22:
	.loc 10 384 0
	add	r2, sp, #8
	add	r3, sp, #4
	mov	r0, r2
	mov	r1, r3
	.cfi_offset 14, -4
	bl	_ZN4_STL8distanceIPKcEENS_15iterator_traitsIT_E15difference_typeERKS4_S8_
	mov	r3, r0
	str	r3, [sp, #20]
	.loc 10 385 0
	ldr	r2, [sp, #12]
	ldr	r3, [sp, #20]
	add	r3, r3, #1
	mov	r0, r2
	mov	r1, r3
	bl	_ZN4_STL12_String_baseIcNS_9allocatorIcEEE17_M_allocate_blockEj
	.loc 10 386 0
	ldr	r1, [sp, #8]
	ldr	r2, [sp, #4]
	ldr	r3, [sp, #12]
	ldr	r3, [r3, #0]
	mov	r0, r1
	mov	r1, r2
	mov	r2, r3
	bl	_ZN4_STL18uninitialized_copyEPKcS1_Pc
	mov	r2, r0
	ldr	r3, [sp, #12]
	str	r2, [r3, #4]
	.loc 10 387 0
	ldr	r0, [sp, #12]
	bl	_ZN4_STL12basic_stringIcNS_11char_traitsIcEENS_9allocatorIcEEE19_M_terminate_stringEv
.LBE22:
	.loc 10 388 0
	add	sp, sp, #28
	ldmfd	sp!, {pc}
	.cfi_endproc
.LFE3410:
	.size	_ZN4_STL12basic_stringIcNS_11char_traitsIcEENS_9allocatorIcEEE19_M_range_initializeIPKcEEvT_S9_RKNS_20forward_iterator_tagE, .-_ZN4_STL12basic_stringIcNS_11char_traitsIcEENS_9allocatorIcEEE19_M_range_initializeIPKcEEvT_S9_RKNS_20forward_iterator_tagE
	.section	.text._ZN4_STL9allocatorIcE10deallocateEPcj,"axG",%progbits,_ZN4_STL9allocatorIcE10deallocateEPcj,comdat
	.align	2
	.weak	_ZN4_STL9allocatorIcE10deallocateEPcj
	.hidden	_ZN4_STL9allocatorIcE10deallocateEPcj
	.type	_ZN4_STL9allocatorIcE10deallocateEPcj, %function
_ZN4_STL9allocatorIcE10deallocateEPcj:
.LFB3417:
	.loc 13 358 0
	.cfi_startproc
	@ args = 0, pretend = 0, frame = 16
	@ frame_needed = 0, uses_anonymous_args = 0
	str	lr, [sp, #-4]!
.LCFI82:
	.cfi_def_cfa_offset 4
	sub	sp, sp, #20
.LCFI83:
	.cfi_def_cfa_offset 24
	str	r0, [sp, #12]
	str	r1, [sp, #8]
	str	r2, [sp, #4]
	.loc 13 360 0
	ldr	r3, [sp, #8]
	cmp	r3, #0
	beq	.L229
	.cfi_offset 14, -4
	ldr	r0, [sp, #8]
	ldr	r1, [sp, #4]
	bl	_ZN4_STL14__malloc_allocILi0EE10deallocateEPvj
.L229:
	.loc 13 361 0
	add	sp, sp, #20
	ldmfd	sp!, {pc}
	.cfi_endproc
.LFE3417:
	.size	_ZN4_STL9allocatorIcE10deallocateEPcj, .-_ZN4_STL9allocatorIcE10deallocateEPcj
	.section	.text._ZN4_STL12_String_baseIcNS_9allocatorIcEEE17_M_allocate_blockEj,"axG",%progbits,_ZN4_STL12_String_baseIcNS_9allocatorIcEEE17_M_allocate_blockEj,comdat
	.align	2
	.weak	_ZN4_STL12_String_baseIcNS_9allocatorIcEEE17_M_allocate_blockEj
	.hidden	_ZN4_STL12_String_baseIcNS_9allocatorIcEEE17_M_allocate_blockEj
	.type	_ZN4_STL12_String_baseIcNS_9allocatorIcEEE17_M_allocate_blockEj, %function
_ZN4_STL12_String_baseIcNS_9allocatorIcEEE17_M_allocate_blockEj:
.LFB3419:
	.loc 12 530 0
	.cfi_startproc
	@ args = 0, pretend = 0, frame = 8
	@ frame_needed = 0, uses_anonymous_args = 0
	str	lr, [sp, #-4]!
.LCFI84:
	.cfi_def_cfa_offset 4
	sub	sp, sp, #12
.LCFI85:
	.cfi_def_cfa_offset 16
	str	r0, [sp, #4]
	str	r1, [sp, #0]
	.loc 12 531 0
	ldr	r0, [sp, #4]
	.cfi_offset 14, -4
	bl	_ZNK4_STL12_String_baseIcNS_9allocatorIcEEE8max_sizeEv
	mov	r3, r0
	add	r2, r3, #1
	ldr	r3, [sp, #0]
	cmp	r2, r3
	bcc	.L231
	ldr	r3, [sp, #0]
	cmp	r3, #0
	beq	.L231
	mov	r3, #1
	b	.L232
.L231:
	mov	r3, #0
.L232:
	cmp	r3, #0
	beq	.L233
	.loc 12 532 0
	ldr	r3, [sp, #4]
	add	r3, r3, #8
	mov	r0, r3
	ldr	r1, [sp, #0]
	mov	r2, #0
	bl	_ZN4_STL9allocatorIcE8allocateEjPKv
	mov	r2, r0
	ldr	r3, [sp, #4]
	str	r2, [r3, #0]
	.loc 12 533 0
	ldr	r3, [sp, #4]
	ldr	r2, [r3, #0]
	ldr	r3, [sp, #4]
	str	r2, [r3, #4]
	.loc 12 534 0
	ldr	r3, [sp, #4]
	ldr	r2, [r3, #0]
	ldr	r3, [sp, #0]
	add	r2, r2, r3
	ldr	r3, [sp, #4]
	str	r2, [r3, #8]
	b	.L235
.L233:
	.loc 12 537 0
	ldr	r0, [sp, #4]
	bl	_ZNK4_STL12_String_baseIcNS_9allocatorIcEEE21_M_throw_length_errorEv
.L235:
	.loc 12 538 0
	add	sp, sp, #12
	ldmfd	sp!, {pc}
	.cfi_endproc
.LFE3419:
	.size	_ZN4_STL12_String_baseIcNS_9allocatorIcEEE17_M_allocate_blockEj, .-_ZN4_STL12_String_baseIcNS_9allocatorIcEEE17_M_allocate_blockEj
	.section	.text._ZN8CIwArrayIP6Button12CIwAllocatorIS1_15CIwMallocRouterIS1_EE17ReallocateDefaultIS1_S5_EE7reserveEj,"axG",%progbits,_ZN8CIwArrayIP6Button12CIwAllocatorIS1_15CIwMallocRouterIS1_EE17ReallocateDefaultIS1_S5_EE7reserveEj,comdat
	.align	2
	.weak	_ZN8CIwArrayIP6Button12CIwAllocatorIS1_15CIwMallocRouterIS1_EE17ReallocateDefaultIS1_S5_EE7reserveEj
	.hidden	_ZN8CIwArrayIP6Button12CIwAllocatorIS1_15CIwMallocRouterIS1_EE17ReallocateDefaultIS1_S5_EE7reserveEj
	.type	_ZN8CIwArrayIP6Button12CIwAllocatorIS1_15CIwMallocRouterIS1_EE17ReallocateDefaultIS1_S5_EE7reserveEj, %function
_ZN8CIwArrayIP6Button12CIwAllocatorIS1_15CIwMallocRouterIS1_EE17ReallocateDefaultIS1_S5_EE7reserveEj:
.LFB3426:
	.loc 11 253 0
	.cfi_startproc
	@ args = 0, pretend = 0, frame = 8
	@ frame_needed = 0, uses_anonymous_args = 0
	str	lr, [sp, #-4]!
.LCFI86:
	.cfi_def_cfa_offset 4
	sub	sp, sp, #12
.LCFI87:
	.cfi_def_cfa_offset 16
	str	r0, [sp, #4]
	str	r1, [sp, #0]
	.loc 11 255 0
	ldr	r3, [sp, #4]
	ldr	r2, [r3, #8]
	ldr	r3, [sp, #0]
	cmp	r2, r3
	bcs	.L240
	.cfi_offset 14, -4
	.loc 11 257 0
	ldr	r3, [sp, #4]
	ldr	r3, [r3, #8]
	cmp	r3, #15
	bls	.L238
	ldr	r3, [sp, #4]
	ldr	r3, [r3, #8]
	mov	r3, r3, lsr #3
	b	.L239
.L238:
	mov	r3, #2
.L239:
	ldr	r2, [sp, #0]
	add	r3, r3, r2
	ldr	r0, [sp, #4]
	mov	r1, r3
	bl	_ZN8CIwArrayIP6Button12CIwAllocatorIS1_15CIwMallocRouterIS1_EE17ReallocateDefaultIS1_S5_EE12set_capacityEj
.L240:
	.loc 11 259 0
	add	sp, sp, #12
	ldmfd	sp!, {pc}
	.cfi_endproc
.LFE3426:
	.size	_ZN8CIwArrayIP6Button12CIwAllocatorIS1_15CIwMallocRouterIS1_EE17ReallocateDefaultIS1_S5_EE7reserveEj, .-_ZN8CIwArrayIP6Button12CIwAllocatorIS1_15CIwMallocRouterIS1_EE17ReallocateDefaultIS1_S5_EE7reserveEj
	.section	.text._ZN8CIwArrayIP10CIw2DImage12CIwAllocatorIS1_15CIwMallocRouterIS1_EE17ReallocateDefaultIS1_S5_EE7reserveEj,"axG",%progbits,_ZN8CIwArrayIP10CIw2DImage12CIwAllocatorIS1_15CIwMallocRouterIS1_EE17ReallocateDefaultIS1_S5_EE7reserveEj,comdat
	.align	2
	.weak	_ZN8CIwArrayIP10CIw2DImage12CIwAllocatorIS1_15CIwMallocRouterIS1_EE17ReallocateDefaultIS1_S5_EE7reserveEj
	.hidden	_ZN8CIwArrayIP10CIw2DImage12CIwAllocatorIS1_15CIwMallocRouterIS1_EE17ReallocateDefaultIS1_S5_EE7reserveEj
	.type	_ZN8CIwArrayIP10CIw2DImage12CIwAllocatorIS1_15CIwMallocRouterIS1_EE17ReallocateDefaultIS1_S5_EE7reserveEj, %function
_ZN8CIwArrayIP10CIw2DImage12CIwAllocatorIS1_15CIwMallocRouterIS1_EE17ReallocateDefaultIS1_S5_EE7reserveEj:
.LFB3427:
	.loc 11 253 0
	.cfi_startproc
	@ args = 0, pretend = 0, frame = 8
	@ frame_needed = 0, uses_anonymous_args = 0
	str	lr, [sp, #-4]!
.LCFI88:
	.cfi_def_cfa_offset 4
	sub	sp, sp, #12
.LCFI89:
	.cfi_def_cfa_offset 16
	str	r0, [sp, #4]
	str	r1, [sp, #0]
	.loc 11 255 0
	ldr	r3, [sp, #4]
	ldr	r2, [r3, #8]
	ldr	r3, [sp, #0]
	cmp	r2, r3
	bcs	.L245
	.cfi_offset 14, -4
	.loc 11 257 0
	ldr	r3, [sp, #4]
	ldr	r3, [r3, #8]
	cmp	r3, #15
	bls	.L243
	ldr	r3, [sp, #4]
	ldr	r3, [r3, #8]
	mov	r3, r3, lsr #3
	b	.L244
.L243:
	mov	r3, #2
.L244:
	ldr	r2, [sp, #0]
	add	r3, r3, r2
	ldr	r0, [sp, #4]
	mov	r1, r3
	bl	_ZN8CIwArrayIP10CIw2DImage12CIwAllocatorIS1_15CIwMallocRouterIS1_EE17ReallocateDefaultIS1_S5_EE12set_capacityEj
.L245:
	.loc 11 259 0
	add	sp, sp, #12
	ldmfd	sp!, {pc}
	.cfi_endproc
.LFE3427:
	.size	_ZN8CIwArrayIP10CIw2DImage12CIwAllocatorIS1_15CIwMallocRouterIS1_EE17ReallocateDefaultIS1_S5_EE7reserveEj, .-_ZN8CIwArrayIP10CIw2DImage12CIwAllocatorIS1_15CIwMallocRouterIS1_EE17ReallocateDefaultIS1_S5_EE7reserveEj
	.section	.text._ZN12CIwAllocatorIP10CIw2DImage15CIwMallocRouterIS1_EE10reallocateEPS1_j,"axG",%progbits,_ZN12CIwAllocatorIP10CIw2DImage15CIwMallocRouterIS1_EE10reallocateEPS1_j,comdat
	.align	2
	.weak	_ZN12CIwAllocatorIP10CIw2DImage15CIwMallocRouterIS1_EE10reallocateEPS1_j
	.hidden	_ZN12CIwAllocatorIP10CIw2DImage15CIwMallocRouterIS1_EE10reallocateEPS1_j
	.type	_ZN12CIwAllocatorIP10CIw2DImage15CIwMallocRouterIS1_EE10reallocateEPS1_j, %function
_ZN12CIwAllocatorIP10CIw2DImage15CIwMallocRouterIS1_EE10reallocateEPS1_j:
.LFB3428:
	.loc 14 142 0
	.cfi_startproc
	@ args = 0, pretend = 0, frame = 16
	@ frame_needed = 0, uses_anonymous_args = 0
	str	lr, [sp, #-4]!
.LCFI90:
	.cfi_def_cfa_offset 4
	sub	sp, sp, #20
.LCFI91:
	.cfi_def_cfa_offset 24
	str	r0, [sp, #12]
	str	r1, [sp, #8]
	str	r2, [sp, #4]
	.loc 14 144 0
	ldr	r0, [sp, #8]
	ldr	r1, [sp, #4]
	.cfi_offset 14, -4
	bl	_ZN15CIwMallocRouterIP10CIw2DImageE9DoReallocEPvj
	mov	r3, r0
	.loc 14 145 0
	mov	r0, r3
	add	sp, sp, #20
	ldmfd	sp!, {pc}
	.cfi_endproc
.LFE3428:
	.size	_ZN12CIwAllocatorIP10CIw2DImage15CIwMallocRouterIS1_EE10reallocateEPS1_j, .-_ZN12CIwAllocatorIP10CIw2DImage15CIwMallocRouterIS1_EE10reallocateEPS1_j
	.section	.text._ZN4_STL8distanceIPKcEENS_15iterator_traitsIT_E15difference_typeERKS4_S8_,"axG",%progbits,_ZN4_STL8distanceIPKcEENS_15iterator_traitsIT_E15difference_typeERKS4_S8_,comdat
	.align	2
	.weak	_ZN4_STL8distanceIPKcEENS_15iterator_traitsIT_E15difference_typeERKS4_S8_
	.hidden	_ZN4_STL8distanceIPKcEENS_15iterator_traitsIT_E15difference_typeERKS4_S8_
	.type	_ZN4_STL8distanceIPKcEENS_15iterator_traitsIT_E15difference_typeERKS4_S8_, %function
_ZN4_STL8distanceIPKcEENS_15iterator_traitsIT_E15difference_typeERKS4_S8_:
.LFB3430:
	.file 15 "c:/marmalade/6.2/s3e/h/std/c++/stl/_iterator_base.h"
	.loc 15 368 0
	.cfi_startproc
	@ args = 0, pretend = 0, frame = 16
	@ frame_needed = 0, uses_anonymous_args = 0
	str	lr, [sp, #-4]!
.LCFI92:
	.cfi_def_cfa_offset 4
	sub	sp, sp, #20
.LCFI93:
	.cfi_def_cfa_offset 24
	str	r0, [sp, #4]
	str	r1, [sp, #0]
	.loc 15 369 0
	add	r3, sp, #12
	ldr	r0, [sp, #4]
	ldr	r1, [sp, #0]
	mov	r2, r3
	.cfi_offset 14, -4
	bl	_ZN4_STL10__distanceIPKcEENS_15iterator_traitsIT_E15difference_typeERKS4_S8_RKNS_26random_access_iterator_tagE
	mov	r3, r0
	.loc 15 370 0
	mov	r0, r3
	add	sp, sp, #20
	ldmfd	sp!, {pc}
	.cfi_endproc
.LFE3430:
	.size	_ZN4_STL8distanceIPKcEENS_15iterator_traitsIT_E15difference_typeERKS4_S8_, .-_ZN4_STL8distanceIPKcEENS_15iterator_traitsIT_E15difference_typeERKS4_S8_
	.section	.text._ZN4_STL14__malloc_allocILi0EE10deallocateEPvj,"axG",%progbits,_ZN4_STL14__malloc_allocILi0EE10deallocateEPvj,comdat
	.align	2
	.weak	_ZN4_STL14__malloc_allocILi0EE10deallocateEPvj
	.hidden	_ZN4_STL14__malloc_allocILi0EE10deallocateEPvj
	.type	_ZN4_STL14__malloc_allocILi0EE10deallocateEPvj, %function
_ZN4_STL14__malloc_allocILi0EE10deallocateEPvj:
.LFB3437:
	.loc 13 114 0
	.cfi_startproc
	@ args = 0, pretend = 0, frame = 8
	@ frame_needed = 0, uses_anonymous_args = 0
	str	lr, [sp, #-4]!
.LCFI94:
	.cfi_def_cfa_offset 4
	sub	sp, sp, #12
.LCFI95:
	.cfi_def_cfa_offset 16
	str	r0, [sp, #4]
	str	r1, [sp, #0]
	.loc 13 114 0
	ldr	r3, [sp, #4]
	mov	r0, r3
	.cfi_offset 14, -4
	bl	free
	add	sp, sp, #12
	ldmfd	sp!, {pc}
	.cfi_endproc
.LFE3437:
	.size	_ZN4_STL14__malloc_allocILi0EE10deallocateEPvj, .-_ZN4_STL14__malloc_allocILi0EE10deallocateEPvj
	.section	.text._ZNK4_STL12_String_baseIcNS_9allocatorIcEEE8max_sizeEv,"axG",%progbits,_ZNK4_STL12_String_baseIcNS_9allocatorIcEEE8max_sizeEv,comdat
	.align	2
	.weak	_ZNK4_STL12_String_baseIcNS_9allocatorIcEEE8max_sizeEv
	.hidden	_ZNK4_STL12_String_baseIcNS_9allocatorIcEEE8max_sizeEv
	.type	_ZNK4_STL12_String_baseIcNS_9allocatorIcEEE8max_sizeEv, %function
_ZNK4_STL12_String_baseIcNS_9allocatorIcEEE8max_sizeEv:
.LFB3439:
	.loc 10 126 0
	.cfi_startproc
	@ args = 0, pretend = 0, frame = 8
	@ frame_needed = 0, uses_anonymous_args = 0
	@ link register save eliminated.
	sub	sp, sp, #8
.LCFI96:
	.cfi_def_cfa_offset 8
	str	r0, [sp, #4]
	.loc 10 126 0
	mvn	r3, #1
	mov	r0, r3
	add	sp, sp, #8
	bx	lr
	.cfi_endproc
.LFE3439:
	.size	_ZNK4_STL12_String_baseIcNS_9allocatorIcEEE8max_sizeEv, .-_ZNK4_STL12_String_baseIcNS_9allocatorIcEEE8max_sizeEv
	.section	.rodata
	.align	2
.LC11:
	.ascii	"basic_string\000"
	.section	.text._ZNK4_STL12_String_baseIcNS_9allocatorIcEEE21_M_throw_length_errorEv,"axG",%progbits,_ZNK4_STL12_String_baseIcNS_9allocatorIcEEE21_M_throw_length_errorEv,comdat
	.align	2
	.weak	_ZNK4_STL12_String_baseIcNS_9allocatorIcEEE21_M_throw_length_errorEv
	.hidden	_ZNK4_STL12_String_baseIcNS_9allocatorIcEEE21_M_throw_length_errorEv
	.type	_ZNK4_STL12_String_baseIcNS_9allocatorIcEEE21_M_throw_length_errorEv, %function
_ZNK4_STL12_String_baseIcNS_9allocatorIcEEE21_M_throw_length_errorEv:
.LFB3440:
	.loc 12 522 0
	.cfi_startproc
	@ args = 0, pretend = 0, frame = 8
	@ frame_needed = 0, uses_anonymous_args = 0
	str	lr, [sp, #-4]!
.LCFI97:
	.cfi_def_cfa_offset 4
	sub	sp, sp, #12
.LCFI98:
	.cfi_def_cfa_offset 16
	str	r0, [sp, #4]
	.loc 12 523 0
	ldr	r0, .L256
	.cfi_offset 14, -4
	bl	_ZN4_STL24__stl_throw_length_errorEPKc
	.loc 12 524 0
	add	sp, sp, #12
	ldmfd	sp!, {pc}
.L257:
	.align	2
.L256:
	.word	.LC11
	.cfi_endproc
.LFE3440:
	.size	_ZNK4_STL12_String_baseIcNS_9allocatorIcEEE21_M_throw_length_errorEv, .-_ZNK4_STL12_String_baseIcNS_9allocatorIcEEE21_M_throw_length_errorEv
	.section	.text._ZN8CIwArrayIP6Button12CIwAllocatorIS1_15CIwMallocRouterIS1_EE17ReallocateDefaultIS1_S5_EE12set_capacityEj,"axG",%progbits,_ZN8CIwArrayIP6Button12CIwAllocatorIS1_15CIwMallocRouterIS1_EE17ReallocateDefaultIS1_S5_EE12set_capacityEj,comdat
	.align	2
	.weak	_ZN8CIwArrayIP6Button12CIwAllocatorIS1_15CIwMallocRouterIS1_EE17ReallocateDefaultIS1_S5_EE12set_capacityEj
	.hidden	_ZN8CIwArrayIP6Button12CIwAllocatorIS1_15CIwMallocRouterIS1_EE17ReallocateDefaultIS1_S5_EE12set_capacityEj
	.type	_ZN8CIwArrayIP6Button12CIwAllocatorIS1_15CIwMallocRouterIS1_EE17ReallocateDefaultIS1_S5_EE12set_capacityEj, %function
_ZN8CIwArrayIP6Button12CIwAllocatorIS1_15CIwMallocRouterIS1_EE17ReallocateDefaultIS1_S5_EE12set_capacityEj:
.LFB3448:
	.loc 11 804 0
	.cfi_startproc
	@ args = 0, pretend = 0, frame = 8
	@ frame_needed = 0, uses_anonymous_args = 0
	str	lr, [sp, #-4]!
.LCFI99:
	.cfi_def_cfa_offset 4
	sub	sp, sp, #20
.LCFI100:
	.cfi_def_cfa_offset 24
	str	r0, [sp, #12]
	str	r1, [sp, #8]
.LBB23:
.LBB24:
	.loc 11 806 0
	ldr	r3, [sp, #12]
	ldrb	r3, [r3, #12]
	and	r3, r3, #1
	and	r3, r3, #255
	cmp	r3, #0
	beq	.L259
	.cfi_offset 14, -4
	ldr	r0, .L296
	bl	IwDebugAssertIsChannelOn
	mov	r3, r0
	cmp	r3, #0
	beq	.L260
	ldr	r3, .L296+4
	ldrb	r3, [r3, #0]	@ zero_extendqisi2
	cmp	r3, #0
	bne	.L260
	mov	r3, #1
	b	.L261
.L260:
	mov	r3, #0
.L261:
	cmp	r3, #0
	beq	.L291
	ldr	r0, .L296+8
	bl	IwDebugAssertSetUID
	ldr	r0, .L296+12
	bl	IwDebugAssertSetMessage
	ldr	r0, .L296+16
	ldr	r1, .L296+20
	ldr	r2, .L296+24
	mov	r3, #1
	bl	IwDebugAssertShow
	mov	r3, r0
	cmp	r3, #1
	beq	.L264
	cmp	r3, #2
	beq	.L265
	b	.L263
.L264:
	bl	s3eDebugIsDebuggerPresent
	mov	r3, r0
	cmp	r3, #0
	moveq	r3, #0
	movne	r3, #1
	and	r3, r3, #255
	cmp	r3, #0
	beq	.L266
	bl	s3eDebugIsDebuggerPresent
	mov	r3, r0
	cmp	r3, #0
	moveq	r3, #0
	movne	r3, #1
	and	r3, r3, #255
	cmp	r3, #0
	beq	.L292
	mvn	r3, #11
	mov	r2, #0
	str	r2, [r3, #0]
	b	.L263
.L266:
	bl	_ZL11IwDebugExitv
	b	.L263
.L265:
	ldr	r3, .L296+4
	mov	r2, #1
	strb	r2, [r3, #0]
	b	.L263
.L292:
	mov	r0, r0	@ nop
.L263:
	mov	r0, #0
	bl	IwDebugAssertSetUID
	b	.L290
.L259:
.LBE24:
.LBB25:
	.loc 11 807 0
	ldr	r3, [sp, #12]
	ldrb	r3, [r3, #12]	@ zero_extendqisi2
	mov	r3, r3, lsr #1
	and	r3, r3, #1
	and	r3, r3, #255
	cmp	r3, #0
	beq	.L270
	ldr	r3, [sp, #12]
	ldr	r2, [r3, #8]
	ldr	r3, [sp, #8]
	cmp	r2, r3
	bcs	.L270
	ldr	r0, .L296
	bl	IwDebugAssertIsChannelOn
	mov	r3, r0
	cmp	r3, #0
	beq	.L270
	ldr	r3, .L296+28
	ldrb	r3, [r3, #0]	@ zero_extendqisi2
	cmp	r3, #0
	bne	.L270
	mov	r3, #1
	b	.L271
.L270:
	mov	r3, #0
.L271:
	cmp	r3, #0
	beq	.L272
	mov	r0, #0
	bl	IwDebugAssertSetSolution
	ldr	r0, .L296+32
	bl	IwDebugAssertSetUID
	ldr	r0, .L296+36
	bl	IwDebugAssertSetMessage
	ldr	r0, .L296+40
	ldr	r1, .L296+20
	ldr	r2, .L296+44
	mov	r3, #1
	bl	IwDebugAssertShow
	mov	r3, r0
	cmp	r3, #1
	beq	.L274
	cmp	r3, #2
	beq	.L275
	b	.L273
.L274:
	bl	s3eDebugIsDebuggerPresent
	mov	r3, r0
	cmp	r3, #0
	moveq	r3, #0
	movne	r3, #1
	and	r3, r3, #255
	cmp	r3, #0
	beq	.L276
	bl	s3eDebugIsDebuggerPresent
	mov	r3, r0
	cmp	r3, #0
	moveq	r3, #0
	movne	r3, #1
	and	r3, r3, #255
	cmp	r3, #0
	beq	.L293
	mvn	r3, #11
	mov	r2, #0
	str	r2, [r3, #0]
	b	.L273
.L276:
	bl	_ZL11IwDebugExitv
	b	.L273
.L275:
	ldr	r3, .L296+28
	mov	r2, #1
	strb	r2, [r3, #0]
	b	.L273
.L293:
	mov	r0, r0	@ nop
.L273:
	mov	r0, #0
	bl	IwDebugAssertSetUID
.L272:
.LBE25:
.LBB26:
	.loc 11 808 0
	ldr	r3, [sp, #12]
	ldr	r2, [r3, #4]
	ldr	r3, [sp, #8]
	cmp	r2, r3
	bls	.L279
	ldr	r0, .L296
	bl	IwDebugAssertIsChannelOn
	mov	r3, r0
	cmp	r3, #0
	beq	.L279
	ldr	r3, .L296+48
	ldrb	r3, [r3, #0]	@ zero_extendqisi2
	cmp	r3, #0
	bne	.L279
	mov	r3, #1
	b	.L280
.L279:
	mov	r3, #0
.L280:
	cmp	r3, #0
	beq	.L281
	mov	r0, #0
	bl	IwDebugAssertSetSolution
	mov	r0, #0
	bl	IwDebugAssertSetUID
	mov	r0, #0
	bl	IwDebugAssertSetMessage
	ldr	r0, .L296+52
	ldr	r1, .L296+20
	mov	r2, #808
	mov	r3, #1
	bl	IwDebugAssertShow
	mov	r3, r0
	cmp	r3, #1
	beq	.L283
	cmp	r3, #2
	beq	.L284
	b	.L282
.L283:
	bl	s3eDebugIsDebuggerPresent
	mov	r3, r0
	cmp	r3, #0
	moveq	r3, #0
	movne	r3, #1
	and	r3, r3, #255
	cmp	r3, #0
	beq	.L285
	bl	s3eDebugIsDebuggerPresent
	mov	r3, r0
	cmp	r3, #0
	moveq	r3, #0
	movne	r3, #1
	and	r3, r3, #255
	cmp	r3, #0
	beq	.L294
	mvn	r3, #11
	mov	r2, #0
	str	r2, [r3, #0]
	b	.L282
.L285:
	bl	_ZL11IwDebugExitv
	b	.L282
.L284:
	ldr	r3, .L296+48
	mov	r2, #1
	strb	r2, [r3, #0]
	b	.L282
.L294:
	mov	r0, r0	@ nop
.L282:
	mov	r0, #0
	bl	IwDebugAssertSetUID
.L281:
.LBE26:
	.loc 11 809 0
	ldr	r3, [sp, #12]
	ldr	r2, [r3, #8]
	ldr	r3, [sp, #8]
	cmp	r2, r3
	beq	.L295
.L288:
	.loc 11 810 0
	ldr	r3, [sp, #12]
	ldr	r2, [sp, #8]
	str	r2, [r3, #8]
	.loc 11 811 0
	ldr	r3, [sp, #8]
	cmp	r3, #0
	bne	.L289
	.loc 11 813 0
	ldr	r3, [sp, #12]
	add	r1, r3, #13
	ldr	r3, [sp, #12]
	ldr	r2, [r3, #0]
	ldr	r3, [sp, #12]
	ldr	r3, [r3, #8]
	mov	r0, r1
	mov	r1, r2
	mov	r2, r3
	bl	_ZN12CIwAllocatorIP6Button15CIwMallocRouterIS1_EE10deallocateEPS1_j
	.loc 11 814 0
	ldr	r3, [sp, #12]
	mov	r2, #0
	str	r2, [r3, #0]
	b	.L290
.L289:
	.loc 11 818 0
	ldr	r3, [sp, #12]
	ldr	r1, [r3, #4]
	ldr	r3, [sp, #12]
	ldr	r2, [r3, #8]
	ldr	r3, [sp, #12]
	ldr	r3, [r3, #0]
	ldr	r0, [sp, #12]
	add	r0, r0, #13
	str	r0, [sp, #0]
	ldr	r0, [sp, #8]
	bl	_ZN17ReallocateDefaultIP6Button12CIwAllocatorIS1_15CIwMallocRouterIS1_EEE10ReallocateEjjjPS1_RS5_
	mov	r2, r0
	ldr	r3, [sp, #12]
	str	r2, [r3, #0]
	b	.L290
.L291:
.LBB27:
	.loc 11 806 0
	mov	r0, r0	@ nop
	b	.L290
.L295:
.LBE27:
	.loc 11 809 0
	mov	r0, r0	@ nop
.L290:
.LBE23:
	.loc 11 820 0
	add	sp, sp, #20
	ldmfd	sp!, {pc}
.L297:
	.align	2
.L296:
	.word	.LC0
	.word	_ZZN8CIwArrayIP6Button12CIwAllocatorIS1_15CIwMallocRouterIS1_EE17ReallocateDefaultIS1_S5_EE12set_capacityEjE21_s_IwAssertIgnoreThis
	.word	1733
	.word	.LC5
	.word	.LC6
	.word	.LC3
	.word	806
	.word	_ZZN8CIwArrayIP6Button12CIwAllocatorIS1_15CIwMallocRouterIS1_EE17ReallocateDefaultIS1_S5_EE12set_capacityEjE21_s_IwAssertIgnoreThis_0
	.word	1732
	.word	.LC7
	.word	.LC8
	.word	807
	.word	_ZZN8CIwArrayIP6Button12CIwAllocatorIS1_15CIwMallocRouterIS1_EE17ReallocateDefaultIS1_S5_EE12set_capacityEjE21_s_IwAssertIgnoreThis_1
	.word	.LC9
	.cfi_endproc
.LFE3448:
	.size	_ZN8CIwArrayIP6Button12CIwAllocatorIS1_15CIwMallocRouterIS1_EE17ReallocateDefaultIS1_S5_EE12set_capacityEj, .-_ZN8CIwArrayIP6Button12CIwAllocatorIS1_15CIwMallocRouterIS1_EE17ReallocateDefaultIS1_S5_EE12set_capacityEj
	.section	.text._ZN15CIwMallocRouterIP10CIw2DImageE9DoReallocEPvj,"axG",%progbits,_ZN15CIwMallocRouterIP10CIw2DImageE9DoReallocEPvj,comdat
	.align	2
	.weak	_ZN15CIwMallocRouterIP10CIw2DImageE9DoReallocEPvj
	.hidden	_ZN15CIwMallocRouterIP10CIw2DImageE9DoReallocEPvj
	.type	_ZN15CIwMallocRouterIP10CIw2DImageE9DoReallocEPvj, %function
_ZN15CIwMallocRouterIP10CIw2DImageE9DoReallocEPvj:
.LFB3449:
	.loc 14 97 0
	.cfi_startproc
	@ args = 0, pretend = 0, frame = 8
	@ frame_needed = 0, uses_anonymous_args = 0
	str	lr, [sp, #-4]!
.LCFI101:
	.cfi_def_cfa_offset 4
	sub	sp, sp, #12
.LCFI102:
	.cfi_def_cfa_offset 16
	str	r0, [sp, #4]
	str	r1, [sp, #0]
	.loc 14 99 0
	ldr	r0, [sp, #4]
	ldr	r1, [sp, #0]
	mov	r2, #4
	.cfi_offset 14, -4
	bl	_ZN22CIwDefaultMallocRouter11BaseReallocEPvjj
	mov	r3, r0
	.loc 14 100 0
	mov	r0, r3
	add	sp, sp, #12
	ldmfd	sp!, {pc}
	.cfi_endproc
.LFE3449:
	.size	_ZN15CIwMallocRouterIP10CIw2DImageE9DoReallocEPvj, .-_ZN15CIwMallocRouterIP10CIw2DImageE9DoReallocEPvj
	.section	.text._ZN4_STL10__distanceIPKcEENS_15iterator_traitsIT_E15difference_typeERKS4_S8_RKNS_26random_access_iterator_tagE,"axG",%progbits,_ZN4_STL10__distanceIPKcEENS_15iterator_traitsIT_E15difference_typeERKS4_S8_RKNS_26random_access_iterator_tagE,comdat
	.align	2
	.weak	_ZN4_STL10__distanceIPKcEENS_15iterator_traitsIT_E15difference_typeERKS4_S8_RKNS_26random_access_iterator_tagE
	.hidden	_ZN4_STL10__distanceIPKcEENS_15iterator_traitsIT_E15difference_typeERKS4_S8_RKNS_26random_access_iterator_tagE
	.type	_ZN4_STL10__distanceIPKcEENS_15iterator_traitsIT_E15difference_typeERKS4_S8_RKNS_26random_access_iterator_tagE, %function
_ZN4_STL10__distanceIPKcEENS_15iterator_traitsIT_E15difference_typeERKS4_S8_RKNS_26random_access_iterator_tagE:
.LFB3451:
	.loc 15 361 0
	.cfi_startproc
	@ args = 0, pretend = 0, frame = 16
	@ frame_needed = 0, uses_anonymous_args = 0
	@ link register save eliminated.
	sub	sp, sp, #16
.LCFI103:
	.cfi_def_cfa_offset 16
	str	r0, [sp, #12]
	str	r1, [sp, #8]
	str	r2, [sp, #4]
	.loc 15 363 0
	ldr	r3, [sp, #8]
	ldr	r3, [r3, #0]
	mov	r2, r3
	ldr	r3, [sp, #12]
	ldr	r3, [r3, #0]
	rsb	r3, r3, r2
	.loc 15 364 0
	mov	r0, r3
	add	sp, sp, #16
	bx	lr
	.cfi_endproc
.LFE3451:
	.size	_ZN4_STL10__distanceIPKcEENS_15iterator_traitsIT_E15difference_typeERKS4_S8_RKNS_26random_access_iterator_tagE, .-_ZN4_STL10__distanceIPKcEENS_15iterator_traitsIT_E15difference_typeERKS4_S8_RKNS_26random_access_iterator_tagE
	.section	.text._ZN17ReallocateDefaultIP6Button12CIwAllocatorIS1_15CIwMallocRouterIS1_EEE10ReallocateEjjjPS1_RS5_,"axG",%progbits,_ZN17ReallocateDefaultIP6Button12CIwAllocatorIS1_15CIwMallocRouterIS1_EEE10ReallocateEjjjPS1_RS5_,comdat
	.align	2
	.weak	_ZN17ReallocateDefaultIP6Button12CIwAllocatorIS1_15CIwMallocRouterIS1_EEE10ReallocateEjjjPS1_RS5_
	.hidden	_ZN17ReallocateDefaultIP6Button12CIwAllocatorIS1_15CIwMallocRouterIS1_EEE10ReallocateEjjjPS1_RS5_
	.type	_ZN17ReallocateDefaultIP6Button12CIwAllocatorIS1_15CIwMallocRouterIS1_EEE10ReallocateEjjjPS1_RS5_, %function
_ZN17ReallocateDefaultIP6Button12CIwAllocatorIS1_15CIwMallocRouterIS1_EEE10ReallocateEjjjPS1_RS5_:
.LFB3459:
	.loc 11 52 0
	.cfi_startproc
	@ args = 4, pretend = 0, frame = 16
	@ frame_needed = 0, uses_anonymous_args = 0
	str	lr, [sp, #-4]!
.LCFI104:
	.cfi_def_cfa_offset 4
	sub	sp, sp, #20
.LCFI105:
	.cfi_def_cfa_offset 24
	str	r0, [sp, #12]
	str	r1, [sp, #8]
	str	r2, [sp, #4]
	str	r3, [sp, #0]
	.loc 11 54 0
	ldr	r3, [sp, #12]
	mov	r3, r3, asl #2
	ldr	r0, [sp, #24]
	ldr	r1, [sp, #0]
	mov	r2, r3
	.cfi_offset 14, -4
	bl	_ZN12CIwAllocatorIP6Button15CIwMallocRouterIS1_EE10reallocateEPS1_j
	mov	r3, r0
	.loc 11 55 0
	mov	r0, r3
	add	sp, sp, #20
	ldmfd	sp!, {pc}
	.cfi_endproc
.LFE3459:
	.size	_ZN17ReallocateDefaultIP6Button12CIwAllocatorIS1_15CIwMallocRouterIS1_EEE10ReallocateEjjjPS1_RS5_, .-_ZN17ReallocateDefaultIP6Button12CIwAllocatorIS1_15CIwMallocRouterIS1_EEE10ReallocateEjjjPS1_RS5_
	.section	.text._ZN12CIwAllocatorIP6Button15CIwMallocRouterIS1_EE10reallocateEPS1_j,"axG",%progbits,_ZN12CIwAllocatorIP6Button15CIwMallocRouterIS1_EE10reallocateEPS1_j,comdat
	.align	2
	.weak	_ZN12CIwAllocatorIP6Button15CIwMallocRouterIS1_EE10reallocateEPS1_j
	.hidden	_ZN12CIwAllocatorIP6Button15CIwMallocRouterIS1_EE10reallocateEPS1_j
	.type	_ZN12CIwAllocatorIP6Button15CIwMallocRouterIS1_EE10reallocateEPS1_j, %function
_ZN12CIwAllocatorIP6Button15CIwMallocRouterIS1_EE10reallocateEPS1_j:
.LFB3465:
	.loc 14 142 0
	.cfi_startproc
	@ args = 0, pretend = 0, frame = 16
	@ frame_needed = 0, uses_anonymous_args = 0
	str	lr, [sp, #-4]!
.LCFI106:
	.cfi_def_cfa_offset 4
	sub	sp, sp, #20
.LCFI107:
	.cfi_def_cfa_offset 24
	str	r0, [sp, #12]
	str	r1, [sp, #8]
	str	r2, [sp, #4]
	.loc 14 144 0
	ldr	r0, [sp, #8]
	ldr	r1, [sp, #4]
	.cfi_offset 14, -4
	bl	_ZN15CIwMallocRouterIP6ButtonE9DoReallocEPvj
	mov	r3, r0
	.loc 14 145 0
	mov	r0, r3
	add	sp, sp, #20
	ldmfd	sp!, {pc}
	.cfi_endproc
.LFE3465:
	.size	_ZN12CIwAllocatorIP6Button15CIwMallocRouterIS1_EE10reallocateEPS1_j, .-_ZN12CIwAllocatorIP6Button15CIwMallocRouterIS1_EE10reallocateEPS1_j
	.section	.text._ZN15CIwMallocRouterIP6ButtonE9DoReallocEPvj,"axG",%progbits,_ZN15CIwMallocRouterIP6ButtonE9DoReallocEPvj,comdat
	.align	2
	.weak	_ZN15CIwMallocRouterIP6ButtonE9DoReallocEPvj
	.hidden	_ZN15CIwMallocRouterIP6ButtonE9DoReallocEPvj
	.type	_ZN15CIwMallocRouterIP6ButtonE9DoReallocEPvj, %function
_ZN15CIwMallocRouterIP6ButtonE9DoReallocEPvj:
.LFB3468:
	.loc 14 97 0
	.cfi_startproc
	@ args = 0, pretend = 0, frame = 8
	@ frame_needed = 0, uses_anonymous_args = 0
	str	lr, [sp, #-4]!
.LCFI108:
	.cfi_def_cfa_offset 4
	sub	sp, sp, #12
.LCFI109:
	.cfi_def_cfa_offset 16
	str	r0, [sp, #4]
	str	r1, [sp, #0]
	.loc 14 99 0
	ldr	r0, [sp, #4]
	ldr	r1, [sp, #0]
	mov	r2, #4
	.cfi_offset 14, -4
	bl	_ZN22CIwDefaultMallocRouter11BaseReallocEPvjj
	mov	r3, r0
	.loc 14 100 0
	mov	r0, r3
	add	sp, sp, #12
	ldmfd	sp!, {pc}
	.cfi_endproc
.LFE3468:
	.size	_ZN15CIwMallocRouterIP6ButtonE9DoReallocEPvj, .-_ZN15CIwMallocRouterIP6ButtonE9DoReallocEPvj
	.section	.text._Z41__static_initialization_and_destruction_0ii,"ax",%progbits
	.align	2
	.type	_Z41__static_initialization_and_destruction_0ii, %function
_Z41__static_initialization_and_destruction_0ii:
.LFB3469:
	.loc 9 17 0
	.cfi_startproc
	@ args = 0, pretend = 0, frame = 8
	@ frame_needed = 0, uses_anonymous_args = 0
	str	lr, [sp, #-4]!
.LCFI110:
	.cfi_def_cfa_offset 4
	sub	sp, sp, #12
.LCFI111:
	.cfi_def_cfa_offset 16
	str	r0, [sp, #4]
	str	r1, [sp, #0]
	.loc 9 17 0
	ldr	r3, [sp, #4]
	cmp	r3, #1
	bne	.L310
	.cfi_offset 14, -4
	ldr	r2, [sp, #0]
	ldr	r3, .L311
	cmp	r2, r3
	bne	.L310
	.file 16 "c:/marmalade/6.2/s3e/h/std/c++/iostream"
	.loc 16 69 0
	ldr	r0, .L311+4
	bl	_ZN4_STL8ios_base9_Loc_initC1Ev
	ldr	r3, .L311+8
	ldr	r0, .L311+4
	mov	r1, r3
	ldr	r2, .L311+12
	bl	__aeabi_atexit
	.loc 16 75 0
	ldr	r0, .L311+16
	bl	_ZN4_STL8ios_base4InitC1Ev
	ldr	r3, .L311+20
	ldr	r0, .L311+16
	mov	r1, r3
	ldr	r2, .L311+12
	bl	__aeabi_atexit
.L310:
	.loc 9 17 0
	add	sp, sp, #12
	ldmfd	sp!, {pc}
.L312:
	.align	2
.L311:
	.word	65535
	.word	_ZN4_STLL8_LocInitE
	.word	_ZN4_STL8ios_base9_Loc_initD1Ev
	.word	__dso_handle
	.word	_ZN4_STLL8_IosInitE
	.word	_ZN4_STL8ios_base4InitD1Ev
	.cfi_endproc
.LFE3469:
	.size	_Z41__static_initialization_and_destruction_0ii, .-_Z41__static_initialization_and_destruction_0ii
	.section	.text._GLOBAL__I__ZN3NPC4InitEi,"ax",%progbits
	.align	2
	.type	_GLOBAL__I__ZN3NPC4InitEi, %function
_GLOBAL__I__ZN3NPC4InitEi:
.LFB3550:
	.loc 9 17 0
	.cfi_startproc
	@ args = 0, pretend = 0, frame = 0
	@ frame_needed = 0, uses_anonymous_args = 0
	stmfd	sp!, {r3, lr}
.LCFI112:
	.cfi_def_cfa_offset 8
	.loc 9 17 0
	mov	r0, #1
	ldr	r1, .L315
	.cfi_offset 14, -4
	.cfi_offset 3, -8
	bl	_Z41__static_initialization_and_destruction_0ii
	ldmfd	sp!, {r3, pc}
.L316:
	.align	2
.L315:
	.word	65535
	.cfi_endproc
.LFE3550:
	.size	_GLOBAL__I__ZN3NPC4InitEi, .-_GLOBAL__I__ZN3NPC4InitEi
	.section	.init_array,"aw",%init_array
	.align	2
	.word	_GLOBAL__I__ZN3NPC4InitEi(target1)
	.hidden	_ZZNK8CIwArrayIPc12CIwAllocatorIS0_15CIwMallocRouterIS0_EE17ReallocateDefaultIS0_S4_EEixEiE21_s_IwAssertIgnoreThis
	.weak	_ZZNK8CIwArrayIPc12CIwAllocatorIS0_15CIwMallocRouterIS0_EE17ReallocateDefaultIS0_S4_EEixEiE21_s_IwAssertIgnoreThis
	.section	.bss._ZZNK8CIwArrayIPc12CIwAllocatorIS0_15CIwMallocRouterIS0_EE17ReallocateDefaultIS0_S4_EEixEiE21_s_IwAssertIgnoreThis,"awG",%nobits,_ZZNK8CIwArrayIPc12CIwAllocatorIS0_15CIwMallocRouterIS0_EE17ReallocateDefaultIS0_S4_EEixEiE21_s_IwAssertIgnoreThis,comdat
	.type	_ZZNK8CIwArrayIPc12CIwAllocatorIS0_15CIwMallocRouterIS0_EE17ReallocateDefaultIS0_S4_EEixEiE21_s_IwAssertIgnoreThis, %object
	.size	_ZZNK8CIwArrayIPc12CIwAllocatorIS0_15CIwMallocRouterIS0_EE17ReallocateDefaultIS0_S4_EEixEiE21_s_IwAssertIgnoreThis, 1
_ZZNK8CIwArrayIPc12CIwAllocatorIS0_15CIwMallocRouterIS0_EE17ReallocateDefaultIS0_S4_EEixEiE21_s_IwAssertIgnoreThis:
	.space	1
	.hidden	_ZZN8CIwArrayIP6Button12CIwAllocatorIS1_15CIwMallocRouterIS1_EE17ReallocateDefaultIS1_S5_EE8truncateEjE21_s_IwAssertIgnoreThis
	.weak	_ZZN8CIwArrayIP6Button12CIwAllocatorIS1_15CIwMallocRouterIS1_EE17ReallocateDefaultIS1_S5_EE8truncateEjE21_s_IwAssertIgnoreThis
	.section	.bss._ZZN8CIwArrayIP6Button12CIwAllocatorIS1_15CIwMallocRouterIS1_EE17ReallocateDefaultIS1_S5_EE8truncateEjE21_s_IwAssertIgnoreThis,"awG",%nobits,_ZZN8CIwArrayIP6Button12CIwAllocatorIS1_15CIwMallocRouterIS1_EE17ReallocateDefaultIS1_S5_EE8truncateEjE21_s_IwAssertIgnoreThis,comdat
	.type	_ZZN8CIwArrayIP6Button12CIwAllocatorIS1_15CIwMallocRouterIS1_EE17ReallocateDefaultIS1_S5_EE8truncateEjE21_s_IwAssertIgnoreThis, %object
	.size	_ZZN8CIwArrayIP6Button12CIwAllocatorIS1_15CIwMallocRouterIS1_EE17ReallocateDefaultIS1_S5_EE8truncateEjE21_s_IwAssertIgnoreThis, 1
_ZZN8CIwArrayIP6Button12CIwAllocatorIS1_15CIwMallocRouterIS1_EE17ReallocateDefaultIS1_S5_EE8truncateEjE21_s_IwAssertIgnoreThis:
	.space	1
	.hidden	_ZZN8CIwArrayIP6Button12CIwAllocatorIS1_15CIwMallocRouterIS1_EE17ReallocateDefaultIS1_S5_EE13push_back_qtyEiE21_s_IwAssertIgnoreThis
	.weak	_ZZN8CIwArrayIP6Button12CIwAllocatorIS1_15CIwMallocRouterIS1_EE17ReallocateDefaultIS1_S5_EE13push_back_qtyEiE21_s_IwAssertIgnoreThis
	.section	.bss._ZZN8CIwArrayIP6Button12CIwAllocatorIS1_15CIwMallocRouterIS1_EE17ReallocateDefaultIS1_S5_EE13push_back_qtyEiE21_s_IwAssertIgnoreThis,"awG",%nobits,_ZZN8CIwArrayIP6Button12CIwAllocatorIS1_15CIwMallocRouterIS1_EE17ReallocateDefaultIS1_S5_EE13push_back_qtyEiE21_s_IwAssertIgnoreThis,comdat
	.type	_ZZN8CIwArrayIP6Button12CIwAllocatorIS1_15CIwMallocRouterIS1_EE17ReallocateDefaultIS1_S5_EE13push_back_qtyEiE21_s_IwAssertIgnoreThis, %object
	.size	_ZZN8CIwArrayIP6Button12CIwAllocatorIS1_15CIwMallocRouterIS1_EE17ReallocateDefaultIS1_S5_EE13push_back_qtyEiE21_s_IwAssertIgnoreThis, 1
_ZZN8CIwArrayIP6Button12CIwAllocatorIS1_15CIwMallocRouterIS1_EE17ReallocateDefaultIS1_S5_EE13push_back_qtyEiE21_s_IwAssertIgnoreThis:
	.space	1
	.hidden	_ZZN8CIwArrayIP6Button12CIwAllocatorIS1_15CIwMallocRouterIS1_EE17ReallocateDefaultIS1_S5_EE12set_capacityEjE21_s_IwAssertIgnoreThis
	.weak	_ZZN8CIwArrayIP6Button12CIwAllocatorIS1_15CIwMallocRouterIS1_EE17ReallocateDefaultIS1_S5_EE12set_capacityEjE21_s_IwAssertIgnoreThis
	.section	.bss._ZZN8CIwArrayIP6Button12CIwAllocatorIS1_15CIwMallocRouterIS1_EE17ReallocateDefaultIS1_S5_EE12set_capacityEjE21_s_IwAssertIgnoreThis,"awG",%nobits,_ZZN8CIwArrayIP6Button12CIwAllocatorIS1_15CIwMallocRouterIS1_EE17ReallocateDefaultIS1_S5_EE12set_capacityEjE21_s_IwAssertIgnoreThis,comdat
	.type	_ZZN8CIwArrayIP6Button12CIwAllocatorIS1_15CIwMallocRouterIS1_EE17ReallocateDefaultIS1_S5_EE12set_capacityEjE21_s_IwAssertIgnoreThis, %object
	.size	_ZZN8CIwArrayIP6Button12CIwAllocatorIS1_15CIwMallocRouterIS1_EE17ReallocateDefaultIS1_S5_EE12set_capacityEjE21_s_IwAssertIgnoreThis, 1
_ZZN8CIwArrayIP6Button12CIwAllocatorIS1_15CIwMallocRouterIS1_EE17ReallocateDefaultIS1_S5_EE12set_capacityEjE21_s_IwAssertIgnoreThis:
	.space	1
	.hidden	_ZZN8CIwArrayIP6Button12CIwAllocatorIS1_15CIwMallocRouterIS1_EE17ReallocateDefaultIS1_S5_EE12set_capacityEjE21_s_IwAssertIgnoreThis_0
	.weak	_ZZN8CIwArrayIP6Button12CIwAllocatorIS1_15CIwMallocRouterIS1_EE17ReallocateDefaultIS1_S5_EE12set_capacityEjE21_s_IwAssertIgnoreThis_0
	.section	.bss._ZZN8CIwArrayIP6Button12CIwAllocatorIS1_15CIwMallocRouterIS1_EE17ReallocateDefaultIS1_S5_EE12set_capacityEjE21_s_IwAssertIgnoreThis_0,"awG",%nobits,_ZZN8CIwArrayIP6Button12CIwAllocatorIS1_15CIwMallocRouterIS1_EE17ReallocateDefaultIS1_S5_EE12set_capacityEjE21_s_IwAssertIgnoreThis_0,comdat
	.type	_ZZN8CIwArrayIP6Button12CIwAllocatorIS1_15CIwMallocRouterIS1_EE17ReallocateDefaultIS1_S5_EE12set_capacityEjE21_s_IwAssertIgnoreThis_0, %object
	.size	_ZZN8CIwArrayIP6Button12CIwAllocatorIS1_15CIwMallocRouterIS1_EE17ReallocateDefaultIS1_S5_EE12set_capacityEjE21_s_IwAssertIgnoreThis_0, 1
_ZZN8CIwArrayIP6Button12CIwAllocatorIS1_15CIwMallocRouterIS1_EE17ReallocateDefaultIS1_S5_EE12set_capacityEjE21_s_IwAssertIgnoreThis_0:
	.space	1
	.hidden	_ZZN8CIwArrayIP6Button12CIwAllocatorIS1_15CIwMallocRouterIS1_EE17ReallocateDefaultIS1_S5_EE12set_capacityEjE21_s_IwAssertIgnoreThis_1
	.weak	_ZZN8CIwArrayIP6Button12CIwAllocatorIS1_15CIwMallocRouterIS1_EE17ReallocateDefaultIS1_S5_EE12set_capacityEjE21_s_IwAssertIgnoreThis_1
	.section	.bss._ZZN8CIwArrayIP6Button12CIwAllocatorIS1_15CIwMallocRouterIS1_EE17ReallocateDefaultIS1_S5_EE12set_capacityEjE21_s_IwAssertIgnoreThis_1,"awG",%nobits,_ZZN8CIwArrayIP6Button12CIwAllocatorIS1_15CIwMallocRouterIS1_EE17ReallocateDefaultIS1_S5_EE12set_capacityEjE21_s_IwAssertIgnoreThis_1,comdat
	.type	_ZZN8CIwArrayIP6Button12CIwAllocatorIS1_15CIwMallocRouterIS1_EE17ReallocateDefaultIS1_S5_EE12set_capacityEjE21_s_IwAssertIgnoreThis_1, %object
	.size	_ZZN8CIwArrayIP6Button12CIwAllocatorIS1_15CIwMallocRouterIS1_EE17ReallocateDefaultIS1_S5_EE12set_capacityEjE21_s_IwAssertIgnoreThis_1, 1
_ZZN8CIwArrayIP6Button12CIwAllocatorIS1_15CIwMallocRouterIS1_EE17ReallocateDefaultIS1_S5_EE12set_capacityEjE21_s_IwAssertIgnoreThis_1:
	.space	1
	.hidden	_ZZN8CIwArrayIP10CIw2DImage12CIwAllocatorIS1_15CIwMallocRouterIS1_EE17ReallocateDefaultIS1_S5_EE8truncateEjE21_s_IwAssertIgnoreThis
	.weak	_ZZN8CIwArrayIP10CIw2DImage12CIwAllocatorIS1_15CIwMallocRouterIS1_EE17ReallocateDefaultIS1_S5_EE8truncateEjE21_s_IwAssertIgnoreThis
	.section	.bss._ZZN8CIwArrayIP10CIw2DImage12CIwAllocatorIS1_15CIwMallocRouterIS1_EE17ReallocateDefaultIS1_S5_EE8truncateEjE21_s_IwAssertIgnoreThis,"awG",%nobits,_ZZN8CIwArrayIP10CIw2DImage12CIwAllocatorIS1_15CIwMallocRouterIS1_EE17ReallocateDefaultIS1_S5_EE8truncateEjE21_s_IwAssertIgnoreThis,comdat
	.type	_ZZN8CIwArrayIP10CIw2DImage12CIwAllocatorIS1_15CIwMallocRouterIS1_EE17ReallocateDefaultIS1_S5_EE8truncateEjE21_s_IwAssertIgnoreThis, %object
	.size	_ZZN8CIwArrayIP10CIw2DImage12CIwAllocatorIS1_15CIwMallocRouterIS1_EE17ReallocateDefaultIS1_S5_EE8truncateEjE21_s_IwAssertIgnoreThis, 1
_ZZN8CIwArrayIP10CIw2DImage12CIwAllocatorIS1_15CIwMallocRouterIS1_EE17ReallocateDefaultIS1_S5_EE8truncateEjE21_s_IwAssertIgnoreThis:
	.space	1
	.hidden	_ZZN8CIwArrayIP10CIw2DImage12CIwAllocatorIS1_15CIwMallocRouterIS1_EE17ReallocateDefaultIS1_S5_EE13push_back_qtyEiE21_s_IwAssertIgnoreThis
	.weak	_ZZN8CIwArrayIP10CIw2DImage12CIwAllocatorIS1_15CIwMallocRouterIS1_EE17ReallocateDefaultIS1_S5_EE13push_back_qtyEiE21_s_IwAssertIgnoreThis
	.section	.bss._ZZN8CIwArrayIP10CIw2DImage12CIwAllocatorIS1_15CIwMallocRouterIS1_EE17ReallocateDefaultIS1_S5_EE13push_back_qtyEiE21_s_IwAssertIgnoreThis,"awG",%nobits,_ZZN8CIwArrayIP10CIw2DImage12CIwAllocatorIS1_15CIwMallocRouterIS1_EE17ReallocateDefaultIS1_S5_EE13push_back_qtyEiE21_s_IwAssertIgnoreThis,comdat
	.type	_ZZN8CIwArrayIP10CIw2DImage12CIwAllocatorIS1_15CIwMallocRouterIS1_EE17ReallocateDefaultIS1_S5_EE13push_back_qtyEiE21_s_IwAssertIgnoreThis, %object
	.size	_ZZN8CIwArrayIP10CIw2DImage12CIwAllocatorIS1_15CIwMallocRouterIS1_EE17ReallocateDefaultIS1_S5_EE13push_back_qtyEiE21_s_IwAssertIgnoreThis, 1
_ZZN8CIwArrayIP10CIw2DImage12CIwAllocatorIS1_15CIwMallocRouterIS1_EE17ReallocateDefaultIS1_S5_EE13push_back_qtyEiE21_s_IwAssertIgnoreThis:
	.space	1
	.hidden	_ZZN8CIwArrayIP10CIw2DImage12CIwAllocatorIS1_15CIwMallocRouterIS1_EE17ReallocateDefaultIS1_S5_EE12set_capacityEjE21_s_IwAssertIgnoreThis
	.weak	_ZZN8CIwArrayIP10CIw2DImage12CIwAllocatorIS1_15CIwMallocRouterIS1_EE17ReallocateDefaultIS1_S5_EE12set_capacityEjE21_s_IwAssertIgnoreThis
	.section	.bss._ZZN8CIwArrayIP10CIw2DImage12CIwAllocatorIS1_15CIwMallocRouterIS1_EE17ReallocateDefaultIS1_S5_EE12set_capacityEjE21_s_IwAssertIgnoreThis,"awG",%nobits,_ZZN8CIwArrayIP10CIw2DImage12CIwAllocatorIS1_15CIwMallocRouterIS1_EE17ReallocateDefaultIS1_S5_EE12set_capacityEjE21_s_IwAssertIgnoreThis,comdat
	.type	_ZZN8CIwArrayIP10CIw2DImage12CIwAllocatorIS1_15CIwMallocRouterIS1_EE17ReallocateDefaultIS1_S5_EE12set_capacityEjE21_s_IwAssertIgnoreThis, %object
	.size	_ZZN8CIwArrayIP10CIw2DImage12CIwAllocatorIS1_15CIwMallocRouterIS1_EE17ReallocateDefaultIS1_S5_EE12set_capacityEjE21_s_IwAssertIgnoreThis, 1
_ZZN8CIwArrayIP10CIw2DImage12CIwAllocatorIS1_15CIwMallocRouterIS1_EE17ReallocateDefaultIS1_S5_EE12set_capacityEjE21_s_IwAssertIgnoreThis:
	.space	1
	.hidden	_ZZN8CIwArrayIP10CIw2DImage12CIwAllocatorIS1_15CIwMallocRouterIS1_EE17ReallocateDefaultIS1_S5_EE12set_capacityEjE21_s_IwAssertIgnoreThis_0
	.weak	_ZZN8CIwArrayIP10CIw2DImage12CIwAllocatorIS1_15CIwMallocRouterIS1_EE17ReallocateDefaultIS1_S5_EE12set_capacityEjE21_s_IwAssertIgnoreThis_0
	.section	.bss._ZZN8CIwArrayIP10CIw2DImage12CIwAllocatorIS1_15CIwMallocRouterIS1_EE17ReallocateDefaultIS1_S5_EE12set_capacityEjE21_s_IwAssertIgnoreThis_0,"awG",%nobits,_ZZN8CIwArrayIP10CIw2DImage12CIwAllocatorIS1_15CIwMallocRouterIS1_EE17ReallocateDefaultIS1_S5_EE12set_capacityEjE21_s_IwAssertIgnoreThis_0,comdat
	.type	_ZZN8CIwArrayIP10CIw2DImage12CIwAllocatorIS1_15CIwMallocRouterIS1_EE17ReallocateDefaultIS1_S5_EE12set_capacityEjE21_s_IwAssertIgnoreThis_0, %object
	.size	_ZZN8CIwArrayIP10CIw2DImage12CIwAllocatorIS1_15CIwMallocRouterIS1_EE17ReallocateDefaultIS1_S5_EE12set_capacityEjE21_s_IwAssertIgnoreThis_0, 1
_ZZN8CIwArrayIP10CIw2DImage12CIwAllocatorIS1_15CIwMallocRouterIS1_EE17ReallocateDefaultIS1_S5_EE12set_capacityEjE21_s_IwAssertIgnoreThis_0:
	.space	1
	.hidden	_ZZN8CIwArrayIP10CIw2DImage12CIwAllocatorIS1_15CIwMallocRouterIS1_EE17ReallocateDefaultIS1_S5_EE12set_capacityEjE21_s_IwAssertIgnoreThis_1
	.weak	_ZZN8CIwArrayIP10CIw2DImage12CIwAllocatorIS1_15CIwMallocRouterIS1_EE17ReallocateDefaultIS1_S5_EE12set_capacityEjE21_s_IwAssertIgnoreThis_1
	.section	.bss._ZZN8CIwArrayIP10CIw2DImage12CIwAllocatorIS1_15CIwMallocRouterIS1_EE17ReallocateDefaultIS1_S5_EE12set_capacityEjE21_s_IwAssertIgnoreThis_1,"awG",%nobits,_ZZN8CIwArrayIP10CIw2DImage12CIwAllocatorIS1_15CIwMallocRouterIS1_EE17ReallocateDefaultIS1_S5_EE12set_capacityEjE21_s_IwAssertIgnoreThis_1,comdat
	.type	_ZZN8CIwArrayIP10CIw2DImage12CIwAllocatorIS1_15CIwMallocRouterIS1_EE17ReallocateDefaultIS1_S5_EE12set_capacityEjE21_s_IwAssertIgnoreThis_1, %object
	.size	_ZZN8CIwArrayIP10CIw2DImage12CIwAllocatorIS1_15CIwMallocRouterIS1_EE17ReallocateDefaultIS1_S5_EE12set_capacityEjE21_s_IwAssertIgnoreThis_1, 1
_ZZN8CIwArrayIP10CIw2DImage12CIwAllocatorIS1_15CIwMallocRouterIS1_EE17ReallocateDefaultIS1_S5_EE12set_capacityEjE21_s_IwAssertIgnoreThis_1:
	.space	1
	.text
.Letext0: