	.arch armv5te
	.eabi_attribute 27, 3
	.fpu vfp
	.eabi_attribute 20, 1
	.eabi_attribute 21, 1
	.eabi_attribute 23, 3
	.eabi_attribute 24, 1
	.eabi_attribute 25, 1
	.eabi_attribute 26, 2
	.eabi_attribute 30, 6
	.eabi_attribute 18, 2
	.file	"ui.cpp"
	.text
.Ltext0:
	.cfi_sections	.debug_frame
	.section	.text._ZL11IwDebugExitv,"ax",%progbits
	.align	2
	.type	_ZL11IwDebugExitv, %function
_ZL11IwDebugExitv:
.LFB0:
	.file 1 "c:/marmalade/6.2/modules/iwutil/h/IwDebug.h"
	.loc 1 354 0
	.cfi_startproc
	@ args = 0, pretend = 0, frame = 0
	@ frame_needed = 0, uses_anonymous_args = 0
	stmfd	sp!, {r3, lr}
.LCFI0:
	.cfi_def_cfa_offset 8
	.loc 1 355 0
	.cfi_offset 14, -4
	.cfi_offset 3, -8
	bl	abort
	.cfi_endproc
.LFE0:
	.size	_ZL11IwDebugExitv, .-_ZL11IwDebugExitv
	.section	.text._ZN8CIwSVec2C1Ev,"axG",%progbits,_ZN8CIwSVec2C1Ev,comdat
	.align	2
	.weak	_ZN8CIwSVec2C1Ev
	.hidden	_ZN8CIwSVec2C1Ev
	.type	_ZN8CIwSVec2C1Ev, %function
_ZN8CIwSVec2C1Ev:
.LFB128:
	.file 2 "c:/marmalade/6.2/modules/iwgeom/h/IwGeomSVec2.h"
	.loc 2 65 0
	.cfi_startproc
	@ args = 0, pretend = 0, frame = 8
	@ frame_needed = 0, uses_anonymous_args = 0
	@ link register save eliminated.
	sub	sp, sp, #8
.LCFI1:
	.cfi_def_cfa_offset 8
	str	r0, [sp, #4]
	.loc 2 65 0
	ldr	r3, [sp, #4]
	mov	r0, r3
	add	sp, sp, #8
	bx	lr
	.cfi_endproc
.LFE128:
	.size	_ZN8CIwSVec2C1Ev, .-_ZN8CIwSVec2C1Ev
	.section	.text._ZN8CIwSVec2C1Ess,"axG",%progbits,_ZN8CIwSVec2C1Ess,comdat
	.align	2
	.weak	_ZN8CIwSVec2C1Ess
	.hidden	_ZN8CIwSVec2C1Ess
	.type	_ZN8CIwSVec2C1Ess, %function
_ZN8CIwSVec2C1Ess:
.LFB131:
	.loc 2 72 0
	.cfi_startproc
	@ args = 0, pretend = 0, frame = 8
	@ frame_needed = 0, uses_anonymous_args = 0
	@ link register save eliminated.
	sub	sp, sp, #8
.LCFI2:
	.cfi_def_cfa_offset 8
	str	r0, [sp, #4]
	mov	r3, r2
	strh	r1, [sp, #2]	@ movhi
	strh	r3, [sp, #0]	@ movhi
	.loc 2 72 0
	ldr	r3, [sp, #4]
	ldrh	r2, [sp, #2]	@ movhi
	strh	r2, [r3, #0]	@ movhi
	ldr	r3, [sp, #4]
	ldrh	r2, [sp, #0]	@ movhi
	strh	r2, [r3, #2]	@ movhi
	ldr	r3, [sp, #4]
	mov	r0, r3
	add	sp, sp, #8
	bx	lr
	.cfi_endproc
.LFE131:
	.size	_ZN8CIwSVec2C1Ess, .-_ZN8CIwSVec2C1Ess
	.section	.text._ZnwjPv,"axG",%progbits,_ZnwjPv,comdat
	.align	2
	.weak	_ZnwjPv
	.hidden	_ZnwjPv
	.type	_ZnwjPv, %function
_ZnwjPv:
.LFB993:
	.file 3 "c:/marmalade/6.2/s3e/h/std/c++/new.h"
	.loc 3 52 0
	.cfi_startproc
	@ args = 0, pretend = 0, frame = 8
	@ frame_needed = 0, uses_anonymous_args = 0
	@ link register save eliminated.
	sub	sp, sp, #8
.LCFI3:
	.cfi_def_cfa_offset 8
	str	r0, [sp, #4]
	str	r1, [sp, #0]
	.loc 3 52 0
	ldr	r3, [sp, #0]
	mov	r0, r3
	add	sp, sp, #8
	bx	lr
	.cfi_endproc
.LFE993:
	.size	_ZnwjPv, .-_ZnwjPv
	.section	.text._ZN6ButtonC1Ev,"axG",%progbits,_ZN6ButtonC1Ev,comdat
	.align	2
	.weak	_ZN6ButtonC1Ev
	.hidden	_ZN6ButtonC1Ev
	.type	_ZN6ButtonC1Ev, %function
_ZN6ButtonC1Ev:
.LFB2051:
	.file 4 "c:/users/1106786/dropbox/dropbox/pg life/project impact/code/demos/o-demo_8_magicdoor/h/button.h"
	.loc 4 48 0
	.cfi_startproc
	@ args = 0, pretend = 0, frame = 8
	@ frame_needed = 0, uses_anonymous_args = 0
	str	lr, [sp, #-4]!
.LCFI4:
	.cfi_def_cfa_offset 4
	sub	sp, sp, #12
.LCFI5:
	.cfi_def_cfa_offset 16
	str	r0, [sp, #4]
	.loc 4 48 0
	ldr	r3, [sp, #4]
	add	r3, r3, #8
	mov	r0, r3
	.cfi_offset 14, -4
	bl	_ZN8CIwSVec2C1Ev
	ldr	r3, [sp, #4]
	add	r3, r3, #12
	mov	r0, r3
	bl	_ZN8CIwSVec2C1Ev
	ldr	r3, [sp, #4]
	add	r3, r3, #16
	mov	r0, r3
	bl	_ZN8CIwSVec2C1Ev
	ldr	r3, [sp, #4]
	add	r3, r3, #20
	mov	r0, r3
	bl	_ZN8CIwSVec2C1Ev
	ldr	r3, [sp, #4]
	add	r3, r3, #24
	mov	r0, r3
	bl	_ZN8CIwSVec2C1Ev
	ldr	r3, [sp, #4]
	add	r3, r3, #28
	mov	r0, r3
	bl	_ZN8CIwSVec2C1Ev
	ldr	r3, [sp, #4]
	add	r3, r3, #32
	mov	r0, r3
	bl	_ZN8CIwSVec2C1Ev
	ldr	r3, [sp, #4]
	mov	r2, #0
	strb	r2, [r3, #0]
	ldr	r3, [sp, #4]
	mov	r0, r3
	add	sp, sp, #12
	ldmfd	sp!, {pc}
	.cfi_endproc
.LFE2051:
	.size	_ZN6ButtonC1Ev, .-_ZN6ButtonC1Ev
	.section	.text._ZN4_STL11char_traitsIcE6lengthEPKc,"axG",%progbits,_ZN4_STL11char_traitsIcE6lengthEPKc,comdat
	.align	2
	.weak	_ZN4_STL11char_traitsIcE6lengthEPKc
	.hidden	_ZN4_STL11char_traitsIcE6lengthEPKc
	.type	_ZN4_STL11char_traitsIcE6lengthEPKc, %function
_ZN4_STL11char_traitsIcE6lengthEPKc:
.LFB2091:
	.file 5 "c:/marmalade/6.2/s3e/h/std/c++/stl/char_traits.h"
	.loc 5 238 0
	.cfi_startproc
	@ args = 0, pretend = 0, frame = 8
	@ frame_needed = 0, uses_anonymous_args = 0
	str	lr, [sp, #-4]!
.LCFI6:
	.cfi_def_cfa_offset 4
	sub	sp, sp, #12
.LCFI7:
	.cfi_def_cfa_offset 16
	str	r0, [sp, #4]
	.loc 5 238 0
	ldr	r0, [sp, #4]
	.cfi_offset 14, -4
	bl	strlen
	mov	r3, r0
	mov	r0, r3
	add	sp, sp, #12
	ldmfd	sp!, {pc}
	.cfi_endproc
.LFE2091:
	.size	_ZN4_STL11char_traitsIcE6lengthEPKc, .-_ZN4_STL11char_traitsIcE6lengthEPKc
	.section	.text._ZN4_STL11char_traitsIcE6assignERcRKc,"axG",%progbits,_ZN4_STL11char_traitsIcE6assignERcRKc,comdat
	.align	2
	.weak	_ZN4_STL11char_traitsIcE6assignERcRKc
	.hidden	_ZN4_STL11char_traitsIcE6assignERcRKc
	.type	_ZN4_STL11char_traitsIcE6assignERcRKc, %function
_ZN4_STL11char_traitsIcE6assignERcRKc:
.LFB2092:
	.loc 5 240 0
	.cfi_startproc
	@ args = 0, pretend = 0, frame = 8
	@ frame_needed = 0, uses_anonymous_args = 0
	@ link register save eliminated.
	sub	sp, sp, #8
.LCFI8:
	.cfi_def_cfa_offset 8
	str	r0, [sp, #4]
	str	r1, [sp, #0]
	.loc 5 240 0
	ldr	r3, [sp, #0]
	ldrb	r2, [r3, #0]	@ zero_extendqisi2
	ldr	r3, [sp, #4]
	strb	r2, [r3, #0]
	add	sp, sp, #8
	bx	lr
	.cfi_endproc
.LFE2092:
	.size	_ZN4_STL11char_traitsIcE6assignERcRKc, .-_ZN4_STL11char_traitsIcE6assignERcRKc
	.section	.text._ZN4_STL8_DestroyEPcS0_,"axG",%progbits,_ZN4_STL8_DestroyEPcS0_,comdat
	.align	2
	.weak	_ZN4_STL8_DestroyEPcS0_
	.hidden	_ZN4_STL8_DestroyEPcS0_
	.type	_ZN4_STL8_DestroyEPcS0_, %function
_ZN4_STL8_DestroyEPcS0_:
.LFB2142:
	.file 6 "c:/marmalade/6.2/s3e/h/std/c++/stl/_construct.h"
	.loc 6 142 0
	.cfi_startproc
	@ args = 0, pretend = 0, frame = 8
	@ frame_needed = 0, uses_anonymous_args = 0
	@ link register save eliminated.
	sub	sp, sp, #8
.LCFI9:
	.cfi_def_cfa_offset 8
	str	r0, [sp, #4]
	str	r1, [sp, #0]
	.loc 6 142 0
	add	sp, sp, #8
	bx	lr
	.cfi_endproc
.LFE2142:
	.size	_ZN4_STL8_DestroyEPcS0_, .-_ZN4_STL8_DestroyEPcS0_
	.section	.text._ZN4_STL14__copy_trivialEPKvS1_Pv,"axG",%progbits,_ZN4_STL14__copy_trivialEPKvS1_Pv,comdat
	.align	2
	.weak	_ZN4_STL14__copy_trivialEPKvS1_Pv
	.hidden	_ZN4_STL14__copy_trivialEPKvS1_Pv
	.type	_ZN4_STL14__copy_trivialEPKvS1_Pv, %function
_ZN4_STL14__copy_trivialEPKvS1_Pv:
.LFB2245:
	.file 7 "c:/marmalade/6.2/s3e/h/std/c++/stl/_algobase.h"
	.loc 7 147 0
	.cfi_startproc
	@ args = 0, pretend = 0, frame = 16
	@ frame_needed = 0, uses_anonymous_args = 0
	str	lr, [sp, #-4]!
.LCFI10:
	.cfi_def_cfa_offset 4
	sub	sp, sp, #20
.LCFI11:
	.cfi_def_cfa_offset 24
	str	r0, [sp, #12]
	str	r1, [sp, #8]
	str	r2, [sp, #4]
	.loc 7 150 0
	ldr	r2, [sp, #8]
	ldr	r3, [sp, #12]
	cmp	r2, r3
	beq	.L21
	.cfi_offset 14, -4
	ldr	r2, [sp, #8]
	ldr	r3, [sp, #12]
	rsb	r3, r3, r2
	ldr	r0, [sp, #4]
	ldr	r1, [sp, #12]
	mov	r2, r3
	bl	memmove
	mov	r3, r0
	mov	r2, r3
	ldr	r1, [sp, #8]
	ldr	r3, [sp, #12]
	rsb	r3, r3, r1
	add	r3, r2, r3
	b	.L22
.L21:
	ldr	r3, [sp, #4]
.L22:
	.loc 7 151 0
	mov	r0, r3
	add	sp, sp, #20
	ldmfd	sp!, {pc}
	.cfi_endproc
.LFE2245:
	.size	_ZN4_STL14__copy_trivialEPKvS1_Pv, .-_ZN4_STL14__copy_trivialEPKvS1_Pv
	.section	.text._ZN4_STL18uninitialized_copyEPKcS1_Pc,"axG",%progbits,_ZN4_STL18uninitialized_copyEPKcS1_Pc,comdat
	.align	2
	.weak	_ZN4_STL18uninitialized_copyEPKcS1_Pc
	.hidden	_ZN4_STL18uninitialized_copyEPKcS1_Pc
	.type	_ZN4_STL18uninitialized_copyEPKcS1_Pc, %function
_ZN4_STL18uninitialized_copyEPKcS1_Pc:
.LFB2344:
	.file 8 "c:/marmalade/6.2/s3e/h/std/c++/stl/_uninitialized.h"
	.loc 8 83 0
	.cfi_startproc
	@ args = 0, pretend = 0, frame = 16
	@ frame_needed = 0, uses_anonymous_args = 0
	str	lr, [sp, #-4]!
.LCFI12:
	.cfi_def_cfa_offset 4
	sub	sp, sp, #20
.LCFI13:
	.cfi_def_cfa_offset 24
	str	r0, [sp, #12]
	str	r1, [sp, #8]
	str	r2, [sp, #4]
	.loc 8 84 0
	ldr	r0, [sp, #12]
	ldr	r1, [sp, #8]
	ldr	r2, [sp, #4]
	.cfi_offset 14, -4
	bl	_ZN4_STL14__copy_trivialEPKvS1_Pv
	mov	r3, r0
	.loc 8 85 0
	mov	r0, r3
	add	sp, sp, #20
	ldmfd	sp!, {pc}
	.cfi_endproc
.LFE2344:
	.size	_ZN4_STL18uninitialized_copyEPKcS1_Pc, .-_ZN4_STL18uninitialized_copyEPKcS1_Pc
	.bss
	.align	2
_ZN4_STLL8_LocInitE:
	.space	1
	.align	2
_ZN4_STLL8_IosInitE:
	.space	1
	.section	.text._ZN5PanelC1Ev,"axG",%progbits,_ZN5PanelC1Ev,comdat
	.align	2
	.weak	_ZN5PanelC1Ev
	.hidden	_ZN5PanelC1Ev
	.type	_ZN5PanelC1Ev, %function
_ZN5PanelC1Ev:
.LFB3164:
	.file 9 "c:/users/1106786/dropbox/dropbox/pg life/project impact/code/demos/o-demo_8_magicdoor/h/panel.h"
	.loc 9 11 0
	.cfi_startproc
	@ args = 0, pretend = 0, frame = 8
	@ frame_needed = 0, uses_anonymous_args = 0
	str	lr, [sp, #-4]!
.LCFI14:
	.cfi_def_cfa_offset 4
	sub	sp, sp, #12
.LCFI15:
	.cfi_def_cfa_offset 16
	str	r0, [sp, #4]
	.loc 9 11 0
	ldr	r3, [sp, #4]
	mov	r0, r3
	mov	r1, #0
	.cfi_offset 14, -4
	bl	_ZN8CIwArrayIP6Button12CIwAllocatorIS1_15CIwMallocRouterIS1_EE17ReallocateDefaultIS1_S5_EEC1Ej
	ldr	r3, [sp, #4]
	add	r3, r3, #20
	mov	r0, r3
	mov	r1, #0
	bl	_ZN8CIwArrayIP10CIw2DImage12CIwAllocatorIS1_15CIwMallocRouterIS1_EE17ReallocateDefaultIS1_S5_EEC1Ej
	ldr	r3, [sp, #4]
	add	r3, r3, #40
	mov	r0, r3
	bl	_ZN4_STL12basic_stringIcNS_11char_traitsIcEENS_9allocatorIcEEEC1Ev
	ldr	r3, [sp, #4]
	add	r3, r3, #52
	mov	r0, r3
	bl	_ZN8CIwSVec2C1Ev
	ldr	r3, [sp, #4]
	add	r3, r3, #56
	mov	r0, r3
	bl	_ZN8CIwSVec2C1Ev
	ldr	r3, [sp, #4]
	add	r3, r3, #60
	mov	r0, r3
	bl	_ZN8CIwSVec2C1Ev
	ldr	r3, [sp, #4]
	mov	r0, r3
	add	sp, sp, #12
	ldmfd	sp!, {pc}
	.cfi_endproc
.LFE3164:
	.size	_ZN5PanelC1Ev, .-_ZN5PanelC1Ev
	.section	.rodata
	.align	2
.LC0:
	.ascii	"pause button\000"
	.align	2
.LC1:
	.ascii	"Pause menu\000"
	.align	2
.LC2:
	.ascii	"Music\000"
	.align	2
.LC3:
	.ascii	"Restart\000"
	.align	2
.LC4:
	.ascii	"Continue\000"
	.align	2
.LC5:
	.ascii	"Quit\000"
	.align	2
.LC6:
	.ascii	"end screen\000"
	.align	2
.LC7:
	.ascii	"Time: 0.0s Rotate: 0\000"
	.align	2
.LC8:
	.ascii	"restart button\000"
	.align	2
.LC9:
	.ascii	"return button\000"
	.align	2
.LC10:
	.ascii	"Verif\000"
	.align	2
.LC11:
	.ascii	"Yes\000"
	.align	2
.LC12:
	.ascii	"Cancel\000"
	.section	.text._ZN2UI4LoadEv,"ax",%progbits
	.align	2
	.global	_ZN2UI4LoadEv
	.hidden	_ZN2UI4LoadEv
	.type	_ZN2UI4LoadEv, %function
_ZN2UI4LoadEv:
.LFB3174:
	.file 10 "c:/users/1106786/dropbox/dropbox/pg life/project impact/code/demos/o-demo_8_magicdoor/src/ui.cpp"
	.loc 10 4 0
	.cfi_startproc
	@ args = 0, pretend = 0, frame = 192
	@ frame_needed = 0, uses_anonymous_args = 0
	stmfd	sp!, {r4, r5, lr}
.LCFI16:
	.cfi_def_cfa_offset 12
	sub	sp, sp, #204
.LCFI17:
	.cfi_def_cfa_offset 216
	str	r0, [sp, #12]
.LBB2:
	.loc 10 5 0
	mov	r0, #56
	.cfi_offset 14, -4
	.cfi_offset 5, -8
	.cfi_offset 4, -12
	bl	_Znwj
	mov	r3, r0
	mov	r4, r3
	mov	r3, r4
	mov	r0, r3
	bl	_ZN6ButtonC1Ev
	mov	r2, r4
	ldr	r3, [sp, #12]
	str	r2, [r3, #12]
	.loc 10 6 0
	ldr	r3, [sp, #12]
	ldr	r3, [r3, #12]
	mov	r2, #0
	str	r2, [r3, #52]
	.loc 10 7 0
	ldr	r3, [sp, #12]
	ldr	r3, [r3, #12]
	mov	r2, #1
	strb	r2, [r3, #0]
	.loc 10 8 0
	ldr	r3, [sp, #12]
	mov	r2, #1
	strb	r2, [r3, #16]
	.loc 10 9 0
	ldr	r3, [sp, #12]
	ldr	r4, [r3, #12]
	bl	_Z19Iw2DGetSurfaceWidthv
	mov	r3, r0
	mov	r3, r3, asl #16
	mov	r3, r3, lsr #16
	sub	r3, r3, #128
	mov	r3, r3, asl #16
	mov	r3, r3, lsr #16
	add	r2, sp, #64
	mov	r3, r3, asl #16
	mov	r3, r3, asr #16
	mov	r0, r2
	mov	r1, r3
	mov	r2, #0
	bl	_ZN8CIwSVec2C1Ess
	mov	r0, r4
	ldr	r1, .L31
	ldr	r2, [sp, #64]
	bl	_ZN6Button4LoadEPc8CIwSVec2
	.loc 10 14 0
	mov	r0, #76
	bl	_Znwj
	mov	r3, r0
	mov	r4, r3
	mov	r3, r4
	mov	r0, r3
	bl	_ZN5PanelC1Ev
	mov	r2, r4
	ldr	r3, [sp, #12]
	str	r2, [r3, #0]
	.loc 10 15 0
	ldr	r3, [sp, #12]
	ldr	r3, [r3, #0]
	mov	r0, r3
	bl	_ZN5Panel4LoadEv
	.loc 10 16 0
	ldr	r3, [sp, #12]
	ldr	r4, [r3, #0]
	bl	_Z19Iw2DGetSurfaceWidthv
	mov	r3, r0
	mov	r2, r3, lsr #31
	add	r3, r2, r3
	mov	r3, r3, asr #1
	mov	r3, r3, asl #16
	mov	r3, r3, lsr #16
	add	r3, r3, #50
	mov	r3, r3, asl #16
	mov	r3, r3, lsr #16
	mov	r5, r3
	bl	_Z20Iw2DGetSurfaceHeightv
	mov	r3, r0
	mov	r2, r3, lsr #31
	add	r3, r2, r3
	mov	r3, r3, asr #1
	mov	r3, r3, asl #16
	mov	r3, r3, lsr #16
	sub	r3, r3, #80
	mov	r3, r3, asl #16
	mov	r3, r3, lsr #16
	add	r1, sp, #68
	mov	r2, r5, asl #16
	mov	r2, r2, asr #16
	mov	r3, r3, asl #16
	mov	r3, r3, asr #16
	mov	r0, r1
	mov	r1, r2
	mov	r2, r3
	bl	_ZN8CIwSVec2C1Ess
	mov	r0, r4
	ldr	r1, .L31+4
	ldr	r2, [sp, #68]
	bl	_ZN5Panel4LoadEPc8CIwSVec2
	.loc 10 21 0
	mov	r0, #56
	bl	_Znwj
	mov	r3, r0
	mov	r4, r3
	mov	r3, r4
	mov	r0, r3
	bl	_ZN6ButtonC1Ev
	mov	r3, r4
	str	r3, [sp, #60]
	.loc 10 22 0
	ldr	r3, [sp, #60]
	mov	r2, #1
	str	r2, [r3, #52]
	.loc 10 23 0
	ldr	r4, [sp, #60]
	bl	_Z19Iw2DGetSurfaceWidthv
	mov	r3, r0
	mov	r2, r3, lsr #31
	add	r3, r2, r3
	mov	r3, r3, asr #1
	mov	r3, r3, asl #16
	mov	r3, r3, lsr #16
	add	r3, r3, #64
	mov	r3, r3, asl #16
	mov	r3, r3, lsr #16
	mov	r5, r3
	bl	_Z20Iw2DGetSurfaceHeightv
	mov	r3, r0
	mov	r2, r3, lsr #31
	add	r3, r2, r3
	mov	r3, r3, asr #1
	mov	r3, r3, asl #16
	mov	r3, r3, lsr #16
	sub	r3, r3, #64
	mov	r3, r3, asl #16
	mov	r3, r3, lsr #16
	add	r1, sp, #72
	mov	r2, r5, asl #16
	mov	r2, r2, asr #16
	mov	r3, r3, asl #16
	mov	r3, r3, asr #16
	mov	r0, r1
	mov	r1, r2
	mov	r2, r3
	bl	_ZN8CIwSVec2C1Ess
	add	r3, sp, #76
	mov	r0, r3
	mov	r1, #100
	mov	r2, #20
	bl	_ZN8CIwSVec2C1Ess
	ldr	r3, .L31+8
	str	r3, [sp, #0]
	mov	r0, r4
	mov	r1, #0
	ldr	r2, [sp, #72]
	ldr	r3, [sp, #76]
	bl	_ZN6Button5SetBGE8BTN_TYPE8CIwSVec2S1_j
	.loc 10 24 0
	ldr	r4, [sp, #60]
	bl	_Z19Iw2DGetSurfaceWidthv
	mov	r3, r0
	mov	r2, r3, lsr #31
	add	r3, r2, r3
	mov	r3, r3, asr #1
	mov	r3, r3, asl #16
	mov	r3, r3, lsr #16
	add	r3, r3, #66
	mov	r3, r3, asl #16
	mov	r3, r3, lsr #16
	mov	r5, r3
	bl	_Z20Iw2DGetSurfaceHeightv
	mov	r3, r0
	mov	r2, r3, lsr #31
	add	r3, r2, r3
	mov	r3, r3, asr #1
	mov	r3, r3, asl #16
	mov	r3, r3, lsr #16
	sub	r3, r3, #60
	mov	r3, r3, asl #16
	mov	r3, r3, lsr #16
	add	r1, sp, #80
	mov	r2, r5, asl #16
	mov	r2, r2, asr #16
	mov	r3, r3, asl #16
	mov	r3, r3, asr #16
	mov	r0, r1
	mov	r1, r2
	mov	r2, r3
	bl	_ZN8CIwSVec2C1Ess
	add	r3, sp, #84
	mov	r0, r3
	mov	r1, #64
	mov	r2, #64
	bl	_ZN8CIwSVec2C1Ess
	ldr	r3, .L31+12
	str	r3, [sp, #0]
	mov	r0, r4
	ldr	r1, .L31+16
	ldr	r2, [sp, #80]
	ldr	r3, [sp, #84]
	bl	_ZN6Button7SetTextEPc8CIwSVec2S1_j
	.loc 10 25 0
	ldr	r3, [sp, #12]
	ldr	r3, [r3, #0]
	mov	r2, r3
	add	r3, sp, #60
	mov	r0, r2
	mov	r1, r3
	bl	_ZN8CIwArrayIP6Button12CIwAllocatorIS1_15CIwMallocRouterIS1_EE17ReallocateDefaultIS1_S5_EE6appendERKS1_
	.loc 10 27 0
	mov	r0, #56
	bl	_Znwj
	mov	r3, r0
	mov	r4, r3
	mov	r3, r4
	mov	r0, r3
	bl	_ZN6ButtonC1Ev
	mov	r3, r4
	str	r3, [sp, #56]
	.loc 10 28 0
	ldr	r3, [sp, #56]
	mov	r2, #2
	str	r2, [r3, #52]
	.loc 10 29 0
	ldr	r4, [sp, #56]
	bl	_Z19Iw2DGetSurfaceWidthv
	mov	r3, r0
	mov	r2, r3, lsr #31
	add	r3, r2, r3
	mov	r3, r3, asr #1
	mov	r3, r3, asl #16
	mov	r3, r3, lsr #16
	add	r3, r3, #64
	mov	r3, r3, asl #16
	mov	r3, r3, lsr #16
	mov	r5, r3
	bl	_Z20Iw2DGetSurfaceHeightv
	mov	r3, r0
	mov	r2, r3, lsr #31
	add	r3, r2, r3
	mov	r3, r3, asr #1
	mov	r3, r3, asl #16
	mov	r3, r3, lsr #16
	sub	r3, r3, #32
	mov	r3, r3, asl #16
	mov	r3, r3, lsr #16
	add	r1, sp, #88
	mov	r2, r5, asl #16
	mov	r2, r2, asr #16
	mov	r3, r3, asl #16
	mov	r3, r3, asr #16
	mov	r0, r1
	mov	r1, r2
	mov	r2, r3
	bl	_ZN8CIwSVec2C1Ess
	add	r3, sp, #92
	mov	r0, r3
	mov	r1, #100
	mov	r2, #20
	bl	_ZN8CIwSVec2C1Ess
	ldr	r3, .L31+8
	str	r3, [sp, #0]
	mov	r0, r4
	mov	r1, #0
	ldr	r2, [sp, #88]
	ldr	r3, [sp, #92]
	bl	_ZN6Button5SetBGE8BTN_TYPE8CIwSVec2S1_j
	.loc 10 30 0
	ldr	r4, [sp, #56]
	bl	_Z19Iw2DGetSurfaceWidthv
	mov	r3, r0
	mov	r2, r3, lsr #31
	add	r3, r2, r3
	mov	r3, r3, asr #1
	mov	r3, r3, asl #16
	mov	r3, r3, lsr #16
	add	r3, r3, #66
	mov	r3, r3, asl #16
	mov	r3, r3, lsr #16
	mov	r5, r3
	bl	_Z20Iw2DGetSurfaceHeightv
	mov	r3, r0
	mov	r2, r3, lsr #31
	add	r3, r2, r3
	mov	r3, r3, asr #1
	mov	r3, r3, asl #16
	mov	r3, r3, lsr #16
	sub	r3, r3, #28
	mov	r3, r3, asl #16
	mov	r3, r3, lsr #16
	add	r1, sp, #96
	mov	r2, r5, asl #16
	mov	r2, r2, asr #16
	mov	r3, r3, asl #16
	mov	r3, r3, asr #16
	mov	r0, r1
	mov	r1, r2
	mov	r2, r3
	bl	_ZN8CIwSVec2C1Ess
	add	r3, sp, #100
	mov	r0, r3
	mov	r1, #64
	mov	r2, #64
	bl	_ZN8CIwSVec2C1Ess
	ldr	r3, .L31+12
	str	r3, [sp, #0]
	mov	r0, r4
	ldr	r1, .L31+20
	ldr	r2, [sp, #96]
	ldr	r3, [sp, #100]
	bl	_ZN6Button7SetTextEPc8CIwSVec2S1_j
	.loc 10 31 0
	ldr	r3, [sp, #12]
	ldr	r3, [r3, #0]
	mov	r2, r3
	add	r3, sp, #56
	mov	r0, r2
	mov	r1, r3
	bl	_ZN8CIwArrayIP6Button12CIwAllocatorIS1_15CIwMallocRouterIS1_EE17ReallocateDefaultIS1_S5_EE6appendERKS1_
	.loc 10 33 0
	mov	r0, #56
	bl	_Znwj
	mov	r3, r0
	mov	r4, r3
	mov	r3, r4
	mov	r0, r3
	bl	_ZN6ButtonC1Ev
	mov	r3, r4
	str	r3, [sp, #52]
	.loc 10 34 0
	ldr	r3, [sp, #52]
	mov	r2, #3
	str	r2, [r3, #52]
	.loc 10 35 0
	ldr	r4, [sp, #52]
	bl	_Z19Iw2DGetSurfaceWidthv
	mov	r3, r0
	mov	r2, r3, lsr #31
	add	r3, r2, r3
	mov	r3, r3, asr #1
	mov	r3, r3, asl #16
	mov	r3, r3, lsr #16
	add	r3, r3, #64
	mov	r3, r3, asl #16
	mov	r3, r3, lsr #16
	mov	r5, r3
	bl	_Z20Iw2DGetSurfaceHeightv
	mov	r3, r0
	mov	r2, r3, lsr #31
	add	r3, r2, r3
	mov	r3, r3, asr #1
	mov	r3, r3, asl #16
	mov	r3, r3, lsr #16
	add	r1, sp, #104
	mov	r2, r5, asl #16
	mov	r2, r2, asr #16
	mov	r3, r3, asl #16
	mov	r3, r3, asr #16
	mov	r0, r1
	mov	r1, r2
	mov	r2, r3
	bl	_ZN8CIwSVec2C1Ess
	add	r3, sp, #108
	mov	r0, r3
	mov	r1, #100
	mov	r2, #20
	bl	_ZN8CIwSVec2C1Ess
	ldr	r3, .L31+8
	str	r3, [sp, #0]
	mov	r0, r4
	mov	r1, #0
	ldr	r2, [sp, #104]
	ldr	r3, [sp, #108]
	bl	_ZN6Button5SetBGE8BTN_TYPE8CIwSVec2S1_j
	.loc 10 36 0
	ldr	r4, [sp, #52]
	bl	_Z19Iw2DGetSurfaceWidthv
	mov	r3, r0
	mov	r2, r3, lsr #31
	add	r3, r2, r3
	mov	r3, r3, asr #1
	mov	r3, r3, asl #16
	mov	r3, r3, lsr #16
	add	r3, r3, #66
	mov	r3, r3, asl #16
	mov	r3, r3, lsr #16
	mov	r5, r3
	bl	_Z20Iw2DGetSurfaceHeightv
	mov	r3, r0
	mov	r2, r3, lsr #31
	add	r3, r2, r3
	mov	r3, r3, asr #1
	mov	r3, r3, asl #16
	mov	r3, r3, lsr #16
	add	r3, r3, #4
	mov	r3, r3, asl #16
	mov	r3, r3, lsr #16
	add	r1, sp, #112
	mov	r2, r5, asl #16
	mov	r2, r2, asr #16
	mov	r3, r3, asl #16
	mov	r3, r3, asr #16
	mov	r0, r1
	mov	r1, r2
	mov	r2, r3
	bl	_ZN8CIwSVec2C1Ess
	add	r3, sp, #116
	mov	r0, r3
	mov	r1, #64
	mov	r2, #64
	bl	_ZN8CIwSVec2C1Ess
	ldr	r3, .L31+12
	str	r3, [sp, #0]
	mov	r0, r4
	ldr	r1, .L31+24
	ldr	r2, [sp, #112]
	ldr	r3, [sp, #116]
	bl	_ZN6Button7SetTextEPc8CIwSVec2S1_j
	.loc 10 37 0
	ldr	r3, [sp, #12]
	ldr	r3, [r3, #0]
	mov	r2, r3
	add	r3, sp, #52
	mov	r0, r2
	mov	r1, r3
	bl	_ZN8CIwArrayIP6Button12CIwAllocatorIS1_15CIwMallocRouterIS1_EE17ReallocateDefaultIS1_S5_EE6appendERKS1_
	.loc 10 39 0
	mov	r0, #56
	bl	_Znwj
	mov	r3, r0
	mov	r4, r3
	mov	r3, r4
	mov	r0, r3
	bl	_ZN6ButtonC1Ev
	mov	r3, r4
	str	r3, [sp, #48]
	.loc 10 40 0
	ldr	r3, [sp, #48]
	mov	r2, #4
	str	r2, [r3, #52]
	.loc 10 41 0
	ldr	r4, [sp, #48]
	bl	_Z19Iw2DGetSurfaceWidthv
	mov	r3, r0
	mov	r2, r3, lsr #31
	add	r3, r2, r3
	mov	r3, r3, asr #1
	mov	r3, r3, asl #16
	mov	r3, r3, lsr #16
	add	r3, r3, #64
	mov	r3, r3, asl #16
	mov	r3, r3, lsr #16
	mov	r5, r3
	bl	_Z20Iw2DGetSurfaceHeightv
	mov	r3, r0
	mov	r2, r3, lsr #31
	add	r3, r2, r3
	mov	r3, r3, asr #1
	mov	r3, r3, asl #16
	mov	r3, r3, lsr #16
	add	r3, r3, #32
	mov	r3, r3, asl #16
	mov	r3, r3, lsr #16
	add	r1, sp, #120
	mov	r2, r5, asl #16
	mov	r2, r2, asr #16
	mov	r3, r3, asl #16
	mov	r3, r3, asr #16
	mov	r0, r1
	mov	r1, r2
	mov	r2, r3
	bl	_ZN8CIwSVec2C1Ess
	add	r3, sp, #124
	mov	r0, r3
	mov	r1, #100
	mov	r2, #20
	bl	_ZN8CIwSVec2C1Ess
	ldr	r3, .L31+8
	str	r3, [sp, #0]
	mov	r0, r4
	mov	r1, #0
	ldr	r2, [sp, #120]
	ldr	r3, [sp, #124]
	bl	_ZN6Button5SetBGE8BTN_TYPE8CIwSVec2S1_j
	.loc 10 42 0
	ldr	r4, [sp, #48]
	bl	_Z19Iw2DGetSurfaceWidthv
	mov	r3, r0
	mov	r2, r3, lsr #31
	add	r3, r2, r3
	mov	r3, r3, asr #1
	mov	r3, r3, asl #16
	mov	r3, r3, lsr #16
	add	r3, r3, #66
	mov	r3, r3, asl #16
	mov	r3, r3, lsr #16
	mov	r5, r3
	bl	_Z20Iw2DGetSurfaceHeightv
	mov	r3, r0
	mov	r2, r3, lsr #31
	add	r3, r2, r3
	mov	r3, r3, asr #1
	mov	r3, r3, asl #16
	mov	r3, r3, lsr #16
	add	r3, r3, #36
	mov	r3, r3, asl #16
	mov	r3, r3, lsr #16
	add	r1, sp, #128
	mov	r2, r5, asl #16
	mov	r2, r2, asr #16
	mov	r3, r3, asl #16
	mov	r3, r3, asr #16
	mov	r0, r1
	mov	r1, r2
	mov	r2, r3
	bl	_ZN8CIwSVec2C1Ess
	add	r3, sp, #132
	mov	r0, r3
	mov	r1, #64
	mov	r2, #64
	bl	_ZN8CIwSVec2C1Ess
	ldr	r3, .L31+12
	str	r3, [sp, #0]
	mov	r0, r4
	ldr	r1, .L31+28
	ldr	r2, [sp, #128]
	ldr	r3, [sp, #132]
	bl	_ZN6Button7SetTextEPc8CIwSVec2S1_j
	.loc 10 43 0
	ldr	r3, [sp, #12]
	ldr	r3, [r3, #0]
	mov	r2, r3
	add	r3, sp, #48
	mov	r0, r2
	mov	r1, r3
	bl	_ZN8CIwArrayIP6Button12CIwAllocatorIS1_15CIwMallocRouterIS1_EE17ReallocateDefaultIS1_S5_EE6appendERKS1_
	.loc 10 46 0
	mov	r0, #76
	bl	_Znwj
	mov	r3, r0
	mov	r4, r3
	mov	r3, r4
	mov	r0, r3
	bl	_ZN5PanelC1Ev
	mov	r2, r4
	ldr	r3, [sp, #12]
	str	r2, [r3, #4]
	.loc 10 48 0
	ldr	r3, [sp, #12]
	ldr	r4, [r3, #4]
	bl	_Z19Iw2DGetSurfaceWidthv
	mov	r3, r0
	mov	r2, r3, lsr #31
	add	r3, r2, r3
	mov	r3, r3, asr #1
	mov	r3, r3, asl #16
	mov	r3, r3, lsr #16
	sub	r3, r3, #180
	mov	r3, r3, asl #16
	mov	r3, r3, lsr #16
	mov	r5, r3
	bl	_Z20Iw2DGetSurfaceHeightv
	mov	r3, r0
	mov	r2, r3, lsr #31
	add	r3, r2, r3
	mov	r3, r3, asr #1
	mov	r3, r3, asl #16
	mov	r3, r3, lsr #16
	sub	r3, r3, #80
	mov	r3, r3, asl #16
	mov	r3, r3, lsr #16
	add	r1, sp, #136
	mov	r2, r5, asl #16
	mov	r2, r2, asr #16
	mov	r3, r3, asl #16
	mov	r3, r3, asr #16
	mov	r0, r1
	mov	r1, r2
	mov	r2, r3
	bl	_ZN8CIwSVec2C1Ess
	mov	r0, r4
	ldr	r1, .L31+32
	ldr	r2, [sp, #136]
	bl	_ZN5Panel4LoadEPc8CIwSVec2
	.loc 10 51 0
	add	r3, sp, #36
	mov	r0, r3
	bl	_ZN4_STL12basic_stringIcNS_11char_traitsIcEENS_9allocatorIcEEEC1Ev
	.loc 10 52 0
	add	r3, sp, #36
	mov	r0, r3
	ldr	r1, .L31+36
	bl	_ZN4_STL12basic_stringIcNS_11char_traitsIcEENS_9allocatorIcEEE6appendEPKc
	.loc 10 53 0
	ldr	r3, [sp, #12]
	ldr	r4, [r3, #4]
	add	r2, sp, #140
	add	r3, sp, #36
	mov	r0, r2
	mov	r1, r3
	bl	_ZN4_STL12basic_stringIcNS_11char_traitsIcEENS_9allocatorIcEEEC1ERKS5_
	bl	_Z19Iw2DGetSurfaceWidthv
	mov	r3, r0
	mov	r2, r3, lsr #31
	add	r3, r2, r3
	mov	r3, r3, asr #1
	mov	r3, r3, asl #16
	mov	r3, r3, lsr #16
	sub	r3, r3, #150
	mov	r3, r3, asl #16
	mov	r3, r3, lsr #16
	mov	r5, r3
	bl	_Z20Iw2DGetSurfaceHeightv
	mov	r3, r0
	mov	r2, r3, lsr #31
	add	r3, r2, r3
	mov	r3, r3, asr #1
	mov	r3, r3, asl #16
	mov	r3, r3, lsr #16
	add	r3, r3, #50
	mov	r3, r3, asl #16
	mov	r3, r3, lsr #16
	add	r1, sp, #152
	mov	r2, r5, asl #16
	mov	r2, r2, asr #16
	mov	r3, r3, asl #16
	mov	r3, r3, asr #16
	mov	r0, r1
	mov	r1, r2
	mov	r2, r3
	bl	_ZN8CIwSVec2C1Ess
	add	r3, sp, #140
	mov	r2, #34816
	str	r2, [sp, #0]
	mov	r0, r4
	mov	r1, r3
	ldr	r2, [sp, #152]
	mov	r3, #2
	bl	_ZN5Panel7SetTextEN4_STL12basic_stringIcNS0_11char_traitsIcEENS0_9allocatorIcEEEE8CIwSVec2ij
	add	r3, sp, #140
	mov	r0, r3
	bl	_ZN4_STL12basic_stringIcNS_11char_traitsIcEENS_9allocatorIcEEED1Ev
	.loc 10 55 0
	mov	r0, #56
	bl	_Znwj
	mov	r3, r0
	mov	r4, r3
	mov	r3, r4
	mov	r0, r3
	bl	_ZN6ButtonC1Ev
	mov	r3, r4
	str	r3, [sp, #32]
	.loc 10 56 0
	ldr	r3, [sp, #32]
	mov	r2, #5
	str	r2, [r3, #52]
	.loc 10 57 0
	ldr	r4, [sp, #32]
	bl	_Z19Iw2DGetSurfaceWidthv
	mov	r3, r0
	mov	r2, r3, lsr #31
	add	r3, r2, r3
	mov	r3, r3, asr #1
	mov	r3, r3, asl #16
	mov	r3, r3, lsr #16
	sub	r3, r3, #140
	mov	r3, r3, asl #16
	mov	r3, r3, lsr #16
	mov	r5, r3
	bl	_Z20Iw2DGetSurfaceHeightv
	mov	r3, r0
	mov	r2, r3, lsr #31
	add	r3, r2, r3
	mov	r3, r3, asr #1
	mov	r3, r3, asl #16
	mov	r3, r3, lsr #16
	add	r3, r3, #100
	mov	r3, r3, asl #16
	mov	r3, r3, lsr #16
	add	r1, sp, #156
	mov	r2, r5, asl #16
	mov	r2, r2, asr #16
	mov	r3, r3, asl #16
	mov	r3, r3, asr #16
	mov	r0, r1
	mov	r1, r2
	mov	r2, r3
	bl	_ZN8CIwSVec2C1Ess
	mov	r0, r4
	ldr	r1, .L31+40
	ldr	r2, [sp, #156]
	bl	_ZN6Button4LoadEPc8CIwSVec2
	.loc 10 60 0
	ldr	r3, [sp, #12]
	ldr	r3, [r3, #4]
	mov	r2, r3
	add	r3, sp, #32
	mov	r0, r2
	mov	r1, r3
	bl	_ZN8CIwArrayIP6Button12CIwAllocatorIS1_15CIwMallocRouterIS1_EE17ReallocateDefaultIS1_S5_EE6appendERKS1_
	.loc 10 62 0
	mov	r0, #56
	bl	_Znwj
	mov	r3, r0
	mov	r4, r3
	mov	r3, r4
	mov	r0, r3
	bl	_ZN6ButtonC1Ev
	mov	r3, r4
	str	r3, [sp, #28]
	.loc 10 63 0
	ldr	r3, [sp, #28]
	mov	r2, #6
	str	r2, [r3, #52]
	.loc 10 64 0
	ldr	r4, [sp, #28]
	bl	_Z19Iw2DGetSurfaceWidthv
	mov	r3, r0
	mov	r2, r3, lsr #31
	add	r3, r2, r3
	mov	r3, r3, asr #1
	mov	r3, r3, asl #16
	mov	r5, r3, lsr #16
	bl	_Z20Iw2DGetSurfaceHeightv
	mov	r3, r0
	mov	r2, r3, lsr #31
	add	r3, r2, r3
	mov	r3, r3, asr #1
	mov	r3, r3, asl #16
	mov	r3, r3, lsr #16
	add	r3, r3, #100
	mov	r3, r3, asl #16
	mov	r3, r3, lsr #16
	add	r1, sp, #160
	mov	r2, r5, asl #16
	mov	r2, r2, asr #16
	mov	r3, r3, asl #16
	mov	r3, r3, asr #16
	mov	r0, r1
	mov	r1, r2
	mov	r2, r3
	bl	_ZN8CIwSVec2C1Ess
	mov	r0, r4
	ldr	r1, .L31+44
	ldr	r2, [sp, #160]
	bl	_ZN6Button4LoadEPc8CIwSVec2
	.loc 10 67 0
	ldr	r3, [sp, #12]
	ldr	r3, [r3, #4]
	mov	r2, r3
	add	r3, sp, #28
	mov	r0, r2
	mov	r1, r3
	bl	_ZN8CIwArrayIP6Button12CIwAllocatorIS1_15CIwMallocRouterIS1_EE17ReallocateDefaultIS1_S5_EE6appendERKS1_
	.loc 10 71 0
	mov	r0, #76
	bl	_Znwj
	mov	r3, r0
	mov	r4, r3
	mov	r3, r4
	mov	r0, r3
	bl	_ZN5PanelC1Ev
	mov	r2, r4
	ldr	r3, [sp, #12]
	str	r2, [r3, #8]
	.loc 10 72 0
	ldr	r3, [sp, #12]
	ldr	r3, [r3, #8]
	mov	r0, r3
	bl	_ZN5Panel4LoadEv
	.loc 10 73 0
	ldr	r3, [sp, #12]
	ldr	r4, [r3, #8]
	bl	_Z19Iw2DGetSurfaceWidthv
	mov	r3, r0
	mov	r2, r3, lsr #31
	add	r3, r2, r3
	mov	r3, r3, asr #1
	mov	r3, r3, asl #16
	mov	r3, r3, lsr #16
	sub	r3, r3, #200
	mov	r3, r3, asl #16
	mov	r3, r3, lsr #16
	mov	r5, r3
	bl	_Z20Iw2DGetSurfaceHeightv
	mov	r3, r0
	mov	r2, r3, lsr #31
	add	r3, r2, r3
	mov	r3, r3, asr #1
	mov	r3, r3, asl #16
	mov	r3, r3, lsr #16
	sub	r3, r3, #80
	mov	r3, r3, asl #16
	mov	r3, r3, lsr #16
	add	r1, sp, #164
	mov	r2, r5, asl #16
	mov	r2, r2, asr #16
	mov	r3, r3, asl #16
	mov	r3, r3, asr #16
	mov	r0, r1
	mov	r1, r2
	mov	r2, r3
	bl	_ZN8CIwSVec2C1Ess
	mov	r0, r4
	ldr	r1, .L31+48
	ldr	r2, [sp, #164]
	bl	_ZN5Panel4LoadEPc8CIwSVec2
	.loc 10 77 0
	mov	r0, #56
	bl	_Znwj
	mov	r3, r0
	mov	r4, r3
	mov	r3, r4
	mov	r0, r3
	bl	_ZN6ButtonC1Ev
	mov	r3, r4
	str	r3, [sp, #24]
	.loc 10 78 0
	ldr	r3, [sp, #24]
	mov	r2, #7
	str	r2, [r3, #52]
	.loc 10 80 0
	ldr	r4, [sp, #24]
	bl	_Z19Iw2DGetSurfaceWidthv
	mov	r3, r0
	mov	r2, r3, lsr #31
	add	r3, r2, r3
	mov	r3, r3, asr #1
	mov	r3, r3, asl #16
	mov	r3, r3, lsr #16
	sub	r3, r3, #154
	mov	r3, r3, asl #16
	mov	r3, r3, lsr #16
	mov	r5, r3
	bl	_Z20Iw2DGetSurfaceHeightv
	mov	r3, r0
	mov	r2, r3, lsr #31
	add	r3, r2, r3
	mov	r3, r3, asr #1
	mov	r3, r3, asl #16
	mov	r3, r3, lsr #16
	add	r3, r3, #180
	mov	r3, r3, asl #16
	mov	r3, r3, lsr #16
	add	r1, sp, #168
	mov	r2, r5, asl #16
	mov	r2, r2, asr #16
	mov	r3, r3, asl #16
	mov	r3, r3, asr #16
	mov	r0, r1
	mov	r1, r2
	mov	r2, r3
	bl	_ZN8CIwSVec2C1Ess
	add	r3, sp, #172
	mov	r0, r3
	mov	r1, #100
	mov	r2, #20
	bl	_ZN8CIwSVec2C1Ess
	ldr	r3, .L31+8
	str	r3, [sp, #0]
	mov	r0, r4
	mov	r1, #0
	ldr	r2, [sp, #168]
	ldr	r3, [sp, #172]
	bl	_ZN6Button5SetBGE8BTN_TYPE8CIwSVec2S1_j
	.loc 10 81 0
	ldr	r4, [sp, #24]
	bl	_Z19Iw2DGetSurfaceWidthv
	mov	r3, r0
	mov	r2, r3, lsr #31
	add	r3, r2, r3
	mov	r3, r3, asr #1
	mov	r3, r3, asl #16
	mov	r3, r3, lsr #16
	sub	r3, r3, #150
	mov	r3, r3, asl #16
	mov	r3, r3, lsr #16
	mov	r5, r3
	bl	_Z20Iw2DGetSurfaceHeightv
	mov	r3, r0
	mov	r2, r3, lsr #31
	add	r3, r2, r3
	mov	r3, r3, asr #1
	mov	r3, r3, asl #16
	mov	r3, r3, lsr #16
	add	r3, r3, #184
	mov	r3, r3, asl #16
	mov	r3, r3, lsr #16
	add	r1, sp, #176
	mov	r2, r5, asl #16
	mov	r2, r2, asr #16
	mov	r3, r3, asl #16
	mov	r3, r3, asr #16
	mov	r0, r1
	mov	r1, r2
	mov	r2, r3
	bl	_ZN8CIwSVec2C1Ess
	add	r3, sp, #180
	mov	r0, r3
	mov	r1, #64
	mov	r2, #64
	bl	_ZN8CIwSVec2C1Ess
	ldr	r3, .L31+12
	str	r3, [sp, #0]
	mov	r0, r4
	ldr	r1, .L31+52
	ldr	r2, [sp, #176]
	ldr	r3, [sp, #180]
	bl	_ZN6Button7SetTextEPc8CIwSVec2S1_j
	.loc 10 82 0
	ldr	r3, [sp, #12]
	ldr	r3, [r3, #8]
	mov	r2, r3
	add	r3, sp, #24
	mov	r0, r2
	mov	r1, r3
	bl	_ZN8CIwArrayIP6Button12CIwAllocatorIS1_15CIwMallocRouterIS1_EE17ReallocateDefaultIS1_S5_EE6appendERKS1_
	.loc 10 84 0
	mov	r0, #56
	bl	_Znwj
	mov	r3, r0
	mov	r4, r3
	mov	r3, r4
	mov	r0, r3
	bl	_ZN6ButtonC1Ev
	mov	r3, r4
	str	r3, [sp, #20]
	.loc 10 85 0
	ldr	r3, [sp, #20]
	mov	r2, #8
	str	r2, [r3, #52]
	.loc 10 87 0
	ldr	r4, [sp, #20]
	bl	_Z19Iw2DGetSurfaceWidthv
	mov	r3, r0
	mov	r2, r3, lsr #31
	add	r3, r2, r3
	mov	r3, r3, asr #1
	mov	r3, r3, asl #16
	mov	r3, r3, lsr #16
	add	r3, r3, #50
	mov	r3, r3, asl #16
	mov	r3, r3, lsr #16
	mov	r5, r3
	bl	_Z20Iw2DGetSurfaceHeightv
	mov	r3, r0
	mov	r2, r3, lsr #31
	add	r3, r2, r3
	mov	r3, r3, asr #1
	mov	r3, r3, asl #16
	mov	r3, r3, lsr #16
	add	r3, r3, #180
	mov	r3, r3, asl #16
	mov	r3, r3, lsr #16
	add	r1, sp, #184
	mov	r2, r5, asl #16
	mov	r2, r2, asr #16
	mov	r3, r3, asl #16
	mov	r3, r3, asr #16
	mov	r0, r1
	mov	r1, r2
	mov	r2, r3
	bl	_ZN8CIwSVec2C1Ess
	add	r3, sp, #188
	mov	r0, r3
	mov	r1, #100
	mov	r2, #20
	bl	_ZN8CIwSVec2C1Ess
	ldr	r3, .L31+8
	str	r3, [sp, #0]
	mov	r0, r4
	mov	r1, #0
	ldr	r2, [sp, #184]
	ldr	r3, [sp, #188]
	bl	_ZN6Button5SetBGE8BTN_TYPE8CIwSVec2S1_j
	.loc 10 88 0
	ldr	r4, [sp, #20]
	bl	_Z19Iw2DGetSurfaceWidthv
	mov	r3, r0
	mov	r2, r3, lsr #31
	add	r3, r2, r3
	mov	r3, r3, asr #1
	mov	r3, r3, asl #16
	mov	r3, r3, lsr #16
	add	r3, r3, #54
	mov	r3, r3, asl #16
	mov	r3, r3, lsr #16
	mov	r5, r3
	bl	_Z20Iw2DGetSurfaceHeightv
	mov	r3, r0
	mov	r2, r3, lsr #31
	add	r3, r2, r3
	mov	r3, r3, asr #1
	mov	r3, r3, asl #16
	mov	r3, r3, lsr #16
	add	r3, r3, #184
	mov	r3, r3, asl #16
	mov	r3, r3, lsr #16
	add	r1, sp, #192
	mov	r2, r5, asl #16
	mov	r2, r2, asr #16
	mov	r3, r3, asl #16
	mov	r3, r3, asr #16
	mov	r0, r1
	mov	r1, r2
	mov	r2, r3
	bl	_ZN8CIwSVec2C1Ess
	add	r3, sp, #196
	mov	r0, r3
	mov	r1, #64
	mov	r2, #64
	bl	_ZN8CIwSVec2C1Ess
	ldr	r3, .L31+12
	str	r3, [sp, #0]
	mov	r0, r4
	ldr	r1, .L31+56
	ldr	r2, [sp, #192]
	ldr	r3, [sp, #196]
	bl	_ZN6Button7SetTextEPc8CIwSVec2S1_j
	.loc 10 89 0
	ldr	r3, [sp, #12]
	ldr	r3, [r3, #8]
	mov	r2, r3
	add	r3, sp, #20
	mov	r0, r2
	mov	r1, r3
	bl	_ZN8CIwArrayIP6Button12CIwAllocatorIS1_15CIwMallocRouterIS1_EE17ReallocateDefaultIS1_S5_EE6appendERKS1_
	add	r3, sp, #36
	mov	r0, r3
	bl	_ZN4_STL12basic_stringIcNS_11char_traitsIcEENS_9allocatorIcEEED1Ev
.LBE2:
	.loc 10 91 0
	add	sp, sp, #204
	ldmfd	sp!, {r4, r5, pc}
.L32:
	.align	2
.L31:
	.word	.LC0
	.word	.LC1
	.word	-65536
	.word	-16711936
	.word	.LC2
	.word	.LC3
	.word	.LC4
	.word	.LC5
	.word	.LC6
	.word	.LC7
	.word	.LC8
	.word	.LC9
	.word	.LC10
	.word	.LC11
	.word	.LC12
	.cfi_endproc
.LFE3174:
	.size	_ZN2UI4LoadEv, .-_ZN2UI4LoadEv
	.section	.text._ZN2UI6RenderEv,"ax",%progbits
	.align	2
	.global	_ZN2UI6RenderEv
	.hidden	_ZN2UI6RenderEv
	.type	_ZN2UI6RenderEv, %function
_ZN2UI6RenderEv:
.LFB3175:
	.loc 10 94 0
	.cfi_startproc
	@ args = 0, pretend = 0, frame = 8
	@ frame_needed = 0, uses_anonymous_args = 0
	str	lr, [sp, #-4]!
.LCFI18:
	.cfi_def_cfa_offset 4
	sub	sp, sp, #12
.LCFI19:
	.cfi_def_cfa_offset 16
	str	r0, [sp, #4]
	.loc 10 95 0
	ldr	r3, [sp, #4]
	ldr	r3, [r3, #12]
	mov	r0, r3
	.cfi_offset 14, -4
	bl	_ZN6Button6RenderEv
	.loc 10 96 0
	ldr	r3, [sp, #4]
	ldr	r3, [r3, #0]
	mov	r0, r3
	bl	_ZN5Panel6RenderEv
	.loc 10 97 0
	ldr	r3, [sp, #4]
	ldr	r3, [r3, #4]
	mov	r0, r3
	bl	_ZN5Panel6RenderEv
	.loc 10 98 0
	ldr	r3, [sp, #4]
	ldr	r3, [r3, #8]
	mov	r0, r3
	bl	_ZN5Panel6RenderEv
	.loc 10 99 0
	add	sp, sp, #12
	ldmfd	sp!, {pc}
	.cfi_endproc
.LFE3175:
	.size	_ZN2UI6RenderEv, .-_ZN2UI6RenderEv
	.section	.text._ZN2UI9IsTouchedEv,"ax",%progbits
	.align	2
	.global	_ZN2UI9IsTouchedEv
	.hidden	_ZN2UI9IsTouchedEv
	.type	_ZN2UI9IsTouchedEv, %function
_ZN2UI9IsTouchedEv:
.LFB3176:
	.loc 10 101 0
	.cfi_startproc
	@ args = 0, pretend = 0, frame = 16
	@ frame_needed = 0, uses_anonymous_args = 0
	str	lr, [sp, #-4]!
.LCFI20:
	.cfi_def_cfa_offset 4
	sub	sp, sp, #20
.LCFI21:
	.cfi_def_cfa_offset 24
	str	r0, [sp, #4]
.LBB3:
	.loc 10 102 0
	ldr	r3, [sp, #4]
	ldr	r3, [r3, #12]
	mov	r0, r3
	.cfi_offset 14, -4
	bl	_ZN6Button9IsTouchedEv
	mov	r3, r0
	cmp	r3, #0
	beq	.L36
	.loc 10 104 0
	ldr	r3, [sp, #4]
	ldr	r3, [r3, #0]
	mov	r0, r3
	mov	r1, #1
	bl	_ZN5Panel10SetVisibleEb
	.loc 10 105 0
	ldr	r3, [sp, #4]
	ldr	r3, [r3, #12]
	ldr	r3, [r3, #52]
	b	.L37
.L36:
	.loc 10 107 0
	ldr	r3, [sp, #4]
	ldr	r3, [r3, #0]
	mov	r0, r3
	bl	_ZN5Panel9IsTouchedEv
	mov	r3, r0
	str	r3, [sp, #12]
	.loc 10 108 0
	ldr	r3, [sp, #4]
	ldr	r3, [r3, #0]
	ldrb	r3, [r3, #17]	@ zero_extendqisi2
	cmp	r3, #0
	beq	.L38
	ldr	r3, [sp, #12]
	cmp	r3, #0
	blt	.L38
	.loc 10 110 0
	ldr	r3, [sp, #4]
	ldr	r3, [r3, #0]
	mov	r0, r3
	mov	r1, #0
	bl	_ZN5Panel10SetVisibleEb
	.loc 10 111 0
	ldr	r3, [sp, #12]
	cmp	r3, #1
	bne	.L39
	.loc 10 112 0
	ldr	r3, [sp, #4]
	ldrb	r3, [r3, #16]	@ zero_extendqisi2
	eor	r3, r3, #1
	and	r2, r3, #255
	ldr	r3, [sp, #4]
	strb	r2, [r3, #16]
.L39:
	.loc 10 113 0
	ldr	r3, [sp, #12]
	cmp	r3, #2
	bne	.L40
	.loc 10 114 0
	ldr	r3, [sp, #4]
	ldr	r3, [r3, #8]
	mov	r0, r3
	mov	r1, #1
	bl	_ZN5Panel10SetVisibleEb
.L40:
	.loc 10 115 0
	ldr	r3, [sp, #12]
	cmp	r3, #4
	bne	.L41
	.loc 10 116 0
	ldr	r3, [sp, #4]
	ldr	r3, [r3, #8]
	mov	r0, r3
	mov	r1, #1
	bl	_ZN5Panel10SetVisibleEb
.L41:
	.loc 10 118 0
	ldr	r3, [sp, #12]
	b	.L37
.L38:
	.loc 10 120 0
	ldr	r3, [sp, #4]
	ldr	r3, [r3, #4]
	mov	r0, r3
	bl	_ZN5Panel9IsTouchedEv
	mov	r3, r0
	str	r3, [sp, #12]
	.loc 10 121 0
	ldr	r3, [sp, #4]
	ldr	r3, [r3, #4]
	ldrb	r3, [r3, #17]	@ zero_extendqisi2
	cmp	r3, #0
	beq	.L42
	ldr	r3, [sp, #12]
	cmp	r3, #0
	blt	.L42
	.loc 10 123 0
	ldr	r3, [sp, #4]
	ldr	r3, [r3, #4]
	mov	r0, r3
	mov	r1, #0
	bl	_ZN5Panel10SetVisibleEb
	.loc 10 124 0
	ldr	r3, [sp, #12]
	cmp	r3, #5
	bne	.L43
	.loc 10 125 0
	ldr	r3, [sp, #4]
	ldr	r3, [r3, #8]
	mov	r0, r3
	mov	r1, #1
	bl	_ZN5Panel10SetVisibleEb
.L43:
	.loc 10 126 0
	ldr	r3, [sp, #12]
	b	.L37
.L42:
	.loc 10 128 0
	ldr	r3, [sp, #4]
	ldr	r3, [r3, #8]
	mov	r0, r3
	bl	_ZN5Panel9IsTouchedEv
	mov	r3, r0
	str	r3, [sp, #12]
	.loc 10 129 0
	ldr	r3, [sp, #4]
	ldr	r3, [r3, #8]
	ldrb	r3, [r3, #17]	@ zero_extendqisi2
	cmp	r3, #0
	beq	.L44
	ldr	r3, [sp, #12]
	cmp	r3, #0
	blt	.L44
	.loc 10 131 0
	ldr	r3, [sp, #4]
	ldr	r3, [r3, #8]
	mov	r0, r3
	mov	r1, #0
	bl	_ZN5Panel10SetVisibleEb
	.loc 10 132 0
	ldr	r3, [sp, #12]
	b	.L37
.L44:
	.loc 10 134 0
	mvn	r3, #0
.L37:
.LBE3:
	.loc 10 135 0
	mov	r0, r3
	add	sp, sp, #20
	ldmfd	sp!, {pc}
	.cfi_endproc
.LFE3176:
	.size	_ZN2UI9IsTouchedEv, .-_ZN2UI9IsTouchedEv
	.section	.text._ZN4_STL12basic_stringIcNS_11char_traitsIcEENS_9allocatorIcEEED1Ev,"axG",%progbits,_ZN4_STL12basic_stringIcNS_11char_traitsIcEENS_9allocatorIcEEED1Ev,comdat
	.align	2
	.weak	_ZN4_STL12basic_stringIcNS_11char_traitsIcEENS_9allocatorIcEEED1Ev
	.hidden	_ZN4_STL12basic_stringIcNS_11char_traitsIcEENS_9allocatorIcEEED1Ev
	.type	_ZN4_STL12basic_stringIcNS_11char_traitsIcEENS_9allocatorIcEEED1Ev, %function
_ZN4_STL12basic_stringIcNS_11char_traitsIcEENS_9allocatorIcEEED1Ev:
.LFB3262:
	.file 11 "c:/marmalade/6.2/s3e/h/std/c++/stl/_string.h"
	.loc 11 305 0
	.cfi_startproc
	@ args = 0, pretend = 0, frame = 8
	@ frame_needed = 0, uses_anonymous_args = 0
	str	lr, [sp, #-4]!
.LCFI22:
	.cfi_def_cfa_offset 4
	sub	sp, sp, #12
.LCFI23:
	.cfi_def_cfa_offset 16
	str	r0, [sp, #4]
	.loc 11 305 0
	ldr	r3, [sp, #4]
	ldr	r2, [r3, #0]
	ldr	r3, [sp, #4]
	ldr	r3, [r3, #4]
	add	r3, r3, #1
	mov	r0, r2
	mov	r1, r3
	.cfi_offset 14, -4
	bl	_ZN4_STL8_DestroyEPcS0_
	ldr	r3, [sp, #4]
	mov	r0, r3
	bl	_ZN4_STL12_String_baseIcNS_9allocatorIcEEED2Ev
	ldr	r3, [sp, #4]
	mov	r0, r3
	add	sp, sp, #12
	ldmfd	sp!, {pc}
	.cfi_endproc
.LFE3262:
	.size	_ZN4_STL12basic_stringIcNS_11char_traitsIcEENS_9allocatorIcEEED1Ev, .-_ZN4_STL12basic_stringIcNS_11char_traitsIcEENS_9allocatorIcEEED1Ev
	.section	.text._ZN4_STL12basic_stringIcNS_11char_traitsIcEENS_9allocatorIcEEEC1ERKS5_,"axG",%progbits,_ZN4_STL12basic_stringIcNS_11char_traitsIcEENS_9allocatorIcEEEC1ERKS5_,comdat
	.align	2
	.weak	_ZN4_STL12basic_stringIcNS_11char_traitsIcEENS_9allocatorIcEEEC1ERKS5_
	.hidden	_ZN4_STL12basic_stringIcNS_11char_traitsIcEENS_9allocatorIcEEEC1ERKS5_
	.type	_ZN4_STL12basic_stringIcNS_11char_traitsIcEENS_9allocatorIcEEEC1ERKS5_, %function
_ZN4_STL12basic_stringIcNS_11char_traitsIcEENS_9allocatorIcEEEC1ERKS5_:
.LFB3265:
	.file 12 "c:/marmalade/6.2/s3e/h/std/c++/stl/_string.c"
	.loc 12 558 0
	.cfi_startproc
	@ args = 0, pretend = 0, frame = 16
	@ frame_needed = 0, uses_anonymous_args = 0
	stmfd	sp!, {r4, lr}
.LCFI24:
	.cfi_def_cfa_offset 8
	sub	sp, sp, #16
.LCFI25:
	.cfi_def_cfa_offset 24
	str	r0, [sp, #4]
	str	r1, [sp, #0]
	.loc 12 559 0
	ldr	r4, [sp, #4]
	.cfi_offset 14, -4
	.cfi_offset 4, -8
	add	r3, sp, #12
	mov	r0, r3
	ldr	r1, [sp, #0]
	bl	_ZNK4_STL12basic_stringIcNS_11char_traitsIcEENS_9allocatorIcEEE13get_allocatorEv
	add	r3, sp, #12
	mov	r0, r4
	mov	r1, r3
	bl	_ZN4_STL12_String_baseIcNS_9allocatorIcEEEC2ERKS2_
	add	r3, sp, #12
	mov	r0, r3
	bl	_ZN4_STL9allocatorIcED1Ev
	.loc 12 561 0
	ldr	r3, [sp, #0]
	ldr	r2, [r3, #0]
	ldr	r3, [sp, #0]
	ldr	r3, [r3, #4]
	ldr	r0, [sp, #4]
	mov	r1, r2
	mov	r2, r3
	bl	_ZN4_STL12basic_stringIcNS_11char_traitsIcEENS_9allocatorIcEEE19_M_range_initializeIPcEEvT_S8_
	ldr	r3, [sp, #4]
	.loc 12 562 0
	mov	r0, r3
	add	sp, sp, #16
	ldmfd	sp!, {r4, pc}
	.cfi_endproc
.LFE3265:
	.size	_ZN4_STL12basic_stringIcNS_11char_traitsIcEENS_9allocatorIcEEEC1ERKS5_, .-_ZN4_STL12basic_stringIcNS_11char_traitsIcEENS_9allocatorIcEEEC1ERKS5_
	.section	.text._ZN8CIwArrayIP6Button12CIwAllocatorIS1_15CIwMallocRouterIS1_EE17ReallocateDefaultIS1_S5_EEC1Ej,"axG",%progbits,_ZN8CIwArrayIP6Button12CIwAllocatorIS1_15CIwMallocRouterIS1_EE17ReallocateDefaultIS1_S5_EEC1Ej,comdat
	.align	2
	.weak	_ZN8CIwArrayIP6Button12CIwAllocatorIS1_15CIwMallocRouterIS1_EE17ReallocateDefaultIS1_S5_EEC1Ej
	.hidden	_ZN8CIwArrayIP6Button12CIwAllocatorIS1_15CIwMallocRouterIS1_EE17ReallocateDefaultIS1_S5_EEC1Ej
	.type	_ZN8CIwArrayIP6Button12CIwAllocatorIS1_15CIwMallocRouterIS1_EE17ReallocateDefaultIS1_S5_EEC1Ej, %function
_ZN8CIwArrayIP6Button12CIwAllocatorIS1_15CIwMallocRouterIS1_EE17ReallocateDefaultIS1_S5_EEC1Ej:
.LFB3274:
	.file 13 "c:/marmalade/6.2/modules/iwutil/h/IwArray.h"
	.loc 13 131 0
	.cfi_startproc
	@ args = 0, pretend = 0, frame = 8
	@ frame_needed = 0, uses_anonymous_args = 0
	str	lr, [sp, #-4]!
.LCFI26:
	.cfi_def_cfa_offset 4
	sub	sp, sp, #12
.LCFI27:
	.cfi_def_cfa_offset 16
	str	r0, [sp, #4]
	str	r1, [sp, #0]
	.loc 13 131 0
	ldr	r3, [sp, #4]
	mov	r2, #0
	str	r2, [r3, #0]
	ldr	r3, [sp, #4]
	mov	r2, #0
	str	r2, [r3, #4]
	ldr	r3, [sp, #4]
	mov	r2, #0
	str	r2, [r3, #8]
	ldr	r2, [sp, #4]
	ldrb	r3, [r2, #12]
	bic	r3, r3, #1
	strb	r3, [r2, #12]
	ldr	r2, [sp, #4]
	ldrb	r3, [r2, #12]
	bic	r3, r3, #2
	strb	r3, [r2, #12]
	.loc 13 133 0
	ldr	r0, [sp, #4]
	ldr	r1, [sp, #0]
	.cfi_offset 14, -4
	bl	_ZN8CIwArrayIP6Button12CIwAllocatorIS1_15CIwMallocRouterIS1_EE17ReallocateDefaultIS1_S5_EE6resizeEj
	.loc 13 134 0
	ldr	r0, [sp, #4]
	bl	_ZN8CIwArrayIP6Button12CIwAllocatorIS1_15CIwMallocRouterIS1_EE17ReallocateDefaultIS1_S5_EE5clearEv
	ldr	r3, [sp, #4]
	.loc 13 135 0
	mov	r0, r3
	add	sp, sp, #12
	ldmfd	sp!, {pc}
	.cfi_endproc
.LFE3274:
	.size	_ZN8CIwArrayIP6Button12CIwAllocatorIS1_15CIwMallocRouterIS1_EE17ReallocateDefaultIS1_S5_EEC1Ej, .-_ZN8CIwArrayIP6Button12CIwAllocatorIS1_15CIwMallocRouterIS1_EE17ReallocateDefaultIS1_S5_EEC1Ej
	.section	.text._ZN8CIwArrayIP10CIw2DImage12CIwAllocatorIS1_15CIwMallocRouterIS1_EE17ReallocateDefaultIS1_S5_EEC1Ej,"axG",%progbits,_ZN8CIwArrayIP10CIw2DImage12CIwAllocatorIS1_15CIwMallocRouterIS1_EE17ReallocateDefaultIS1_S5_EEC1Ej,comdat
	.align	2
	.weak	_ZN8CIwArrayIP10CIw2DImage12CIwAllocatorIS1_15CIwMallocRouterIS1_EE17ReallocateDefaultIS1_S5_EEC1Ej
	.hidden	_ZN8CIwArrayIP10CIw2DImage12CIwAllocatorIS1_15CIwMallocRouterIS1_EE17ReallocateDefaultIS1_S5_EEC1Ej
	.type	_ZN8CIwArrayIP10CIw2DImage12CIwAllocatorIS1_15CIwMallocRouterIS1_EE17ReallocateDefaultIS1_S5_EEC1Ej, %function
_ZN8CIwArrayIP10CIw2DImage12CIwAllocatorIS1_15CIwMallocRouterIS1_EE17ReallocateDefaultIS1_S5_EEC1Ej:
.LFB3280:
	.loc 13 131 0
	.cfi_startproc
	@ args = 0, pretend = 0, frame = 8
	@ frame_needed = 0, uses_anonymous_args = 0
	str	lr, [sp, #-4]!
.LCFI28:
	.cfi_def_cfa_offset 4
	sub	sp, sp, #12
.LCFI29:
	.cfi_def_cfa_offset 16
	str	r0, [sp, #4]
	str	r1, [sp, #0]
	.loc 13 131 0
	ldr	r3, [sp, #4]
	mov	r2, #0
	str	r2, [r3, #0]
	ldr	r3, [sp, #4]
	mov	r2, #0
	str	r2, [r3, #4]
	ldr	r3, [sp, #4]
	mov	r2, #0
	str	r2, [r3, #8]
	ldr	r2, [sp, #4]
	ldrb	r3, [r2, #12]
	bic	r3, r3, #1
	strb	r3, [r2, #12]
	ldr	r2, [sp, #4]
	ldrb	r3, [r2, #12]
	bic	r3, r3, #2
	strb	r3, [r2, #12]
	.loc 13 133 0
	ldr	r0, [sp, #4]
	ldr	r1, [sp, #0]
	.cfi_offset 14, -4
	bl	_ZN8CIwArrayIP10CIw2DImage12CIwAllocatorIS1_15CIwMallocRouterIS1_EE17ReallocateDefaultIS1_S5_EE6resizeEj
	.loc 13 134 0
	ldr	r0, [sp, #4]
	bl	_ZN8CIwArrayIP10CIw2DImage12CIwAllocatorIS1_15CIwMallocRouterIS1_EE17ReallocateDefaultIS1_S5_EE5clearEv
	ldr	r3, [sp, #4]
	.loc 13 135 0
	mov	r0, r3
	add	sp, sp, #12
	ldmfd	sp!, {pc}
	.cfi_endproc
.LFE3280:
	.size	_ZN8CIwArrayIP10CIw2DImage12CIwAllocatorIS1_15CIwMallocRouterIS1_EE17ReallocateDefaultIS1_S5_EEC1Ej, .-_ZN8CIwArrayIP10CIw2DImage12CIwAllocatorIS1_15CIwMallocRouterIS1_EE17ReallocateDefaultIS1_S5_EEC1Ej
	.section	.text._ZN4_STL12basic_stringIcNS_11char_traitsIcEENS_9allocatorIcEEEC1Ev,"axG",%progbits,_ZN4_STL12basic_stringIcNS_11char_traitsIcEENS_9allocatorIcEEEC1Ev,comdat
	.align	2
	.weak	_ZN4_STL12basic_stringIcNS_11char_traitsIcEENS_9allocatorIcEEEC1Ev
	.hidden	_ZN4_STL12basic_stringIcNS_11char_traitsIcEENS_9allocatorIcEEEC1Ev
	.type	_ZN4_STL12basic_stringIcNS_11char_traitsIcEENS_9allocatorIcEEEC1Ev, %function
_ZN4_STL12basic_stringIcNS_11char_traitsIcEENS_9allocatorIcEEEC1Ev:
.LFB3286:
	.loc 12 540 0
	.cfi_startproc
	@ args = 0, pretend = 0, frame = 16
	@ frame_needed = 0, uses_anonymous_args = 0
	stmfd	sp!, {r4, lr}
.LCFI30:
	.cfi_def_cfa_offset 8
	sub	sp, sp, #16
.LCFI31:
	.cfi_def_cfa_offset 24
	str	r0, [sp, #4]
	.loc 12 541 0
	ldr	r4, [sp, #4]
	.cfi_offset 14, -4
	.cfi_offset 4, -8
	add	r3, sp, #12
	mov	r0, r3
	bl	_ZN4_STL9allocatorIcEC1Ev
	add	r3, sp, #12
	mov	r0, r4
	mov	r1, r3
	bl	_ZN4_STL12_String_baseIcNS_9allocatorIcEEEC2ERKS2_
	add	r3, sp, #12
	mov	r0, r3
	bl	_ZN4_STL9allocatorIcED1Ev
	.loc 12 542 0
	ldr	r3, [sp, #4]
	add	r3, r3, #8
	mov	r0, r3
	mov	r1, #8
	mov	r2, #0
	bl	_ZN4_STL9allocatorIcE8allocateEjPKv
	mov	r2, r0
	ldr	r3, [sp, #4]
	str	r2, [r3, #0]
	.loc 12 543 0
	ldr	r3, [sp, #4]
	ldr	r2, [r3, #0]
	ldr	r3, [sp, #4]
	str	r2, [r3, #4]
	.loc 12 544 0
	ldr	r3, [sp, #4]
	ldr	r3, [r3, #0]
	add	r2, r3, #8
	ldr	r3, [sp, #4]
	str	r2, [r3, #8]
	.loc 12 545 0
	ldr	r0, [sp, #4]
	bl	_ZN4_STL12basic_stringIcNS_11char_traitsIcEENS_9allocatorIcEEE19_M_terminate_stringEv
	ldr	r3, [sp, #4]
	.loc 12 546 0
	mov	r0, r3
	add	sp, sp, #16
	ldmfd	sp!, {r4, pc}
	.cfi_endproc
.LFE3286:
	.size	_ZN4_STL12basic_stringIcNS_11char_traitsIcEENS_9allocatorIcEEEC1Ev, .-_ZN4_STL12basic_stringIcNS_11char_traitsIcEENS_9allocatorIcEEEC1Ev
	.section	.text._ZN8CIwArrayIP6Button12CIwAllocatorIS1_15CIwMallocRouterIS1_EE17ReallocateDefaultIS1_S5_EE6appendERKS1_,"axG",%progbits,_ZN8CIwArrayIP6Button12CIwAllocatorIS1_15CIwMallocRouterIS1_EE17ReallocateDefaultIS1_S5_EE6appendERKS1_,comdat
	.align	2
	.weak	_ZN8CIwArrayIP6Button12CIwAllocatorIS1_15CIwMallocRouterIS1_EE17ReallocateDefaultIS1_S5_EE6appendERKS1_
	.hidden	_ZN8CIwArrayIP6Button12CIwAllocatorIS1_15CIwMallocRouterIS1_EE17ReallocateDefaultIS1_S5_EE6appendERKS1_
	.type	_ZN8CIwArrayIP6Button12CIwAllocatorIS1_15CIwMallocRouterIS1_EE17ReallocateDefaultIS1_S5_EE6appendERKS1_, %function
_ZN8CIwArrayIP6Button12CIwAllocatorIS1_15CIwMallocRouterIS1_EE17ReallocateDefaultIS1_S5_EE6appendERKS1_:
.LFB3288:
	.loc 13 594 0
	.cfi_startproc
	@ args = 0, pretend = 0, frame = 8
	@ frame_needed = 0, uses_anonymous_args = 0
	str	lr, [sp, #-4]!
.LCFI32:
	.cfi_def_cfa_offset 4
	sub	sp, sp, #12
.LCFI33:
	.cfi_def_cfa_offset 16
	str	r0, [sp, #4]
	str	r1, [sp, #0]
	.loc 13 594 0
	ldr	r0, [sp, #4]
	ldr	r1, [sp, #0]
	.cfi_offset 14, -4
	bl	_ZN8CIwArrayIP6Button12CIwAllocatorIS1_15CIwMallocRouterIS1_EE17ReallocateDefaultIS1_S5_EE9push_backERKS1_
	mov	r3, r0
	mov	r0, r3
	add	sp, sp, #12
	ldmfd	sp!, {pc}
	.cfi_endproc
.LFE3288:
	.size	_ZN8CIwArrayIP6Button12CIwAllocatorIS1_15CIwMallocRouterIS1_EE17ReallocateDefaultIS1_S5_EE6appendERKS1_, .-_ZN8CIwArrayIP6Button12CIwAllocatorIS1_15CIwMallocRouterIS1_EE17ReallocateDefaultIS1_S5_EE6appendERKS1_
	.section	.text._ZN4_STL12basic_stringIcNS_11char_traitsIcEENS_9allocatorIcEEE6appendEPKc,"axG",%progbits,_ZN4_STL12basic_stringIcNS_11char_traitsIcEENS_9allocatorIcEEE6appendEPKc,comdat
	.align	2
	.weak	_ZN4_STL12basic_stringIcNS_11char_traitsIcEENS_9allocatorIcEEE6appendEPKc
	.hidden	_ZN4_STL12basic_stringIcNS_11char_traitsIcEENS_9allocatorIcEEE6appendEPKc
	.type	_ZN4_STL12basic_stringIcNS_11char_traitsIcEENS_9allocatorIcEEE6appendEPKc, %function
_ZN4_STL12basic_stringIcNS_11char_traitsIcEENS_9allocatorIcEEE6appendEPKc:
.LFB3289:
	.loc 11 498 0
	.cfi_startproc
	@ args = 0, pretend = 0, frame = 8
	@ frame_needed = 0, uses_anonymous_args = 0
	str	lr, [sp, #-4]!
.LCFI34:
	.cfi_def_cfa_offset 4
	sub	sp, sp, #12
.LCFI35:
	.cfi_def_cfa_offset 16
	str	r0, [sp, #4]
	str	r1, [sp, #0]
	.loc 11 499 0
	ldr	r0, [sp, #0]
	.cfi_offset 14, -4
	bl	_ZN4_STL11char_traitsIcE6lengthEPKc
	mov	r2, r0
	ldr	r3, [sp, #0]
	add	r3, r2, r3
	ldr	r0, [sp, #4]
	ldr	r1, [sp, #0]
	mov	r2, r3
	bl	_ZN4_STL12basic_stringIcNS_11char_traitsIcEENS_9allocatorIcEEE6appendIPKcEERS5_T_SA_
	mov	r3, r0
	mov	r0, r3
	add	sp, sp, #12
	ldmfd	sp!, {pc}
	.cfi_endproc
.LFE3289:
	.size	_ZN4_STL12basic_stringIcNS_11char_traitsIcEENS_9allocatorIcEEE6appendEPKc, .-_ZN4_STL12basic_stringIcNS_11char_traitsIcEENS_9allocatorIcEEE6appendEPKc
	.section	.text._ZN4_STL17_STLP_alloc_proxyIPccNS_9allocatorIcEEED1Ev,"axG",%progbits,_ZN4_STL17_STLP_alloc_proxyIPccNS_9allocatorIcEEED1Ev,comdat
	.align	2
	.weak	_ZN4_STL17_STLP_alloc_proxyIPccNS_9allocatorIcEEED1Ev
	.hidden	_ZN4_STL17_STLP_alloc_proxyIPccNS_9allocatorIcEEED1Ev
	.type	_ZN4_STL17_STLP_alloc_proxyIPccNS_9allocatorIcEEED1Ev, %function
_ZN4_STL17_STLP_alloc_proxyIPccNS_9allocatorIcEEED1Ev:
.LFB3326:
	.file 14 "c:/marmalade/6.2/s3e/h/std/c++/stl/_alloc.h"
	.loc 14 481 0
	.cfi_startproc
	@ args = 0, pretend = 0, frame = 8
	@ frame_needed = 0, uses_anonymous_args = 0
	str	lr, [sp, #-4]!
.LCFI36:
	.cfi_def_cfa_offset 4
	sub	sp, sp, #12
.LCFI37:
	.cfi_def_cfa_offset 16
	str	r0, [sp, #4]
	.loc 14 481 0
	ldr	r3, [sp, #4]
	mov	r0, r3
	.cfi_offset 14, -4
	bl	_ZN4_STL9allocatorIcED2Ev
	ldr	r3, [sp, #4]
	mov	r0, r3
	add	sp, sp, #12
	ldmfd	sp!, {pc}
	.cfi_endproc
.LFE3326:
	.size	_ZN4_STL17_STLP_alloc_proxyIPccNS_9allocatorIcEEED1Ev, .-_ZN4_STL17_STLP_alloc_proxyIPccNS_9allocatorIcEEED1Ev
	.section	.text._ZN4_STL12_String_baseIcNS_9allocatorIcEEED2Ev,"axG",%progbits,_ZN4_STL12_String_baseIcNS_9allocatorIcEEED2Ev,comdat
	.align	2
	.weak	_ZN4_STL12_String_baseIcNS_9allocatorIcEEED2Ev
	.hidden	_ZN4_STL12_String_baseIcNS_9allocatorIcEEED2Ev
	.type	_ZN4_STL12_String_baseIcNS_9allocatorIcEEED2Ev, %function
_ZN4_STL12_String_baseIcNS_9allocatorIcEEED2Ev:
.LFB3327:
	.loc 11 135 0
	.cfi_startproc
	@ args = 0, pretend = 0, frame = 8
	@ frame_needed = 0, uses_anonymous_args = 0
	str	lr, [sp, #-4]!
.LCFI38:
	.cfi_def_cfa_offset 4
	sub	sp, sp, #12
.LCFI39:
	.cfi_def_cfa_offset 16
	str	r0, [sp, #4]
	.loc 11 135 0
	ldr	r0, [sp, #4]
	.cfi_offset 14, -4
	bl	_ZN4_STL12_String_baseIcNS_9allocatorIcEEE19_M_deallocate_blockEv
	ldr	r3, [sp, #4]
	add	r3, r3, #8
	mov	r0, r3
	bl	_ZN4_STL17_STLP_alloc_proxyIPccNS_9allocatorIcEEED1Ev
	ldr	r3, [sp, #4]
	mov	r0, r3
	add	sp, sp, #12
	ldmfd	sp!, {pc}
	.cfi_endproc
.LFE3327:
	.size	_ZN4_STL12_String_baseIcNS_9allocatorIcEEED2Ev, .-_ZN4_STL12_String_baseIcNS_9allocatorIcEEED2Ev
	.section	.text._ZNK4_STL12basic_stringIcNS_11char_traitsIcEENS_9allocatorIcEEE13get_allocatorEv,"axG",%progbits,_ZNK4_STL12basic_stringIcNS_11char_traitsIcEENS_9allocatorIcEEE13get_allocatorEv,comdat
	.align	2
	.weak	_ZNK4_STL12basic_stringIcNS_11char_traitsIcEENS_9allocatorIcEEE13get_allocatorEv
	.hidden	_ZNK4_STL12basic_stringIcNS_11char_traitsIcEENS_9allocatorIcEEE13get_allocatorEv
	.type	_ZNK4_STL12basic_stringIcNS_11char_traitsIcEENS_9allocatorIcEEE13get_allocatorEv, %function
_ZNK4_STL12basic_stringIcNS_11char_traitsIcEENS_9allocatorIcEEE13get_allocatorEv:
.LFB3329:
	.loc 11 215 0
	.cfi_startproc
	@ args = 0, pretend = 0, frame = 8
	@ frame_needed = 0, uses_anonymous_args = 0
	stmfd	sp!, {r4, lr}
.LCFI40:
	.cfi_def_cfa_offset 8
	sub	sp, sp, #8
.LCFI41:
	.cfi_def_cfa_offset 16
	mov	r4, r0
	.cfi_offset 14, -4
	.cfi_offset 4, -8
	str	r1, [sp, #4]
	.loc 11 216 0
	mov	r2, r4
	ldr	r3, [sp, #4]
	add	r3, r3, #8
	mov	r0, r2
	mov	r1, r3
	bl	_ZN4_STL9allocatorIcEC1ERKS1_
	.loc 11 217 0
	mov	r0, r4
	mov	r0, r4
	add	sp, sp, #8
	ldmfd	sp!, {r4, pc}
	.cfi_endproc
.LFE3329:
	.size	_ZNK4_STL12basic_stringIcNS_11char_traitsIcEENS_9allocatorIcEEE13get_allocatorEv, .-_ZNK4_STL12basic_stringIcNS_11char_traitsIcEENS_9allocatorIcEEE13get_allocatorEv
	.section	.text._ZN4_STL9allocatorIcED2Ev,"axG",%progbits,_ZN4_STL9allocatorIcED2Ev,comdat
	.align	2
	.weak	_ZN4_STL9allocatorIcED2Ev
	.hidden	_ZN4_STL9allocatorIcED2Ev
	.type	_ZN4_STL9allocatorIcED2Ev, %function
_ZN4_STL9allocatorIcED2Ev:
.LFB3331:
	.loc 14 350 0
	.cfi_startproc
	@ args = 0, pretend = 0, frame = 8
	@ frame_needed = 0, uses_anonymous_args = 0
	@ link register save eliminated.
	sub	sp, sp, #8
.LCFI42:
	.cfi_def_cfa_offset 8
	str	r0, [sp, #4]
	.loc 14 350 0
	ldr	r3, [sp, #4]
	mov	r0, r3
	add	sp, sp, #8
	bx	lr
	.cfi_endproc
.LFE3331:
	.size	_ZN4_STL9allocatorIcED2Ev, .-_ZN4_STL9allocatorIcED2Ev
	.section	.text._ZN4_STL9allocatorIcED1Ev,"axG",%progbits,_ZN4_STL9allocatorIcED1Ev,comdat
	.align	2
	.weak	_ZN4_STL9allocatorIcED1Ev
	.hidden	_ZN4_STL9allocatorIcED1Ev
	.type	_ZN4_STL9allocatorIcED1Ev, %function
_ZN4_STL9allocatorIcED1Ev:
.LFB3332:
	.loc 14 350 0
	.cfi_startproc
	@ args = 0, pretend = 0, frame = 8
	@ frame_needed = 0, uses_anonymous_args = 0
	@ link register save eliminated.
	sub	sp, sp, #8
.LCFI43:
	.cfi_def_cfa_offset 8
	str	r0, [sp, #4]
	.loc 14 350 0
	ldr	r3, [sp, #4]
	mov	r0, r3
	add	sp, sp, #8
	bx	lr
	.cfi_endproc
.LFE3332:
	.size	_ZN4_STL9allocatorIcED1Ev, .-_ZN4_STL9allocatorIcED1Ev
	.section	.text._ZN4_STL12_String_baseIcNS_9allocatorIcEEEC2ERKS2_,"axG",%progbits,_ZN4_STL12_String_baseIcNS_9allocatorIcEEEC2ERKS2_,comdat
	.align	2
	.weak	_ZN4_STL12_String_baseIcNS_9allocatorIcEEEC2ERKS2_
	.hidden	_ZN4_STL12_String_baseIcNS_9allocatorIcEEEC2ERKS2_
	.type	_ZN4_STL12_String_baseIcNS_9allocatorIcEEEC2ERKS2_, %function
_ZN4_STL12_String_baseIcNS_9allocatorIcEEEC2ERKS2_:
.LFB3334:
	.loc 11 128 0
	.cfi_startproc
	@ args = 0, pretend = 0, frame = 8
	@ frame_needed = 0, uses_anonymous_args = 0
	str	lr, [sp, #-4]!
.LCFI44:
	.cfi_def_cfa_offset 4
	sub	sp, sp, #12
.LCFI45:
	.cfi_def_cfa_offset 16
	str	r0, [sp, #4]
	str	r1, [sp, #0]
	.loc 11 129 0
	ldr	r3, [sp, #4]
	mov	r2, #0
	str	r2, [r3, #0]
	ldr	r3, [sp, #4]
	mov	r2, #0
	str	r2, [r3, #4]
	ldr	r3, [sp, #4]
	add	r3, r3, #8
	mov	r0, r3
	ldr	r1, [sp, #0]
	mov	r2, #0
	.cfi_offset 14, -4
	bl	_ZN4_STL17_STLP_alloc_proxyIPccNS_9allocatorIcEEEC1ERKS3_S1_
	ldr	r3, [sp, #4]
	mov	r0, r3
	add	sp, sp, #12
	ldmfd	sp!, {pc}
	.cfi_endproc
.LFE3334:
	.size	_ZN4_STL12_String_baseIcNS_9allocatorIcEEEC2ERKS2_, .-_ZN4_STL12_String_baseIcNS_9allocatorIcEEEC2ERKS2_
	.section	.text._ZN4_STL12basic_stringIcNS_11char_traitsIcEENS_9allocatorIcEEE19_M_range_initializeIPcEEvT_S8_,"axG",%progbits,_ZN4_STL12basic_stringIcNS_11char_traitsIcEENS_9allocatorIcEEE19_M_range_initializeIPcEEvT_S8_,comdat
	.align	2
	.weak	_ZN4_STL12basic_stringIcNS_11char_traitsIcEENS_9allocatorIcEEE19_M_range_initializeIPcEEvT_S8_
	.hidden	_ZN4_STL12basic_stringIcNS_11char_traitsIcEENS_9allocatorIcEEE19_M_range_initializeIPcEEvT_S8_
	.type	_ZN4_STL12basic_stringIcNS_11char_traitsIcEENS_9allocatorIcEEE19_M_range_initializeIPcEEvT_S8_, %function
_ZN4_STL12basic_stringIcNS_11char_traitsIcEENS_9allocatorIcEEE19_M_range_initializeIPcEEvT_S8_:
.LFB3336:
	.loc 11 390 0
	.cfi_startproc
	@ args = 0, pretend = 0, frame = 24
	@ frame_needed = 0, uses_anonymous_args = 0
	str	lr, [sp, #-4]!
.LCFI46:
	.cfi_def_cfa_offset 4
	sub	sp, sp, #28
.LCFI47:
	.cfi_def_cfa_offset 32
	str	r0, [sp, #12]
	str	r1, [sp, #8]
	str	r2, [sp, #4]
	.loc 11 391 0
	add	r3, sp, #20
	ldr	r0, [sp, #12]
	ldr	r1, [sp, #8]
	ldr	r2, [sp, #4]
	.cfi_offset 14, -4
	bl	_ZN4_STL12basic_stringIcNS_11char_traitsIcEENS_9allocatorIcEEE19_M_range_initializeIPcEEvT_S8_RKNS_20forward_iterator_tagE
	.loc 11 392 0
	add	sp, sp, #28
	ldmfd	sp!, {pc}
	.cfi_endproc
.LFE3336:
	.size	_ZN4_STL12basic_stringIcNS_11char_traitsIcEENS_9allocatorIcEEE19_M_range_initializeIPcEEvT_S8_, .-_ZN4_STL12basic_stringIcNS_11char_traitsIcEENS_9allocatorIcEEE19_M_range_initializeIPcEEvT_S8_
	.section	.text._ZN8CIwArrayIP6Button12CIwAllocatorIS1_15CIwMallocRouterIS1_EE17ReallocateDefaultIS1_S5_EE6resizeEj,"axG",%progbits,_ZN8CIwArrayIP6Button12CIwAllocatorIS1_15CIwMallocRouterIS1_EE17ReallocateDefaultIS1_S5_EE6resizeEj,comdat
	.align	2
	.weak	_ZN8CIwArrayIP6Button12CIwAllocatorIS1_15CIwMallocRouterIS1_EE17ReallocateDefaultIS1_S5_EE6resizeEj
	.hidden	_ZN8CIwArrayIP6Button12CIwAllocatorIS1_15CIwMallocRouterIS1_EE17ReallocateDefaultIS1_S5_EE6resizeEj
	.type	_ZN8CIwArrayIP6Button12CIwAllocatorIS1_15CIwMallocRouterIS1_EE17ReallocateDefaultIS1_S5_EE6resizeEj, %function
_ZN8CIwArrayIP6Button12CIwAllocatorIS1_15CIwMallocRouterIS1_EE17ReallocateDefaultIS1_S5_EE6resizeEj:
.LFB3351:
	.loc 13 292 0
	.cfi_startproc
	@ args = 0, pretend = 0, frame = 8
	@ frame_needed = 0, uses_anonymous_args = 0
	str	lr, [sp, #-4]!
.LCFI48:
	.cfi_def_cfa_offset 4
	sub	sp, sp, #12
.LCFI49:
	.cfi_def_cfa_offset 16
	str	r0, [sp, #4]
	str	r1, [sp, #0]
	.loc 13 294 0
	ldr	r3, [sp, #4]
	ldr	r2, [r3, #4]
	ldr	r3, [sp, #0]
	cmp	r2, r3
	bcc	.L85
	.cfi_offset 14, -4
	.loc 13 295 0
	ldr	r0, [sp, #4]
	ldr	r1, [sp, #0]
	bl	_ZN8CIwArrayIP6Button12CIwAllocatorIS1_15CIwMallocRouterIS1_EE17ReallocateDefaultIS1_S5_EE8truncateEj
	b	.L87
.L85:
	.loc 13 297 0
	ldr	r3, [sp, #4]
	ldr	r3, [r3, #4]
	ldr	r2, [sp, #0]
	rsb	r3, r3, r2
	ldr	r0, [sp, #4]
	mov	r1, r3
	bl	_ZN8CIwArrayIP6Button12CIwAllocatorIS1_15CIwMallocRouterIS1_EE17ReallocateDefaultIS1_S5_EE13push_back_qtyEi
.L87:
	.loc 13 298 0
	add	sp, sp, #12
	ldmfd	sp!, {pc}
	.cfi_endproc
.LFE3351:
	.size	_ZN8CIwArrayIP6Button12CIwAllocatorIS1_15CIwMallocRouterIS1_EE17ReallocateDefaultIS1_S5_EE6resizeEj, .-_ZN8CIwArrayIP6Button12CIwAllocatorIS1_15CIwMallocRouterIS1_EE17ReallocateDefaultIS1_S5_EE6resizeEj
	.section	.text._ZN8CIwArrayIP6Button12CIwAllocatorIS1_15CIwMallocRouterIS1_EE17ReallocateDefaultIS1_S5_EE5clearEv,"axG",%progbits,_ZN8CIwArrayIP6Button12CIwAllocatorIS1_15CIwMallocRouterIS1_EE17ReallocateDefaultIS1_S5_EE5clearEv,comdat
	.align	2
	.weak	_ZN8CIwArrayIP6Button12CIwAllocatorIS1_15CIwMallocRouterIS1_EE17ReallocateDefaultIS1_S5_EE5clearEv
	.hidden	_ZN8CIwArrayIP6Button12CIwAllocatorIS1_15CIwMallocRouterIS1_EE17ReallocateDefaultIS1_S5_EE5clearEv
	.type	_ZN8CIwArrayIP6Button12CIwAllocatorIS1_15CIwMallocRouterIS1_EE17ReallocateDefaultIS1_S5_EE5clearEv, %function
_ZN8CIwArrayIP6Button12CIwAllocatorIS1_15CIwMallocRouterIS1_EE17ReallocateDefaultIS1_S5_EE5clearEv:
.LFB3352:
	.loc 13 199 0
	.cfi_startproc
	@ args = 0, pretend = 0, frame = 8
	@ frame_needed = 0, uses_anonymous_args = 0
	str	lr, [sp, #-4]!
.LCFI50:
	.cfi_def_cfa_offset 4
	sub	sp, sp, #12
.LCFI51:
	.cfi_def_cfa_offset 16
	str	r0, [sp, #4]
	.loc 13 201 0
	ldr	r0, [sp, #4]
	mov	r1, #0
	.cfi_offset 14, -4
	bl	_ZN8CIwArrayIP6Button12CIwAllocatorIS1_15CIwMallocRouterIS1_EE17ReallocateDefaultIS1_S5_EE8truncateEj
	.loc 13 202 0
	add	sp, sp, #12
	ldmfd	sp!, {pc}
	.cfi_endproc
.LFE3352:
	.size	_ZN8CIwArrayIP6Button12CIwAllocatorIS1_15CIwMallocRouterIS1_EE17ReallocateDefaultIS1_S5_EE5clearEv, .-_ZN8CIwArrayIP6Button12CIwAllocatorIS1_15CIwMallocRouterIS1_EE17ReallocateDefaultIS1_S5_EE5clearEv
	.section	.text._ZN12CIwAllocatorIP6Button15CIwMallocRouterIS1_EE10deallocateEPS1_j,"axG",%progbits,_ZN12CIwAllocatorIP6Button15CIwMallocRouterIS1_EE10deallocateEPS1_j,comdat
	.align	2
	.weak	_ZN12CIwAllocatorIP6Button15CIwMallocRouterIS1_EE10deallocateEPS1_j
	.hidden	_ZN12CIwAllocatorIP6Button15CIwMallocRouterIS1_EE10deallocateEPS1_j
	.type	_ZN12CIwAllocatorIP6Button15CIwMallocRouterIS1_EE10deallocateEPS1_j, %function
_ZN12CIwAllocatorIP6Button15CIwMallocRouterIS1_EE10deallocateEPS1_j:
.LFB3353:
	.file 15 "c:/marmalade/6.2/modules/iwutil/h/IwAllocator.h"
	.loc 15 147 0
	.cfi_startproc
	@ args = 0, pretend = 0, frame = 16
	@ frame_needed = 0, uses_anonymous_args = 0
	str	lr, [sp, #-4]!
.LCFI52:
	.cfi_def_cfa_offset 4
	sub	sp, sp, #20
.LCFI53:
	.cfi_def_cfa_offset 24
	str	r0, [sp, #12]
	str	r1, [sp, #8]
	str	r2, [sp, #4]
	.loc 15 147 0
	ldr	r0, [sp, #8]
	.cfi_offset 14, -4
	bl	_ZN15CIwMallocRouterIP6ButtonE6DoFreeEPv
	add	sp, sp, #20
	ldmfd	sp!, {pc}
	.cfi_endproc
.LFE3353:
	.size	_ZN12CIwAllocatorIP6Button15CIwMallocRouterIS1_EE10deallocateEPS1_j, .-_ZN12CIwAllocatorIP6Button15CIwMallocRouterIS1_EE10deallocateEPS1_j
	.section	.text._ZN8CIwArrayIP10CIw2DImage12CIwAllocatorIS1_15CIwMallocRouterIS1_EE17ReallocateDefaultIS1_S5_EE6resizeEj,"axG",%progbits,_ZN8CIwArrayIP10CIw2DImage12CIwAllocatorIS1_15CIwMallocRouterIS1_EE17ReallocateDefaultIS1_S5_EE6resizeEj,comdat
	.align	2
	.weak	_ZN8CIwArrayIP10CIw2DImage12CIwAllocatorIS1_15CIwMallocRouterIS1_EE17ReallocateDefaultIS1_S5_EE6resizeEj
	.hidden	_ZN8CIwArrayIP10CIw2DImage12CIwAllocatorIS1_15CIwMallocRouterIS1_EE17ReallocateDefaultIS1_S5_EE6resizeEj
	.type	_ZN8CIwArrayIP10CIw2DImage12CIwAllocatorIS1_15CIwMallocRouterIS1_EE17ReallocateDefaultIS1_S5_EE6resizeEj, %function
_ZN8CIwArrayIP10CIw2DImage12CIwAllocatorIS1_15CIwMallocRouterIS1_EE17ReallocateDefaultIS1_S5_EE6resizeEj:
.LFB3354:
	.loc 13 292 0
	.cfi_startproc
	@ args = 0, pretend = 0, frame = 8
	@ frame_needed = 0, uses_anonymous_args = 0
	str	lr, [sp, #-4]!
.LCFI54:
	.cfi_def_cfa_offset 4
	sub	sp, sp, #12
.LCFI55:
	.cfi_def_cfa_offset 16
	str	r0, [sp, #4]
	str	r1, [sp, #0]
	.loc 13 294 0
	ldr	r3, [sp, #4]
	ldr	r2, [r3, #4]
	ldr	r3, [sp, #0]
	cmp	r2, r3
	bcc	.L93
	.cfi_offset 14, -4
	.loc 13 295 0
	ldr	r0, [sp, #4]
	ldr	r1, [sp, #0]
	bl	_ZN8CIwArrayIP10CIw2DImage12CIwAllocatorIS1_15CIwMallocRouterIS1_EE17ReallocateDefaultIS1_S5_EE8truncateEj
	b	.L95
.L93:
	.loc 13 297 0
	ldr	r3, [sp, #4]
	ldr	r3, [r3, #4]
	ldr	r2, [sp, #0]
	rsb	r3, r3, r2
	ldr	r0, [sp, #4]
	mov	r1, r3
	bl	_ZN8CIwArrayIP10CIw2DImage12CIwAllocatorIS1_15CIwMallocRouterIS1_EE17ReallocateDefaultIS1_S5_EE13push_back_qtyEi
.L95:
	.loc 13 298 0
	add	sp, sp, #12
	ldmfd	sp!, {pc}
	.cfi_endproc
.LFE3354:
	.size	_ZN8CIwArrayIP10CIw2DImage12CIwAllocatorIS1_15CIwMallocRouterIS1_EE17ReallocateDefaultIS1_S5_EE6resizeEj, .-_ZN8CIwArrayIP10CIw2DImage12CIwAllocatorIS1_15CIwMallocRouterIS1_EE17ReallocateDefaultIS1_S5_EE6resizeEj
	.section	.text._ZN8CIwArrayIP10CIw2DImage12CIwAllocatorIS1_15CIwMallocRouterIS1_EE17ReallocateDefaultIS1_S5_EE5clearEv,"axG",%progbits,_ZN8CIwArrayIP10CIw2DImage12CIwAllocatorIS1_15CIwMallocRouterIS1_EE17ReallocateDefaultIS1_S5_EE5clearEv,comdat
	.align	2
	.weak	_ZN8CIwArrayIP10CIw2DImage12CIwAllocatorIS1_15CIwMallocRouterIS1_EE17ReallocateDefaultIS1_S5_EE5clearEv
	.hidden	_ZN8CIwArrayIP10CIw2DImage12CIwAllocatorIS1_15CIwMallocRouterIS1_EE17ReallocateDefaultIS1_S5_EE5clearEv
	.type	_ZN8CIwArrayIP10CIw2DImage12CIwAllocatorIS1_15CIwMallocRouterIS1_EE17ReallocateDefaultIS1_S5_EE5clearEv, %function
_ZN8CIwArrayIP10CIw2DImage12CIwAllocatorIS1_15CIwMallocRouterIS1_EE17ReallocateDefaultIS1_S5_EE5clearEv:
.LFB3355:
	.loc 13 199 0
	.cfi_startproc
	@ args = 0, pretend = 0, frame = 8
	@ frame_needed = 0, uses_anonymous_args = 0
	str	lr, [sp, #-4]!
.LCFI56:
	.cfi_def_cfa_offset 4
	sub	sp, sp, #12
.LCFI57:
	.cfi_def_cfa_offset 16
	str	r0, [sp, #4]
	.loc 13 201 0
	ldr	r0, [sp, #4]
	mov	r1, #0
	.cfi_offset 14, -4
	bl	_ZN8CIwArrayIP10CIw2DImage12CIwAllocatorIS1_15CIwMallocRouterIS1_EE17ReallocateDefaultIS1_S5_EE8truncateEj
	.loc 13 202 0
	add	sp, sp, #12
	ldmfd	sp!, {pc}
	.cfi_endproc
.LFE3355:
	.size	_ZN8CIwArrayIP10CIw2DImage12CIwAllocatorIS1_15CIwMallocRouterIS1_EE17ReallocateDefaultIS1_S5_EE5clearEv, .-_ZN8CIwArrayIP10CIw2DImage12CIwAllocatorIS1_15CIwMallocRouterIS1_EE17ReallocateDefaultIS1_S5_EE5clearEv
	.section	.text._ZN12CIwAllocatorIP10CIw2DImage15CIwMallocRouterIS1_EE10deallocateEPS1_j,"axG",%progbits,_ZN12CIwAllocatorIP10CIw2DImage15CIwMallocRouterIS1_EE10deallocateEPS1_j,comdat
	.align	2
	.weak	_ZN12CIwAllocatorIP10CIw2DImage15CIwMallocRouterIS1_EE10deallocateEPS1_j
	.hidden	_ZN12CIwAllocatorIP10CIw2DImage15CIwMallocRouterIS1_EE10deallocateEPS1_j
	.type	_ZN12CIwAllocatorIP10CIw2DImage15CIwMallocRouterIS1_EE10deallocateEPS1_j, %function
_ZN12CIwAllocatorIP10CIw2DImage15CIwMallocRouterIS1_EE10deallocateEPS1_j:
.LFB3356:
	.loc 15 147 0
	.cfi_startproc
	@ args = 0, pretend = 0, frame = 16
	@ frame_needed = 0, uses_anonymous_args = 0
	str	lr, [sp, #-4]!
.LCFI58:
	.cfi_def_cfa_offset 4
	sub	sp, sp, #20
.LCFI59:
	.cfi_def_cfa_offset 24
	str	r0, [sp, #12]
	str	r1, [sp, #8]
	str	r2, [sp, #4]
	.loc 15 147 0
	ldr	r0, [sp, #8]
	.cfi_offset 14, -4
	bl	_ZN15CIwMallocRouterIP10CIw2DImageE6DoFreeEPv
	add	sp, sp, #20
	ldmfd	sp!, {pc}
	.cfi_endproc
.LFE3356:
	.size	_ZN12CIwAllocatorIP10CIw2DImage15CIwMallocRouterIS1_EE10deallocateEPS1_j, .-_ZN12CIwAllocatorIP10CIw2DImage15CIwMallocRouterIS1_EE10deallocateEPS1_j
	.section	.text._ZN4_STL9allocatorIcEC1Ev,"axG",%progbits,_ZN4_STL9allocatorIcEC1Ev,comdat
	.align	2
	.weak	_ZN4_STL9allocatorIcEC1Ev
	.hidden	_ZN4_STL9allocatorIcEC1Ev
	.type	_ZN4_STL9allocatorIcEC1Ev, %function
_ZN4_STL9allocatorIcEC1Ev:
.LFB3359:
	.loc 14 345 0
	.cfi_startproc
	@ args = 0, pretend = 0, frame = 8
	@ frame_needed = 0, uses_anonymous_args = 0
	@ link register save eliminated.
	sub	sp, sp, #8
.LCFI60:
	.cfi_def_cfa_offset 8
	str	r0, [sp, #4]
	.loc 14 345 0
	ldr	r3, [sp, #4]
	mov	r0, r3
	add	sp, sp, #8
	bx	lr
	.cfi_endproc
.LFE3359:
	.size	_ZN4_STL9allocatorIcEC1Ev, .-_ZN4_STL9allocatorIcEC1Ev
	.section	.text._ZN4_STL9allocatorIcE8allocateEjPKv,"axG",%progbits,_ZN4_STL9allocatorIcE8allocateEjPKv,comdat
	.align	2
	.weak	_ZN4_STL9allocatorIcE8allocateEjPKv
	.hidden	_ZN4_STL9allocatorIcE8allocateEjPKv
	.type	_ZN4_STL9allocatorIcE8allocateEjPKv, %function
_ZN4_STL9allocatorIcE8allocateEjPKv:
.LFB3360:
	.loc 14 354 0
	.cfi_startproc
	@ args = 0, pretend = 0, frame = 16
	@ frame_needed = 0, uses_anonymous_args = 0
	str	lr, [sp, #-4]!
.LCFI61:
	.cfi_def_cfa_offset 4
	sub	sp, sp, #20
.LCFI62:
	.cfi_def_cfa_offset 24
	str	r0, [sp, #12]
	str	r1, [sp, #8]
	str	r2, [sp, #4]
	.loc 14 355 0
	ldr	r3, [sp, #8]
	cmp	r3, #0
	beq	.L104
	.cfi_offset 14, -4
	ldr	r0, [sp, #8]
	bl	_ZN4_STL14__malloc_allocILi0EE8allocateEj
	mov	r3, r0
	b	.L105
.L104:
	mov	r3, #0
.L105:
	.loc 14 356 0
	mov	r0, r3
	add	sp, sp, #20
	ldmfd	sp!, {pc}
	.cfi_endproc
.LFE3360:
	.size	_ZN4_STL9allocatorIcE8allocateEjPKv, .-_ZN4_STL9allocatorIcE8allocateEjPKv
	.section	.text._ZN4_STL12basic_stringIcNS_11char_traitsIcEENS_9allocatorIcEEE19_M_terminate_stringEv,"axG",%progbits,_ZN4_STL12basic_stringIcNS_11char_traitsIcEENS_9allocatorIcEEE19_M_terminate_stringEv,comdat
	.align	2
	.weak	_ZN4_STL12basic_stringIcNS_11char_traitsIcEENS_9allocatorIcEEE19_M_terminate_stringEv
	.hidden	_ZN4_STL12basic_stringIcNS_11char_traitsIcEENS_9allocatorIcEEE19_M_terminate_stringEv
	.type	_ZN4_STL12basic_stringIcNS_11char_traitsIcEENS_9allocatorIcEEE19_M_terminate_stringEv, %function
_ZN4_STL12basic_stringIcNS_11char_traitsIcEENS_9allocatorIcEEE19_M_terminate_stringEv:
.LFB3361:
	.loc 11 354 0
	.cfi_startproc
	@ args = 0, pretend = 0, frame = 16
	@ frame_needed = 0, uses_anonymous_args = 0
	str	lr, [sp, #-4]!
.LCFI63:
	.cfi_def_cfa_offset 4
	sub	sp, sp, #20
.LCFI64:
	.cfi_def_cfa_offset 24
	str	r0, [sp, #4]
	.loc 11 355 0
	add	r3, sp, #12
	ldr	r0, [sp, #4]
	mov	r1, r3
	.cfi_offset 14, -4
	bl	_ZN4_STL12basic_stringIcNS_11char_traitsIcEENS_9allocatorIcEEE23_M_terminate_string_auxERKNS_11__true_typeE
	.loc 11 356 0
	add	sp, sp, #20
	ldmfd	sp!, {pc}
	.cfi_endproc
.LFE3361:
	.size	_ZN4_STL12basic_stringIcNS_11char_traitsIcEENS_9allocatorIcEEE19_M_terminate_stringEv, .-_ZN4_STL12basic_stringIcNS_11char_traitsIcEENS_9allocatorIcEEE19_M_terminate_stringEv
	.section	.rodata
	.align	2
.LC13:
	.ascii	"CORE\000"
	.align	2
.LC14:
	.ascii	"q<=num_p\000"
	.align	2
.LC15:
	.ascii	"c:/marmalade/6.2/modules/iwutil/h/IwArray.h\000"
	.section	.text._ZN8CIwArrayIP10CIw2DImage12CIwAllocatorIS1_15CIwMallocRouterIS1_EE17ReallocateDefaultIS1_S5_EE8truncateEj,"axG",%progbits,_ZN8CIwArrayIP10CIw2DImage12CIwAllocatorIS1_15CIwMallocRouterIS1_EE17ReallocateDefaultIS1_S5_EE8truncateEj,comdat
	.align	2
	.weak	_ZN8CIwArrayIP10CIw2DImage12CIwAllocatorIS1_15CIwMallocRouterIS1_EE17ReallocateDefaultIS1_S5_EE8truncateEj
	.hidden	_ZN8CIwArrayIP10CIw2DImage12CIwAllocatorIS1_15CIwMallocRouterIS1_EE17ReallocateDefaultIS1_S5_EE8truncateEj
	.type	_ZN8CIwArrayIP10CIw2DImage12CIwAllocatorIS1_15CIwMallocRouterIS1_EE17ReallocateDefaultIS1_S5_EE8truncateEj, %function
_ZN8CIwArrayIP10CIw2DImage12CIwAllocatorIS1_15CIwMallocRouterIS1_EE17ReallocateDefaultIS1_S5_EE8truncateEj:
.LFB3362:
	.loc 13 765 0
	.cfi_startproc
	@ args = 0, pretend = 0, frame = 16
	@ frame_needed = 0, uses_anonymous_args = 0
	str	lr, [sp, #-4]!
.LCFI65:
	.cfi_def_cfa_offset 4
	sub	sp, sp, #20
.LCFI66:
	.cfi_def_cfa_offset 24
	str	r0, [sp, #4]
	str	r1, [sp, #0]
.LBB4:
.LBB5:
	.loc 13 767 0
	ldr	r3, [sp, #4]
	ldr	r2, [r3, #4]
	ldr	r3, [sp, #0]
	cmp	r2, r3
	bcs	.L110
	.cfi_offset 14, -4
	ldr	r0, .L123
	bl	IwDebugAssertIsChannelOn
	mov	r3, r0
	cmp	r3, #0
	beq	.L110
	ldr	r3, .L123+4
	ldrb	r3, [r3, #0]	@ zero_extendqisi2
	cmp	r3, #0
	bne	.L110
	mov	r3, #1
	b	.L111
.L110:
	mov	r3, #0
.L111:
	cmp	r3, #0
	beq	.L112
	mov	r0, #0
	bl	IwDebugAssertSetSolution
	mov	r0, #0
	bl	IwDebugAssertSetUID
	mov	r0, #0
	bl	IwDebugAssertSetMessage
	ldr	r0, .L123+8
	ldr	r1, .L123+12
	ldr	r2, .L123+16
	mov	r3, #1
	bl	IwDebugAssertShow
	mov	r3, r0
	cmp	r3, #1
	beq	.L114
	cmp	r3, #2
	beq	.L115
	b	.L113
.L114:
	bl	s3eDebugIsDebuggerPresent
	mov	r3, r0
	cmp	r3, #0
	moveq	r3, #0
	movne	r3, #1
	and	r3, r3, #255
	cmp	r3, #0
	beq	.L116
	bl	s3eDebugIsDebuggerPresent
	mov	r3, r0
	cmp	r3, #0
	moveq	r3, #0
	movne	r3, #1
	and	r3, r3, #255
	cmp	r3, #0
	beq	.L122
	mvn	r3, #11
	mov	r2, #0
	str	r2, [r3, #0]
	b	.L113
.L116:
	bl	_ZL11IwDebugExitv
	b	.L113
.L115:
	ldr	r3, .L123+4
	mov	r2, #1
	strb	r2, [r3, #0]
	b	.L113
.L122:
	mov	r0, r0	@ nop
.L113:
	mov	r0, #0
	bl	IwDebugAssertSetUID
.L112:
.LBE5:
.LBB6:
	.loc 13 769 0
	ldr	r3, [sp, #0]
	str	r3, [sp, #12]
	b	.L119
.L120:
	ldr	r3, [sp, #12]
	add	r3, r3, #1
	str	r3, [sp, #12]
.L119:
	ldr	r3, [sp, #4]
	ldr	r2, [r3, #4]
	ldr	r3, [sp, #12]
	cmp	r2, r3
	movls	r3, #0
	movhi	r3, #1
	and	r3, r3, #255
	cmp	r3, #0
	bne	.L120
.LBE6:
	.loc 13 771 0
	ldr	r3, [sp, #4]
	ldr	r2, [sp, #0]
	str	r2, [r3, #4]
.LBE4:
	.loc 13 772 0
	add	sp, sp, #20
	ldmfd	sp!, {pc}
.L124:
	.align	2
.L123:
	.word	.LC13
	.word	_ZZN8CIwArrayIP10CIw2DImage12CIwAllocatorIS1_15CIwMallocRouterIS1_EE17ReallocateDefaultIS1_S5_EE8truncateEjE21_s_IwAssertIgnoreThis
	.word	.LC14
	.word	.LC15
	.word	767
	.cfi_endproc
.LFE3362:
	.size	_ZN8CIwArrayIP10CIw2DImage12CIwAllocatorIS1_15CIwMallocRouterIS1_EE17ReallocateDefaultIS1_S5_EE8truncateEj, .-_ZN8CIwArrayIP10CIw2DImage12CIwAllocatorIS1_15CIwMallocRouterIS1_EE17ReallocateDefaultIS1_S5_EE8truncateEj
	.section	.rodata
	.align	2
.LC16:
	.ascii	"Attempting to change capacity of an array that does"
	.ascii	"n't own its data allocation.\000"
	.align	2
.LC17:
	.ascii	"!block_delete\000"
	.align	2
.LC18:
	.ascii	"Attempting to expand an array that has its size loc"
	.ascii	"ked.\000"
	.align	2
.LC19:
	.ascii	"!no_grow || q <= max_p\000"
	.align	2
.LC20:
	.ascii	"q>=num_p\000"
	.section	.text._ZN8CIwArrayIP10CIw2DImage12CIwAllocatorIS1_15CIwMallocRouterIS1_EE17ReallocateDefaultIS1_S5_EE12set_capacityEj,"axG",%progbits,_ZN8CIwArrayIP10CIw2DImage12CIwAllocatorIS1_15CIwMallocRouterIS1_EE17ReallocateDefaultIS1_S5_EE12set_capacityEj,comdat
	.align	2
	.weak	_ZN8CIwArrayIP10CIw2DImage12CIwAllocatorIS1_15CIwMallocRouterIS1_EE17ReallocateDefaultIS1_S5_EE12set_capacityEj
	.hidden	_ZN8CIwArrayIP10CIw2DImage12CIwAllocatorIS1_15CIwMallocRouterIS1_EE17ReallocateDefaultIS1_S5_EE12set_capacityEj
	.type	_ZN8CIwArrayIP10CIw2DImage12CIwAllocatorIS1_15CIwMallocRouterIS1_EE17ReallocateDefaultIS1_S5_EE12set_capacityEj, %function
_ZN8CIwArrayIP10CIw2DImage12CIwAllocatorIS1_15CIwMallocRouterIS1_EE17ReallocateDefaultIS1_S5_EE12set_capacityEj:
.LFB3363:
	.loc 13 804 0
	.cfi_startproc
	@ args = 0, pretend = 0, frame = 8
	@ frame_needed = 0, uses_anonymous_args = 0
	str	lr, [sp, #-4]!
.LCFI67:
	.cfi_def_cfa_offset 4
	sub	sp, sp, #20
.LCFI68:
	.cfi_def_cfa_offset 24
	str	r0, [sp, #12]
	str	r1, [sp, #8]
.LBB7:
.LBB8:
	.loc 13 806 0
	ldr	r3, [sp, #12]
	ldrb	r3, [r3, #12]
	and	r3, r3, #1
	and	r3, r3, #255
	cmp	r3, #0
	beq	.L126
	.cfi_offset 14, -4
	ldr	r0, .L163
	bl	IwDebugAssertIsChannelOn
	mov	r3, r0
	cmp	r3, #0
	beq	.L127
	ldr	r3, .L163+4
	ldrb	r3, [r3, #0]	@ zero_extendqisi2
	cmp	r3, #0
	bne	.L127
	mov	r3, #1
	b	.L128
.L127:
	mov	r3, #0
.L128:
	cmp	r3, #0
	beq	.L158
	ldr	r0, .L163+8
	bl	IwDebugAssertSetUID
	ldr	r0, .L163+12
	bl	IwDebugAssertSetMessage
	ldr	r0, .L163+16
	ldr	r1, .L163+20
	ldr	r2, .L163+24
	mov	r3, #1
	bl	IwDebugAssertShow
	mov	r3, r0
	cmp	r3, #1
	beq	.L131
	cmp	r3, #2
	beq	.L132
	b	.L130
.L131:
	bl	s3eDebugIsDebuggerPresent
	mov	r3, r0
	cmp	r3, #0
	moveq	r3, #0
	movne	r3, #1
	and	r3, r3, #255
	cmp	r3, #0
	beq	.L133
	bl	s3eDebugIsDebuggerPresent
	mov	r3, r0
	cmp	r3, #0
	moveq	r3, #0
	movne	r3, #1
	and	r3, r3, #255
	cmp	r3, #0
	beq	.L159
	mvn	r3, #11
	mov	r2, #0
	str	r2, [r3, #0]
	b	.L130
.L133:
	bl	_ZL11IwDebugExitv
	b	.L130
.L132:
	ldr	r3, .L163+4
	mov	r2, #1
	strb	r2, [r3, #0]
	b	.L130
.L159:
	mov	r0, r0	@ nop
.L130:
	mov	r0, #0
	bl	IwDebugAssertSetUID
	b	.L157
.L126:
.LBE8:
.LBB9:
	.loc 13 807 0
	ldr	r3, [sp, #12]
	ldrb	r3, [r3, #12]	@ zero_extendqisi2
	mov	r3, r3, lsr #1
	and	r3, r3, #1
	and	r3, r3, #255
	cmp	r3, #0
	beq	.L137
	ldr	r3, [sp, #12]
	ldr	r2, [r3, #8]
	ldr	r3, [sp, #8]
	cmp	r2, r3
	bcs	.L137
	ldr	r0, .L163
	bl	IwDebugAssertIsChannelOn
	mov	r3, r0
	cmp	r3, #0
	beq	.L137
	ldr	r3, .L163+28
	ldrb	r3, [r3, #0]	@ zero_extendqisi2
	cmp	r3, #0
	bne	.L137
	mov	r3, #1
	b	.L138
.L137:
	mov	r3, #0
.L138:
	cmp	r3, #0
	beq	.L139
	mov	r0, #0
	bl	IwDebugAssertSetSolution
	ldr	r0, .L163+32
	bl	IwDebugAssertSetUID
	ldr	r0, .L163+36
	bl	IwDebugAssertSetMessage
	ldr	r0, .L163+40
	ldr	r1, .L163+20
	ldr	r2, .L163+44
	mov	r3, #1
	bl	IwDebugAssertShow
	mov	r3, r0
	cmp	r3, #1
	beq	.L141
	cmp	r3, #2
	beq	.L142
	b	.L140
.L141:
	bl	s3eDebugIsDebuggerPresent
	mov	r3, r0
	cmp	r3, #0
	moveq	r3, #0
	movne	r3, #1
	and	r3, r3, #255
	cmp	r3, #0
	beq	.L143
	bl	s3eDebugIsDebuggerPresent
	mov	r3, r0
	cmp	r3, #0
	moveq	r3, #0
	movne	r3, #1
	and	r3, r3, #255
	cmp	r3, #0
	beq	.L160
	mvn	r3, #11
	mov	r2, #0
	str	r2, [r3, #0]
	b	.L140
.L143:
	bl	_ZL11IwDebugExitv
	b	.L140
.L142:
	ldr	r3, .L163+28
	mov	r2, #1
	strb	r2, [r3, #0]
	b	.L140
.L160:
	mov	r0, r0	@ nop
.L140:
	mov	r0, #0
	bl	IwDebugAssertSetUID
.L139:
.LBE9:
.LBB10:
	.loc 13 808 0
	ldr	r3, [sp, #12]
	ldr	r2, [r3, #4]
	ldr	r3, [sp, #8]
	cmp	r2, r3
	bls	.L146
	ldr	r0, .L163
	bl	IwDebugAssertIsChannelOn
	mov	r3, r0
	cmp	r3, #0
	beq	.L146
	ldr	r3, .L163+48
	ldrb	r3, [r3, #0]	@ zero_extendqisi2
	cmp	r3, #0
	bne	.L146
	mov	r3, #1
	b	.L147
.L146:
	mov	r3, #0
.L147:
	cmp	r3, #0
	beq	.L148
	mov	r0, #0
	bl	IwDebugAssertSetSolution
	mov	r0, #0
	bl	IwDebugAssertSetUID
	mov	r0, #0
	bl	IwDebugAssertSetMessage
	ldr	r0, .L163+52
	ldr	r1, .L163+20
	mov	r2, #808
	mov	r3, #1
	bl	IwDebugAssertShow
	mov	r3, r0
	cmp	r3, #1
	beq	.L150
	cmp	r3, #2
	beq	.L151
	b	.L149
.L150:
	bl	s3eDebugIsDebuggerPresent
	mov	r3, r0
	cmp	r3, #0
	moveq	r3, #0
	movne	r3, #1
	and	r3, r3, #255
	cmp	r3, #0
	beq	.L152
	bl	s3eDebugIsDebuggerPresent
	mov	r3, r0
	cmp	r3, #0
	moveq	r3, #0
	movne	r3, #1
	and	r3, r3, #255
	cmp	r3, #0
	beq	.L161
	mvn	r3, #11
	mov	r2, #0
	str	r2, [r3, #0]
	b	.L149
.L152:
	bl	_ZL11IwDebugExitv
	b	.L149
.L151:
	ldr	r3, .L163+48
	mov	r2, #1
	strb	r2, [r3, #0]
	b	.L149
.L161:
	mov	r0, r0	@ nop
.L149:
	mov	r0, #0
	bl	IwDebugAssertSetUID
.L148:
.LBE10:
	.loc 13 809 0
	ldr	r3, [sp, #12]
	ldr	r2, [r3, #8]
	ldr	r3, [sp, #8]
	cmp	r2, r3
	beq	.L162
.L155:
	.loc 13 810 0
	ldr	r3, [sp, #12]
	ldr	r2, [sp, #8]
	str	r2, [r3, #8]
	.loc 13 811 0
	ldr	r3, [sp, #8]
	cmp	r3, #0
	bne	.L156
	.loc 13 813 0
	ldr	r3, [sp, #12]
	add	r1, r3, #13
	ldr	r3, [sp, #12]
	ldr	r2, [r3, #0]
	ldr	r3, [sp, #12]
	ldr	r3, [r3, #8]
	mov	r0, r1
	mov	r1, r2
	mov	r2, r3
	bl	_ZN12CIwAllocatorIP10CIw2DImage15CIwMallocRouterIS1_EE10deallocateEPS1_j
	.loc 13 814 0
	ldr	r3, [sp, #12]
	mov	r2, #0
	str	r2, [r3, #0]
	b	.L157
.L156:
	.loc 13 818 0
	ldr	r3, [sp, #12]
	ldr	r1, [r3, #4]
	ldr	r3, [sp, #12]
	ldr	r2, [r3, #8]
	ldr	r3, [sp, #12]
	ldr	r3, [r3, #0]
	ldr	r0, [sp, #12]
	add	r0, r0, #13
	str	r0, [sp, #0]
	ldr	r0, [sp, #8]
	bl	_ZN17ReallocateDefaultIP10CIw2DImage12CIwAllocatorIS1_15CIwMallocRouterIS1_EEE10ReallocateEjjjPS1_RS5_
	mov	r2, r0
	ldr	r3, [sp, #12]
	str	r2, [r3, #0]
	b	.L157
.L158:
.LBB11:
	.loc 13 806 0
	mov	r0, r0	@ nop
	b	.L157
.L162:
.LBE11:
	.loc 13 809 0
	mov	r0, r0	@ nop
.L157:
.LBE7:
	.loc 13 820 0
	add	sp, sp, #20
	ldmfd	sp!, {pc}
.L164:
	.align	2
.L163:
	.word	.LC13
	.word	_ZZN8CIwArrayIP10CIw2DImage12CIwAllocatorIS1_15CIwMallocRouterIS1_EE17ReallocateDefaultIS1_S5_EE12set_capacityEjE21_s_IwAssertIgnoreThis
	.word	1733
	.word	.LC16
	.word	.LC17
	.word	.LC15
	.word	806
	.word	_ZZN8CIwArrayIP10CIw2DImage12CIwAllocatorIS1_15CIwMallocRouterIS1_EE17ReallocateDefaultIS1_S5_EE12set_capacityEjE21_s_IwAssertIgnoreThis_0
	.word	1732
	.word	.LC18
	.word	.LC19
	.word	807
	.word	_ZZN8CIwArrayIP10CIw2DImage12CIwAllocatorIS1_15CIwMallocRouterIS1_EE17ReallocateDefaultIS1_S5_EE12set_capacityEjE21_s_IwAssertIgnoreThis_1
	.word	.LC20
	.cfi_endproc
.LFE3363:
	.size	_ZN8CIwArrayIP10CIw2DImage12CIwAllocatorIS1_15CIwMallocRouterIS1_EE17ReallocateDefaultIS1_S5_EE12set_capacityEj, .-_ZN8CIwArrayIP10CIw2DImage12CIwAllocatorIS1_15CIwMallocRouterIS1_EE17ReallocateDefaultIS1_S5_EE12set_capacityEj
	.section	.rodata
	.align	2
.LC21:
	.ascii	"!(&x>=p && &x<p+max_p)\000"
	.align	2
.LC22:
	.ascii	"num_p < max_p\000"
	.section	.text._ZN8CIwArrayIP6Button12CIwAllocatorIS1_15CIwMallocRouterIS1_EE17ReallocateDefaultIS1_S5_EE9push_backERKS1_,"axG",%progbits,_ZN8CIwArrayIP6Button12CIwAllocatorIS1_15CIwMallocRouterIS1_EE17ReallocateDefaultIS1_S5_EE9push_backERKS1_,comdat
	.align	2
	.weak	_ZN8CIwArrayIP6Button12CIwAllocatorIS1_15CIwMallocRouterIS1_EE17ReallocateDefaultIS1_S5_EE9push_backERKS1_
	.hidden	_ZN8CIwArrayIP6Button12CIwAllocatorIS1_15CIwMallocRouterIS1_EE17ReallocateDefaultIS1_S5_EE9push_backERKS1_
	.type	_ZN8CIwArrayIP6Button12CIwAllocatorIS1_15CIwMallocRouterIS1_EE17ReallocateDefaultIS1_S5_EE9push_backERKS1_, %function
_ZN8CIwArrayIP6Button12CIwAllocatorIS1_15CIwMallocRouterIS1_EE17ReallocateDefaultIS1_S5_EE9push_backERKS1_:
.LFB3364:
	.loc 13 618 0
	.cfi_startproc
	@ args = 0, pretend = 0, frame = 8
	@ frame_needed = 0, uses_anonymous_args = 0
	str	lr, [sp, #-4]!
.LCFI69:
	.cfi_def_cfa_offset 4
	sub	sp, sp, #12
.LCFI70:
	.cfi_def_cfa_offset 16
	str	r0, [sp, #4]
	str	r1, [sp, #0]
.LBB12:
.LBB13:
	.loc 13 632 0
	ldr	r3, [sp, #4]
	ldr	r2, [r3, #0]
	ldr	r3, [sp, #0]
	cmp	r2, r3
	bhi	.L166
	.cfi_offset 14, -4
	ldr	r3, [sp, #4]
	ldr	r2, [r3, #0]
	ldr	r3, [sp, #4]
	ldr	r3, [r3, #8]
	mov	r3, r3, asl #2
	add	r2, r2, r3
	ldr	r3, [sp, #0]
	cmp	r2, r3
	bls	.L166
	ldr	r0, .L187
	bl	IwDebugAssertIsChannelOn
	mov	r3, r0
	cmp	r3, #0
	beq	.L166
	ldr	r3, .L187+4
	ldrb	r3, [r3, #0]	@ zero_extendqisi2
	cmp	r3, #0
	bne	.L166
	mov	r3, #1
	b	.L167
.L166:
	mov	r3, #0
.L167:
	cmp	r3, #0
	beq	.L168
	mov	r0, #0
	bl	IwDebugAssertSetSolution
	mov	r0, #0
	bl	IwDebugAssertSetUID
	mov	r0, #0
	bl	IwDebugAssertSetMessage
	ldr	r0, .L187+8
	ldr	r1, .L187+12
	mov	r2, #632
	mov	r3, #1
	bl	IwDebugAssertShow
	mov	r3, r0
	cmp	r3, #1
	beq	.L170
	cmp	r3, #2
	beq	.L171
	b	.L169
.L170:
	bl	s3eDebugIsDebuggerPresent
	mov	r3, r0
	cmp	r3, #0
	moveq	r3, #0
	movne	r3, #1
	and	r3, r3, #255
	cmp	r3, #0
	beq	.L172
	bl	s3eDebugIsDebuggerPresent
	mov	r3, r0
	cmp	r3, #0
	moveq	r3, #0
	movne	r3, #1
	and	r3, r3, #255
	cmp	r3, #0
	beq	.L185
	mvn	r3, #11
	mov	r2, #0
	str	r2, [r3, #0]
	b	.L169
.L172:
	bl	_ZL11IwDebugExitv
	b	.L169
.L171:
	ldr	r3, .L187+4
	mov	r2, #1
	strb	r2, [r3, #0]
	b	.L169
.L185:
	mov	r0, r0	@ nop
.L169:
	mov	r0, #0
	bl	IwDebugAssertSetUID
.L168:
.LBE13:
	.loc 13 634 0
	ldr	r3, [sp, #4]
	ldr	r3, [r3, #4]
	add	r3, r3, #1
	ldr	r0, [sp, #4]
	mov	r1, r3
	bl	_ZN8CIwArrayIP6Button12CIwAllocatorIS1_15CIwMallocRouterIS1_EE17ReallocateDefaultIS1_S5_EE7reserveEj
.LBB14:
	.loc 13 635 0
	ldr	r3, [sp, #4]
	ldr	r2, [r3, #4]
	ldr	r3, [sp, #4]
	ldr	r3, [r3, #8]
	cmp	r2, r3
	bcc	.L175
	ldr	r0, .L187
	bl	IwDebugAssertIsChannelOn
	mov	r3, r0
	cmp	r3, #0
	beq	.L175
	ldr	r3, .L187+16
	ldrb	r3, [r3, #0]	@ zero_extendqisi2
	cmp	r3, #0
	bne	.L175
	mov	r3, #1
	b	.L176
.L175:
	mov	r3, #0
.L176:
	cmp	r3, #0
	beq	.L177
	mov	r0, #0
	bl	IwDebugAssertSetSolution
	mov	r0, #0
	bl	IwDebugAssertSetUID
	mov	r0, #0
	bl	IwDebugAssertSetMessage
	ldr	r0, .L187+20
	ldr	r1, .L187+12
	ldr	r2, .L187+24
	mov	r3, #1
	bl	IwDebugAssertShow
	mov	r3, r0
	cmp	r3, #1
	beq	.L179
	cmp	r3, #2
	beq	.L180
	b	.L178
.L179:
	bl	s3eDebugIsDebuggerPresent
	mov	r3, r0
	cmp	r3, #0
	moveq	r3, #0
	movne	r3, #1
	and	r3, r3, #255
	cmp	r3, #0
	beq	.L181
	bl	s3eDebugIsDebuggerPresent
	mov	r3, r0
	cmp	r3, #0
	moveq	r3, #0
	movne	r3, #1
	and	r3, r3, #255
	cmp	r3, #0
	beq	.L186
	mvn	r3, #11
	mov	r2, #0
	str	r2, [r3, #0]
	b	.L178
.L181:
	bl	_ZL11IwDebugExitv
	b	.L178
.L180:
	ldr	r3, .L187+16
	mov	r2, #1
	strb	r2, [r3, #0]
	b	.L178
.L186:
	mov	r0, r0	@ nop
.L178:
	mov	r0, #0
	bl	IwDebugAssertSetUID
.L177:
.LBE14:
	.loc 13 636 0
	ldr	r3, [sp, #4]
	ldr	r2, [r3, #0]
	ldr	r3, [sp, #4]
	ldr	r3, [r3, #4]
	mov	r3, r3, asl #2
	add	r3, r2, r3
	mov	r0, #4
	mov	r1, r3
	bl	_ZnwjPv
	mov	r3, r0
	ldr	r2, [sp, #0]
	ldr	r2, [r2, #0]
	str	r2, [r3, #0]
	.loc 13 637 0
	ldr	r3, [sp, #4]
	ldr	r3, [r3, #4]
	mov	r2, r3
	add	r1, r3, #1
	ldr	r3, [sp, #4]
	str	r1, [r3, #4]
	mov	r3, r2
.LBE12:
	.loc 13 638 0
	mov	r0, r3
	add	sp, sp, #12
	ldmfd	sp!, {pc}
.L188:
	.align	2
.L187:
	.word	.LC13
	.word	_ZZN8CIwArrayIP6Button12CIwAllocatorIS1_15CIwMallocRouterIS1_EE17ReallocateDefaultIS1_S5_EE9push_backERKS1_E21_s_IwAssertIgnoreThis
	.word	.LC21
	.word	.LC15
	.word	_ZZN8CIwArrayIP6Button12CIwAllocatorIS1_15CIwMallocRouterIS1_EE17ReallocateDefaultIS1_S5_EE9push_backERKS1_E21_s_IwAssertIgnoreThis_0
	.word	.LC22
	.word	635
	.cfi_endproc
.LFE3364:
	.size	_ZN8CIwArrayIP6Button12CIwAllocatorIS1_15CIwMallocRouterIS1_EE17ReallocateDefaultIS1_S5_EE9push_backERKS1_, .-_ZN8CIwArrayIP6Button12CIwAllocatorIS1_15CIwMallocRouterIS1_EE17ReallocateDefaultIS1_S5_EE9push_backERKS1_
	.section	.text._ZN4_STL12basic_stringIcNS_11char_traitsIcEENS_9allocatorIcEEE6appendIPKcEERS5_T_SA_,"axG",%progbits,_ZN4_STL12basic_stringIcNS_11char_traitsIcEENS_9allocatorIcEEE6appendIPKcEERS5_T_SA_,comdat
	.align	2
	.weak	_ZN4_STL12basic_stringIcNS_11char_traitsIcEENS_9allocatorIcEEE6appendIPKcEERS5_T_SA_
	.hidden	_ZN4_STL12basic_stringIcNS_11char_traitsIcEENS_9allocatorIcEEE6appendIPKcEERS5_T_SA_
	.type	_ZN4_STL12basic_stringIcNS_11char_traitsIcEENS_9allocatorIcEEE6appendIPKcEERS5_T_SA_, %function
_ZN4_STL12basic_stringIcNS_11char_traitsIcEENS_9allocatorIcEEE6appendIPKcEERS5_T_SA_:
.LFB3365:
	.loc 11 506 0
	.cfi_startproc
	@ args = 0, pretend = 0, frame = 24
	@ frame_needed = 0, uses_anonymous_args = 0
	str	lr, [sp, #-4]!
.LCFI71:
	.cfi_def_cfa_offset 4
	sub	sp, sp, #28
.LCFI72:
	.cfi_def_cfa_offset 32
	str	r0, [sp, #12]
	str	r1, [sp, #8]
	str	r2, [sp, #4]
.LBB15:
	.loc 11 508 0
	add	r3, sp, #20
	ldr	r0, [sp, #12]
	ldr	r1, [sp, #8]
	ldr	r2, [sp, #4]
	.cfi_offset 14, -4
	bl	_ZN4_STL12basic_stringIcNS_11char_traitsIcEENS_9allocatorIcEEE18_M_append_dispatchIPKcEERS5_T_SA_RKNS_12__false_typeE
	mov	r3, r0
.LBE15:
	.loc 11 509 0
	mov	r0, r3
	add	sp, sp, #28
	ldmfd	sp!, {pc}
	.cfi_endproc
.LFE3365:
	.size	_ZN4_STL12basic_stringIcNS_11char_traitsIcEENS_9allocatorIcEEE6appendIPKcEERS5_T_SA_, .-_ZN4_STL12basic_stringIcNS_11char_traitsIcEENS_9allocatorIcEEE6appendIPKcEERS5_T_SA_
	.section	.text._ZN4_STL12_String_baseIcNS_9allocatorIcEEE19_M_deallocate_blockEv,"axG",%progbits,_ZN4_STL12_String_baseIcNS_9allocatorIcEEE19_M_deallocate_blockEv,comdat
	.align	2
	.weak	_ZN4_STL12_String_baseIcNS_9allocatorIcEEE19_M_deallocate_blockEv
	.hidden	_ZN4_STL12_String_baseIcNS_9allocatorIcEEE19_M_deallocate_blockEv
	.type	_ZN4_STL12_String_baseIcNS_9allocatorIcEEE19_M_deallocate_blockEv, %function
_ZN4_STL12_String_baseIcNS_9allocatorIcEEE19_M_deallocate_blockEv:
.LFB3380:
	.loc 11 123 0
	.cfi_startproc
	@ args = 0, pretend = 0, frame = 8
	@ frame_needed = 0, uses_anonymous_args = 0
	str	lr, [sp, #-4]!
.LCFI73:
	.cfi_def_cfa_offset 4
	sub	sp, sp, #12
.LCFI74:
	.cfi_def_cfa_offset 16
	str	r0, [sp, #4]
	.loc 11 124 0
	ldr	r3, [sp, #4]
	add	r3, r3, #8
	mov	r1, r3
	ldr	r3, [sp, #4]
	ldr	r2, [r3, #0]
	ldr	r3, [sp, #4]
	ldr	r3, [r3, #8]
	mov	r0, r3
	ldr	r3, [sp, #4]
	ldr	r3, [r3, #0]
	rsb	r3, r3, r0
	mov	r0, r1
	mov	r1, r2
	mov	r2, r3
	.cfi_offset 14, -4
	bl	_ZN4_STL9allocatorIcE10deallocateEPcj
	add	sp, sp, #12
	ldmfd	sp!, {pc}
	.cfi_endproc
.LFE3380:
	.size	_ZN4_STL12_String_baseIcNS_9allocatorIcEEE19_M_deallocate_blockEv, .-_ZN4_STL12_String_baseIcNS_9allocatorIcEEE19_M_deallocate_blockEv
	.section	.text._ZN4_STL9allocatorIcEC2ERKS1_,"axG",%progbits,_ZN4_STL9allocatorIcEC2ERKS1_,comdat
	.align	2
	.weak	_ZN4_STL9allocatorIcEC2ERKS1_
	.hidden	_ZN4_STL9allocatorIcEC2ERKS1_
	.type	_ZN4_STL9allocatorIcEC2ERKS1_, %function
_ZN4_STL9allocatorIcEC2ERKS1_:
.LFB3382:
	.loc 14 349 0
	.cfi_startproc
	@ args = 0, pretend = 0, frame = 8
	@ frame_needed = 0, uses_anonymous_args = 0
	@ link register save eliminated.
	sub	sp, sp, #8
.LCFI75:
	.cfi_def_cfa_offset 8
	str	r0, [sp, #4]
	str	r1, [sp, #0]
	.loc 14 349 0
	ldr	r3, [sp, #4]
	mov	r0, r3
	add	sp, sp, #8
	bx	lr
	.cfi_endproc
.LFE3382:
	.size	_ZN4_STL9allocatorIcEC2ERKS1_, .-_ZN4_STL9allocatorIcEC2ERKS1_
	.section	.text._ZN4_STL9allocatorIcEC1ERKS1_,"axG",%progbits,_ZN4_STL9allocatorIcEC1ERKS1_,comdat
	.align	2
	.weak	_ZN4_STL9allocatorIcEC1ERKS1_
	.hidden	_ZN4_STL9allocatorIcEC1ERKS1_
	.type	_ZN4_STL9allocatorIcEC1ERKS1_, %function
_ZN4_STL9allocatorIcEC1ERKS1_:
.LFB3383:
	.loc 14 349 0
	.cfi_startproc
	@ args = 0, pretend = 0, frame = 8
	@ frame_needed = 0, uses_anonymous_args = 0
	@ link register save eliminated.
	sub	sp, sp, #8
.LCFI76:
	.cfi_def_cfa_offset 8
	str	r0, [sp, #4]
	str	r1, [sp, #0]
	.loc 14 349 0
	ldr	r3, [sp, #4]
	mov	r0, r3
	add	sp, sp, #8
	bx	lr
	.cfi_endproc
.LFE3383:
	.size	_ZN4_STL9allocatorIcEC1ERKS1_, .-_ZN4_STL9allocatorIcEC1ERKS1_
	.section	.text._ZN4_STL17_STLP_alloc_proxyIPccNS_9allocatorIcEEEC1ERKS3_S1_,"axG",%progbits,_ZN4_STL17_STLP_alloc_proxyIPccNS_9allocatorIcEEEC1ERKS3_S1_,comdat
	.align	2
	.weak	_ZN4_STL17_STLP_alloc_proxyIPccNS_9allocatorIcEEEC1ERKS3_S1_
	.hidden	_ZN4_STL17_STLP_alloc_proxyIPccNS_9allocatorIcEEEC1ERKS3_S1_
	.type	_ZN4_STL17_STLP_alloc_proxyIPccNS_9allocatorIcEEEC1ERKS3_S1_, %function
_ZN4_STL17_STLP_alloc_proxyIPccNS_9allocatorIcEEEC1ERKS3_S1_:
.LFB3386:
	.loc 14 487 0
	.cfi_startproc
	@ args = 0, pretend = 0, frame = 16
	@ frame_needed = 0, uses_anonymous_args = 0
	str	lr, [sp, #-4]!
.LCFI77:
	.cfi_def_cfa_offset 4
	sub	sp, sp, #20
.LCFI78:
	.cfi_def_cfa_offset 24
	str	r0, [sp, #12]
	str	r1, [sp, #8]
	str	r2, [sp, #4]
	.loc 14 487 0
	ldr	r3, [sp, #12]
	mov	r0, r3
	ldr	r1, [sp, #8]
	.cfi_offset 14, -4
	bl	_ZN4_STL9allocatorIcEC2ERKS1_
	ldr	r3, [sp, #12]
	ldr	r2, [sp, #4]
	str	r2, [r3, #0]
	ldr	r3, [sp, #12]
	mov	r0, r3
	add	sp, sp, #20
	ldmfd	sp!, {pc}
	.cfi_endproc
.LFE3386:
	.size	_ZN4_STL17_STLP_alloc_proxyIPccNS_9allocatorIcEEEC1ERKS3_S1_, .-_ZN4_STL17_STLP_alloc_proxyIPccNS_9allocatorIcEEEC1ERKS3_S1_
	.section	.text._ZN4_STL12basic_stringIcNS_11char_traitsIcEENS_9allocatorIcEEE19_M_range_initializeIPcEEvT_S8_RKNS_20forward_iterator_tagE,"axG",%progbits,_ZN4_STL12basic_stringIcNS_11char_traitsIcEENS_9allocatorIcEEE19_M_range_initializeIPcEEvT_S8_RKNS_20forward_iterator_tagE,comdat
	.align	2
	.weak	_ZN4_STL12basic_stringIcNS_11char_traitsIcEENS_9allocatorIcEEE19_M_range_initializeIPcEEvT_S8_RKNS_20forward_iterator_tagE
	.hidden	_ZN4_STL12basic_stringIcNS_11char_traitsIcEENS_9allocatorIcEEE19_M_range_initializeIPcEEvT_S8_RKNS_20forward_iterator_tagE
	.type	_ZN4_STL12basic_stringIcNS_11char_traitsIcEENS_9allocatorIcEEE19_M_range_initializeIPcEEvT_S8_RKNS_20forward_iterator_tagE, %function
_ZN4_STL12basic_stringIcNS_11char_traitsIcEENS_9allocatorIcEEE19_M_range_initializeIPcEEvT_S8_RKNS_20forward_iterator_tagE:
.LFB3387:
	.loc 11 382 0
	.cfi_startproc
	@ args = 0, pretend = 0, frame = 24
	@ frame_needed = 0, uses_anonymous_args = 0
	str	lr, [sp, #-4]!
.LCFI79:
	.cfi_def_cfa_offset 4
	sub	sp, sp, #28
.LCFI80:
	.cfi_def_cfa_offset 32
	str	r0, [sp, #12]
	str	r1, [sp, #8]
	str	r2, [sp, #4]
	str	r3, [sp, #0]
.LBB16:
	.loc 11 384 0
	add	r2, sp, #8
	add	r3, sp, #4
	mov	r0, r2
	mov	r1, r3
	.cfi_offset 14, -4
	bl	_ZN4_STL8distanceIPcEENS_15iterator_traitsIT_E15difference_typeERKS3_S7_
	mov	r3, r0
	str	r3, [sp, #20]
	.loc 11 385 0
	ldr	r2, [sp, #12]
	ldr	r3, [sp, #20]
	add	r3, r3, #1
	mov	r0, r2
	mov	r1, r3
	bl	_ZN4_STL12_String_baseIcNS_9allocatorIcEEE17_M_allocate_blockEj
	.loc 11 386 0
	ldr	r1, [sp, #8]
	ldr	r2, [sp, #4]
	ldr	r3, [sp, #12]
	ldr	r3, [r3, #0]
	mov	r0, r1
	mov	r1, r2
	mov	r2, r3
	bl	_ZN4_STL18uninitialized_copyIPcS1_EET0_T_S3_S2_
	mov	r2, r0
	ldr	r3, [sp, #12]
	str	r2, [r3, #4]
	.loc 11 387 0
	ldr	r0, [sp, #12]
	bl	_ZN4_STL12basic_stringIcNS_11char_traitsIcEENS_9allocatorIcEEE19_M_terminate_stringEv
.LBE16:
	.loc 11 388 0
	add	sp, sp, #28
	ldmfd	sp!, {pc}
	.cfi_endproc
.LFE3387:
	.size	_ZN4_STL12basic_stringIcNS_11char_traitsIcEENS_9allocatorIcEEE19_M_range_initializeIPcEEvT_S8_RKNS_20forward_iterator_tagE, .-_ZN4_STL12basic_stringIcNS_11char_traitsIcEENS_9allocatorIcEEE19_M_range_initializeIPcEEvT_S8_RKNS_20forward_iterator_tagE
	.section	.text._ZN8CIwArrayIP6Button12CIwAllocatorIS1_15CIwMallocRouterIS1_EE17ReallocateDefaultIS1_S5_EE8truncateEj,"axG",%progbits,_ZN8CIwArrayIP6Button12CIwAllocatorIS1_15CIwMallocRouterIS1_EE17ReallocateDefaultIS1_S5_EE8truncateEj,comdat
	.align	2
	.weak	_ZN8CIwArrayIP6Button12CIwAllocatorIS1_15CIwMallocRouterIS1_EE17ReallocateDefaultIS1_S5_EE8truncateEj
	.hidden	_ZN8CIwArrayIP6Button12CIwAllocatorIS1_15CIwMallocRouterIS1_EE17ReallocateDefaultIS1_S5_EE8truncateEj
	.type	_ZN8CIwArrayIP6Button12CIwAllocatorIS1_15CIwMallocRouterIS1_EE17ReallocateDefaultIS1_S5_EE8truncateEj, %function
_ZN8CIwArrayIP6Button12CIwAllocatorIS1_15CIwMallocRouterIS1_EE17ReallocateDefaultIS1_S5_EE8truncateEj:
.LFB3396:
	.loc 13 765 0
	.cfi_startproc
	@ args = 0, pretend = 0, frame = 16
	@ frame_needed = 0, uses_anonymous_args = 0
	str	lr, [sp, #-4]!
.LCFI81:
	.cfi_def_cfa_offset 4
	sub	sp, sp, #20
.LCFI82:
	.cfi_def_cfa_offset 24
	str	r0, [sp, #4]
	str	r1, [sp, #0]
.LBB17:
.LBB18:
	.loc 13 767 0
	ldr	r3, [sp, #4]
	ldr	r2, [r3, #4]
	ldr	r3, [sp, #0]
	cmp	r2, r3
	bcs	.L205
	.cfi_offset 14, -4
	ldr	r0, .L218
	bl	IwDebugAssertIsChannelOn
	mov	r3, r0
	cmp	r3, #0
	beq	.L205
	ldr	r3, .L218+4
	ldrb	r3, [r3, #0]	@ zero_extendqisi2
	cmp	r3, #0
	bne	.L205
	mov	r3, #1
	b	.L206
.L205:
	mov	r3, #0
.L206:
	cmp	r3, #0
	beq	.L207
	mov	r0, #0
	bl	IwDebugAssertSetSolution
	mov	r0, #0
	bl	IwDebugAssertSetUID
	mov	r0, #0
	bl	IwDebugAssertSetMessage
	ldr	r0, .L218+8
	ldr	r1, .L218+12
	ldr	r2, .L218+16
	mov	r3, #1
	bl	IwDebugAssertShow
	mov	r3, r0
	cmp	r3, #1
	beq	.L209
	cmp	r3, #2
	beq	.L210
	b	.L208
.L209:
	bl	s3eDebugIsDebuggerPresent
	mov	r3, r0
	cmp	r3, #0
	moveq	r3, #0
	movne	r3, #1
	and	r3, r3, #255
	cmp	r3, #0
	beq	.L211
	bl	s3eDebugIsDebuggerPresent
	mov	r3, r0
	cmp	r3, #0
	moveq	r3, #0
	movne	r3, #1
	and	r3, r3, #255
	cmp	r3, #0
	beq	.L217
	mvn	r3, #11
	mov	r2, #0
	str	r2, [r3, #0]
	b	.L208
.L211:
	bl	_ZL11IwDebugExitv
	b	.L208
.L210:
	ldr	r3, .L218+4
	mov	r2, #1
	strb	r2, [r3, #0]
	b	.L208
.L217:
	mov	r0, r0	@ nop
.L208:
	mov	r0, #0
	bl	IwDebugAssertSetUID
.L207:
.LBE18:
.LBB19:
	.loc 13 769 0
	ldr	r3, [sp, #0]
	str	r3, [sp, #12]
	b	.L214
.L215:
	ldr	r3, [sp, #12]
	add	r3, r3, #1
	str	r3, [sp, #12]
.L214:
	ldr	r3, [sp, #4]
	ldr	r2, [r3, #4]
	ldr	r3, [sp, #12]
	cmp	r2, r3
	movls	r3, #0
	movhi	r3, #1
	and	r3, r3, #255
	cmp	r3, #0
	bne	.L215
.LBE19:
	.loc 13 771 0
	ldr	r3, [sp, #4]
	ldr	r2, [sp, #0]
	str	r2, [r3, #4]
.LBE17:
	.loc 13 772 0
	add	sp, sp, #20
	ldmfd	sp!, {pc}
.L219:
	.align	2
.L218:
	.word	.LC13
	.word	_ZZN8CIwArrayIP6Button12CIwAllocatorIS1_15CIwMallocRouterIS1_EE17ReallocateDefaultIS1_S5_EE8truncateEjE21_s_IwAssertIgnoreThis
	.word	.LC14
	.word	.LC15
	.word	767
	.cfi_endproc
.LFE3396:
	.size	_ZN8CIwArrayIP6Button12CIwAllocatorIS1_15CIwMallocRouterIS1_EE17ReallocateDefaultIS1_S5_EE8truncateEj, .-_ZN8CIwArrayIP6Button12CIwAllocatorIS1_15CIwMallocRouterIS1_EE17ReallocateDefaultIS1_S5_EE8truncateEj
	.section	.rodata
	.align	2
.LC23:
	.ascii	"qty>=0\000"
	.section	.text._ZN8CIwArrayIP6Button12CIwAllocatorIS1_15CIwMallocRouterIS1_EE17ReallocateDefaultIS1_S5_EE13push_back_qtyEi,"axG",%progbits,_ZN8CIwArrayIP6Button12CIwAllocatorIS1_15CIwMallocRouterIS1_EE17ReallocateDefaultIS1_S5_EE13push_back_qtyEi,comdat
	.align	2
	.weak	_ZN8CIwArrayIP6Button12CIwAllocatorIS1_15CIwMallocRouterIS1_EE17ReallocateDefaultIS1_S5_EE13push_back_qtyEi
	.hidden	_ZN8CIwArrayIP6Button12CIwAllocatorIS1_15CIwMallocRouterIS1_EE17ReallocateDefaultIS1_S5_EE13push_back_qtyEi
	.type	_ZN8CIwArrayIP6Button12CIwAllocatorIS1_15CIwMallocRouterIS1_EE17ReallocateDefaultIS1_S5_EE13push_back_qtyEi, %function
_ZN8CIwArrayIP6Button12CIwAllocatorIS1_15CIwMallocRouterIS1_EE17ReallocateDefaultIS1_S5_EE13push_back_qtyEi:
.LFB3397:
	.loc 13 679 0
	.cfi_startproc
	@ args = 0, pretend = 0, frame = 16
	@ frame_needed = 0, uses_anonymous_args = 0
	str	lr, [sp, #-4]!
.LCFI83:
	.cfi_def_cfa_offset 4
	sub	sp, sp, #20
.LCFI84:
	.cfi_def_cfa_offset 24
	str	r0, [sp, #4]
	str	r1, [sp, #0]
.LBB20:
.LBB21:
	.loc 13 681 0
	ldr	r3, [sp, #0]
	cmp	r3, #0
	bge	.L221
	.cfi_offset 14, -4
	ldr	r0, .L234
	bl	IwDebugAssertIsChannelOn
	mov	r3, r0
	cmp	r3, #0
	beq	.L221
	ldr	r3, .L234+4
	ldrb	r3, [r3, #0]	@ zero_extendqisi2
	cmp	r3, #0
	bne	.L221
	mov	r3, #1
	b	.L222
.L221:
	mov	r3, #0
.L222:
	cmp	r3, #0
	beq	.L223
	mov	r0, #0
	bl	IwDebugAssertSetSolution
	mov	r0, #0
	bl	IwDebugAssertSetUID
	mov	r0, #0
	bl	IwDebugAssertSetMessage
	ldr	r0, .L234+8
	ldr	r1, .L234+12
	ldr	r2, .L234+16
	mov	r3, #1
	bl	IwDebugAssertShow
	mov	r3, r0
	cmp	r3, #1
	beq	.L225
	cmp	r3, #2
	beq	.L226
	b	.L224
.L225:
	bl	s3eDebugIsDebuggerPresent
	mov	r3, r0
	cmp	r3, #0
	moveq	r3, #0
	movne	r3, #1
	and	r3, r3, #255
	cmp	r3, #0
	beq	.L227
	bl	s3eDebugIsDebuggerPresent
	mov	r3, r0
	cmp	r3, #0
	moveq	r3, #0
	movne	r3, #1
	and	r3, r3, #255
	cmp	r3, #0
	beq	.L233
	mvn	r3, #11
	mov	r2, #0
	str	r2, [r3, #0]
	b	.L224
.L227:
	bl	_ZL11IwDebugExitv
	b	.L224
.L226:
	ldr	r3, .L234+4
	mov	r2, #1
	strb	r2, [r3, #0]
	b	.L224
.L233:
	mov	r0, r0	@ nop
.L224:
	mov	r0, #0
	bl	IwDebugAssertSetUID
.L223:
.LBE21:
	.loc 13 682 0
	ldr	r3, [sp, #4]
	ldr	r2, [r3, #4]
	ldr	r3, [sp, #0]
	add	r3, r2, r3
	ldr	r0, [sp, #4]
	mov	r1, r3
	bl	_ZN8CIwArrayIP6Button12CIwAllocatorIS1_15CIwMallocRouterIS1_EE17ReallocateDefaultIS1_S5_EE7reserveEj
.LBB22:
	.loc 13 683 0
	mov	r3, #0
	str	r3, [sp, #12]
	b	.L230
.L231:
	.loc 13 684 0
	ldr	r3, [sp, #4]
	ldr	r2, [r3, #0]
	ldr	r3, [sp, #4]
	ldr	r1, [r3, #4]
	ldr	r3, [sp, #12]
	add	r3, r1, r3
	mov	r3, r3, asl #2
	add	r3, r2, r3
	mov	r0, #4
	mov	r1, r3
	bl	_ZnwjPv
	.loc 13 683 0
	ldr	r3, [sp, #12]
	add	r3, r3, #1
	str	r3, [sp, #12]
.L230:
	ldr	r2, [sp, #12]
	ldr	r3, [sp, #0]
	cmp	r2, r3
	movge	r3, #0
	movlt	r3, #1
	and	r3, r3, #255
	cmp	r3, #0
	bne	.L231
.LBE22:
	.loc 13 685 0
	ldr	r3, [sp, #4]
	ldr	r2, [r3, #4]
	ldr	r3, [sp, #0]
	add	r2, r2, r3
	ldr	r3, [sp, #4]
	str	r2, [r3, #4]
.LBE20:
	.loc 13 686 0
	add	sp, sp, #20
	ldmfd	sp!, {pc}
.L235:
	.align	2
.L234:
	.word	.LC13
	.word	_ZZN8CIwArrayIP6Button12CIwAllocatorIS1_15CIwMallocRouterIS1_EE17ReallocateDefaultIS1_S5_EE13push_back_qtyEiE21_s_IwAssertIgnoreThis
	.word	.LC23
	.word	.LC15
	.word	681
	.cfi_endproc
.LFE3397:
	.size	_ZN8CIwArrayIP6Button12CIwAllocatorIS1_15CIwMallocRouterIS1_EE17ReallocateDefaultIS1_S5_EE13push_back_qtyEi, .-_ZN8CIwArrayIP6Button12CIwAllocatorIS1_15CIwMallocRouterIS1_EE17ReallocateDefaultIS1_S5_EE13push_back_qtyEi
	.section	.text._ZN15CIwMallocRouterIP6ButtonE6DoFreeEPv,"axG",%progbits,_ZN15CIwMallocRouterIP6ButtonE6DoFreeEPv,comdat
	.align	2
	.weak	_ZN15CIwMallocRouterIP6ButtonE6DoFreeEPv
	.hidden	_ZN15CIwMallocRouterIP6ButtonE6DoFreeEPv
	.type	_ZN15CIwMallocRouterIP6ButtonE6DoFreeEPv, %function
_ZN15CIwMallocRouterIP6ButtonE6DoFreeEPv:
.LFB3398:
	.loc 15 93 0
	.cfi_startproc
	@ args = 0, pretend = 0, frame = 8
	@ frame_needed = 0, uses_anonymous_args = 0
	str	lr, [sp, #-4]!
.LCFI85:
	.cfi_def_cfa_offset 4
	sub	sp, sp, #12
.LCFI86:
	.cfi_def_cfa_offset 16
	str	r0, [sp, #4]
	.loc 15 95 0
	ldr	r0, [sp, #4]
	mov	r1, #4
	.cfi_offset 14, -4
	bl	_ZN22CIwDefaultMallocRouter8BaseFreeEPvj
	.loc 15 96 0
	add	sp, sp, #12
	ldmfd	sp!, {pc}
	.cfi_endproc
.LFE3398:
	.size	_ZN15CIwMallocRouterIP6ButtonE6DoFreeEPv, .-_ZN15CIwMallocRouterIP6ButtonE6DoFreeEPv
	.section	.text._ZN8CIwArrayIP10CIw2DImage12CIwAllocatorIS1_15CIwMallocRouterIS1_EE17ReallocateDefaultIS1_S5_EE13push_back_qtyEi,"axG",%progbits,_ZN8CIwArrayIP10CIw2DImage12CIwAllocatorIS1_15CIwMallocRouterIS1_EE17ReallocateDefaultIS1_S5_EE13push_back_qtyEi,comdat
	.align	2
	.weak	_ZN8CIwArrayIP10CIw2DImage12CIwAllocatorIS1_15CIwMallocRouterIS1_EE17ReallocateDefaultIS1_S5_EE13push_back_qtyEi
	.hidden	_ZN8CIwArrayIP10CIw2DImage12CIwAllocatorIS1_15CIwMallocRouterIS1_EE17ReallocateDefaultIS1_S5_EE13push_back_qtyEi
	.type	_ZN8CIwArrayIP10CIw2DImage12CIwAllocatorIS1_15CIwMallocRouterIS1_EE17ReallocateDefaultIS1_S5_EE13push_back_qtyEi, %function
_ZN8CIwArrayIP10CIw2DImage12CIwAllocatorIS1_15CIwMallocRouterIS1_EE17ReallocateDefaultIS1_S5_EE13push_back_qtyEi:
.LFB3399:
	.loc 13 679 0
	.cfi_startproc
	@ args = 0, pretend = 0, frame = 16
	@ frame_needed = 0, uses_anonymous_args = 0
	str	lr, [sp, #-4]!
.LCFI87:
	.cfi_def_cfa_offset 4
	sub	sp, sp, #20
.LCFI88:
	.cfi_def_cfa_offset 24
	str	r0, [sp, #4]
	str	r1, [sp, #0]
.LBB23:
.LBB24:
	.loc 13 681 0
	ldr	r3, [sp, #0]
	cmp	r3, #0
	bge	.L239
	.cfi_offset 14, -4
	ldr	r0, .L252
	bl	IwDebugAssertIsChannelOn
	mov	r3, r0
	cmp	r3, #0
	beq	.L239
	ldr	r3, .L252+4
	ldrb	r3, [r3, #0]	@ zero_extendqisi2
	cmp	r3, #0
	bne	.L239
	mov	r3, #1
	b	.L240
.L239:
	mov	r3, #0
.L240:
	cmp	r3, #0
	beq	.L241
	mov	r0, #0
	bl	IwDebugAssertSetSolution
	mov	r0, #0
	bl	IwDebugAssertSetUID
	mov	r0, #0
	bl	IwDebugAssertSetMessage
	ldr	r0, .L252+8
	ldr	r1, .L252+12
	ldr	r2, .L252+16
	mov	r3, #1
	bl	IwDebugAssertShow
	mov	r3, r0
	cmp	r3, #1
	beq	.L243
	cmp	r3, #2
	beq	.L244
	b	.L242
.L243:
	bl	s3eDebugIsDebuggerPresent
	mov	r3, r0
	cmp	r3, #0
	moveq	r3, #0
	movne	r3, #1
	and	r3, r3, #255
	cmp	r3, #0
	beq	.L245
	bl	s3eDebugIsDebuggerPresent
	mov	r3, r0
	cmp	r3, #0
	moveq	r3, #0
	movne	r3, #1
	and	r3, r3, #255
	cmp	r3, #0
	beq	.L251
	mvn	r3, #11
	mov	r2, #0
	str	r2, [r3, #0]
	b	.L242
.L245:
	bl	_ZL11IwDebugExitv
	b	.L242
.L244:
	ldr	r3, .L252+4
	mov	r2, #1
	strb	r2, [r3, #0]
	b	.L242
.L251:
	mov	r0, r0	@ nop
.L242:
	mov	r0, #0
	bl	IwDebugAssertSetUID
.L241:
.LBE24:
	.loc 13 682 0
	ldr	r3, [sp, #4]
	ldr	r2, [r3, #4]
	ldr	r3, [sp, #0]
	add	r3, r2, r3
	ldr	r0, [sp, #4]
	mov	r1, r3
	bl	_ZN8CIwArrayIP10CIw2DImage12CIwAllocatorIS1_15CIwMallocRouterIS1_EE17ReallocateDefaultIS1_S5_EE7reserveEj
.LBB25:
	.loc 13 683 0
	mov	r3, #0
	str	r3, [sp, #12]
	b	.L248
.L249:
	.loc 13 684 0
	ldr	r3, [sp, #4]
	ldr	r2, [r3, #0]
	ldr	r3, [sp, #4]
	ldr	r1, [r3, #4]
	ldr	r3, [sp, #12]
	add	r3, r1, r3
	mov	r3, r3, asl #2
	add	r3, r2, r3
	mov	r0, #4
	mov	r1, r3
	bl	_ZnwjPv
	.loc 13 683 0
	ldr	r3, [sp, #12]
	add	r3, r3, #1
	str	r3, [sp, #12]
.L248:
	ldr	r2, [sp, #12]
	ldr	r3, [sp, #0]
	cmp	r2, r3
	movge	r3, #0
	movlt	r3, #1
	and	r3, r3, #255
	cmp	r3, #0
	bne	.L249
.LBE25:
	.loc 13 685 0
	ldr	r3, [sp, #4]
	ldr	r2, [r3, #4]
	ldr	r3, [sp, #0]
	add	r2, r2, r3
	ldr	r3, [sp, #4]
	str	r2, [r3, #4]
.LBE23:
	.loc 13 686 0
	add	sp, sp, #20
	ldmfd	sp!, {pc}
.L253:
	.align	2
.L252:
	.word	.LC13
	.word	_ZZN8CIwArrayIP10CIw2DImage12CIwAllocatorIS1_15CIwMallocRouterIS1_EE17ReallocateDefaultIS1_S5_EE13push_back_qtyEiE21_s_IwAssertIgnoreThis
	.word	.LC23
	.word	.LC15
	.word	681
	.cfi_endproc
.LFE3399:
	.size	_ZN8CIwArrayIP10CIw2DImage12CIwAllocatorIS1_15CIwMallocRouterIS1_EE17ReallocateDefaultIS1_S5_EE13push_back_qtyEi, .-_ZN8CIwArrayIP10CIw2DImage12CIwAllocatorIS1_15CIwMallocRouterIS1_EE17ReallocateDefaultIS1_S5_EE13push_back_qtyEi
	.section	.text._ZN15CIwMallocRouterIP10CIw2DImageE6DoFreeEPv,"axG",%progbits,_ZN15CIwMallocRouterIP10CIw2DImageE6DoFreeEPv,comdat
	.align	2
	.weak	_ZN15CIwMallocRouterIP10CIw2DImageE6DoFreeEPv
	.hidden	_ZN15CIwMallocRouterIP10CIw2DImageE6DoFreeEPv
	.type	_ZN15CIwMallocRouterIP10CIw2DImageE6DoFreeEPv, %function
_ZN15CIwMallocRouterIP10CIw2DImageE6DoFreeEPv:
.LFB3400:
	.loc 15 93 0
	.cfi_startproc
	@ args = 0, pretend = 0, frame = 8
	@ frame_needed = 0, uses_anonymous_args = 0
	str	lr, [sp, #-4]!
.LCFI89:
	.cfi_def_cfa_offset 4
	sub	sp, sp, #12
.LCFI90:
	.cfi_def_cfa_offset 16
	str	r0, [sp, #4]
	.loc 15 95 0
	ldr	r0, [sp, #4]
	mov	r1, #4
	.cfi_offset 14, -4
	bl	_ZN22CIwDefaultMallocRouter8BaseFreeEPvj
	.loc 15 96 0
	add	sp, sp, #12
	ldmfd	sp!, {pc}
	.cfi_endproc
.LFE3400:
	.size	_ZN15CIwMallocRouterIP10CIw2DImageE6DoFreeEPv, .-_ZN15CIwMallocRouterIP10CIw2DImageE6DoFreeEPv
	.section	.text._ZN4_STL14__malloc_allocILi0EE8allocateEj,"axG",%progbits,_ZN4_STL14__malloc_allocILi0EE8allocateEj,comdat
	.align	2
	.weak	_ZN4_STL14__malloc_allocILi0EE8allocateEj
	.hidden	_ZN4_STL14__malloc_allocILi0EE8allocateEj
	.type	_ZN4_STL14__malloc_allocILi0EE8allocateEj, %function
_ZN4_STL14__malloc_allocILi0EE8allocateEj:
.LFB3401:
	.loc 14 109 0
	.cfi_startproc
	@ args = 0, pretend = 0, frame = 16
	@ frame_needed = 0, uses_anonymous_args = 0
	str	lr, [sp, #-4]!
.LCFI91:
	.cfi_def_cfa_offset 4
	sub	sp, sp, #20
.LCFI92:
	.cfi_def_cfa_offset 24
	str	r0, [sp, #4]
.LBB26:
	.loc 14 110 0
	ldr	r0, [sp, #4]
	.cfi_offset 14, -4
	bl	malloc
	mov	r3, r0
	str	r3, [sp, #12]
	.loc 14 111 0
	ldr	r3, [sp, #12]
	cmp	r3, #0
	bne	.L257
	ldr	r0, [sp, #4]
	bl	_ZN4_STL14__malloc_allocILi0EE13_S_oom_mallocEj
	mov	r3, r0
	str	r3, [sp, #12]
.L257:
	.loc 14 112 0
	ldr	r3, [sp, #12]
.LBE26:
	.loc 14 113 0
	mov	r0, r3
	add	sp, sp, #20
	ldmfd	sp!, {pc}
	.cfi_endproc
.LFE3401:
	.size	_ZN4_STL14__malloc_allocILi0EE8allocateEj, .-_ZN4_STL14__malloc_allocILi0EE8allocateEj
	.section	.text._ZN4_STL12basic_stringIcNS_11char_traitsIcEENS_9allocatorIcEEE23_M_terminate_string_auxERKNS_11__true_typeE,"axG",%progbits,_ZN4_STL12basic_stringIcNS_11char_traitsIcEENS_9allocatorIcEEE23_M_terminate_string_auxERKNS_11__true_typeE,comdat
	.align	2
	.weak	_ZN4_STL12basic_stringIcNS_11char_traitsIcEENS_9allocatorIcEEE23_M_terminate_string_auxERKNS_11__true_typeE
	.hidden	_ZN4_STL12basic_stringIcNS_11char_traitsIcEENS_9allocatorIcEEE23_M_terminate_string_auxERKNS_11__true_typeE
	.type	_ZN4_STL12basic_stringIcNS_11char_traitsIcEENS_9allocatorIcEEE23_M_terminate_string_auxERKNS_11__true_typeE, %function
_ZN4_STL12basic_stringIcNS_11char_traitsIcEENS_9allocatorIcEEE23_M_terminate_string_auxERKNS_11__true_typeE:
.LFB3402:
	.loc 11 350 0
	.cfi_startproc
	@ args = 0, pretend = 0, frame = 8
	@ frame_needed = 0, uses_anonymous_args = 0
	@ link register save eliminated.
	sub	sp, sp, #8
.LCFI93:
	.cfi_def_cfa_offset 8
	str	r0, [sp, #4]
	str	r1, [sp, #0]
	.loc 11 351 0
	ldr	r3, [sp, #4]
	ldr	r3, [r3, #4]
	mov	r2, #0
	strb	r2, [r3, #0]
	.loc 11 352 0
	add	sp, sp, #8
	bx	lr
	.cfi_endproc
.LFE3402:
	.size	_ZN4_STL12basic_stringIcNS_11char_traitsIcEENS_9allocatorIcEEE23_M_terminate_string_auxERKNS_11__true_typeE, .-_ZN4_STL12basic_stringIcNS_11char_traitsIcEENS_9allocatorIcEEE23_M_terminate_string_auxERKNS_11__true_typeE
	.section	.text._ZN17ReallocateDefaultIP10CIw2DImage12CIwAllocatorIS1_15CIwMallocRouterIS1_EEE10ReallocateEjjjPS1_RS5_,"axG",%progbits,_ZN17ReallocateDefaultIP10CIw2DImage12CIwAllocatorIS1_15CIwMallocRouterIS1_EEE10ReallocateEjjjPS1_RS5_,comdat
	.align	2
	.weak	_ZN17ReallocateDefaultIP10CIw2DImage12CIwAllocatorIS1_15CIwMallocRouterIS1_EEE10ReallocateEjjjPS1_RS5_
	.hidden	_ZN17ReallocateDefaultIP10CIw2DImage12CIwAllocatorIS1_15CIwMallocRouterIS1_EEE10ReallocateEjjjPS1_RS5_
	.type	_ZN17ReallocateDefaultIP10CIw2DImage12CIwAllocatorIS1_15CIwMallocRouterIS1_EEE10ReallocateEjjjPS1_RS5_, %function
_ZN17ReallocateDefaultIP10CIw2DImage12CIwAllocatorIS1_15CIwMallocRouterIS1_EEE10ReallocateEjjjPS1_RS5_:
.LFB3403:
	.loc 13 52 0
	.cfi_startproc
	@ args = 4, pretend = 0, frame = 16
	@ frame_needed = 0, uses_anonymous_args = 0
	str	lr, [sp, #-4]!
.LCFI94:
	.cfi_def_cfa_offset 4
	sub	sp, sp, #20
.LCFI95:
	.cfi_def_cfa_offset 24
	str	r0, [sp, #12]
	str	r1, [sp, #8]
	str	r2, [sp, #4]
	str	r3, [sp, #0]
	.loc 13 54 0
	ldr	r3, [sp, #12]
	mov	r3, r3, asl #2
	ldr	r0, [sp, #24]
	ldr	r1, [sp, #0]
	mov	r2, r3
	.cfi_offset 14, -4
	bl	_ZN12CIwAllocatorIP10CIw2DImage15CIwMallocRouterIS1_EE10reallocateEPS1_j
	mov	r3, r0
	.loc 13 55 0
	mov	r0, r3
	add	sp, sp, #20
	ldmfd	sp!, {pc}
	.cfi_endproc
.LFE3403:
	.size	_ZN17ReallocateDefaultIP10CIw2DImage12CIwAllocatorIS1_15CIwMallocRouterIS1_EEE10ReallocateEjjjPS1_RS5_, .-_ZN17ReallocateDefaultIP10CIw2DImage12CIwAllocatorIS1_15CIwMallocRouterIS1_EEE10ReallocateEjjjPS1_RS5_
	.section	.text._ZN8CIwArrayIP6Button12CIwAllocatorIS1_15CIwMallocRouterIS1_EE17ReallocateDefaultIS1_S5_EE7reserveEj,"axG",%progbits,_ZN8CIwArrayIP6Button12CIwAllocatorIS1_15CIwMallocRouterIS1_EE17ReallocateDefaultIS1_S5_EE7reserveEj,comdat
	.align	2
	.weak	_ZN8CIwArrayIP6Button12CIwAllocatorIS1_15CIwMallocRouterIS1_EE17ReallocateDefaultIS1_S5_EE7reserveEj
	.hidden	_ZN8CIwArrayIP6Button12CIwAllocatorIS1_15CIwMallocRouterIS1_EE17ReallocateDefaultIS1_S5_EE7reserveEj
	.type	_ZN8CIwArrayIP6Button12CIwAllocatorIS1_15CIwMallocRouterIS1_EE17ReallocateDefaultIS1_S5_EE7reserveEj, %function
_ZN8CIwArrayIP6Button12CIwAllocatorIS1_15CIwMallocRouterIS1_EE17ReallocateDefaultIS1_S5_EE7reserveEj:
.LFB3404:
	.loc 13 253 0
	.cfi_startproc
	@ args = 0, pretend = 0, frame = 8
	@ frame_needed = 0, uses_anonymous_args = 0
	str	lr, [sp, #-4]!
.LCFI96:
	.cfi_def_cfa_offset 4
	sub	sp, sp, #12
.LCFI97:
	.cfi_def_cfa_offset 16
	str	r0, [sp, #4]
	str	r1, [sp, #0]
	.loc 13 255 0
	ldr	r3, [sp, #4]
	ldr	r2, [r3, #8]
	ldr	r3, [sp, #0]
	cmp	r2, r3
	bcs	.L267
	.cfi_offset 14, -4
	.loc 13 257 0
	ldr	r3, [sp, #4]
	ldr	r3, [r3, #8]
	cmp	r3, #15
	bls	.L265
	ldr	r3, [sp, #4]
	ldr	r3, [r3, #8]
	mov	r3, r3, lsr #3
	b	.L266
.L265:
	mov	r3, #2
.L266:
	ldr	r2, [sp, #0]
	add	r3, r3, r2
	ldr	r0, [sp, #4]
	mov	r1, r3
	bl	_ZN8CIwArrayIP6Button12CIwAllocatorIS1_15CIwMallocRouterIS1_EE17ReallocateDefaultIS1_S5_EE12set_capacityEj
.L267:
	.loc 13 259 0
	add	sp, sp, #12
	ldmfd	sp!, {pc}
	.cfi_endproc
.LFE3404:
	.size	_ZN8CIwArrayIP6Button12CIwAllocatorIS1_15CIwMallocRouterIS1_EE17ReallocateDefaultIS1_S5_EE7reserveEj, .-_ZN8CIwArrayIP6Button12CIwAllocatorIS1_15CIwMallocRouterIS1_EE17ReallocateDefaultIS1_S5_EE7reserveEj
	.section	.text._ZN4_STL12basic_stringIcNS_11char_traitsIcEENS_9allocatorIcEEE18_M_append_dispatchIPKcEERS5_T_SA_RKNS_12__false_typeE,"axG",%progbits,_ZN4_STL12basic_stringIcNS_11char_traitsIcEENS_9allocatorIcEEE18_M_append_dispatchIPKcEERS5_T_SA_RKNS_12__false_typeE,comdat
	.align	2
	.weak	_ZN4_STL12basic_stringIcNS_11char_traitsIcEENS_9allocatorIcEEE18_M_append_dispatchIPKcEERS5_T_SA_RKNS_12__false_typeE
	.hidden	_ZN4_STL12basic_stringIcNS_11char_traitsIcEENS_9allocatorIcEEE18_M_append_dispatchIPKcEERS5_T_SA_RKNS_12__false_typeE
	.type	_ZN4_STL12basic_stringIcNS_11char_traitsIcEENS_9allocatorIcEEE18_M_append_dispatchIPKcEERS5_T_SA_RKNS_12__false_typeE, %function
_ZN4_STL12basic_stringIcNS_11char_traitsIcEENS_9allocatorIcEEE18_M_append_dispatchIPKcEERS5_T_SA_RKNS_12__false_typeE:
.LFB3405:
	.loc 11 586 0
	.cfi_startproc
	@ args = 0, pretend = 0, frame = 24
	@ frame_needed = 0, uses_anonymous_args = 0
	str	lr, [sp, #-4]!
.LCFI98:
	.cfi_def_cfa_offset 4
	sub	sp, sp, #28
.LCFI99:
	.cfi_def_cfa_offset 32
	str	r0, [sp, #12]
	str	r1, [sp, #8]
	str	r2, [sp, #4]
	str	r3, [sp, #0]
	.loc 11 588 0
	add	r3, sp, #20
	ldr	r0, [sp, #12]
	ldr	r1, [sp, #8]
	ldr	r2, [sp, #4]
	.cfi_offset 14, -4
	bl	_ZN4_STL12basic_stringIcNS_11char_traitsIcEENS_9allocatorIcEEE6appendIPKcEERS5_T_SA_RKNS_20forward_iterator_tagE
	mov	r3, r0
	.loc 11 589 0
	mov	r0, r3
	add	sp, sp, #28
	ldmfd	sp!, {pc}
	.cfi_endproc
.LFE3405:
	.size	_ZN4_STL12basic_stringIcNS_11char_traitsIcEENS_9allocatorIcEEE18_M_append_dispatchIPKcEERS5_T_SA_RKNS_12__false_typeE, .-_ZN4_STL12basic_stringIcNS_11char_traitsIcEENS_9allocatorIcEEE18_M_append_dispatchIPKcEERS5_T_SA_RKNS_12__false_typeE
	.section	.text._ZN4_STL9allocatorIcE10deallocateEPcj,"axG",%progbits,_ZN4_STL9allocatorIcE10deallocateEPcj,comdat
	.align	2
	.weak	_ZN4_STL9allocatorIcE10deallocateEPcj
	.hidden	_ZN4_STL9allocatorIcE10deallocateEPcj
	.type	_ZN4_STL9allocatorIcE10deallocateEPcj, %function
_ZN4_STL9allocatorIcE10deallocateEPcj:
.LFB3412:
	.loc 14 358 0
	.cfi_startproc
	@ args = 0, pretend = 0, frame = 16
	@ frame_needed = 0, uses_anonymous_args = 0
	str	lr, [sp, #-4]!
.LCFI100:
	.cfi_def_cfa_offset 4
	sub	sp, sp, #20
.LCFI101:
	.cfi_def_cfa_offset 24
	str	r0, [sp, #12]
	str	r1, [sp, #8]
	str	r2, [sp, #4]
	.loc 14 360 0
	ldr	r3, [sp, #8]
	cmp	r3, #0
	beq	.L272
	.cfi_offset 14, -4
	ldr	r0, [sp, #8]
	ldr	r1, [sp, #4]
	bl	_ZN4_STL14__malloc_allocILi0EE10deallocateEPvj
.L272:
	.loc 14 361 0
	add	sp, sp, #20
	ldmfd	sp!, {pc}
	.cfi_endproc
.LFE3412:
	.size	_ZN4_STL9allocatorIcE10deallocateEPcj, .-_ZN4_STL9allocatorIcE10deallocateEPcj
	.section	.text._ZN4_STL8distanceIPcEENS_15iterator_traitsIT_E15difference_typeERKS3_S7_,"axG",%progbits,_ZN4_STL8distanceIPcEENS_15iterator_traitsIT_E15difference_typeERKS3_S7_,comdat
	.align	2
	.weak	_ZN4_STL8distanceIPcEENS_15iterator_traitsIT_E15difference_typeERKS3_S7_
	.hidden	_ZN4_STL8distanceIPcEENS_15iterator_traitsIT_E15difference_typeERKS3_S7_
	.type	_ZN4_STL8distanceIPcEENS_15iterator_traitsIT_E15difference_typeERKS3_S7_, %function
_ZN4_STL8distanceIPcEENS_15iterator_traitsIT_E15difference_typeERKS3_S7_:
.LFB3413:
	.file 16 "c:/marmalade/6.2/s3e/h/std/c++/stl/_iterator_base.h"
	.loc 16 368 0
	.cfi_startproc
	@ args = 0, pretend = 0, frame = 16
	@ frame_needed = 0, uses_anonymous_args = 0
	str	lr, [sp, #-4]!
.LCFI102:
	.cfi_def_cfa_offset 4
	sub	sp, sp, #20
.LCFI103:
	.cfi_def_cfa_offset 24
	str	r0, [sp, #4]
	str	r1, [sp, #0]
	.loc 16 369 0
	add	r3, sp, #12
	ldr	r0, [sp, #4]
	ldr	r1, [sp, #0]
	mov	r2, r3
	.cfi_offset 14, -4
	bl	_ZN4_STL10__distanceIPcEENS_15iterator_traitsIT_E15difference_typeERKS3_S7_RKNS_26random_access_iterator_tagE
	mov	r3, r0
	.loc 16 370 0
	mov	r0, r3
	add	sp, sp, #20
	ldmfd	sp!, {pc}
	.cfi_endproc
.LFE3413:
	.size	_ZN4_STL8distanceIPcEENS_15iterator_traitsIT_E15difference_typeERKS3_S7_, .-_ZN4_STL8distanceIPcEENS_15iterator_traitsIT_E15difference_typeERKS3_S7_
	.section	.text._ZN4_STL12_String_baseIcNS_9allocatorIcEEE17_M_allocate_blockEj,"axG",%progbits,_ZN4_STL12_String_baseIcNS_9allocatorIcEEE17_M_allocate_blockEj,comdat
	.align	2
	.weak	_ZN4_STL12_String_baseIcNS_9allocatorIcEEE17_M_allocate_blockEj
	.hidden	_ZN4_STL12_String_baseIcNS_9allocatorIcEEE17_M_allocate_blockEj
	.type	_ZN4_STL12_String_baseIcNS_9allocatorIcEEE17_M_allocate_blockEj, %function
_ZN4_STL12_String_baseIcNS_9allocatorIcEEE17_M_allocate_blockEj:
.LFB3414:
	.loc 12 530 0
	.cfi_startproc
	@ args = 0, pretend = 0, frame = 8
	@ frame_needed = 0, uses_anonymous_args = 0
	str	lr, [sp, #-4]!
.LCFI104:
	.cfi_def_cfa_offset 4
	sub	sp, sp, #12
.LCFI105:
	.cfi_def_cfa_offset 16
	str	r0, [sp, #4]
	str	r1, [sp, #0]
	.loc 12 531 0
	ldr	r0, [sp, #4]
	.cfi_offset 14, -4
	bl	_ZNK4_STL12_String_baseIcNS_9allocatorIcEEE8max_sizeEv
	mov	r3, r0
	add	r2, r3, #1
	ldr	r3, [sp, #0]
	cmp	r2, r3
	bcc	.L276
	ldr	r3, [sp, #0]
	cmp	r3, #0
	beq	.L276
	mov	r3, #1
	b	.L277
.L276:
	mov	r3, #0
.L277:
	cmp	r3, #0
	beq	.L278
	.loc 12 532 0
	ldr	r3, [sp, #4]
	add	r3, r3, #8
	mov	r0, r3
	ldr	r1, [sp, #0]
	mov	r2, #0
	bl	_ZN4_STL9allocatorIcE8allocateEjPKv
	mov	r2, r0
	ldr	r3, [sp, #4]
	str	r2, [r3, #0]
	.loc 12 533 0
	ldr	r3, [sp, #4]
	ldr	r2, [r3, #0]
	ldr	r3, [sp, #4]
	str	r2, [r3, #4]
	.loc 12 534 0
	ldr	r3, [sp, #4]
	ldr	r2, [r3, #0]
	ldr	r3, [sp, #0]
	add	r2, r2, r3
	ldr	r3, [sp, #4]
	str	r2, [r3, #8]
	b	.L280
.L278:
	.loc 12 537 0
	ldr	r0, [sp, #4]
	bl	_ZNK4_STL12_String_baseIcNS_9allocatorIcEEE21_M_throw_length_errorEv
.L280:
	.loc 12 538 0
	add	sp, sp, #12
	ldmfd	sp!, {pc}
	.cfi_endproc
.LFE3414:
	.size	_ZN4_STL12_String_baseIcNS_9allocatorIcEEE17_M_allocate_blockEj, .-_ZN4_STL12_String_baseIcNS_9allocatorIcEEE17_M_allocate_blockEj
	.section	.text._ZN4_STL18uninitialized_copyIPcS1_EET0_T_S3_S2_,"axG",%progbits,_ZN4_STL18uninitialized_copyIPcS1_EET0_T_S3_S2_,comdat
	.align	2
	.weak	_ZN4_STL18uninitialized_copyIPcS1_EET0_T_S3_S2_
	.hidden	_ZN4_STL18uninitialized_copyIPcS1_EET0_T_S3_S2_
	.type	_ZN4_STL18uninitialized_copyIPcS1_EET0_T_S3_S2_, %function
_ZN4_STL18uninitialized_copyIPcS1_EET0_T_S3_S2_:
.LFB3415:
	.loc 8 78 0
	.cfi_startproc
	@ args = 0, pretend = 0, frame = 24
	@ frame_needed = 0, uses_anonymous_args = 0
	str	lr, [sp, #-4]!
.LCFI106:
	.cfi_def_cfa_offset 4
	sub	sp, sp, #28
.LCFI107:
	.cfi_def_cfa_offset 32
	str	r0, [sp, #12]
	str	r1, [sp, #8]
	str	r2, [sp, #4]
	.loc 8 79 0
	add	r3, sp, #20
	ldr	r0, [sp, #12]
	ldr	r1, [sp, #8]
	ldr	r2, [sp, #4]
	.cfi_offset 14, -4
	bl	_ZN4_STL20__uninitialized_copyIPcS1_EET0_T_S3_S2_RKNS_11__true_typeE
	mov	r3, r0
	.loc 8 80 0
	mov	r0, r3
	add	sp, sp, #28
	ldmfd	sp!, {pc}
	.cfi_endproc
.LFE3415:
	.size	_ZN4_STL18uninitialized_copyIPcS1_EET0_T_S3_S2_, .-_ZN4_STL18uninitialized_copyIPcS1_EET0_T_S3_S2_
	.section	.text._ZN8CIwArrayIP10CIw2DImage12CIwAllocatorIS1_15CIwMallocRouterIS1_EE17ReallocateDefaultIS1_S5_EE7reserveEj,"axG",%progbits,_ZN8CIwArrayIP10CIw2DImage12CIwAllocatorIS1_15CIwMallocRouterIS1_EE17ReallocateDefaultIS1_S5_EE7reserveEj,comdat
	.align	2
	.weak	_ZN8CIwArrayIP10CIw2DImage12CIwAllocatorIS1_15CIwMallocRouterIS1_EE17ReallocateDefaultIS1_S5_EE7reserveEj
	.hidden	_ZN8CIwArrayIP10CIw2DImage12CIwAllocatorIS1_15CIwMallocRouterIS1_EE17ReallocateDefaultIS1_S5_EE7reserveEj
	.type	_ZN8CIwArrayIP10CIw2DImage12CIwAllocatorIS1_15CIwMallocRouterIS1_EE17ReallocateDefaultIS1_S5_EE7reserveEj, %function
_ZN8CIwArrayIP10CIw2DImage12CIwAllocatorIS1_15CIwMallocRouterIS1_EE17ReallocateDefaultIS1_S5_EE7reserveEj:
.LFB3421:
	.loc 13 253 0
	.cfi_startproc
	@ args = 0, pretend = 0, frame = 8
	@ frame_needed = 0, uses_anonymous_args = 0
	str	lr, [sp, #-4]!
.LCFI108:
	.cfi_def_cfa_offset 4
	sub	sp, sp, #12
.LCFI109:
	.cfi_def_cfa_offset 16
	str	r0, [sp, #4]
	str	r1, [sp, #0]
	.loc 13 255 0
	ldr	r3, [sp, #4]
	ldr	r2, [r3, #8]
	ldr	r3, [sp, #0]
	cmp	r2, r3
	bcs	.L287
	.cfi_offset 14, -4
	.loc 13 257 0
	ldr	r3, [sp, #4]
	ldr	r3, [r3, #8]
	cmp	r3, #15
	bls	.L285
	ldr	r3, [sp, #4]
	ldr	r3, [r3, #8]
	mov	r3, r3, lsr #3
	b	.L286
.L285:
	mov	r3, #2
.L286:
	ldr	r2, [sp, #0]
	add	r3, r3, r2
	ldr	r0, [sp, #4]
	mov	r1, r3
	bl	_ZN8CIwArrayIP10CIw2DImage12CIwAllocatorIS1_15CIwMallocRouterIS1_EE17ReallocateDefaultIS1_S5_EE12set_capacityEj
.L287:
	.loc 13 259 0
	add	sp, sp, #12
	ldmfd	sp!, {pc}
	.cfi_endproc
.LFE3421:
	.size	_ZN8CIwArrayIP10CIw2DImage12CIwAllocatorIS1_15CIwMallocRouterIS1_EE17ReallocateDefaultIS1_S5_EE7reserveEj, .-_ZN8CIwArrayIP10CIw2DImage12CIwAllocatorIS1_15CIwMallocRouterIS1_EE17ReallocateDefaultIS1_S5_EE7reserveEj
	.section	.text._ZN12CIwAllocatorIP10CIw2DImage15CIwMallocRouterIS1_EE10reallocateEPS1_j,"axG",%progbits,_ZN12CIwAllocatorIP10CIw2DImage15CIwMallocRouterIS1_EE10reallocateEPS1_j,comdat
	.align	2
	.weak	_ZN12CIwAllocatorIP10CIw2DImage15CIwMallocRouterIS1_EE10reallocateEPS1_j
	.hidden	_ZN12CIwAllocatorIP10CIw2DImage15CIwMallocRouterIS1_EE10reallocateEPS1_j
	.type	_ZN12CIwAllocatorIP10CIw2DImage15CIwMallocRouterIS1_EE10reallocateEPS1_j, %function
_ZN12CIwAllocatorIP10CIw2DImage15CIwMallocRouterIS1_EE10reallocateEPS1_j:
.LFB3422:
	.loc 15 142 0
	.cfi_startproc
	@ args = 0, pretend = 0, frame = 16
	@ frame_needed = 0, uses_anonymous_args = 0
	str	lr, [sp, #-4]!
.LCFI110:
	.cfi_def_cfa_offset 4
	sub	sp, sp, #20
.LCFI111:
	.cfi_def_cfa_offset 24
	str	r0, [sp, #12]
	str	r1, [sp, #8]
	str	r2, [sp, #4]
	.loc 15 144 0
	ldr	r0, [sp, #8]
	ldr	r1, [sp, #4]
	.cfi_offset 14, -4
	bl	_ZN15CIwMallocRouterIP10CIw2DImageE9DoReallocEPvj
	mov	r3, r0
	.loc 15 145 0
	mov	r0, r3
	add	sp, sp, #20
	ldmfd	sp!, {pc}
	.cfi_endproc
.LFE3422:
	.size	_ZN12CIwAllocatorIP10CIw2DImage15CIwMallocRouterIS1_EE10reallocateEPS1_j, .-_ZN12CIwAllocatorIP10CIw2DImage15CIwMallocRouterIS1_EE10reallocateEPS1_j
	.section	.text._ZN8CIwArrayIP6Button12CIwAllocatorIS1_15CIwMallocRouterIS1_EE17ReallocateDefaultIS1_S5_EE12set_capacityEj,"axG",%progbits,_ZN8CIwArrayIP6Button12CIwAllocatorIS1_15CIwMallocRouterIS1_EE17ReallocateDefaultIS1_S5_EE12set_capacityEj,comdat
	.align	2
	.weak	_ZN8CIwArrayIP6Button12CIwAllocatorIS1_15CIwMallocRouterIS1_EE17ReallocateDefaultIS1_S5_EE12set_capacityEj
	.hidden	_ZN8CIwArrayIP6Button12CIwAllocatorIS1_15CIwMallocRouterIS1_EE17ReallocateDefaultIS1_S5_EE12set_capacityEj
	.type	_ZN8CIwArrayIP6Button12CIwAllocatorIS1_15CIwMallocRouterIS1_EE17ReallocateDefaultIS1_S5_EE12set_capacityEj, %function
_ZN8CIwArrayIP6Button12CIwAllocatorIS1_15CIwMallocRouterIS1_EE17ReallocateDefaultIS1_S5_EE12set_capacityEj:
.LFB3423:
	.loc 13 804 0
	.cfi_startproc
	@ args = 0, pretend = 0, frame = 8
	@ frame_needed = 0, uses_anonymous_args = 0
	str	lr, [sp, #-4]!
.LCFI112:
	.cfi_def_cfa_offset 4
	sub	sp, sp, #20
.LCFI113:
	.cfi_def_cfa_offset 24
	str	r0, [sp, #12]
	str	r1, [sp, #8]
.LBB27:
.LBB28:
	.loc 13 806 0
	ldr	r3, [sp, #12]
	ldrb	r3, [r3, #12]
	and	r3, r3, #1
	and	r3, r3, #255
	cmp	r3, #0
	beq	.L291
	.cfi_offset 14, -4
	ldr	r0, .L328
	bl	IwDebugAssertIsChannelOn
	mov	r3, r0
	cmp	r3, #0
	beq	.L292
	ldr	r3, .L328+4
	ldrb	r3, [r3, #0]	@ zero_extendqisi2
	cmp	r3, #0
	bne	.L292
	mov	r3, #1
	b	.L293
.L292:
	mov	r3, #0
.L293:
	cmp	r3, #0
	beq	.L323
	ldr	r0, .L328+8
	bl	IwDebugAssertSetUID
	ldr	r0, .L328+12
	bl	IwDebugAssertSetMessage
	ldr	r0, .L328+16
	ldr	r1, .L328+20
	ldr	r2, .L328+24
	mov	r3, #1
	bl	IwDebugAssertShow
	mov	r3, r0
	cmp	r3, #1
	beq	.L296
	cmp	r3, #2
	beq	.L297
	b	.L295
.L296:
	bl	s3eDebugIsDebuggerPresent
	mov	r3, r0
	cmp	r3, #0
	moveq	r3, #0
	movne	r3, #1
	and	r3, r3, #255
	cmp	r3, #0
	beq	.L298
	bl	s3eDebugIsDebuggerPresent
	mov	r3, r0
	cmp	r3, #0
	moveq	r3, #0
	movne	r3, #1
	and	r3, r3, #255
	cmp	r3, #0
	beq	.L324
	mvn	r3, #11
	mov	r2, #0
	str	r2, [r3, #0]
	b	.L295
.L298:
	bl	_ZL11IwDebugExitv
	b	.L295
.L297:
	ldr	r3, .L328+4
	mov	r2, #1
	strb	r2, [r3, #0]
	b	.L295
.L324:
	mov	r0, r0	@ nop
.L295:
	mov	r0, #0
	bl	IwDebugAssertSetUID
	b	.L322
.L291:
.LBE28:
.LBB29:
	.loc 13 807 0
	ldr	r3, [sp, #12]
	ldrb	r3, [r3, #12]	@ zero_extendqisi2
	mov	r3, r3, lsr #1
	and	r3, r3, #1
	and	r3, r3, #255
	cmp	r3, #0
	beq	.L302
	ldr	r3, [sp, #12]
	ldr	r2, [r3, #8]
	ldr	r3, [sp, #8]
	cmp	r2, r3
	bcs	.L302
	ldr	r0, .L328
	bl	IwDebugAssertIsChannelOn
	mov	r3, r0
	cmp	r3, #0
	beq	.L302
	ldr	r3, .L328+28
	ldrb	r3, [r3, #0]	@ zero_extendqisi2
	cmp	r3, #0
	bne	.L302
	mov	r3, #1
	b	.L303
.L302:
	mov	r3, #0
.L303:
	cmp	r3, #0
	beq	.L304
	mov	r0, #0
	bl	IwDebugAssertSetSolution
	ldr	r0, .L328+32
	bl	IwDebugAssertSetUID
	ldr	r0, .L328+36
	bl	IwDebugAssertSetMessage
	ldr	r0, .L328+40
	ldr	r1, .L328+20
	ldr	r2, .L328+44
	mov	r3, #1
	bl	IwDebugAssertShow
	mov	r3, r0
	cmp	r3, #1
	beq	.L306
	cmp	r3, #2
	beq	.L307
	b	.L305
.L306:
	bl	s3eDebugIsDebuggerPresent
	mov	r3, r0
	cmp	r3, #0
	moveq	r3, #0
	movne	r3, #1
	and	r3, r3, #255
	cmp	r3, #0
	beq	.L308
	bl	s3eDebugIsDebuggerPresent
	mov	r3, r0
	cmp	r3, #0
	moveq	r3, #0
	movne	r3, #1
	and	r3, r3, #255
	cmp	r3, #0
	beq	.L325
	mvn	r3, #11
	mov	r2, #0
	str	r2, [r3, #0]
	b	.L305
.L308:
	bl	_ZL11IwDebugExitv
	b	.L305
.L307:
	ldr	r3, .L328+28
	mov	r2, #1
	strb	r2, [r3, #0]
	b	.L305
.L325:
	mov	r0, r0	@ nop
.L305:
	mov	r0, #0
	bl	IwDebugAssertSetUID
.L304:
.LBE29:
.LBB30:
	.loc 13 808 0
	ldr	r3, [sp, #12]
	ldr	r2, [r3, #4]
	ldr	r3, [sp, #8]
	cmp	r2, r3
	bls	.L311
	ldr	r0, .L328
	bl	IwDebugAssertIsChannelOn
	mov	r3, r0
	cmp	r3, #0
	beq	.L311
	ldr	r3, .L328+48
	ldrb	r3, [r3, #0]	@ zero_extendqisi2
	cmp	r3, #0
	bne	.L311
	mov	r3, #1
	b	.L312
.L311:
	mov	r3, #0
.L312:
	cmp	r3, #0
	beq	.L313
	mov	r0, #0
	bl	IwDebugAssertSetSolution
	mov	r0, #0
	bl	IwDebugAssertSetUID
	mov	r0, #0
	bl	IwDebugAssertSetMessage
	ldr	r0, .L328+52
	ldr	r1, .L328+20
	mov	r2, #808
	mov	r3, #1
	bl	IwDebugAssertShow
	mov	r3, r0
	cmp	r3, #1
	beq	.L315
	cmp	r3, #2
	beq	.L316
	b	.L314
.L315:
	bl	s3eDebugIsDebuggerPresent
	mov	r3, r0
	cmp	r3, #0
	moveq	r3, #0
	movne	r3, #1
	and	r3, r3, #255
	cmp	r3, #0
	beq	.L317
	bl	s3eDebugIsDebuggerPresent
	mov	r3, r0
	cmp	r3, #0
	moveq	r3, #0
	movne	r3, #1
	and	r3, r3, #255
	cmp	r3, #0
	beq	.L326
	mvn	r3, #11
	mov	r2, #0
	str	r2, [r3, #0]
	b	.L314
.L317:
	bl	_ZL11IwDebugExitv
	b	.L314
.L316:
	ldr	r3, .L328+48
	mov	r2, #1
	strb	r2, [r3, #0]
	b	.L314
.L326:
	mov	r0, r0	@ nop
.L314:
	mov	r0, #0
	bl	IwDebugAssertSetUID
.L313:
.LBE30:
	.loc 13 809 0
	ldr	r3, [sp, #12]
	ldr	r2, [r3, #8]
	ldr	r3, [sp, #8]
	cmp	r2, r3
	beq	.L327
.L320:
	.loc 13 810 0
	ldr	r3, [sp, #12]
	ldr	r2, [sp, #8]
	str	r2, [r3, #8]
	.loc 13 811 0
	ldr	r3, [sp, #8]
	cmp	r3, #0
	bne	.L321
	.loc 13 813 0
	ldr	r3, [sp, #12]
	add	r1, r3, #13
	ldr	r3, [sp, #12]
	ldr	r2, [r3, #0]
	ldr	r3, [sp, #12]
	ldr	r3, [r3, #8]
	mov	r0, r1
	mov	r1, r2
	mov	r2, r3
	bl	_ZN12CIwAllocatorIP6Button15CIwMallocRouterIS1_EE10deallocateEPS1_j
	.loc 13 814 0
	ldr	r3, [sp, #12]
	mov	r2, #0
	str	r2, [r3, #0]
	b	.L322
.L321:
	.loc 13 818 0
	ldr	r3, [sp, #12]
	ldr	r1, [r3, #4]
	ldr	r3, [sp, #12]
	ldr	r2, [r3, #8]
	ldr	r3, [sp, #12]
	ldr	r3, [r3, #0]
	ldr	r0, [sp, #12]
	add	r0, r0, #13
	str	r0, [sp, #0]
	ldr	r0, [sp, #8]
	bl	_ZN17ReallocateDefaultIP6Button12CIwAllocatorIS1_15CIwMallocRouterIS1_EEE10ReallocateEjjjPS1_RS5_
	mov	r2, r0
	ldr	r3, [sp, #12]
	str	r2, [r3, #0]
	b	.L322
.L323:
.LBB31:
	.loc 13 806 0
	mov	r0, r0	@ nop
	b	.L322
.L327:
.LBE31:
	.loc 13 809 0
	mov	r0, r0	@ nop
.L322:
.LBE27:
	.loc 13 820 0
	add	sp, sp, #20
	ldmfd	sp!, {pc}
.L329:
	.align	2
.L328:
	.word	.LC13
	.word	_ZZN8CIwArrayIP6Button12CIwAllocatorIS1_15CIwMallocRouterIS1_EE17ReallocateDefaultIS1_S5_EE12set_capacityEjE21_s_IwAssertIgnoreThis
	.word	1733
	.word	.LC16
	.word	.LC17
	.word	.LC15
	.word	806
	.word	_ZZN8CIwArrayIP6Button12CIwAllocatorIS1_15CIwMallocRouterIS1_EE17ReallocateDefaultIS1_S5_EE12set_capacityEjE21_s_IwAssertIgnoreThis_0
	.word	1732
	.word	.LC18
	.word	.LC19
	.word	807
	.word	_ZZN8CIwArrayIP6Button12CIwAllocatorIS1_15CIwMallocRouterIS1_EE17ReallocateDefaultIS1_S5_EE12set_capacityEjE21_s_IwAssertIgnoreThis_1
	.word	.LC20
	.cfi_endproc
.LFE3423:
	.size	_ZN8CIwArrayIP6Button12CIwAllocatorIS1_15CIwMallocRouterIS1_EE17ReallocateDefaultIS1_S5_EE12set_capacityEj, .-_ZN8CIwArrayIP6Button12CIwAllocatorIS1_15CIwMallocRouterIS1_EE17ReallocateDefaultIS1_S5_EE12set_capacityEj
	.section	.text._ZN4_STL12basic_stringIcNS_11char_traitsIcEENS_9allocatorIcEEE6appendIPKcEERS5_T_SA_RKNS_20forward_iterator_tagE,"axG",%progbits,_ZN4_STL12basic_stringIcNS_11char_traitsIcEENS_9allocatorIcEEE6appendIPKcEERS5_T_SA_RKNS_20forward_iterator_tagE,comdat
	.align	2
	.weak	_ZN4_STL12basic_stringIcNS_11char_traitsIcEENS_9allocatorIcEEE6appendIPKcEERS5_T_SA_RKNS_20forward_iterator_tagE
	.hidden	_ZN4_STL12basic_stringIcNS_11char_traitsIcEENS_9allocatorIcEEE6appendIPKcEERS5_T_SA_RKNS_20forward_iterator_tagE
	.type	_ZN4_STL12basic_stringIcNS_11char_traitsIcEENS_9allocatorIcEEE6appendIPKcEERS5_T_SA_RKNS_20forward_iterator_tagE, %function
_ZN4_STL12basic_stringIcNS_11char_traitsIcEENS_9allocatorIcEEE6appendIPKcEERS5_T_SA_RKNS_20forward_iterator_tagE:
.LFB3424:
	.loc 11 542 0
	.cfi_startproc
	@ args = 0, pretend = 0, frame = 48
	@ frame_needed = 0, uses_anonymous_args = 0
	stmfd	sp!, {r4, lr}
.LCFI114:
	.cfi_def_cfa_offset 8
	sub	sp, sp, #48
.LCFI115:
	.cfi_def_cfa_offset 56
	str	r0, [sp, #12]
	str	r1, [sp, #8]
	str	r2, [sp, #4]
	str	r3, [sp, #0]
.LBB32:
	.loc 11 544 0
	ldr	r2, [sp, #8]
	ldr	r3, [sp, #4]
	cmp	r2, r3
	beq	.L331
	.cfi_offset 14, -4
	.cfi_offset 4, -8
.LBB33:
	.loc 11 545 0
	ldr	r0, [sp, #12]
	bl	_ZNK4_STL12basic_stringIcNS_11char_traitsIcEENS_9allocatorIcEEE4sizeEv
	mov	r3, r0
	str	r3, [sp, #20]
	.loc 11 546 0
	add	r2, sp, #8
	add	r3, sp, #4
	mov	r0, r2
	mov	r1, r3
	bl	_ZN4_STL8distanceIPKcEENS_15iterator_traitsIT_E15difference_typeERKS4_S8_
	mov	r3, r0
	str	r3, [sp, #28]
	.loc 11 547 0
	ldr	r4, [sp, #28]
	ldr	r0, [sp, #12]
	bl	_ZNK4_STL12basic_stringIcNS_11char_traitsIcEENS_9allocatorIcEEE8max_sizeEv
	mov	r3, r0
	cmp	r4, r3
	bhi	.L332
	ldr	r0, [sp, #12]
	bl	_ZNK4_STL12basic_stringIcNS_11char_traitsIcEENS_9allocatorIcEEE8max_sizeEv
	mov	r2, r0
	ldr	r3, [sp, #28]
	rsb	r2, r3, r2
	ldr	r3, [sp, #20]
	cmp	r2, r3
	bcs	.L333
.L332:
	mov	r3, #1
	b	.L334
.L333:
	mov	r3, #0
.L334:
	cmp	r3, #0
	beq	.L335
	.loc 11 548 0
	ldr	r3, [sp, #12]
	mov	r0, r3
	bl	_ZNK4_STL12_String_baseIcNS_9allocatorIcEEE21_M_throw_length_errorEv
.L335:
	.loc 11 549 0
	ldr	r2, [sp, #20]
	ldr	r3, [sp, #28]
	add	r4, r2, r3
	ldr	r0, [sp, #12]
	bl	_ZNK4_STL12basic_stringIcNS_11char_traitsIcEENS_9allocatorIcEEE8capacityEv
	mov	r3, r0
	cmp	r4, r3
	movls	r3, #0
	movhi	r3, #1
	and	r3, r3, #255
	cmp	r3, #0
	beq	.L336
.LBB34:
	.loc 11 551 0
	ldr	r3, [sp, #28]
	str	r3, [sp, #24]
	add	r2, sp, #20
	add	r3, sp, #24
	mov	r0, r2
	mov	r1, r3
	bl	_ZN4_STL3maxIjEERKT_S3_S3_
	mov	r3, r0
	ldr	r2, [r3, #0]
	ldr	r3, [sp, #20]
	add	r3, r2, r3
	add	r3, r3, #1
	str	r3, [sp, #32]
	.loc 11 552 0
	ldr	r3, [sp, #12]
	add	r3, r3, #8
	mov	r0, r3
	ldr	r1, [sp, #32]
	mov	r2, #0
	bl	_ZN4_STL9allocatorIcE8allocateEjPKv
	mov	r3, r0
	str	r3, [sp, #36]
	.loc 11 553 0
	ldr	r3, [sp, #36]
	str	r3, [sp, #40]
	.loc 11 555 0
	ldr	r3, [sp, #12]
	ldr	r2, [r3, #0]
	ldr	r3, [sp, #12]
	ldr	r3, [r3, #4]
	mov	r0, r2
	mov	r1, r3
	ldr	r2, [sp, #36]
	bl	_ZN4_STL18uninitialized_copyIPcS1_EET0_T_S3_S2_
	mov	r3, r0
	str	r3, [sp, #40]
	.loc 11 556 0
	ldr	r2, [sp, #8]
	ldr	r3, [sp, #4]
	mov	r0, r2
	mov	r1, r3
	ldr	r2, [sp, #40]
	bl	_ZN4_STL18uninitialized_copyEPKcS1_Pc
	mov	r3, r0
	str	r3, [sp, #40]
	.loc 11 557 0
	ldr	r0, [sp, #12]
	ldr	r1, [sp, #40]
	bl	_ZN4_STL12basic_stringIcNS_11char_traitsIcEENS_9allocatorIcEEE17_M_construct_nullEPc
	.loc 11 561 0
	ldr	r3, [sp, #12]
	ldr	r2, [r3, #0]
	ldr	r3, [sp, #12]
	ldr	r3, [r3, #4]
	add	r3, r3, #1
	mov	r0, r2
	mov	r1, r3
	bl	_ZN4_STL8_DestroyEPcS0_
	.loc 11 562 0
	ldr	r3, [sp, #12]
	mov	r0, r3
	bl	_ZN4_STL12_String_baseIcNS_9allocatorIcEEE19_M_deallocate_blockEv
	.loc 11 563 0
	ldr	r3, [sp, #12]
	ldr	r2, [sp, #36]
	str	r2, [r3, #0]
	.loc 11 564 0
	ldr	r3, [sp, #12]
	ldr	r2, [sp, #40]
	str	r2, [r3, #4]
	.loc 11 565 0
	ldr	r2, [sp, #36]
	ldr	r3, [sp, #32]
	add	r2, r2, r3
	ldr	r3, [sp, #12]
	str	r2, [r3, #8]
	b	.L331
.L336:
.LBE34:
.LBB35:
	.loc 11 568 0
	ldr	r3, [sp, #8]
	str	r3, [sp, #44]
	.loc 11 569 0
	ldr	r3, [sp, #44]
	add	r3, r3, #1
	str	r3, [sp, #44]
	.loc 11 570 0
	ldr	r2, [sp, #4]
	ldr	r3, [sp, #12]
	ldr	r3, [r3, #4]
	add	r3, r3, #1
	ldr	r0, [sp, #44]
	mov	r1, r2
	mov	r2, r3
	bl	_ZN4_STL18uninitialized_copyEPKcS1_Pc
	.loc 11 572 0
	ldr	r3, [sp, #12]
	ldr	r2, [r3, #4]
	ldr	r3, [sp, #28]
	add	r3, r2, r3
	ldr	r0, [sp, #12]
	mov	r1, r3
	bl	_ZN4_STL12basic_stringIcNS_11char_traitsIcEENS_9allocatorIcEEE17_M_construct_nullEPc
	.loc 11 575 0
	ldr	r0, [sp, #12]
	bl	_ZN4_STL12basic_stringIcNS_11char_traitsIcEENS_9allocatorIcEEE3endEv
	mov	r2, r0
	ldr	r3, [sp, #8]
	mov	r0, r2
	mov	r1, r3
	bl	_ZN4_STL11char_traitsIcE6assignERcRKc
	.loc 11 576 0
	ldr	r3, [sp, #12]
	ldr	r2, [r3, #4]
	ldr	r3, [sp, #28]
	add	r2, r2, r3
	ldr	r3, [sp, #12]
	str	r2, [r3, #4]
.L331:
.LBE35:
.LBE33:
	.loc 11 579 0
	ldr	r3, [sp, #12]
.LBE32:
	.loc 11 580 0
	mov	r0, r3
	add	sp, sp, #48
	ldmfd	sp!, {r4, pc}
	.cfi_endproc
.LFE3424:
	.size	_ZN4_STL12basic_stringIcNS_11char_traitsIcEENS_9allocatorIcEEE6appendIPKcEERS5_T_SA_RKNS_20forward_iterator_tagE, .-_ZN4_STL12basic_stringIcNS_11char_traitsIcEENS_9allocatorIcEEE6appendIPKcEERS5_T_SA_RKNS_20forward_iterator_tagE
	.section	.text._ZN4_STL14__malloc_allocILi0EE10deallocateEPvj,"axG",%progbits,_ZN4_STL14__malloc_allocILi0EE10deallocateEPvj,comdat
	.align	2
	.weak	_ZN4_STL14__malloc_allocILi0EE10deallocateEPvj
	.hidden	_ZN4_STL14__malloc_allocILi0EE10deallocateEPvj
	.type	_ZN4_STL14__malloc_allocILi0EE10deallocateEPvj, %function
_ZN4_STL14__malloc_allocILi0EE10deallocateEPvj:
.LFB3431:
	.loc 14 114 0
	.cfi_startproc
	@ args = 0, pretend = 0, frame = 8
	@ frame_needed = 0, uses_anonymous_args = 0
	str	lr, [sp, #-4]!
.LCFI116:
	.cfi_def_cfa_offset 4
	sub	sp, sp, #12
.LCFI117:
	.cfi_def_cfa_offset 16
	str	r0, [sp, #4]
	str	r1, [sp, #0]
	.loc 14 114 0
	ldr	r3, [sp, #4]
	mov	r0, r3
	.cfi_offset 14, -4
	bl	free
	add	sp, sp, #12
	ldmfd	sp!, {pc}
	.cfi_endproc
.LFE3431:
	.size	_ZN4_STL14__malloc_allocILi0EE10deallocateEPvj, .-_ZN4_STL14__malloc_allocILi0EE10deallocateEPvj
	.section	.text._ZN4_STL10__distanceIPcEENS_15iterator_traitsIT_E15difference_typeERKS3_S7_RKNS_26random_access_iterator_tagE,"axG",%progbits,_ZN4_STL10__distanceIPcEENS_15iterator_traitsIT_E15difference_typeERKS3_S7_RKNS_26random_access_iterator_tagE,comdat
	.align	2
	.weak	_ZN4_STL10__distanceIPcEENS_15iterator_traitsIT_E15difference_typeERKS3_S7_RKNS_26random_access_iterator_tagE
	.hidden	_ZN4_STL10__distanceIPcEENS_15iterator_traitsIT_E15difference_typeERKS3_S7_RKNS_26random_access_iterator_tagE
	.type	_ZN4_STL10__distanceIPcEENS_15iterator_traitsIT_E15difference_typeERKS3_S7_RKNS_26random_access_iterator_tagE, %function
_ZN4_STL10__distanceIPcEENS_15iterator_traitsIT_E15difference_typeERKS3_S7_RKNS_26random_access_iterator_tagE:
.LFB3432:
	.loc 16 361 0
	.cfi_startproc
	@ args = 0, pretend = 0, frame = 16
	@ frame_needed = 0, uses_anonymous_args = 0
	@ link register save eliminated.
	sub	sp, sp, #16
.LCFI118:
	.cfi_def_cfa_offset 16
	str	r0, [sp, #12]
	str	r1, [sp, #8]
	str	r2, [sp, #4]
	.loc 16 363 0
	ldr	r3, [sp, #8]
	ldr	r3, [r3, #0]
	mov	r2, r3
	ldr	r3, [sp, #12]
	ldr	r3, [r3, #0]
	rsb	r3, r3, r2
	.loc 16 364 0
	mov	r0, r3
	add	sp, sp, #16
	bx	lr
	.cfi_endproc
.LFE3432:
	.size	_ZN4_STL10__distanceIPcEENS_15iterator_traitsIT_E15difference_typeERKS3_S7_RKNS_26random_access_iterator_tagE, .-_ZN4_STL10__distanceIPcEENS_15iterator_traitsIT_E15difference_typeERKS3_S7_RKNS_26random_access_iterator_tagE
	.section	.text._ZNK4_STL12_String_baseIcNS_9allocatorIcEEE8max_sizeEv,"axG",%progbits,_ZNK4_STL12_String_baseIcNS_9allocatorIcEEE8max_sizeEv,comdat
	.align	2
	.weak	_ZNK4_STL12_String_baseIcNS_9allocatorIcEEE8max_sizeEv
	.hidden	_ZNK4_STL12_String_baseIcNS_9allocatorIcEEE8max_sizeEv
	.type	_ZNK4_STL12_String_baseIcNS_9allocatorIcEEE8max_sizeEv, %function
_ZNK4_STL12_String_baseIcNS_9allocatorIcEEE8max_sizeEv:
.LFB3433:
	.loc 11 126 0
	.cfi_startproc
	@ args = 0, pretend = 0, frame = 8
	@ frame_needed = 0, uses_anonymous_args = 0
	@ link register save eliminated.
	sub	sp, sp, #8
.LCFI119:
	.cfi_def_cfa_offset 8
	str	r0, [sp, #4]
	.loc 11 126 0
	mvn	r3, #1
	mov	r0, r3
	add	sp, sp, #8
	bx	lr
	.cfi_endproc
.LFE3433:
	.size	_ZNK4_STL12_String_baseIcNS_9allocatorIcEEE8max_sizeEv, .-_ZNK4_STL12_String_baseIcNS_9allocatorIcEEE8max_sizeEv
	.section	.rodata
	.align	2
.LC24:
	.ascii	"basic_string\000"
	.section	.text._ZNK4_STL12_String_baseIcNS_9allocatorIcEEE21_M_throw_length_errorEv,"axG",%progbits,_ZNK4_STL12_String_baseIcNS_9allocatorIcEEE21_M_throw_length_errorEv,comdat
	.align	2
	.weak	_ZNK4_STL12_String_baseIcNS_9allocatorIcEEE21_M_throw_length_errorEv
	.hidden	_ZNK4_STL12_String_baseIcNS_9allocatorIcEEE21_M_throw_length_errorEv
	.type	_ZNK4_STL12_String_baseIcNS_9allocatorIcEEE21_M_throw_length_errorEv, %function
_ZNK4_STL12_String_baseIcNS_9allocatorIcEEE21_M_throw_length_errorEv:
.LFB3434:
	.loc 12 522 0
	.cfi_startproc
	@ args = 0, pretend = 0, frame = 8
	@ frame_needed = 0, uses_anonymous_args = 0
	str	lr, [sp, #-4]!
.LCFI120:
	.cfi_def_cfa_offset 4
	sub	sp, sp, #12
.LCFI121:
	.cfi_def_cfa_offset 16
	str	r0, [sp, #4]
	.loc 12 523 0
	ldr	r0, .L346
	.cfi_offset 14, -4
	bl	_ZN4_STL24__stl_throw_length_errorEPKc
	.loc 12 524 0
	add	sp, sp, #12
	ldmfd	sp!, {pc}
.L347:
	.align	2
.L346:
	.word	.LC24
	.cfi_endproc
.LFE3434:
	.size	_ZNK4_STL12_String_baseIcNS_9allocatorIcEEE21_M_throw_length_errorEv, .-_ZNK4_STL12_String_baseIcNS_9allocatorIcEEE21_M_throw_length_errorEv
	.section	.text._ZN4_STL20__uninitialized_copyIPcS1_EET0_T_S3_S2_RKNS_11__true_typeE,"axG",%progbits,_ZN4_STL20__uninitialized_copyIPcS1_EET0_T_S3_S2_RKNS_11__true_typeE,comdat
	.align	2
	.weak	_ZN4_STL20__uninitialized_copyIPcS1_EET0_T_S3_S2_RKNS_11__true_typeE
	.hidden	_ZN4_STL20__uninitialized_copyIPcS1_EET0_T_S3_S2_RKNS_11__true_typeE
	.type	_ZN4_STL20__uninitialized_copyIPcS1_EET0_T_S3_S2_RKNS_11__true_typeE, %function
_ZN4_STL20__uninitialized_copyIPcS1_EET0_T_S3_S2_RKNS_11__true_typeE:
.LFB3435:
	.loc 8 53 0
	.cfi_startproc
	@ args = 0, pretend = 0, frame = 24
	@ frame_needed = 0, uses_anonymous_args = 0
	str	lr, [sp, #-4]!
.LCFI122:
	.cfi_def_cfa_offset 4
	sub	sp, sp, #28
.LCFI123:
	.cfi_def_cfa_offset 32
	str	r0, [sp, #12]
	str	r1, [sp, #8]
	str	r2, [sp, #4]
	str	r3, [sp, #0]
	.loc 8 55 0
	.cfi_offset 14, -4
	bl	_ZN4_STL12_BothPtrTypeIPcS1_E4_RetEv
	mov	r3, r0
	strb	r3, [sp, #20]
	add	r3, sp, #20
	ldr	r0, [sp, #12]
	ldr	r1, [sp, #8]
	ldr	r2, [sp, #4]
	bl	_ZN4_STL10__copy_auxIPcS1_EET0_T_S3_S2_RKNS_11__true_typeE
	mov	r3, r0
	.loc 8 56 0
	mov	r0, r3
	add	sp, sp, #28
	ldmfd	sp!, {pc}
	.cfi_endproc
.LFE3435:
	.size	_ZN4_STL20__uninitialized_copyIPcS1_EET0_T_S3_S2_RKNS_11__true_typeE, .-_ZN4_STL20__uninitialized_copyIPcS1_EET0_T_S3_S2_RKNS_11__true_typeE
	.section	.text._ZN15CIwMallocRouterIP10CIw2DImageE9DoReallocEPvj,"axG",%progbits,_ZN15CIwMallocRouterIP10CIw2DImageE9DoReallocEPvj,comdat
	.align	2
	.weak	_ZN15CIwMallocRouterIP10CIw2DImageE9DoReallocEPvj
	.hidden	_ZN15CIwMallocRouterIP10CIw2DImageE9DoReallocEPvj
	.type	_ZN15CIwMallocRouterIP10CIw2DImageE9DoReallocEPvj, %function
_ZN15CIwMallocRouterIP10CIw2DImageE9DoReallocEPvj:
.LFB3442:
	.loc 15 97 0
	.cfi_startproc
	@ args = 0, pretend = 0, frame = 8
	@ frame_needed = 0, uses_anonymous_args = 0
	str	lr, [sp, #-4]!
.LCFI124:
	.cfi_def_cfa_offset 4
	sub	sp, sp, #12
.LCFI125:
	.cfi_def_cfa_offset 16
	str	r0, [sp, #4]
	str	r1, [sp, #0]
	.loc 15 99 0
	ldr	r0, [sp, #4]
	ldr	r1, [sp, #0]
	mov	r2, #4
	.cfi_offset 14, -4
	bl	_ZN22CIwDefaultMallocRouter11BaseReallocEPvjj
	mov	r3, r0
	.loc 15 100 0
	mov	r0, r3
	add	sp, sp, #12
	ldmfd	sp!, {pc}
	.cfi_endproc
.LFE3442:
	.size	_ZN15CIwMallocRouterIP10CIw2DImageE9DoReallocEPvj, .-_ZN15CIwMallocRouterIP10CIw2DImageE9DoReallocEPvj
	.section	.text._ZN17ReallocateDefaultIP6Button12CIwAllocatorIS1_15CIwMallocRouterIS1_EEE10ReallocateEjjjPS1_RS5_,"axG",%progbits,_ZN17ReallocateDefaultIP6Button12CIwAllocatorIS1_15CIwMallocRouterIS1_EEE10ReallocateEjjjPS1_RS5_,comdat
	.align	2
	.weak	_ZN17ReallocateDefaultIP6Button12CIwAllocatorIS1_15CIwMallocRouterIS1_EEE10ReallocateEjjjPS1_RS5_
	.hidden	_ZN17ReallocateDefaultIP6Button12CIwAllocatorIS1_15CIwMallocRouterIS1_EEE10ReallocateEjjjPS1_RS5_
	.type	_ZN17ReallocateDefaultIP6Button12CIwAllocatorIS1_15CIwMallocRouterIS1_EEE10ReallocateEjjjPS1_RS5_, %function
_ZN17ReallocateDefaultIP6Button12CIwAllocatorIS1_15CIwMallocRouterIS1_EEE10ReallocateEjjjPS1_RS5_:
.LFB3443:
	.loc 13 52 0
	.cfi_startproc
	@ args = 4, pretend = 0, frame = 16
	@ frame_needed = 0, uses_anonymous_args = 0
	str	lr, [sp, #-4]!
.LCFI126:
	.cfi_def_cfa_offset 4
	sub	sp, sp, #20
.LCFI127:
	.cfi_def_cfa_offset 24
	str	r0, [sp, #12]
	str	r1, [sp, #8]
	str	r2, [sp, #4]
	str	r3, [sp, #0]
	.loc 13 54 0
	ldr	r3, [sp, #12]
	mov	r3, r3, asl #2
	ldr	r0, [sp, #24]
	ldr	r1, [sp, #0]
	mov	r2, r3
	.cfi_offset 14, -4
	bl	_ZN12CIwAllocatorIP6Button15CIwMallocRouterIS1_EE10reallocateEPS1_j
	mov	r3, r0
	.loc 13 55 0
	mov	r0, r3
	add	sp, sp, #20
	ldmfd	sp!, {pc}
	.cfi_endproc
.LFE3443:
	.size	_ZN17ReallocateDefaultIP6Button12CIwAllocatorIS1_15CIwMallocRouterIS1_EEE10ReallocateEjjjPS1_RS5_, .-_ZN17ReallocateDefaultIP6Button12CIwAllocatorIS1_15CIwMallocRouterIS1_EEE10ReallocateEjjjPS1_RS5_
	.section	.text._ZNK4_STL12basic_stringIcNS_11char_traitsIcEENS_9allocatorIcEEE4sizeEv,"axG",%progbits,_ZNK4_STL12basic_stringIcNS_11char_traitsIcEENS_9allocatorIcEEE4sizeEv,comdat
	.align	2
	.weak	_ZNK4_STL12basic_stringIcNS_11char_traitsIcEENS_9allocatorIcEEE4sizeEv
	.hidden	_ZNK4_STL12basic_stringIcNS_11char_traitsIcEENS_9allocatorIcEEE4sizeEv
	.type	_ZNK4_STL12basic_stringIcNS_11char_traitsIcEENS_9allocatorIcEEE4sizeEv, %function
_ZNK4_STL12basic_stringIcNS_11char_traitsIcEENS_9allocatorIcEEE4sizeEv:
.LFB3444:
	.loc 11 431 0
	.cfi_startproc
	@ args = 0, pretend = 0, frame = 8
	@ frame_needed = 0, uses_anonymous_args = 0
	@ link register save eliminated.
	sub	sp, sp, #8
.LCFI128:
	.cfi_def_cfa_offset 8
	str	r0, [sp, #4]
	.loc 11 431 0
	ldr	r3, [sp, #4]
	ldr	r3, [r3, #4]
	mov	r2, r3
	ldr	r3, [sp, #4]
	ldr	r3, [r3, #0]
	rsb	r3, r3, r2
	mov	r0, r3
	add	sp, sp, #8
	bx	lr
	.cfi_endproc
.LFE3444:
	.size	_ZNK4_STL12basic_stringIcNS_11char_traitsIcEENS_9allocatorIcEEE4sizeEv, .-_ZNK4_STL12basic_stringIcNS_11char_traitsIcEENS_9allocatorIcEEE4sizeEv
	.section	.text._ZN4_STL8distanceIPKcEENS_15iterator_traitsIT_E15difference_typeERKS4_S8_,"axG",%progbits,_ZN4_STL8distanceIPKcEENS_15iterator_traitsIT_E15difference_typeERKS4_S8_,comdat
	.align	2
	.weak	_ZN4_STL8distanceIPKcEENS_15iterator_traitsIT_E15difference_typeERKS4_S8_
	.hidden	_ZN4_STL8distanceIPKcEENS_15iterator_traitsIT_E15difference_typeERKS4_S8_
	.type	_ZN4_STL8distanceIPKcEENS_15iterator_traitsIT_E15difference_typeERKS4_S8_, %function
_ZN4_STL8distanceIPKcEENS_15iterator_traitsIT_E15difference_typeERKS4_S8_:
.LFB3445:
	.loc 16 368 0
	.cfi_startproc
	@ args = 0, pretend = 0, frame = 16
	@ frame_needed = 0, uses_anonymous_args = 0
	str	lr, [sp, #-4]!
.LCFI129:
	.cfi_def_cfa_offset 4
	sub	sp, sp, #20
.LCFI130:
	.cfi_def_cfa_offset 24
	str	r0, [sp, #4]
	str	r1, [sp, #0]
	.loc 16 369 0
	add	r3, sp, #12
	ldr	r0, [sp, #4]
	ldr	r1, [sp, #0]
	mov	r2, r3
	.cfi_offset 14, -4
	bl	_ZN4_STL10__distanceIPKcEENS_15iterator_traitsIT_E15difference_typeERKS4_S8_RKNS_26random_access_iterator_tagE
	mov	r3, r0
	.loc 16 370 0
	mov	r0, r3
	add	sp, sp, #20
	ldmfd	sp!, {pc}
	.cfi_endproc
.LFE3445:
	.size	_ZN4_STL8distanceIPKcEENS_15iterator_traitsIT_E15difference_typeERKS4_S8_, .-_ZN4_STL8distanceIPKcEENS_15iterator_traitsIT_E15difference_typeERKS4_S8_
	.section	.text._ZNK4_STL12basic_stringIcNS_11char_traitsIcEENS_9allocatorIcEEE8max_sizeEv,"axG",%progbits,_ZNK4_STL12basic_stringIcNS_11char_traitsIcEENS_9allocatorIcEEE8max_sizeEv,comdat
	.align	2
	.weak	_ZNK4_STL12basic_stringIcNS_11char_traitsIcEENS_9allocatorIcEEE8max_sizeEv
	.hidden	_ZNK4_STL12basic_stringIcNS_11char_traitsIcEENS_9allocatorIcEEE8max_sizeEv
	.type	_ZNK4_STL12basic_stringIcNS_11char_traitsIcEENS_9allocatorIcEEE8max_sizeEv, %function
_ZNK4_STL12basic_stringIcNS_11char_traitsIcEENS_9allocatorIcEEE8max_sizeEv:
.LFB3446:
	.loc 11 434 0
	.cfi_startproc
	@ args = 0, pretend = 0, frame = 8
	@ frame_needed = 0, uses_anonymous_args = 0
	str	lr, [sp, #-4]!
.LCFI131:
	.cfi_def_cfa_offset 4
	sub	sp, sp, #12
.LCFI132:
	.cfi_def_cfa_offset 16
	str	r0, [sp, #4]
	.loc 11 434 0
	ldr	r3, [sp, #4]
	mov	r0, r3
	.cfi_offset 14, -4
	bl	_ZNK4_STL12_String_baseIcNS_9allocatorIcEEE8max_sizeEv
	mov	r3, r0
	mov	r0, r3
	add	sp, sp, #12
	ldmfd	sp!, {pc}
	.cfi_endproc
.LFE3446:
	.size	_ZNK4_STL12basic_stringIcNS_11char_traitsIcEENS_9allocatorIcEEE8max_sizeEv, .-_ZNK4_STL12basic_stringIcNS_11char_traitsIcEENS_9allocatorIcEEE8max_sizeEv
	.section	.text._ZNK4_STL12basic_stringIcNS_11char_traitsIcEENS_9allocatorIcEEE8capacityEv,"axG",%progbits,_ZNK4_STL12basic_stringIcNS_11char_traitsIcEENS_9allocatorIcEEE8capacityEv,comdat
	.align	2
	.weak	_ZNK4_STL12basic_stringIcNS_11char_traitsIcEENS_9allocatorIcEEE8capacityEv
	.hidden	_ZNK4_STL12basic_stringIcNS_11char_traitsIcEENS_9allocatorIcEEE8capacityEv
	.type	_ZNK4_STL12basic_stringIcNS_11char_traitsIcEENS_9allocatorIcEEE8capacityEv, %function
_ZNK4_STL12basic_stringIcNS_11char_traitsIcEENS_9allocatorIcEEE8capacityEv:
.LFB3447:
	.loc 11 447 0
	.cfi_startproc
	@ args = 0, pretend = 0, frame = 8
	@ frame_needed = 0, uses_anonymous_args = 0
	@ link register save eliminated.
	sub	sp, sp, #8
.LCFI133:
	.cfi_def_cfa_offset 8
	str	r0, [sp, #4]
	.loc 11 447 0
	ldr	r3, [sp, #4]
	ldr	r3, [r3, #8]
	mov	r2, r3
	ldr	r3, [sp, #4]
	ldr	r3, [r3, #0]
	rsb	r3, r3, r2
	sub	r3, r3, #1
	mov	r0, r3
	add	sp, sp, #8
	bx	lr
	.cfi_endproc
.LFE3447:
	.size	_ZNK4_STL12basic_stringIcNS_11char_traitsIcEENS_9allocatorIcEEE8capacityEv, .-_ZNK4_STL12basic_stringIcNS_11char_traitsIcEENS_9allocatorIcEEE8capacityEv
	.section	.text._ZN4_STL3maxIjEERKT_S3_S3_,"axG",%progbits,_ZN4_STL3maxIjEERKT_S3_S3_,comdat
	.align	2
	.weak	_ZN4_STL3maxIjEERKT_S3_S3_
	.hidden	_ZN4_STL3maxIjEERKT_S3_S3_
	.type	_ZN4_STL3maxIjEERKT_S3_S3_, %function
_ZN4_STL3maxIjEERKT_S3_S3_:
.LFB3448:
	.loc 7 79 0
	.cfi_startproc
	@ args = 0, pretend = 0, frame = 8
	@ frame_needed = 0, uses_anonymous_args = 0
	@ link register save eliminated.
	sub	sp, sp, #8
.LCFI134:
	.cfi_def_cfa_offset 8
	str	r0, [sp, #4]
	str	r1, [sp, #0]
	.loc 7 79 0
	ldr	r3, [sp, #4]
	ldr	r2, [r3, #0]
	ldr	r3, [sp, #0]
	ldr	r3, [r3, #0]
	cmp	r2, r3
	bcs	.L363
	ldr	r3, [sp, #0]
	b	.L364
.L363:
	ldr	r3, [sp, #4]
.L364:
	mov	r0, r3
	add	sp, sp, #8
	bx	lr
	.cfi_endproc
.LFE3448:
	.size	_ZN4_STL3maxIjEERKT_S3_S3_, .-_ZN4_STL3maxIjEERKT_S3_S3_
	.section	.text._ZN4_STL12basic_stringIcNS_11char_traitsIcEENS_9allocatorIcEEE17_M_construct_nullEPc,"axG",%progbits,_ZN4_STL12basic_stringIcNS_11char_traitsIcEENS_9allocatorIcEEE17_M_construct_nullEPc,comdat
	.align	2
	.weak	_ZN4_STL12basic_stringIcNS_11char_traitsIcEENS_9allocatorIcEEE17_M_construct_nullEPc
	.hidden	_ZN4_STL12basic_stringIcNS_11char_traitsIcEENS_9allocatorIcEEE17_M_construct_nullEPc
	.type	_ZN4_STL12basic_stringIcNS_11char_traitsIcEENS_9allocatorIcEEE17_M_construct_nullEPc, %function
_ZN4_STL12basic_stringIcNS_11char_traitsIcEENS_9allocatorIcEEE17_M_construct_nullEPc:
.LFB3449:
	.loc 11 335 0
	.cfi_startproc
	@ args = 0, pretend = 0, frame = 16
	@ frame_needed = 0, uses_anonymous_args = 0
	str	lr, [sp, #-4]!
.LCFI135:
	.cfi_def_cfa_offset 4
	sub	sp, sp, #20
.LCFI136:
	.cfi_def_cfa_offset 24
	str	r0, [sp, #4]
	str	r1, [sp, #0]
	.loc 11 336 0
	add	r3, sp, #12
	ldr	r0, [sp, #4]
	ldr	r1, [sp, #0]
	mov	r2, r3
	.cfi_offset 14, -4
	bl	_ZN4_STL12basic_stringIcNS_11char_traitsIcEENS_9allocatorIcEEE21_M_construct_null_auxEPcRKNS_11__true_typeE
	.loc 11 337 0
	add	sp, sp, #20
	ldmfd	sp!, {pc}
	.cfi_endproc
.LFE3449:
	.size	_ZN4_STL12basic_stringIcNS_11char_traitsIcEENS_9allocatorIcEEE17_M_construct_nullEPc, .-_ZN4_STL12basic_stringIcNS_11char_traitsIcEENS_9allocatorIcEEE17_M_construct_nullEPc
	.section	.text._ZN4_STL12basic_stringIcNS_11char_traitsIcEENS_9allocatorIcEEE3endEv,"axG",%progbits,_ZN4_STL12basic_stringIcNS_11char_traitsIcEENS_9allocatorIcEEE3endEv,comdat
	.align	2
	.weak	_ZN4_STL12basic_stringIcNS_11char_traitsIcEENS_9allocatorIcEEE3endEv
	.hidden	_ZN4_STL12basic_stringIcNS_11char_traitsIcEENS_9allocatorIcEEE3endEv
	.type	_ZN4_STL12basic_stringIcNS_11char_traitsIcEENS_9allocatorIcEEE3endEv, %function
_ZN4_STL12basic_stringIcNS_11char_traitsIcEENS_9allocatorIcEEE3endEv:
.LFB3450:
	.loc 11 417 0
	.cfi_startproc
	@ args = 0, pretend = 0, frame = 8
	@ frame_needed = 0, uses_anonymous_args = 0
	@ link register save eliminated.
	sub	sp, sp, #8
.LCFI137:
	.cfi_def_cfa_offset 8
	str	r0, [sp, #4]
	.loc 11 417 0
	ldr	r3, [sp, #4]
	ldr	r3, [r3, #4]
	mov	r0, r3
	add	sp, sp, #8
	bx	lr
	.cfi_endproc
.LFE3450:
	.size	_ZN4_STL12basic_stringIcNS_11char_traitsIcEENS_9allocatorIcEEE3endEv, .-_ZN4_STL12basic_stringIcNS_11char_traitsIcEENS_9allocatorIcEEE3endEv
	.section	.text._ZN4_STL12_BothPtrTypeIPcS1_E4_RetEv,"axG",%progbits,_ZN4_STL12_BothPtrTypeIPcS1_E4_RetEv,comdat
	.align	2
	.weak	_ZN4_STL12_BothPtrTypeIPcS1_E4_RetEv
	.hidden	_ZN4_STL12_BothPtrTypeIPcS1_E4_RetEv
	.type	_ZN4_STL12_BothPtrTypeIPcS1_E4_RetEv, %function
_ZN4_STL12_BothPtrTypeIPcS1_E4_RetEv:
.LFB3454:
	.file 17 "c:/marmalade/6.2/s3e/h/std/c++/stl/type_traits.h"
	.loc 17 234 0
	.cfi_startproc
	@ args = 0, pretend = 0, frame = 0
	@ frame_needed = 0, uses_anonymous_args = 0
	@ link register save eliminated.
	.loc 17 234 0
	mov	r0, r3
	bx	lr
	.cfi_endproc
.LFE3454:
	.size	_ZN4_STL12_BothPtrTypeIPcS1_E4_RetEv, .-_ZN4_STL12_BothPtrTypeIPcS1_E4_RetEv
	.section	.text._ZN4_STL10__copy_auxIPcS1_EET0_T_S3_S2_RKNS_11__true_typeE,"axG",%progbits,_ZN4_STL10__copy_auxIPcS1_EET0_T_S3_S2_RKNS_11__true_typeE,comdat
	.align	2
	.weak	_ZN4_STL10__copy_auxIPcS1_EET0_T_S3_S2_RKNS_11__true_typeE
	.hidden	_ZN4_STL10__copy_auxIPcS1_EET0_T_S3_S2_RKNS_11__true_typeE
	.type	_ZN4_STL10__copy_auxIPcS1_EET0_T_S3_S2_RKNS_11__true_typeE, %function
_ZN4_STL10__copy_auxIPcS1_EET0_T_S3_S2_RKNS_11__true_typeE:
.LFB3455:
	.loc 7 201 0
	.cfi_startproc
	@ args = 0, pretend = 0, frame = 24
	@ frame_needed = 0, uses_anonymous_args = 0
	str	lr, [sp, #-4]!
.LCFI138:
	.cfi_def_cfa_offset 4
	sub	sp, sp, #28
.LCFI139:
	.cfi_def_cfa_offset 32
	str	r0, [sp, #12]
	str	r1, [sp, #8]
	str	r2, [sp, #4]
	str	r3, [sp, #0]
	.loc 7 204 0
	mov	r0, #0
	mov	r1, #0
	.cfi_offset 14, -4
	bl	_ZN4_STL13_IsOKToMemCpyIccEENS_11_OKToMemCpyIT_T0_EEPS2_PS3_
	mov	r3, r0
	strb	r3, [sp, #16]
	bl	_ZN4_STL11_OKToMemCpyIccE4_RetEv
	mov	r3, r0
	strb	r3, [sp, #20]
	add	r3, sp, #20
	ldr	r0, [sp, #12]
	ldr	r1, [sp, #8]
	ldr	r2, [sp, #4]
	bl	_ZN4_STL11__copy_ptrsIPcS1_EET0_T_S3_S2_RKNS_11__true_typeE
	mov	r3, r0
	.loc 7 205 0
	mov	r0, r3
	add	sp, sp, #28
	ldmfd	sp!, {pc}
	.cfi_endproc
.LFE3455:
	.size	_ZN4_STL10__copy_auxIPcS1_EET0_T_S3_S2_RKNS_11__true_typeE, .-_ZN4_STL10__copy_auxIPcS1_EET0_T_S3_S2_RKNS_11__true_typeE
	.section	.text._ZN12CIwAllocatorIP6Button15CIwMallocRouterIS1_EE10reallocateEPS1_j,"axG",%progbits,_ZN12CIwAllocatorIP6Button15CIwMallocRouterIS1_EE10reallocateEPS1_j,comdat
	.align	2
	.weak	_ZN12CIwAllocatorIP6Button15CIwMallocRouterIS1_EE10reallocateEPS1_j
	.hidden	_ZN12CIwAllocatorIP6Button15CIwMallocRouterIS1_EE10reallocateEPS1_j
	.type	_ZN12CIwAllocatorIP6Button15CIwMallocRouterIS1_EE10reallocateEPS1_j, %function
_ZN12CIwAllocatorIP6Button15CIwMallocRouterIS1_EE10reallocateEPS1_j:
.LFB3458:
	.loc 15 142 0
	.cfi_startproc
	@ args = 0, pretend = 0, frame = 16
	@ frame_needed = 0, uses_anonymous_args = 0
	str	lr, [sp, #-4]!
.LCFI140:
	.cfi_def_cfa_offset 4
	sub	sp, sp, #20
.LCFI141:
	.cfi_def_cfa_offset 24
	str	r0, [sp, #12]
	str	r1, [sp, #8]
	str	r2, [sp, #4]
	.loc 15 144 0
	ldr	r0, [sp, #8]
	ldr	r1, [sp, #4]
	.cfi_offset 14, -4
	bl	_ZN15CIwMallocRouterIP6ButtonE9DoReallocEPvj
	mov	r3, r0
	.loc 15 145 0
	mov	r0, r3
	add	sp, sp, #20
	ldmfd	sp!, {pc}
	.cfi_endproc
.LFE3458:
	.size	_ZN12CIwAllocatorIP6Button15CIwMallocRouterIS1_EE10reallocateEPS1_j, .-_ZN12CIwAllocatorIP6Button15CIwMallocRouterIS1_EE10reallocateEPS1_j
	.section	.text._ZN4_STL10__distanceIPKcEENS_15iterator_traitsIT_E15difference_typeERKS4_S8_RKNS_26random_access_iterator_tagE,"axG",%progbits,_ZN4_STL10__distanceIPKcEENS_15iterator_traitsIT_E15difference_typeERKS4_S8_RKNS_26random_access_iterator_tagE,comdat
	.align	2
	.weak	_ZN4_STL10__distanceIPKcEENS_15iterator_traitsIT_E15difference_typeERKS4_S8_RKNS_26random_access_iterator_tagE
	.hidden	_ZN4_STL10__distanceIPKcEENS_15iterator_traitsIT_E15difference_typeERKS4_S8_RKNS_26random_access_iterator_tagE
	.type	_ZN4_STL10__distanceIPKcEENS_15iterator_traitsIT_E15difference_typeERKS4_S8_RKNS_26random_access_iterator_tagE, %function
_ZN4_STL10__distanceIPKcEENS_15iterator_traitsIT_E15difference_typeERKS4_S8_RKNS_26random_access_iterator_tagE:
.LFB3459:
	.loc 16 361 0
	.cfi_startproc
	@ args = 0, pretend = 0, frame = 16
	@ frame_needed = 0, uses_anonymous_args = 0
	@ link register save eliminated.
	sub	sp, sp, #16
.LCFI142:
	.cfi_def_cfa_offset 16
	str	r0, [sp, #12]
	str	r1, [sp, #8]
	str	r2, [sp, #4]
	.loc 16 363 0
	ldr	r3, [sp, #8]
	ldr	r3, [r3, #0]
	mov	r2, r3
	ldr	r3, [sp, #12]
	ldr	r3, [r3, #0]
	rsb	r3, r3, r2
	.loc 16 364 0
	mov	r0, r3
	add	sp, sp, #16
	bx	lr
	.cfi_endproc
.LFE3459:
	.size	_ZN4_STL10__distanceIPKcEENS_15iterator_traitsIT_E15difference_typeERKS4_S8_RKNS_26random_access_iterator_tagE, .-_ZN4_STL10__distanceIPKcEENS_15iterator_traitsIT_E15difference_typeERKS4_S8_RKNS_26random_access_iterator_tagE
	.section	.text._ZN4_STL12basic_stringIcNS_11char_traitsIcEENS_9allocatorIcEEE21_M_construct_null_auxEPcRKNS_11__true_typeE,"axG",%progbits,_ZN4_STL12basic_stringIcNS_11char_traitsIcEENS_9allocatorIcEEE21_M_construct_null_auxEPcRKNS_11__true_typeE,comdat
	.align	2
	.weak	_ZN4_STL12basic_stringIcNS_11char_traitsIcEENS_9allocatorIcEEE21_M_construct_null_auxEPcRKNS_11__true_typeE
	.hidden	_ZN4_STL12basic_stringIcNS_11char_traitsIcEENS_9allocatorIcEEE21_M_construct_null_auxEPcRKNS_11__true_typeE
	.type	_ZN4_STL12basic_stringIcNS_11char_traitsIcEENS_9allocatorIcEEE21_M_construct_null_auxEPcRKNS_11__true_typeE, %function
_ZN4_STL12basic_stringIcNS_11char_traitsIcEENS_9allocatorIcEEE21_M_construct_null_auxEPcRKNS_11__true_typeE:
.LFB3460:
	.loc 11 331 0
	.cfi_startproc
	@ args = 0, pretend = 0, frame = 16
	@ frame_needed = 0, uses_anonymous_args = 0
	@ link register save eliminated.
	sub	sp, sp, #16
.LCFI143:
	.cfi_def_cfa_offset 16
	str	r0, [sp, #12]
	str	r1, [sp, #8]
	str	r2, [sp, #4]
	.loc 11 332 0
	ldr	r3, [sp, #8]
	mov	r2, #0
	strb	r2, [r3, #0]
	.loc 11 333 0
	add	sp, sp, #16
	bx	lr
	.cfi_endproc
.LFE3460:
	.size	_ZN4_STL12basic_stringIcNS_11char_traitsIcEENS_9allocatorIcEEE21_M_construct_null_auxEPcRKNS_11__true_typeE, .-_ZN4_STL12basic_stringIcNS_11char_traitsIcEENS_9allocatorIcEEE21_M_construct_null_auxEPcRKNS_11__true_typeE
	.section	.text._ZN4_STL13_IsOKToMemCpyIccEENS_11_OKToMemCpyIT_T0_EEPS2_PS3_,"axG",%progbits,_ZN4_STL13_IsOKToMemCpyIccEENS_11_OKToMemCpyIT_T0_EEPS2_PS3_,comdat
	.align	2
	.weak	_ZN4_STL13_IsOKToMemCpyIccEENS_11_OKToMemCpyIT_T0_EEPS2_PS3_
	.hidden	_ZN4_STL13_IsOKToMemCpyIccEENS_11_OKToMemCpyIT_T0_EEPS2_PS3_
	.type	_ZN4_STL13_IsOKToMemCpyIccEENS_11_OKToMemCpyIT_T0_EEPS2_PS3_, %function
_ZN4_STL13_IsOKToMemCpyIccEENS_11_OKToMemCpyIT_T0_EEPS2_PS3_:
.LFB3462:
	.loc 17 365 0
	.cfi_startproc
	@ args = 0, pretend = 0, frame = 8
	@ frame_needed = 0, uses_anonymous_args = 0
	@ link register save eliminated.
	sub	sp, sp, #8
.LCFI144:
	.cfi_def_cfa_offset 8
	str	r0, [sp, #4]
	str	r1, [sp, #0]
	.loc 17 367 0
	mov	r0, r3
	add	sp, sp, #8
	bx	lr
	.cfi_endproc
.LFE3462:
	.size	_ZN4_STL13_IsOKToMemCpyIccEENS_11_OKToMemCpyIT_T0_EEPS2_PS3_, .-_ZN4_STL13_IsOKToMemCpyIccEENS_11_OKToMemCpyIT_T0_EEPS2_PS3_
	.section	.text._ZN4_STL11_OKToMemCpyIccE4_RetEv,"axG",%progbits,_ZN4_STL11_OKToMemCpyIccE4_RetEv,comdat
	.align	2
	.weak	_ZN4_STL11_OKToMemCpyIccE4_RetEv
	.hidden	_ZN4_STL11_OKToMemCpyIccE4_RetEv
	.type	_ZN4_STL11_OKToMemCpyIccE4_RetEv, %function
_ZN4_STL11_OKToMemCpyIccE4_RetEv:
.LFB3463:
	.loc 17 361 0
	.cfi_startproc
	@ args = 0, pretend = 0, frame = 0
	@ frame_needed = 0, uses_anonymous_args = 0
	@ link register save eliminated.
	.loc 17 361 0
	mov	r0, r3
	bx	lr
	.cfi_endproc
.LFE3463:
	.size	_ZN4_STL11_OKToMemCpyIccE4_RetEv, .-_ZN4_STL11_OKToMemCpyIccE4_RetEv
	.section	.text._ZN4_STL11__copy_ptrsIPcS1_EET0_T_S3_S2_RKNS_11__true_typeE,"axG",%progbits,_ZN4_STL11__copy_ptrsIPcS1_EET0_T_S3_S2_RKNS_11__true_typeE,comdat
	.align	2
	.weak	_ZN4_STL11__copy_ptrsIPcS1_EET0_T_S3_S2_RKNS_11__true_typeE
	.hidden	_ZN4_STL11__copy_ptrsIPcS1_EET0_T_S3_S2_RKNS_11__true_typeE
	.type	_ZN4_STL11__copy_ptrsIPcS1_EET0_T_S3_S2_RKNS_11__true_typeE, %function
_ZN4_STL11__copy_ptrsIPcS1_EET0_T_S3_S2_RKNS_11__true_typeE:
.LFB3464:
	.loc 7 194 0
	.cfi_startproc
	@ args = 0, pretend = 0, frame = 16
	@ frame_needed = 0, uses_anonymous_args = 0
	str	lr, [sp, #-4]!
.LCFI145:
	.cfi_def_cfa_offset 4
	sub	sp, sp, #20
.LCFI146:
	.cfi_def_cfa_offset 24
	str	r0, [sp, #12]
	str	r1, [sp, #8]
	str	r2, [sp, #4]
	str	r3, [sp, #0]
	.loc 7 197 0
	ldr	r0, [sp, #12]
	ldr	r1, [sp, #8]
	ldr	r2, [sp, #4]
	.cfi_offset 14, -4
	bl	_ZN4_STL14__copy_trivialEPKvS1_Pv
	mov	r3, r0
	.loc 7 198 0
	mov	r0, r3
	add	sp, sp, #20
	ldmfd	sp!, {pc}
	.cfi_endproc
.LFE3464:
	.size	_ZN4_STL11__copy_ptrsIPcS1_EET0_T_S3_S2_RKNS_11__true_typeE, .-_ZN4_STL11__copy_ptrsIPcS1_EET0_T_S3_S2_RKNS_11__true_typeE
	.section	.text._ZN15CIwMallocRouterIP6ButtonE9DoReallocEPvj,"axG",%progbits,_ZN15CIwMallocRouterIP6ButtonE9DoReallocEPvj,comdat
	.align	2
	.weak	_ZN15CIwMallocRouterIP6ButtonE9DoReallocEPvj
	.hidden	_ZN15CIwMallocRouterIP6ButtonE9DoReallocEPvj
	.type	_ZN15CIwMallocRouterIP6ButtonE9DoReallocEPvj, %function
_ZN15CIwMallocRouterIP6ButtonE9DoReallocEPvj:
.LFB3466:
	.loc 15 97 0
	.cfi_startproc
	@ args = 0, pretend = 0, frame = 8
	@ frame_needed = 0, uses_anonymous_args = 0
	str	lr, [sp, #-4]!
.LCFI147:
	.cfi_def_cfa_offset 4
	sub	sp, sp, #12
.LCFI148:
	.cfi_def_cfa_offset 16
	str	r0, [sp, #4]
	str	r1, [sp, #0]
	.loc 15 99 0
	ldr	r0, [sp, #4]
	ldr	r1, [sp, #0]
	mov	r2, #4
	.cfi_offset 14, -4
	bl	_ZN22CIwDefaultMallocRouter11BaseReallocEPvjj
	mov	r3, r0
	.loc 15 100 0
	mov	r0, r3
	add	sp, sp, #12
	ldmfd	sp!, {pc}
	.cfi_endproc
.LFE3466:
	.size	_ZN15CIwMallocRouterIP6ButtonE9DoReallocEPvj, .-_ZN15CIwMallocRouterIP6ButtonE9DoReallocEPvj
	.section	.text._Z41__static_initialization_and_destruction_0ii,"ax",%progbits
	.align	2
	.type	_Z41__static_initialization_and_destruction_0ii, %function
_Z41__static_initialization_and_destruction_0ii:
.LFB3469:
	.loc 10 135 0
	.cfi_startproc
	@ args = 0, pretend = 0, frame = 8
	@ frame_needed = 0, uses_anonymous_args = 0
	str	lr, [sp, #-4]!
.LCFI149:
	.cfi_def_cfa_offset 4
	sub	sp, sp, #12
.LCFI150:
	.cfi_def_cfa_offset 16
	str	r0, [sp, #4]
	str	r1, [sp, #0]
	.loc 10 135 0
	ldr	r3, [sp, #4]
	cmp	r3, #1
	bne	.L390
	.cfi_offset 14, -4
	ldr	r2, [sp, #0]
	ldr	r3, .L391
	cmp	r2, r3
	bne	.L390
	.file 18 "c:/marmalade/6.2/s3e/h/std/c++/iostream"
	.loc 18 69 0
	ldr	r0, .L391+4
	bl	_ZN4_STL8ios_base9_Loc_initC1Ev
	ldr	r3, .L391+8
	ldr	r0, .L391+4
	mov	r1, r3
	ldr	r2, .L391+12
	bl	__aeabi_atexit
	.loc 18 75 0
	ldr	r0, .L391+16
	bl	_ZN4_STL8ios_base4InitC1Ev
	ldr	r3, .L391+20
	ldr	r0, .L391+16
	mov	r1, r3
	ldr	r2, .L391+12
	bl	__aeabi_atexit
.L390:
	.loc 10 135 0
	add	sp, sp, #12
	ldmfd	sp!, {pc}
.L392:
	.align	2
.L391:
	.word	65535
	.word	_ZN4_STLL8_LocInitE
	.word	_ZN4_STL8ios_base9_Loc_initD1Ev
	.word	__dso_handle
	.word	_ZN4_STLL8_IosInitE
	.word	_ZN4_STL8ios_base4InitD1Ev
	.cfi_endproc
.LFE3469:
	.size	_Z41__static_initialization_and_destruction_0ii, .-_Z41__static_initialization_and_destruction_0ii
	.section	.text._GLOBAL__I__ZN2UI4LoadEv,"ax",%progbits
	.align	2
	.type	_GLOBAL__I__ZN2UI4LoadEv, %function
_GLOBAL__I__ZN2UI4LoadEv:
.LFB3550:
	.loc 10 135 0
	.cfi_startproc
	@ args = 0, pretend = 0, frame = 0
	@ frame_needed = 0, uses_anonymous_args = 0
	stmfd	sp!, {r3, lr}
.LCFI151:
	.cfi_def_cfa_offset 8
	.loc 10 135 0
	mov	r0, #1
	ldr	r1, .L395
	.cfi_offset 14, -4
	.cfi_offset 3, -8
	bl	_Z41__static_initialization_and_destruction_0ii
	ldmfd	sp!, {r3, pc}
.L396:
	.align	2
.L395:
	.word	65535
	.cfi_endproc
.LFE3550:
	.size	_GLOBAL__I__ZN2UI4LoadEv, .-_GLOBAL__I__ZN2UI4LoadEv
	.section	.init_array,"aw",%init_array
	.align	2
	.word	_GLOBAL__I__ZN2UI4LoadEv(target1)
	.hidden	_ZZN8CIwArrayIP6Button12CIwAllocatorIS1_15CIwMallocRouterIS1_EE17ReallocateDefaultIS1_S5_EE8truncateEjE21_s_IwAssertIgnoreThis
	.weak	_ZZN8CIwArrayIP6Button12CIwAllocatorIS1_15CIwMallocRouterIS1_EE17ReallocateDefaultIS1_S5_EE8truncateEjE21_s_IwAssertIgnoreThis
	.section	.bss._ZZN8CIwArrayIP6Button12CIwAllocatorIS1_15CIwMallocRouterIS1_EE17ReallocateDefaultIS1_S5_EE8truncateEjE21_s_IwAssertIgnoreThis,"awG",%nobits,_ZZN8CIwArrayIP6Button12CIwAllocatorIS1_15CIwMallocRouterIS1_EE17ReallocateDefaultIS1_S5_EE8truncateEjE21_s_IwAssertIgnoreThis,comdat
	.type	_ZZN8CIwArrayIP6Button12CIwAllocatorIS1_15CIwMallocRouterIS1_EE17ReallocateDefaultIS1_S5_EE8truncateEjE21_s_IwAssertIgnoreThis, %object
	.size	_ZZN8CIwArrayIP6Button12CIwAllocatorIS1_15CIwMallocRouterIS1_EE17ReallocateDefaultIS1_S5_EE8truncateEjE21_s_IwAssertIgnoreThis, 1
_ZZN8CIwArrayIP6Button12CIwAllocatorIS1_15CIwMallocRouterIS1_EE17ReallocateDefaultIS1_S5_EE8truncateEjE21_s_IwAssertIgnoreThis:
	.space	1
	.hidden	_ZZN8CIwArrayIP6Button12CIwAllocatorIS1_15CIwMallocRouterIS1_EE17ReallocateDefaultIS1_S5_EE13push_back_qtyEiE21_s_IwAssertIgnoreThis
	.weak	_ZZN8CIwArrayIP6Button12CIwAllocatorIS1_15CIwMallocRouterIS1_EE17ReallocateDefaultIS1_S5_EE13push_back_qtyEiE21_s_IwAssertIgnoreThis
	.section	.bss._ZZN8CIwArrayIP6Button12CIwAllocatorIS1_15CIwMallocRouterIS1_EE17ReallocateDefaultIS1_S5_EE13push_back_qtyEiE21_s_IwAssertIgnoreThis,"awG",%nobits,_ZZN8CIwArrayIP6Button12CIwAllocatorIS1_15CIwMallocRouterIS1_EE17ReallocateDefaultIS1_S5_EE13push_back_qtyEiE21_s_IwAssertIgnoreThis,comdat
	.type	_ZZN8CIwArrayIP6Button12CIwAllocatorIS1_15CIwMallocRouterIS1_EE17ReallocateDefaultIS1_S5_EE13push_back_qtyEiE21_s_IwAssertIgnoreThis, %object
	.size	_ZZN8CIwArrayIP6Button12CIwAllocatorIS1_15CIwMallocRouterIS1_EE17ReallocateDefaultIS1_S5_EE13push_back_qtyEiE21_s_IwAssertIgnoreThis, 1
_ZZN8CIwArrayIP6Button12CIwAllocatorIS1_15CIwMallocRouterIS1_EE17ReallocateDefaultIS1_S5_EE13push_back_qtyEiE21_s_IwAssertIgnoreThis:
	.space	1
	.hidden	_ZZN8CIwArrayIP6Button12CIwAllocatorIS1_15CIwMallocRouterIS1_EE17ReallocateDefaultIS1_S5_EE12set_capacityEjE21_s_IwAssertIgnoreThis
	.weak	_ZZN8CIwArrayIP6Button12CIwAllocatorIS1_15CIwMallocRouterIS1_EE17ReallocateDefaultIS1_S5_EE12set_capacityEjE21_s_IwAssertIgnoreThis
	.section	.bss._ZZN8CIwArrayIP6Button12CIwAllocatorIS1_15CIwMallocRouterIS1_EE17ReallocateDefaultIS1_S5_EE12set_capacityEjE21_s_IwAssertIgnoreThis,"awG",%nobits,_ZZN8CIwArrayIP6Button12CIwAllocatorIS1_15CIwMallocRouterIS1_EE17ReallocateDefaultIS1_S5_EE12set_capacityEjE21_s_IwAssertIgnoreThis,comdat
	.type	_ZZN8CIwArrayIP6Button12CIwAllocatorIS1_15CIwMallocRouterIS1_EE17ReallocateDefaultIS1_S5_EE12set_capacityEjE21_s_IwAssertIgnoreThis, %object
	.size	_ZZN8CIwArrayIP6Button12CIwAllocatorIS1_15CIwMallocRouterIS1_EE17ReallocateDefaultIS1_S5_EE12set_capacityEjE21_s_IwAssertIgnoreThis, 1
_ZZN8CIwArrayIP6Button12CIwAllocatorIS1_15CIwMallocRouterIS1_EE17ReallocateDefaultIS1_S5_EE12set_capacityEjE21_s_IwAssertIgnoreThis:
	.space	1
	.hidden	_ZZN8CIwArrayIP6Button12CIwAllocatorIS1_15CIwMallocRouterIS1_EE17ReallocateDefaultIS1_S5_EE12set_capacityEjE21_s_IwAssertIgnoreThis_0
	.weak	_ZZN8CIwArrayIP6Button12CIwAllocatorIS1_15CIwMallocRouterIS1_EE17ReallocateDefaultIS1_S5_EE12set_capacityEjE21_s_IwAssertIgnoreThis_0
	.section	.bss._ZZN8CIwArrayIP6Button12CIwAllocatorIS1_15CIwMallocRouterIS1_EE17ReallocateDefaultIS1_S5_EE12set_capacityEjE21_s_IwAssertIgnoreThis_0,"awG",%nobits,_ZZN8CIwArrayIP6Button12CIwAllocatorIS1_15CIwMallocRouterIS1_EE17ReallocateDefaultIS1_S5_EE12set_capacityEjE21_s_IwAssertIgnoreThis_0,comdat
	.type	_ZZN8CIwArrayIP6Button12CIwAllocatorIS1_15CIwMallocRouterIS1_EE17ReallocateDefaultIS1_S5_EE12set_capacityEjE21_s_IwAssertIgnoreThis_0, %object
	.size	_ZZN8CIwArrayIP6Button12CIwAllocatorIS1_15CIwMallocRouterIS1_EE17ReallocateDefaultIS1_S5_EE12set_capacityEjE21_s_IwAssertIgnoreThis_0, 1
_ZZN8CIwArrayIP6Button12CIwAllocatorIS1_15CIwMallocRouterIS1_EE17ReallocateDefaultIS1_S5_EE12set_capacityEjE21_s_IwAssertIgnoreThis_0:
	.space	1
	.hidden	_ZZN8CIwArrayIP6Button12CIwAllocatorIS1_15CIwMallocRouterIS1_EE17ReallocateDefaultIS1_S5_EE12set_capacityEjE21_s_IwAssertIgnoreThis_1
	.weak	_ZZN8CIwArrayIP6Button12CIwAllocatorIS1_15CIwMallocRouterIS1_EE17ReallocateDefaultIS1_S5_EE12set_capacityEjE21_s_IwAssertIgnoreThis_1
	.section	.bss._ZZN8CIwArrayIP6Button12CIwAllocatorIS1_15CIwMallocRouterIS1_EE17ReallocateDefaultIS1_S5_EE12set_capacityEjE21_s_IwAssertIgnoreThis_1,"awG",%nobits,_ZZN8CIwArrayIP6Button12CIwAllocatorIS1_15CIwMallocRouterIS1_EE17ReallocateDefaultIS1_S5_EE12set_capacityEjE21_s_IwAssertIgnoreThis_1,comdat
	.type	_ZZN8CIwArrayIP6Button12CIwAllocatorIS1_15CIwMallocRouterIS1_EE17ReallocateDefaultIS1_S5_EE12set_capacityEjE21_s_IwAssertIgnoreThis_1, %object
	.size	_ZZN8CIwArrayIP6Button12CIwAllocatorIS1_15CIwMallocRouterIS1_EE17ReallocateDefaultIS1_S5_EE12set_capacityEjE21_s_IwAssertIgnoreThis_1, 1
_ZZN8CIwArrayIP6Button12CIwAllocatorIS1_15CIwMallocRouterIS1_EE17ReallocateDefaultIS1_S5_EE12set_capacityEjE21_s_IwAssertIgnoreThis_1:
	.space	1
	.hidden	_ZZN8CIwArrayIP10CIw2DImage12CIwAllocatorIS1_15CIwMallocRouterIS1_EE17ReallocateDefaultIS1_S5_EE8truncateEjE21_s_IwAssertIgnoreThis
	.weak	_ZZN8CIwArrayIP10CIw2DImage12CIwAllocatorIS1_15CIwMallocRouterIS1_EE17ReallocateDefaultIS1_S5_EE8truncateEjE21_s_IwAssertIgnoreThis
	.section	.bss._ZZN8CIwArrayIP10CIw2DImage12CIwAllocatorIS1_15CIwMallocRouterIS1_EE17ReallocateDefaultIS1_S5_EE8truncateEjE21_s_IwAssertIgnoreThis,"awG",%nobits,_ZZN8CIwArrayIP10CIw2DImage12CIwAllocatorIS1_15CIwMallocRouterIS1_EE17ReallocateDefaultIS1_S5_EE8truncateEjE21_s_IwAssertIgnoreThis,comdat
	.type	_ZZN8CIwArrayIP10CIw2DImage12CIwAllocatorIS1_15CIwMallocRouterIS1_EE17ReallocateDefaultIS1_S5_EE8truncateEjE21_s_IwAssertIgnoreThis, %object
	.size	_ZZN8CIwArrayIP10CIw2DImage12CIwAllocatorIS1_15CIwMallocRouterIS1_EE17ReallocateDefaultIS1_S5_EE8truncateEjE21_s_IwAssertIgnoreThis, 1
_ZZN8CIwArrayIP10CIw2DImage12CIwAllocatorIS1_15CIwMallocRouterIS1_EE17ReallocateDefaultIS1_S5_EE8truncateEjE21_s_IwAssertIgnoreThis:
	.space	1
	.hidden	_ZZN8CIwArrayIP10CIw2DImage12CIwAllocatorIS1_15CIwMallocRouterIS1_EE17ReallocateDefaultIS1_S5_EE13push_back_qtyEiE21_s_IwAssertIgnoreThis
	.weak	_ZZN8CIwArrayIP10CIw2DImage12CIwAllocatorIS1_15CIwMallocRouterIS1_EE17ReallocateDefaultIS1_S5_EE13push_back_qtyEiE21_s_IwAssertIgnoreThis
	.section	.bss._ZZN8CIwArrayIP10CIw2DImage12CIwAllocatorIS1_15CIwMallocRouterIS1_EE17ReallocateDefaultIS1_S5_EE13push_back_qtyEiE21_s_IwAssertIgnoreThis,"awG",%nobits,_ZZN8CIwArrayIP10CIw2DImage12CIwAllocatorIS1_15CIwMallocRouterIS1_EE17ReallocateDefaultIS1_S5_EE13push_back_qtyEiE21_s_IwAssertIgnoreThis,comdat
	.type	_ZZN8CIwArrayIP10CIw2DImage12CIwAllocatorIS1_15CIwMallocRouterIS1_EE17ReallocateDefaultIS1_S5_EE13push_back_qtyEiE21_s_IwAssertIgnoreThis, %object
	.size	_ZZN8CIwArrayIP10CIw2DImage12CIwAllocatorIS1_15CIwMallocRouterIS1_EE17ReallocateDefaultIS1_S5_EE13push_back_qtyEiE21_s_IwAssertIgnoreThis, 1
_ZZN8CIwArrayIP10CIw2DImage12CIwAllocatorIS1_15CIwMallocRouterIS1_EE17ReallocateDefaultIS1_S5_EE13push_back_qtyEiE21_s_IwAssertIgnoreThis:
	.space	1
	.hidden	_ZZN8CIwArrayIP10CIw2DImage12CIwAllocatorIS1_15CIwMallocRouterIS1_EE17ReallocateDefaultIS1_S5_EE12set_capacityEjE21_s_IwAssertIgnoreThis
	.weak	_ZZN8CIwArrayIP10CIw2DImage12CIwAllocatorIS1_15CIwMallocRouterIS1_EE17ReallocateDefaultIS1_S5_EE12set_capacityEjE21_s_IwAssertIgnoreThis
	.section	.bss._ZZN8CIwArrayIP10CIw2DImage12CIwAllocatorIS1_15CIwMallocRouterIS1_EE17ReallocateDefaultIS1_S5_EE12set_capacityEjE21_s_IwAssertIgnoreThis,"awG",%nobits,_ZZN8CIwArrayIP10CIw2DImage12CIwAllocatorIS1_15CIwMallocRouterIS1_EE17ReallocateDefaultIS1_S5_EE12set_capacityEjE21_s_IwAssertIgnoreThis,comdat
	.type	_ZZN8CIwArrayIP10CIw2DImage12CIwAllocatorIS1_15CIwMallocRouterIS1_EE17ReallocateDefaultIS1_S5_EE12set_capacityEjE21_s_IwAssertIgnoreThis, %object
	.size	_ZZN8CIwArrayIP10CIw2DImage12CIwAllocatorIS1_15CIwMallocRouterIS1_EE17ReallocateDefaultIS1_S5_EE12set_capacityEjE21_s_IwAssertIgnoreThis, 1
_ZZN8CIwArrayIP10CIw2DImage12CIwAllocatorIS1_15CIwMallocRouterIS1_EE17ReallocateDefaultIS1_S5_EE12set_capacityEjE21_s_IwAssertIgnoreThis:
	.space	1
	.hidden	_ZZN8CIwArrayIP10CIw2DImage12CIwAllocatorIS1_15CIwMallocRouterIS1_EE17ReallocateDefaultIS1_S5_EE12set_capacityEjE21_s_IwAssertIgnoreThis_0
	.weak	_ZZN8CIwArrayIP10CIw2DImage12CIwAllocatorIS1_15CIwMallocRouterIS1_EE17ReallocateDefaultIS1_S5_EE12set_capacityEjE21_s_IwAssertIgnoreThis_0
	.section	.bss._ZZN8CIwArrayIP10CIw2DImage12CIwAllocatorIS1_15CIwMallocRouterIS1_EE17ReallocateDefaultIS1_S5_EE12set_capacityEjE21_s_IwAssertIgnoreThis_0,"awG",%nobits,_ZZN8CIwArrayIP10CIw2DImage12CIwAllocatorIS1_15CIwMallocRouterIS1_EE17ReallocateDefaultIS1_S5_EE12set_capacityEjE21_s_IwAssertIgnoreThis_0,comdat
	.type	_ZZN8CIwArrayIP10CIw2DImage12CIwAllocatorIS1_15CIwMallocRouterIS1_EE17ReallocateDefaultIS1_S5_EE12set_capacityEjE21_s_IwAssertIgnoreThis_0, %object
	.size	_ZZN8CIwArrayIP10CIw2DImage12CIwAllocatorIS1_15CIwMallocRouterIS1_EE17ReallocateDefaultIS1_S5_EE12set_capacityEjE21_s_IwAssertIgnoreThis_0, 1
_ZZN8CIwArrayIP10CIw2DImage12CIwAllocatorIS1_15CIwMallocRouterIS1_EE17ReallocateDefaultIS1_S5_EE12set_capacityEjE21_s_IwAssertIgnoreThis_0:
	.space	1
	.hidden	_ZZN8CIwArrayIP10CIw2DImage12CIwAllocatorIS1_15CIwMallocRouterIS1_EE17ReallocateDefaultIS1_S5_EE12set_capacityEjE21_s_IwAssertIgnoreThis_1
	.weak	_ZZN8CIwArrayIP10CIw2DImage12CIwAllocatorIS1_15CIwMallocRouterIS1_EE17ReallocateDefaultIS1_S5_EE12set_capacityEjE21_s_IwAssertIgnoreThis_1
	.section	.bss._ZZN8CIwArrayIP10CIw2DImage12CIwAllocatorIS1_15CIwMallocRouterIS1_EE17ReallocateDefaultIS1_S5_EE12set_capacityEjE21_s_IwAssertIgnoreThis_1,"awG",%nobits,_ZZN8CIwArrayIP10CIw2DImage12CIwAllocatorIS1_15CIwMallocRouterIS1_EE17ReallocateDefaultIS1_S5_EE12set_capacityEjE21_s_IwAssertIgnoreThis_1,comdat
	.type	_ZZN8CIwArrayIP10CIw2DImage12CIwAllocatorIS1_15CIwMallocRouterIS1_EE17ReallocateDefaultIS1_S5_EE12set_capacityEjE21_s_IwAssertIgnoreThis_1, %object
	.size	_ZZN8CIwArrayIP10CIw2DImage12CIwAllocatorIS1_15CIwMallocRouterIS1_EE17ReallocateDefaultIS1_S5_EE12set_capacityEjE21_s_IwAssertIgnoreThis_1, 1
_ZZN8CIwArrayIP10CIw2DImage12CIwAllocatorIS1_15CIwMallocRouterIS1_EE17ReallocateDefaultIS1_S5_EE12set_capacityEjE21_s_IwAssertIgnoreThis_1:
	.space	1
	.hidden	_ZZN8CIwArrayIP6Button12CIwAllocatorIS1_15CIwMallocRouterIS1_EE17ReallocateDefaultIS1_S5_EE9push_backERKS1_E21_s_IwAssertIgnoreThis
	.weak	_ZZN8CIwArrayIP6Button12CIwAllocatorIS1_15CIwMallocRouterIS1_EE17ReallocateDefaultIS1_S5_EE9push_backERKS1_E21_s_IwAssertIgnoreThis
	.section	.bss._ZZN8CIwArrayIP6Button12CIwAllocatorIS1_15CIwMallocRouterIS1_EE17ReallocateDefaultIS1_S5_EE9push_backERKS1_E21_s_IwAssertIgnoreThis,"awG",%nobits,_ZZN8CIwArrayIP6Button12CIwAllocatorIS1_15CIwMallocRouterIS1_EE17ReallocateDefaultIS1_S5_EE9push_backERKS1_E21_s_IwAssertIgnoreThis,comdat
	.type	_ZZN8CIwArrayIP6Button12CIwAllocatorIS1_15CIwMallocRouterIS1_EE17ReallocateDefaultIS1_S5_EE9push_backERKS1_E21_s_IwAssertIgnoreThis, %object
	.size	_ZZN8CIwArrayIP6Button12CIwAllocatorIS1_15CIwMallocRouterIS1_EE17ReallocateDefaultIS1_S5_EE9push_backERKS1_E21_s_IwAssertIgnoreThis, 1
_ZZN8CIwArrayIP6Button12CIwAllocatorIS1_15CIwMallocRouterIS1_EE17ReallocateDefaultIS1_S5_EE9push_backERKS1_E21_s_IwAssertIgnoreThis:
	.space	1
	.hidden	_ZZN8CIwArrayIP6Button12CIwAllocatorIS1_15CIwMallocRouterIS1_EE17ReallocateDefaultIS1_S5_EE9push_backERKS1_E21_s_IwAssertIgnoreThis_0
	.weak	_ZZN8CIwArrayIP6Button12CIwAllocatorIS1_15CIwMallocRouterIS1_EE17ReallocateDefaultIS1_S5_EE9push_backERKS1_E21_s_IwAssertIgnoreThis_0
	.section	.bss._ZZN8CIwArrayIP6Button12CIwAllocatorIS1_15CIwMallocRouterIS1_EE17ReallocateDefaultIS1_S5_EE9push_backERKS1_E21_s_IwAssertIgnoreThis_0,"awG",%nobits,_ZZN8CIwArrayIP6Button12CIwAllocatorIS1_15CIwMallocRouterIS1_EE17ReallocateDefaultIS1_S5_EE9push_backERKS1_E21_s_IwAssertIgnoreThis_0,comdat
	.type	_ZZN8CIwArrayIP6Button12CIwAllocatorIS1_15CIwMallocRouterIS1_EE17ReallocateDefaultIS1_S5_EE9push_backERKS1_E21_s_IwAssertIgnoreThis_0, %object
	.size	_ZZN8CIwArrayIP6Button12CIwAllocatorIS1_15CIwMallocRouterIS1_EE17ReallocateDefaultIS1_S5_EE9push_backERKS1_E21_s_IwAssertIgnoreThis_0, 1
_ZZN8CIwArrayIP6Button12CIwAllocatorIS1_15CIwMallocRouterIS1_EE17ReallocateDefaultIS1_S5_EE9push_backERKS1_E21_s_IwAssertIgnoreThis_0:
	.space	1
	.text
.Letext0: