((dp0
S'arm_dbg_args'
p1
S'-via:"c:\\Users\\1106786\\Dropbox\\Dropbox\\PG life\\Project Impact\\Code\\Demos\\Demo_3_ResMan_Audio_LoadTile\\build_demo_3_resman_audio_loadtile_vc10\\Demo_3_ResMan_Audio_LoadTile_vc10_arm_debug.via" -qemu'
p2
sS'game-icf'
p3
S''
p4
sS'dist'
p5
NsS'module_path_append'
p6
NsS'global_path'
p7
S'c:\\users\\1106786\\dropbox\\dropbox\\pg life\\project impact\\code\\demos'
p8
sS'system_path'
p9
S'c:\\marmalade\\6.2\\s3e\\makefile_builder'
p10
sS'use_prebuilt'
p11
NsS'arm_rel_rtsm_args'
p12
S'-via:"c:\\Users\\1106786\\Dropbox\\Dropbox\\PG life\\Project Impact\\Code\\Demos\\Demo_3_ResMan_Audio_LoadTile\\build_demo_3_resman_audio_loadtile_vc10\\Demo_3_ResMan_Audio_LoadTile_vc10_arm_release.via" -qemu'
p13
sS'amd64'
p14
NsS'line-width'
p15
I80
sS'gcc_dbg_args'
p16
S'-via:"c:\\Users\\1106786\\Dropbox\\Dropbox\\PG life\\Project Impact\\Code\\Demos\\Demo_3_ResMan_Audio_LoadTile\\build_demo_3_resman_audio_loadtile_vc10\\Demo_3_ResMan_Audio_LoadTile_vc10_gcc_debug.via" -qemu'
p17
sS'x86_dbg_exe'
p18
S'c:/marmalade/6.2/s3e\\win32\\s3e_simulator_debug.exe'
p19
sS'disable-runtime-checks'
p20
NsS'release'
p21
NsS'no-make'
p22
NsS'optimise-size'
p23
NsS'output-name-debug'
p24
g4
sS'arm-fpu'
p25
S'vfp'
p26
sS'psp'
p27
NsS'proj_name'
p28
S'Demo_3_ResMan_Audio_LoadTile_vc10'
p29
sS'rvct-version'
p30
S'none'
p31
sS'compiler'
p32
g4
sS'execute'
p33
NsS'compile-static'
p34
NsS'msvc-project'
p35
I01
sS'buildenv'
p36
g4
sS'debug'
p37
NsS'module_path'
p38
NsS'use-release-std-libs'
p39
NsS'using_perforce'
p40
I00
sS'mips-s3e'
p41
NsS'shared-arm-lib'
p42
NsS'arm-cpu'
p43
g4
sS'compile-thumb'
p44
NsS'no-ide'
p45
NsS'msvc-version'
p46
S'6.0'
p47
sS'arm'
p48
NsS'builddir'
p49
g4
sS'compile-debug-as-release'
p50
I0
sS'brief'
p51
NsS'dll'
p52
NsS'buildenv-toolset'
p53
g4
sS'version'
p54
NsS'ccache'
p55
I0
sS'offline'
p56
NsS'ios-version'
p57
g4
sS'jobs'
p58
I0
sS'linkflags'
p59
NsS'quick'
p60
NsS'gcc_rel_rtsm_args'
p61
S'-via:"c:\\Users\\1106786\\Dropbox\\Dropbox\\PG life\\Project Impact\\Code\\Demos\\Demo_3_ResMan_Audio_LoadTile\\build_demo_3_resman_audio_loadtile_vc10\\Demo_3_ResMan_Audio_LoadTile_vc10_gcc_release.via" -qemu'
p62
sS'done_defaults'
p63
I1
sS'path'
p64
NsS's3e-data-dir'
p65
S'c:/Users/1106786/Dropbox/Dropbox/PG life/Project Impact/Code/Demos/Demo_3_ResMan_Audio_LoadTile\\data'
p66
sS'enable-exceptions'
p67
NsS'osx-dll'
p68
NsS'extension'
p69
g4
sS'no-vc6'
p70
NsS'non-interactive'
p71
NsS'win32-console'
p72
NsS'nds'
p73
NsS'dist-format'
p74
g4
sS's3e-force-arch'
p75
NsS'dump_defines'
p76
NsS'verbose'
p77
I0
sS'psp-minis'
p78
NsS'gcc-version'
p79
g4
sS'x86_dbg_args'
p80
S'-via:"c:\\Users\\1106786\\Dropbox\\Dropbox\\PG life\\Project Impact\\Code\\Demos\\Demo_3_ResMan_Audio_LoadTile\\build_demo_3_resman_audio_loadtile_vc10\\Demo_3_ResMan_Audio_LoadTile_vc10_debug.via"'
p81
sS'arm-debugger'
p82
g4
sS'use_temp_extension'
p83
NsS'log'
p84
NsS'no-strip'
p85
NsS'rebuild'
p86
NsS'win32-simulator-dll'
p87
NsS'strict'
p88
I0
sS'mips_dbg_args'
p89
S'../../tools/DeployTool/DeployTool.exe --dir "c:\\Users\\1106786\\Dropbox\\Dropbox\\PG life\\Project Impact\\Code\\Demos\\Demo_3_ResMan_Audio_LoadTile\\build_demo_3_resman_audio_loadtile_vc10"'
p90
sS'enable-global-path'
p91
NsS'iphone'
p92
NsS'cflags'
p93
NsS'dist-dir'
p94
g4
sS'jflags'
p95
NsS'distcc'
p96
NsS'external-compiler'
p97
NsS'no-distcc'
p98
NsS'preinclude'
p99
NsS'using_sdk'
p100
I01
sS'nologo'
p101
NsS'warn-level'
p102
I2
sS'mips_dbg_exe'
p103
S'c:\\marmalade\\6.2\\s3e\\makefile_builder\\tool_launcher.exe'
p104
sS'mkb_in'
p105
S'c:/Users/1106786/Dropbox/Dropbox/PG life/Project Impact/Code/Demos/Demo_3_ResMan_Audio_LoadTile/Demo_3_ResMan_Audio_LoadTile.mkb'
p106
sS'arm_dbg_exe'
p107
S'c:/marmalade/6.2/s3e\\bin\\armdebug.exe'
p108
sS'list-targets'
p109
NsS'arm_rel_exe'
p110
g104
sS'arm_rel_args'
p111
g90
sS'makedeps'
p112
NsS'default-buildenv'
p113
S'vc10'
p114
sS'x86_rel_exe'
p115
g19
sS'preprocess-java'
p116
NsS'mips_rel_args'
p117
g90
sS'defines'
p118
NsS'lib'
p119
NsS'global_argv'
p120
(lp121
S'C:\\Marmalade\\6.2\\s3e\\makefile_builder\\mkb.py'
p122
aS'c:/Users/1106786/Dropbox/Dropbox/PG life/Project Impact/Code/Demos/Demo_3_ResMan_Audio_LoadTile/Demo_3_ResMan_Audio_LoadTile.mkb'
p123
aS'--default-buildenv=vc10'
p124
aS'--msvc-project'
p125
asS'make'
p126
NsS'optimise-speed'
p127
NsS'internal'
p128
NsS'enable-stdinc'
p129
NsS'deploy-only'
p130
NsS'x86'
p131
NsS'deploy'
p132
g4
sS'x86_run_exe'
p133
S'c:/marmalade/6.2/s3e\\win32\\s3e_console.exe'
p134
sS'x86_rel_args'
p135
S'-via:"c:\\Users\\1106786\\Dropbox\\Dropbox\\PG life\\Project Impact\\Code\\Demos\\Demo_3_ResMan_Audio_LoadTile\\build_demo_3_resman_audio_loadtile_vc10\\Demo_3_ResMan_Audio_LoadTile_vc10_release.via"'
p136
sS'gcc_rel_args'
p137
g90
sS'mips'
p138
NsS'incredibuild'
p139
NsS'strict-compile'
p140
I0
sS'use-auto-subdirs'
p141
NsS'mips_rel_exe'
p142
g104
sS'app-icf'
p143
g4
sS'deployargs'
p144
NsS'mkf_in'
p145
(lp146
S'c:\\marmalade\\6.2\\modules\\iw2d\\iw2d.mkf'
p147
aS'c:\\marmalade\\6.2\\modules\\iwgx\\iwgx.mkf'
p148
aS'c:\\marmalade\\6.2\\modules\\iwgeom\\iwgeom.mkf'
p149
aS'c:\\marmalade\\6.2\\modules\\iwutil\\iwutil.mkf'
p150
aVc:\u005cusers\u005c1106786\u005cappdata\u005croaming\u005cmarmalade\u005cpackages\u005c6.2.2\u005clibjpeg_6b\u005clibjpeg.mkf
p151
aVc:\u005cusers\u005c1106786\u005cappdata\u005croaming\u005cmarmalade\u005cpackages\u005c6.2.2\u005clibpng_1.2.34\u005clibpng.mkf
p152
aVc:\u005cusers\u005c1106786\u005cappdata\u005croaming\u005cmarmalade\u005cpackages\u005c6.2.2\u005czlib_1.2.4\u005czlib.mkf
p153
aS'c:\\marmalade\\6.2\\modules\\iwresmanager\\iwresmanager.mkf'
p154
aS'c:\\marmalade\\6.2\\modules\\iwgl\\iwgl.mkf'
p155
aS'c:\\marmalade\\6.2\\modules\\iwgxfont\\iwgxfont.mkf'
p156
aVc:\u005cusers\u005c1106786\u005cappdata\u005croaming\u005cmarmalade\u005cpackages\u005c6.2.2\u005ctiniconv_1.0.1\u005ctiniconv.mkf
p157
aS'c:\\users\\1106786\\dropbox\\dropbox\\pg life\\project impact\\code\\demos\\demo_3_resman_audio_loadtile\\demo_3_resman_audio_loadtile.mkf'
p158
aS'c:\\users\\1106786\\dropbox\\dropbox\\pg life\\project impact\\code\\demos\\demo_3_resman_audio_loadtile\\libs\\cjson-for-marmalade\\cjson.mkf'
p159
asS'strict-mkb'
p160
I0
sS'executeargs'
p161
NsS'clean'
p162
NsS'no-asm'
p163
NsS'output-name'
p164
g4
sS'no-modules'
p165
NsS'find_define'
p166
g4
s(dp167
S'c:\\marmalade\\6.2\\s3e\\makefile_builder\\templates\\xcode_pbxuser.py'
p168
F1365595058.0
sS'c:\\marmalade\\6.2\\s3e\\makefile_builder\\templates'
p169
F1378901971.8745732
sS'c:\\marmalade\\6.2\\s3e\\makefile_builder\\plugins\\null.pyc'
p170
F1365605816.0
sS'c:\\marmalade\\6.2\\s3e\\makefile_builder\\plugins\\XcodeEmitter.pyc'
p171
F1380286836.0994766
sS'c:\\marmalade\\6.2\\s3e\\makefile_builder\\plugins'
p172
F1380286836.2464912
sS'c:\\marmalade\\6.2\\s3e\\makefile_builder\\extensions'
p173
F1378901971.8765736
sS'c:\\marmalade\\6.2\\s3e\\makefile_builder\\templates\\vc6_opt.pyc'
p174
F1365605816.0
sS'c:\\marmalade\\6.2\\s3e\\makefile_builder\\templates\\win32_vcxproj_filters.pyc'
p175
F1365605816.0
sS'c:\\marmalade\\6.2\\s3e\\makefile_builder\\mkb_parser.pyc'
p176
F1365605816.0
sS'c:\\marmalade\\6.2\\s3e\\makefile_builder\\plugins\\xcode4_schememanagement.pyc'
p177
F1380286836.1074774
sS'c:\\marmalade\\6.2\\s3e\\makefile_builder\\plugins\\win32_vc6.pyc'
p178
F1365605816.0
sS'c:\\marmalade\\6.2\\s3e\\makefile_builder\\templates\\template.suo'
p179
F1365595058.0
sS'c:\\marmalade\\6.2\\s3e\\makefile_builder\\plugins\\s3e_xcode.py'
p180
F1365595058.0
sS'c:\\marmalade\\6.2\\s3e\\makefile_builder\\templates\\make.py'
p181
F1365595058.0
sS'c:\\marmalade\\6.2\\s3e\\makefile_builder\\docs\\options.txt'
p182
F1365595058.0
sS'c:\\marmalade\\6.2\\s3e\\makefile_builder\\plugins\\linux_scons.pyc'
p183
F1365605816.0
sS'c:\\marmalade\\6.2\\s3e\\makefile_builder\\templates\\linker_script'
p184
F1365595058.0
sS'c:\\marmalade\\6.2\\s3e\\makefile_builder\\plugins\\s3e_scons.pyc'
p185
F1365605816.0
sS'c:\\marmalade\\6.2\\s3e\\makefile_builder\\templates\\xcode.py'
p186
F1365595058.0
sS'c:\\marmalade\\6.2\\s3e\\makefile_builder\\plugins\\java.pyc'
p187
F1365605816.0
sS'c:\\marmalade\\6.2\\s3e\\makefile_builder\\templates\\win32_dsw.pyc'
p188
F1365605816.0
sS'c:\\marmalade\\6.2\\s3e\\makefile_builder\\docs\\mkb.defines.txt'
p189
F1365595058.0
sS'c:\\marmalade\\6.2\\s3e\\makefile_builder\\docs\\deprecated.defines.txt'
p190
F1365595058.0
sS'c:\\marmalade\\6.2\\s3e\\makefile_builder\\templates\\win32_vcxproj.pyc'
p191
F1365605816.0
sS'c:\\marmalade\\6.2\\s3e\\makefile_builder\\deployment.pyc'
p192
F1365605816.0
sS'c:\\marmalade\\6.2\\s3e\\makefile_builder\\plugins\\s3e_qmake.py'
p193
F1365595058.0
sS'c:\\marmalade\\6.2\\s3e\\makefile_builder\\templates\\win32_sln.pyc'
p194
F1365605816.0
sS'c:\\marmalade\\6.2\\s3e\\makefile_builder\\tool_launcher.exe'
p195
F1365595808.0
sS'c:\\marmalade\\6.2\\s3e\\makefile_builder\\plugins\\Emitter.pyc'
p196
F1365605816.0
sS'c:\\marmalade\\6.2\\s3e\\makefile_builder\\docs\\deprecated.options.txt'
p197
F1365595058.0
sS'c:\\marmalade\\6.2\\s3e\\makefile_builder\\templates\\rvct_linker_script'
p198
F1365595058.0
sS'c:\\marmalade\\6.2\\s3e\\makefile_builder\\plugins\\vc6_utils.pyc'
p199
F1365605816.0
sS'c:\\marmalade\\6.2\\s3e\\makefile_builder\\mkb_main.pyc'
p200
F1365605816.0
sS'c:\\marmalade\\6.2\\s3e\\makefile_builder\\plugins\\iphone.pyc'
p201
F1365605816.0
sS'c:\\marmalade\\6.2\\s3e\\makefile_builder\\plugins\\S3EEmitter.pyc'
p202
F1365605816.0
sS'c:\\marmalade\\6.2\\s3e\\makefile_builder\\plugins\\xcode4_schememanagement.py'
p203
F1365595058.0
sS'c:\\marmalade\\6.2\\s3e\\makefile_builder\\templates\\xcode4_DeployTool.xcscheme'
p204
F1365595058.0
sS'c:\\marmalade\\6.2\\s3e\\makefile_builder\\mkb_util.pyc'
p205
F1365605816.0
sS'c:\\marmalade\\6.2\\s3e\\makefile_builder\\mkb_globals.pyc'
p206
F1365605816.0
sS'c:\\marmalade\\6.2\\s3e\\makefile_builder\\templates\\qmake_user.py'
p207
F1365595058.0
sS'c:\\marmalade\\6.2\\s3e\\makefile_builder\\plugins\\vc7_utils.pyc'
p208
F1365605816.0
sS'c:\\marmalade\\6.2\\s3e\\makefile_builder\\templates\\MainWindow.xib'
p209
F1365595058.0
sS'c:\\marmalade\\6.2\\s3e\\makefile_builder\\plugins\\s3e_make.pyc'
p210
F1365605816.0
sS'c:\\marmalade\\6.2\\s3e\\makefile_builder\\templates\\vc10_user.pyc'
p211
F1365605816.0
sS'c:\\marmalade\\6.2\\s3e\\makefile_builder\\templates\\Info.plist'
p212
F1365595058.0
sS'c:\\marmalade\\6.2\\s3e\\makefile_builder\\plugins\\SConsEmitter.pyc'
p213
F1365605816.0
sS'c:\\marmalade\\6.2\\s3e\\makefile_builder\\docs'
p214
F1378901971.9095769
sS'c:\\marmalade\\6.2\\s3e\\makefile_builder\\mkb_option.pyc'
p215
F1365605816.0
sS'c:\\marmalade\\6.2\\s3e\\makefile_builder\\docs\\parse_options.pyc'
p216
F1365605816.0
sS'c:\\marmalade\\6.2\\s3e\\makefile_builder\\plugins\\XcodeEmitter.py'
p217
F1365595058.0
sS'c:\\marmalade\\6.2\\s3e\\makefile_builder\\mkb_launcher.exe'
p218
F1365595806.0
sS'c:\\marmalade\\6.2\\s3e\\makefile_builder\\templates\\vc8_user.pyc'
p219
F1365605816.0
sS'c:\\marmalade\\6.2\\s3e\\makefile_builder\\templates\\win32_dsp.pyc'
p220
F1365605816.0
sS'c:\\marmalade\\6.2\\s3e\\makefile_builder\\templates\\mips_linker_script'
p221
F1365595058.0
sS'c:\\marmalade\\6.2\\s3e\\makefile_builder\\mkb.py'
p222
F1365595058.0
sS'c:\\marmalade\\6.2\\s3e\\makefile_builder\\plugins\\osx_scons.pyc'
p223
F1365605816.0
sS'c:\\marmalade\\6.2\\s3e\\makefile_builder\\plugins\\deploy.pyc'
p224
F1365605816.0
sS'c:\\marmalade\\6.2\\s3e\\makefile_builder\\plugins\\VisualStudioEmitter.pyc'
p225
F1365605816.0
sS'c:\\marmalade\\6.2\\s3e\\makefile_builder\\plugins\\s3e_qmake.pyc'
p226
F1380286836.202487
sS'c:\\marmalade\\6.2\\s3e\\makefile_builder\\plugins\\s3e_xcode.pyc'
p227
F1380286836.2464912
sS'c:\\marmalade\\6.2\\s3e\\makefile_builder\\docs\\deployment_options.txt'
p228
F1365595058.0
sS'c:\\marmalade\\6.2\\s3e\\makefile_builder\\plugins\\s3e_web.pyc'
p229
F1365605816.0
sS'c:\\marmalade\\6.2\\s3e\\makefile_builder\\templates\\template.opt'
p230
F1365595058.0
sS'c:\\marmalade\\6.2\\s3e\\makefile_builder\\templates\\scons.pyc'
p231
F1365605816.0
sS'c:\\marmalade\\6.2\\s3e\\makefile_builder\\templates\\xcode4.xcscheme'
p232
F1365595058.0
sS'c:\\marmalade\\6.2\\s3e\\makefile_builder\\templates\\vc7_suo.pyc'
p233
F1365605816.0
sS'c:\\marmalade\\6.2\\s3e\\makefile_builder\\plugins\\MakeEmitter.pyc'
p234
F1365605816.0
sS'c:\\marmalade\\6.2\\s3e\\makefile_builder\\templates\\qmake.py'
p235
F1365595058.0
sS'c:\\marmalade\\6.2\\s3e\\makefile_builder\\templates\\win32_vcproj.pyc'
p236
F1365605816.0
sS'c:\\marmalade\\6.2\\s3e\\makefile_builder\\templates\\gdb_start.txt'
p237
F1365595058.0
sS'c:\\marmalade\\6.2\\s3e\\makefile_builder\\plugins\\s3e_vc6.pyc'
p238
F1365605816.0
sS'c:\\marmalade\\6.2\\s3e\\makefile_builder\\plugins\\osx_xcode.pyc'
p239
F1365605816.0
sS'c:\\marmalade\\6.2\\s3e\\makefile_builder\\extensions\\make_dist.py'
p240
F1365595058.0
sccopy_reg
_reconstructor
p241
(cmkb_main
MkbFile
p242
c__builtin__
object
p243
Ntp244
Rp245
(dp246
g5
(lp247
sS'target_name'
p248
S'Demo_3_ResMan_Audio_LoadTile'
p249
sS'current_file'
p250
g106
sS'package_path'
p251
(lp252
VC:\u005cUsers\u005c1106786\u005cAppData\u005cRoaming\u005cMarmalade\u005cpackages\u005c6.2.2\u005clibjpeg_6b
p253
aVC:\u005cUsers\u005c1106786\u005cAppData\u005cRoaming\u005cMarmalade\u005cpackages\u005c6.2.2\u005clibpng_1.2.34
p254
aVC:\u005cUsers\u005c1106786\u005cAppData\u005cRoaming\u005cMarmalade\u005cpackages\u005c6.2.2\u005czlib_1.2.4
p255
aVC:\u005cUsers\u005c1106786\u005cAppData\u005cRoaming\u005cMarmalade\u005cpackages\u005c6.2.2\u005ctiniconv_1.0.1
p256
asS'post_build'
p257
(lp258
(lp259
S'c:/marmalade/6.2/s3e/tools'
p260
aS'C:\\Marmalade\\6.2\\s3e\\python\\python.exe .\\process_map.py "$(TargetPath)"'
p261
aa(S'c:\\marmalade\\6.2\\s3e'
p262
S'"c:\\marmalade\\6.2\\s3e\\bin\\s3e_plink" -l "$(TargetPath)"'
p263
g131
tp264
asS'librarys'
p265
(lp266
g241
(cmkb_main
Library
p267
g243
Ntp268
Rp269
(dp270
S'name'
p271
S'vc6_compat.lib'
p272
sS'expand_name'
p273
I00
sS'include_spec_rvct_objs'
p274
(lp275
sS'include_all_objs'
p276
I00
sS'share_arm'
p277
I00
sS'arch'
p278
S'x86'
p279
sS'nodebug'
p280
I00
sg32
Nsbag241
(g267
g243
Ntp281
Rp282
(dp283
g271
S'jpeg'
p284
sg273
I01
sg274
(lp285
sg276
I00
sg277
Nsg278
Nsg280
I00
sg32
Nsbag241
(g267
g243
Ntp286
Rp287
(dp288
g271
S'z'
p289
sg273
I01
sg274
g285
sg276
I00
sg277
Nsg278
Nsg280
I00
sg32
Nsbag241
(g267
g243
Ntp290
Rp291
(dp292
g271
S'png'
p293
sg273
I01
sg274
g285
sg276
I00
sg277
Nsg278
Nsg280
I00
sg32
Nsbag241
(g267
g243
Ntp294
Rp295
(dp296
g271
S'iwutil'
p297
sg273
I01
sg274
g285
sg276
I00
sg277
I01
sg278
Nsg280
I00
sg32
Nsbag241
(g267
g243
Ntp298
Rp299
(dp300
g271
S'iwgeom'
p301
sg273
I01
sg274
g285
sg276
I00
sg277
I01
sg278
Nsg280
I00
sg32
Nsbag241
(g267
g243
Ntp302
Rp303
(dp304
g271
S'iwresmanager'
p305
sg273
I01
sg274
g285
sg276
I00
sg277
I01
sg278
Nsg280
I00
sg32
Nsbag241
(g267
g243
Ntp306
Rp307
(dp308
g271
S'ATI_Compress_MT_VC7.lib'
p309
sg273
I00
sg274
g285
sg276
I00
sg277
Nsg278
S'x86'
p310
sg280
I00
sg32
Nsbag241
(g267
g243
Ntp311
Rp312
(dp313
g271
S'iwgx'
p314
sg273
I01
sg274
g285
sg276
I00
sg277
I01
sg278
Nsg280
I00
sg32
Nsbag241
(g267
g243
Ntp315
Rp316
(dp317
g271
S'iwgl'
p318
sg273
I01
sg274
g285
sg276
I00
sg277
Nsg278
Nsg280
I00
sg32
Nsbag241
(g267
g243
Ntp319
Rp320
(dp321
g271
S'iwgxfont'
p322
sg273
I01
sg274
g285
sg276
I00
sg277
I01
sg278
Nsg280
I00
sg32
Nsbag241
(g267
g243
Ntp323
Rp324
(dp325
g271
S'tiniconv'
p326
sg273
I01
sg274
g285
sg276
I00
sg277
Nsg278
Nsg280
I00
sg32
Nsbag241
(g267
g243
Ntp327
Rp328
(dp329
g271
S'iw2d'
p330
sg273
I01
sg274
g285
sg276
I00
sg277
I01
sg278
Nsg280
I00
sg32
Nsbag241
(g267
g243
Ntp331
Rp332
(dp333
g271
S's3e_cpp'
p334
sg273
I01
sg274
g275
sg276
I00
sg277
I00
sg278
Nsg280
I00
sg32
Nsbag241
(g267
g243
Ntp335
Rp336
(dp337
g271
S's3e'
p338
sg273
I01
sg274
(lp339
S'iwcrt.o'
p340
asg276
I00
sg277
I00
sg278
Nsg280
I00
sg32
Nsbag241
(g267
g243
Ntp341
Rp342
(dp343
g271
S's3e_api'
p344
sg273
I01
sg274
g275
sg276
I00
sg277
I00
sg278
Nsg280
I1
sg32
Nsbag241
(g267
g243
Ntp345
Rp346
(dp347
g271
S's3e_api'
p348
sg273
I00
sg274
g275
sg276
I00
sg277
I00
sg278
S'arm'
p349
sg280
I00
sg32
S'gcc'
p350
sbag241
(g267
g243
Ntp351
Rp352
(dp353
g271
S'stdc++'
p354
sg273
I00
sg274
g275
sg276
I00
sg277
I00
sg278
S'mips'
p355
sg280
I00
sg32
Nsbag241
(g267
g243
Ntp356
Rp357
(dp358
g271
S'c'
p359
sg273
I00
sg274
g275
sg276
I00
sg277
I00
sg278
S'mips'
p360
sg280
I00
sg32
Nsbag241
(g267
g243
Ntp361
Rp362
(dp363
g271
S'm'
p364
sg273
I00
sg274
g275
sg276
I00
sg277
I00
sg278
S'mips'
p365
sg280
I00
sg32
Nsbag241
(g267
g243
Ntp366
Rp367
(dp368
g271
S'gcc'
p369
sg273
I00
sg274
g275
sg276
I00
sg277
I00
sg278
S'mips'
p370
sg280
I00
sg32
NsbasS'library_paths'
p371
(lp372
g241
(cmkb_main
LibraryPath
p373
g243
Ntp374
Rp375
(dp376
S'expand_path'
p377
I01
sS'add_cpu_variant'
p378
I00
sg271
Vc:/users/1106786/appdata/roaming/marmalade/packages/6.2.2/libjpeg_6b
p379
sbag241
(g373
g243
Ntp380
Rp381
(dp382
g377
I01
sg378
I00
sg271
Vc:/users/1106786/appdata/roaming/marmalade/packages/6.2.2/zlib_1.2.4
p383
sbag241
(g373
g243
Ntp384
Rp385
(dp386
g377
I01
sg378
I00
sg271
Vc:/users/1106786/appdata/roaming/marmalade/packages/6.2.2/libpng_1.2.34
p387
sbag241
(g373
g243
Ntp388
Rp389
(dp390
g377
I01
sg378
I00
sg271
S'c:/marmalade/6.2/modules/iwutil'
p391
sbag241
(g373
g243
Ntp392
Rp393
(dp394
g377
I01
sg378
I00
sg271
S'c:/marmalade/6.2/modules/iwgeom'
p395
sbag241
(g373
g243
Ntp396
Rp397
(dp398
g377
I01
sg378
I00
sg271
S'c:/marmalade/6.2/modules/iwresmanager'
p399
sbag241
(g373
g243
Ntp400
Rp401
(dp402
g377
I00
sg378
I00
sg271
S'c:/marmalade/6.2/modules/iwgx/atitools'
p403
sbag241
(g373
g243
Ntp404
Rp405
(dp406
g377
I01
sg378
I00
sg271
S'c:/marmalade/6.2/modules/iwgx'
p407
sbag241
(g373
g243
Ntp408
Rp409
(dp410
g377
I01
sg378
I00
sg271
S'c:/marmalade/6.2/modules/iwgl'
p411
sbag241
(g373
g243
Ntp412
Rp413
(dp414
g377
I01
sg378
I00
sg271
S'c:/marmalade/6.2/modules/iwgxfont'
p415
sbag241
(g373
g243
Ntp416
Rp417
(dp418
g377
I01
sg378
I00
sg271
Vc:/users/1106786/appdata/roaming/marmalade/packages/6.2.2/tiniconv_1.0.1
p419
sbag241
(g373
g243
Ntp420
Rp421
(dp422
g377
I01
sg378
I00
sg271
S'c:/marmalade/6.2/modules/iw2d'
p423
sbag241
(g373
g243
Ntp424
Rp425
(dp426
g377
I01
sg378
I00
sg271
S'c:/marmalade/6.2/s3e'
p427
sbasS'macros'
p428
(dp429
S'IW_USE_CALLSTACK'
p430
NsS'IW_SDK'
p431
NsS'I3D_PLATFORM_S3E'
p432
NsS'IW_MKF_CJSON'
p433
NsS'IW_MKF_LIBJPEG'
p434
NsS'I3D_OS_S3E'
p435
NsS'IW_MKF_TINICONV'
p436
NsS'IW_APP_VERSION'
p437
S'"1.0"'
p438
sS'IW_MKF_IWRESMANAGER'
p439
NsS'IW_MKF_IWUTIL'
p440
NsS'IW_PLATFORM_S3E'
p441
NsS'IW_ASSERTION_CHANNEL_2D'
p442
S'1'
p443
sS'IW_APP_NAME'
p444
S'"Demo_3_ResMan_Audio_LoadTile"'
p445
sS'IW_MKF_IWGXFONT'
p446
NsS'IW_MKF_ZLIB'
p447
NsS'IW_MKF_IWGX'
p448
NsS'IW_MKF_DEMO_3_RESMAN_AUDIO_LOADTILE'
p449
NsS'IW_USE_ASSERTIONS'
p450
NsS'_CRT_SECURE_NO_DEPRECATE'
p451
NsS'IW_MKF_IWGL'
p452
NsS'IW_MKF_LIBPNG'
p453
NsS'IW_DEBUG'
p454
NsS'IW_USE_TRACING'
p455
NsS'S3E_INCLUDE_LEGACY'
p456
NsS'__S3E__'
p457
NsS'IW_MKF_IW2D'
p458
NsS'IW_MKF_IWGEOM'
p459
NssS'done_warnings'
p460
(dp461
sS'subprojects'
p462
(dp463
g154
S'iwresmanager'
p464
sg158
S'Demo_3_ResMan_Audio_LoadTile'
p465
sVc:\u005cusers\u005c1106786\u005cappdata\u005croaming\u005cmarmalade\u005cpackages\u005c6.2.2\u005czlib_1.2.4\u005czlib.mkf
p466
S'zlib'
p467
sg150
S'iwutil'
p468
sVc:\u005cusers\u005c1106786\u005cappdata\u005croaming\u005cmarmalade\u005cpackages\u005c6.2.2\u005clibjpeg_6b\u005clibjpeg.mkf
p469
S'libjpeg'
p470
sg149
S'iwgeom'
p471
sg148
S'iwgx'
p472
sVc:\u005cusers\u005c1106786\u005cappdata\u005croaming\u005cmarmalade\u005cpackages\u005c6.2.2\u005clibpng_1.2.34\u005clibpng.mkf
p473
S'libpng'
p474
sg156
S'iwgxfont'
p475
sg155
S'iwgl'
p476
sg147
S'iw2d'
p477
sg159
S'c:/Users/1106786/Dropbox/Dropbox/PG life/Project Impact/Code/Demos/Demo_3_ResMan_Audio_LoadTile/libs/cJSON-for-marmalade/cjson'
p478
sVc:\u005cusers\u005c1106786\u005cappdata\u005croaming\u005cmarmalade\u005cpackages\u005c6.2.2\u005ctiniconv_1.0.1\u005ctiniconv.mkf
p479
S'tiniconv'
p480
ssS'deployments'
p481
(dp482
S'Default'
p483
g241
(cdeployment
Deployment
p484
g243
Ntp485
Rp486
(dp487
S'got_version'
p488
I0
sS'assets'
p489
g483
sS'mkb'
p490
g245
sS'target'
p491
Nsg278
(lp492
sS'options'
p493
(dp494
S'iphone-link-lib'
p495
(lp496
sS'game-icf'
p497
NsS'iphone-icon-high-res'
p498
NsS'win32-pref-windowposy'
p499
NsS'win32-pref-windowposx'
p500
NsS'bada-appsecret'
p501
NsS'playbook-author'
p502
NsS'winmobile-icon32'
p503
NsS'linux-ext-lib'
p504
(lp505
sS'target-folder'
p506
NsS'iphone-splashscreen-landscape'
p507
NsS'psp-discversion'
p508
NsS'lgtv-use-drm'
p509
NsS'nds-bannertitle-sp'
p510
NsS'symbian-platsecflags'
p511
NsS'psp-producer'
p512
NsS'blackberry-playbook-icon'
p513
NsS'iphone-icon-ipad-search-high-res'
p514
NsS'iphone-provisioning-profile'
p515
NsS'copyright'
p516
NsS'winmobile-png45'
p517
NsS'iphone-link-libdir'
p518
(lp519
sS'symbian-cert'
p520
NsS'nds-bannertitle-hn'
p521
NsS'brew-depends'
p522
NsS'winmobile-png60'
p523
NsS'winmobile-nouninstall'
p524
NsS'android-icon-hdpi'
p525
NsS'iphone-ipad-only'
p526
NsS'iphone-splash-full-orient'
p527
NsS'iphone-bundle-url-name'
p528
NsS'android-aliasname'
p529
NsS'iphone-splash-retina-generate'
p530
NsS'psp-dlgmanual'
p531
NsS'iphone-backgroundmode-audio'
p532
NsS'android-pkgname'
p533
NsS'webos-memory'
p534
NsS'brew-uid'
p535
NsS'android-keypass'
p536
NsS'symbian-locationsupport'
p537
NsS'iphone-signing-host'
p538
NsS'nds-bannertitle-jp'
p539
NsS'name'
p540
NsS'osx-info-plist'
p541
NsS'symbian-icon1-format'
p542
NsS'uiq3-uid'
p543
NsS'psp-dlgcontentid'
p544
NsS'auto-derbh'
p545
NsS'bada-use-partner-privileges'
p546
NsS'nds-bannertitle-it'
p547
NsS'blackberry-authorid'
p548
NsS'nds-publicsavedatasize'
p549
NsS'splashscreen'
p550
NsS'brew-mif'
p551
NsS'symbian-icon2-format'
p552
NsS'long-caption'
p553
NsS'iphone-icon-settings-high-res'
p554
NsS'android-manifest'
p555
NsS'winmobile-icon16'
p556
NsS's3e-compression'
p557
NsS'blackberry-cskpass'
p558
NsS'iphone-link-opts'
p559
(lp560
sS'iphone-region'
p561
NsS'uiq3-icon3-mask'
p562
NsS'winmobile-start-menu-folder'
p563
NsS'brew-clsid'
p564
NsS'brew-encoding'
p565
NsS'symbian-icon1'
p566
NsS'symbian-icon2'
p567
NsS'psp-parentallevel'
p568
NsS'osx-ext-dll'
p569
(lp570
sS'version'
p571
NsS'bada-manifest'
p572
NsS'provider'
p573
NsS'iphone-prerendered-icon'
p574
NsS'iphone-appid'
p575
NsS'playbook-keystore'
p576
NsS'nds-initialcode'
p577
NsS'symbian8-uid'
p578
NsS'symbian-osexecsupport'
p579
NsS'winmobile-icon64'
p580
NsS'iphone-persistent-wifi'
p581
NsS'symbian7-uid'
p582
NsS'winmobile-setup-dll'
p583
NsS'android-external-jars'
p584
(lp585
sS'android-install-location'
p586
NsS'olddeploytoolstyle'
p587
NsS'nds-privatesavedatasize'
p588
NsS'symbian9-uid'
p589
NsS'nds-bannertitle-cn'
p590
NsS'winmobile-trace-file'
p591
NsS'playbook-storepass'
p592
NsS'android-icon-ldpi'
p593
NsS'psp-appversion'
p594
NsS'networking'
p595
NsS'winmobile-install-folder'
p596
NsS'arch'
p597
NsS'android-external-res'
p598
(lp599
sS'manufacturer'
p600
NsS'android-icon-gallery'
p601
NsS'bada-signed'
p602
NsS'android-supports-gl-texture'
p603
(lp604
sS'iphone-apple-wwdr-cert'
p605
NsS'psp-snd0'
p606
NsS'iphone-extra-sections'
p607
NsS'blackberry-keystore'
p608
NsS'iphone-nosign'
p609
NsS'caption'
p610
NsS'winmobile-ampd-part-number'
p611
NsS'iphone-icon-large'
p612
NsS'android-storepass'
p613
NsS'iphone-info-plist'
p614
NsS'win32-icon'
p615
NsS'android-extra-manifest'
p616
(lp617
sS'iphone-icon-ipad-search'
p618
NsS'android-custom-activity'
p619
NsS'version-minor'
p620
NsS'iphone-icon-ipad'
p621
NsS'bada-appid'
p622
NsS'iphone-distribution-key'
p623
NsS'iphone-link-libdirs'
p624
(lp625
sS'psp-copyright'
p626
NsS'symbian-maxheapsize'
p627
NsS'embed-icf'
p628
NsS'psp-titlename'
p629
NsS'symbian-icon1-mask'
p630
NsS'nds-makercode'
p631
NsS'psp-icon1'
p632
NsS'priv-sign-key'
p633
NsS'webos-appinfo'
p634
NsS'symbian-cert-key'
p635
NsS'android-icon'
p636
NsS'webos-appid'
p637
NsS'android-icon-nonstandard'
p638
NsS'android-extra-application-manifest'
p639
(lp640
sS'iphone-icon-settings'
p641
NsS'iphone-distribution-cert'
p642
NsS'osx-icon'
p643
NsS'nds-titlename'
p644
NsS'splashscreen-auto-onblack'
p645
NsS'icon'
p646
NsS'nds-romheadertemplate'
p647
NsS'webos-icon'
p648
NsS'nds-bannertitle-en'
p649
NsS'win32-ext-dll'
p650
(lp651
sS'psp-dlgicon0'
p652
NsS'iphone-development-key'
p653
NsS'psp-discid'
p654
NsS'winmobile-icon48'
p655
NsS'uiq3-icon1-mask'
p656
NsS'playbook-cskpass'
p657
NsS'android-so'
p658
(lp659
sS'itunes-artwork'
p660
NsS'bada-splash'
p661
NsS'version-revision'
p662
NsS'android-icon-mdpi'
p663
NsS'android-keystore'
p664
NsS'uiq3-icon2-format'
p665
NsS'version-string'
p666
NsS'winmobile-png90'
p667
NsS'iphone-icon-ipad-high-res'
p668
NsS'iphone-disable-ipad'
p669
NsS'uiq3-icon1-format'
p670
NsS'iphone-bundle-url-schemes'
p671
NsS'nds-icon'
p672
NsS'iphone-development-cert'
p673
NsS'playbook-authorid'
p674
NsS'android_extra_strings'
p675
NsS'playbook-icon'
p676
NsS'uid'
p677
NsS'iphone-signing-identity'
p678
NsS'brew-icon-medium'
p679
NsS'blackberry-phone-icon'
p680
NsS'iphone-enable-4inch-retina'
p681
NsS'pkguid-as-uid'
p682
NsS'symbian-icon1-mask-black'
p683
NsS'uiq3-icon2'
p684
NsS'pub-sign-key'
p685
NsS'nds-bannertitle-fr'
p686
NsS'win32-pref-windowtitle'
p687
NsS'symbian-disable-ecompxl'
p688
NsS'symbian-soundrecordsupport'
p689
NsS'splashscreen-use-all'
p690
NsS'android-unsigned'
p691
NsS'brew-priviledges'
p692
NsS'brew-icon-small'
p693
NsS'psp-dlgpic2'
p694
NsS'bada-icon'
p695
NsS'psp-dlgpic0'
p696
NsS'lgtv_l9-use-drm'
p697
NsS'psp-pic0'
p698
NsS'psp-pic1'
p699
NsS'iphone-icon'
p700
NsS'psp-icon0'
p701
NsS'blackberry-permissions-access-shared'
p702
NsS'uiq3-icon3-format'
p703
NsS'version-major'
p704
NsS'iphone_bundle_localisations'
p705
NsS'winmobile-icon'
p706
NsS'blackberry-author'
p707
NsS'symbian-keypwd'
p708
NsS'iphone-no-splash'
p709
NsS'playbook-access-shared'
p710
NsS'psp-dlghealthwarning'
p711
NsS'iphone-link-libs'
p712
(lp713
sS'iphone-splash'
p714
NsS'nds-bannertitle-ge'
p715
NsS'android_icon_gallery'
p716
NsS'brew-icon-large'
p717
NsS'iphone-app-fonts'
p718
NsS'symbian-icon2-mask'
p719
NsS'iphone-sign-for-distribution'
p720
NsS'psp-dlgprotectdocument'
p721
NsS'winmobile-cab-compress'
p722
NsS'uiq3-icon3'
p723
NsS'uiq3-icon1'
p724
NsS'symbian-run-on-install'
p725
NsS'assets'
p726
NsS'symbian-key'
p727
NsS'app-icf'
p728
NsS'blackberry-storepass'
p729
NsS'brew-compress-loader'
p730
NsS'uiq3-icon2-mask'
p731
NsS'symbian-icon2-mask-black'
p732
NsS'symbian-icon-svg'
p733
NsS'android-extra-strings'
p734
NsS'iphone-splashscreen-portrait'
p735
NsS'iphone-bundle-localisations'
p736
Nssg271
g483
sbssS'platform'
p737
S'S3E'
p738
sg54
S'1.0'
p739
sS'arcade_platform'
p740
g4
sS'extensions'
p741
(dp742
sS'source_groups_tree'
p743
(dp744
S'(libpng)'
p745
(dp746
Vc:/users/1106786/appdata/roaming/marmalade/packages/6.2.2/libpng_1.2.34/libpng.mkf
p747
(lp748
I1
a(dp749
asVc:/users/1106786/appdata/roaming/marmalade/packages/6.2.2/libpng_1.2.34/h/png.h
p750
(lp751
I1
a(dp752
asVc:/users/1106786/appdata/roaming/marmalade/packages/6.2.2/libpng_1.2.34/h/pngconf.h
p753
(lp754
I1
ag752
assS'(libjpeg)'
p755
(dp756
Vc:/users/1106786/appdata/roaming/marmalade/packages/6.2.2/libjpeg_6b/h/jmemsys.h
p757
(lp758
I1
a(dp759
asVc:/users/1106786/appdata/roaming/marmalade/packages/6.2.2/libjpeg_6b/h/jpegint.h
p760
(lp761
I1
ag759
asVc:/users/1106786/appdata/roaming/marmalade/packages/6.2.2/libjpeg_6b/h/jconfig.h
p762
(lp763
I1
ag759
asVc:/users/1106786/appdata/roaming/marmalade/packages/6.2.2/libjpeg_6b/h/cderror.h
p764
(lp765
I1
ag759
asVc:/users/1106786/appdata/roaming/marmalade/packages/6.2.2/libjpeg_6b/h/jerror.h
p766
(lp767
I1
ag759
asVc:/users/1106786/appdata/roaming/marmalade/packages/6.2.2/libjpeg_6b/libjpeg.mkf
p768
(lp769
I1
a(dp770
asVc:/users/1106786/appdata/roaming/marmalade/packages/6.2.2/libjpeg_6b/h/cdjpeg.h
p771
(lp772
I1
ag759
asVc:/users/1106786/appdata/roaming/marmalade/packages/6.2.2/libjpeg_6b/h/jversion.h
p773
(lp774
I1
ag759
asVc:/users/1106786/appdata/roaming/marmalade/packages/6.2.2/libjpeg_6b/h/jinclude.h
p775
(lp776
I1
ag759
asVc:/users/1106786/appdata/roaming/marmalade/packages/6.2.2/libjpeg_6b/h/jdct.h
p777
(lp778
I1
ag759
asVc:/users/1106786/appdata/roaming/marmalade/packages/6.2.2/libjpeg_6b/h/jpeglib.h
p779
(lp780
I1
ag759
asVc:/users/1106786/appdata/roaming/marmalade/packages/6.2.2/libjpeg_6b/h/jdhuff.h
p781
(lp782
I1
ag759
asVc:/users/1106786/appdata/roaming/marmalade/packages/6.2.2/libjpeg_6b/h/transupp.h
p783
(lp784
I1
ag759
asVc:/users/1106786/appdata/roaming/marmalade/packages/6.2.2/libjpeg_6b/h/jchuff.h
p785
(lp786
I1
ag759
asVc:/users/1106786/appdata/roaming/marmalade/packages/6.2.2/libjpeg_6b/h/jmorecfg.h
p787
(lp788
I1
ag759
assS'(cjson)'
p789
(dp790
S'c:/users/1106786/dropbox/dropbox/pg life/project impact/code/demos/demo_3_resman_audio_loadtile/libs/cjson-for-marmalade/cjson.mkf'
p791
(lp792
I1
a(dp793
asS'c:/users/1106786/dropbox/dropbox/pg life/project impact/code/demos/demo_3_resman_audio_loadtile/libs/cjson-for-marmalade/cJSON.h'
p794
(lp795
I1
a(dp796
asS'c:/users/1106786/dropbox/dropbox/pg life/project impact/code/demos/demo_3_resman_audio_loadtile/libs/cjson-for-marmalade/cJSON.c'
p797
(lp798
I1
ag796
assS'(tiniconv)'
p799
(dp800
Vc:/users/1106786/appdata/roaming/marmalade/packages/6.2.2/tiniconv_1.0.1/tiniconv.mkf
p801
(lp802
I1
a(dp803
asVc:/users/1106786/appdata/roaming/marmalade/packages/6.2.2/tiniconv_1.0.1/h/tiniconv.h
p804
(lp805
I1
a(dp806
asVc:/users/1106786/appdata/roaming/marmalade/packages/6.2.2/tiniconv_1.0.1/h/tiniconv_int.h
p807
(lp808
I1
ag806
assS'(Demo_3_ResMan_Audio_LoadTile)'
p809
(dp810
S'src'
p811
(dp812
S'c:/users/1106786/dropbox/dropbox/pg life/project impact/code/demos/demo_3_resman_audio_loadtile/h/layer.h'
p813
(lp814
I1
a(dp815
asS'c:/users/1106786/dropbox/dropbox/pg life/project impact/code/demos/demo_3_resman_audio_loadtile/h/tile.h'
p816
(lp817
I1
ag815
asS'c:/users/1106786/dropbox/dropbox/pg life/project impact/code/demos/demo_3_resman_audio_loadtile/h/game.h'
p818
(lp819
I1
ag815
asS'c:/users/1106786/dropbox/dropbox/pg life/project impact/code/demos/demo_3_resman_audio_loadtile/src/maze.cpp'
p820
(lp821
I1
ag815
asS'c:/users/1106786/dropbox/dropbox/pg life/project impact/code/demos/demo_3_resman_audio_loadtile/src/audio.cpp'
p822
(lp823
I1
ag815
asS'c:/users/1106786/dropbox/dropbox/pg life/project impact/code/demos/demo_3_resman_audio_loadtile/src/obstacle.cpp'
p824
(lp825
I1
ag815
asS'c:/users/1106786/dropbox/dropbox/pg life/project impact/code/demos/demo_3_resman_audio_loadtile/src/main.cpp'
p826
(lp827
I1
ag815
asS'c:/users/1106786/dropbox/dropbox/pg life/project impact/code/demos/demo_3_resman_audio_loadtile/h/resmgr.h'
p828
(lp829
I1
ag815
asS'c:/users/1106786/dropbox/dropbox/pg life/project impact/code/demos/demo_3_resman_audio_loadtile/src/layer.cpp'
p830
(lp831
I1
ag815
asS'c:/users/1106786/dropbox/dropbox/pg life/project impact/code/demos/demo_3_resman_audio_loadtile/h/maze.h'
p832
(lp833
I1
ag815
asS'c:/users/1106786/dropbox/dropbox/pg life/project impact/code/demos/demo_3_resman_audio_loadtile/src/game.cpp'
p834
(lp835
I1
ag815
asS'c:/users/1106786/dropbox/dropbox/pg life/project impact/code/demos/demo_3_resman_audio_loadtile/src/input.cpp'
p836
(lp837
I1
ag815
asS'c:/users/1106786/dropbox/dropbox/pg life/project impact/code/demos/demo_3_resman_audio_loadtile/h/character.h'
p838
(lp839
I1
ag815
asS'c:/users/1106786/dropbox/dropbox/pg life/project impact/code/demos/demo_3_resman_audio_loadtile/h/audio.h'
p840
(lp841
I1
ag815
asS'c:/users/1106786/dropbox/dropbox/pg life/project impact/code/demos/demo_3_resman_audio_loadtile/h/input.h'
p842
(lp843
I1
ag815
asS'c:/users/1106786/dropbox/dropbox/pg life/project impact/code/demos/demo_3_resman_audio_loadtile/src/tileunit.cpp'
p844
(lp845
I1
ag815
asS'c:/users/1106786/dropbox/dropbox/pg life/project impact/code/demos/demo_3_resman_audio_loadtile/h/map.h'
p846
(lp847
I1
ag815
asS'c:/users/1106786/dropbox/dropbox/pg life/project impact/code/demos/demo_3_resman_audio_loadtile/src/character.cpp'
p848
(lp849
I1
ag815
asS'c:/users/1106786/dropbox/dropbox/pg life/project impact/code/demos/demo_3_resman_audio_loadtile/src/resmgr.cpp'
p850
(lp851
I1
ag815
asS'c:/users/1106786/dropbox/dropbox/pg life/project impact/code/demos/demo_3_resman_audio_loadtile/h/obstacle.h'
p852
(lp853
I1
ag815
asS'c:/users/1106786/dropbox/dropbox/pg life/project impact/code/demos/demo_3_resman_audio_loadtile/src/map.cpp'
p854
(lp855
I1
ag815
asS'c:/users/1106786/dropbox/dropbox/pg life/project impact/code/demos/demo_3_resman_audio_loadtile/src/tile.cpp'
p856
(lp857
I1
ag815
asS'c:/users/1106786/dropbox/dropbox/pg life/project impact/code/demos/demo_3_resman_audio_loadtile/h/tiles.h'
p858
(lp859
I1
ag815
asS'c:/users/1106786/dropbox/dropbox/pg life/project impact/code/demos/demo_3_resman_audio_loadtile/src/tiles.cpp'
p860
(lp861
I1
ag815
asS'c:/users/1106786/dropbox/dropbox/pg life/project impact/code/demos/demo_3_resman_audio_loadtile/h/tileunit.h'
p862
(lp863
I1
ag815
assS'Data'
p864
(dp865
S'c:/users/1106786/dropbox/dropbox/pg life/project impact/code/demos/demo_3_resman_audio_loadtile/data/imgs.group'
p866
(lp867
I1
ag815
assS'c:/users/1106786/dropbox/dropbox/pg life/project impact/code/demos/demo_3_resman_audio_loadtile/demo_3_resman_audio_loadtile.mkf'
p868
(lp869
I1
a(dp870
assS"'Marmalade Studio'"
p871
(dp872
S'iwgl'
p873
(dp874
S'c:/marmalade/6.2/modules/iwgl/h/IwGLExt.h'
p875
(lp876
I1
a(dp877
asS'c:/marmalade/6.2/modules/iwgl/docs/iwgl.config.txt'
p878
(lp879
I1
ag877
asS'c:/marmalade/6.2/modules/iwgl/h/IwGL.h'
p880
(lp881
I1
ag877
asS'c:/marmalade/6.2/modules/iwgl/iwgl.mkf'
p882
(lp883
I1
a(dp884
assS'iw2d'
p885
(dp886
S'c:/marmalade/6.2/modules/iw2d/h/Iw2D.h'
p887
(lp888
I1
a(dp889
asS'c:/marmalade/6.2/modules/iw2d/docs/iw2d_public.defines.txt'
p890
(lp891
I1
ag889
asS'c:/marmalade/6.2/modules/iw2d/docs/iw2d.config.txt'
p892
(lp893
I1
ag889
asS'c:/marmalade/6.2/modules/iw2d/iw2d.mkf'
p894
(lp895
I1
a(dp896
assS'iwgxfont'
p897
(dp898
S'c:/marmalade/6.2/modules/iwgxfont/docs/iwgxfont_public.defines.txt'
p899
(lp900
I1
a(dp901
asS'c:/marmalade/6.2/modules/iwgxfont/iwgxfont.mkf'
p902
(lp903
I1
a(dp904
asS'c:/marmalade/6.2/modules/iwgxfont/h/IwGxFontState.h'
p905
(lp906
I1
ag901
asS'c:/marmalade/6.2/modules/iwgxfont/h/IwGxFontGlyph.h'
p907
(lp908
I1
ag901
asS'c:/marmalade/6.2/modules/iwgxfont/h/IwGxFontPreparedData.h'
p909
(lp910
I1
ag901
asS'c:/marmalade/6.2/modules/iwgxfont/h/IwGxFontContainer.h'
p911
(lp912
I1
ag901
asS'c:/marmalade/6.2/modules/iwgxfont/h/IwGxFontTypes.h'
p913
(lp914
I1
ag901
asS'c:/marmalade/6.2/modules/iwgxfont/docs/iwgxfont.config.txt'
p915
(lp916
I1
ag901
asS'c:/marmalade/6.2/modules/iwgxfont/h/IwGxFont.h'
p917
(lp918
I1
ag901
assS'iwgeom'
p919
(dp920
S'c:/marmalade/6.2/modules/iwgeom/h/IwGeomMenu.h'
p921
(lp922
I1
a(dp923
asS'c:/marmalade/6.2/modules/iwgeom/h/IwGeomFVec3.h'
p924
(lp925
I1
ag923
asS'c:/marmalade/6.2/modules/iwgeom/h/IwGeom.h'
p926
(lp927
I1
ag923
asS'c:/marmalade/6.2/modules/iwgeom/h/IwGeomFVec4.h'
p928
(lp929
I1
ag923
asS'c:/marmalade/6.2/modules/iwgeom/h/IwGeomVec2.h'
p930
(lp931
I1
ag923
asS'c:/marmalade/6.2/modules/iwgeom/h/IwGeomIntersect.h'
p932
(lp933
I1
ag923
asS'c:/marmalade/6.2/modules/iwgeom/h/IwGeomFBBox.h'
p934
(lp935
I1
ag923
asS'c:/marmalade/6.2/modules/iwgeom/h/IwGeomLegacy.h'
p936
(lp937
I1
ag923
asS'c:/marmalade/6.2/modules/iwgeom/h/IwGeomSqrt.h'
p938
(lp939
I1
ag923
asS'c:/marmalade/6.2/modules/iwgeom/h/IwGeomFIntersect.h'
p940
(lp941
I1
ag923
asS'c:/marmalade/6.2/modules/iwgeom/h/IwGeomSVec4.h'
p942
(lp943
I1
ag923
asS'c:/marmalade/6.2/modules/iwgeom/h/IwGeomCore.h'
p944
(lp945
I1
ag923
asS'c:/marmalade/6.2/modules/iwgeom/h/IwGeomBBox.h'
p946
(lp947
I1
ag923
asS'c:/marmalade/6.2/modules/iwgeom/h/IwGeomVec4.h'
p948
(lp949
I1
ag923
asS'c:/marmalade/6.2/modules/iwgeom/h/IwGeomFPlane.h'
p950
(lp951
I1
ag923
asS'c:/marmalade/6.2/modules/iwgeom/docs/iwgeom.config.txt'
p952
(lp953
I1
ag923
asS'c:/marmalade/6.2/modules/iwgeom/h/IwGeomSQuat.h'
p954
(lp955
I1
ag923
asS'c:/marmalade/6.2/modules/iwgeom/iwgeom.mkf'
p956
(lp957
I1
a(dp958
asS'c:/marmalade/6.2/modules/iwgeom/h/IwGeomQuat.h'
p959
(lp960
I1
ag923
asS'c:/marmalade/6.2/modules/iwgeom/h/IwGeomMat2D.h'
p961
(lp962
I1
ag923
asS'c:/marmalade/6.2/modules/iwgeom/h/IwGeomFSphere.h'
p963
(lp964
I1
ag923
asS'c:/marmalade/6.2/modules/iwgeom/h/IwGeomSVec3.h'
p965
(lp966
I1
ag923
asS'c:/marmalade/6.2/modules/iwgeom/h/IwGeomSVec2.h'
p967
(lp968
I1
ag923
asS'c:/marmalade/6.2/modules/iwgeom/h/IwGeomSphere.h'
p969
(lp970
I1
ag923
asS'c:/marmalade/6.2/modules/iwgeom/h/IwGeomPlane.h'
p971
(lp972
I1
ag923
asS'c:/marmalade/6.2/modules/iwgeom/h/IwGeomFMat.h'
p973
(lp974
I1
ag923
asS'c:/marmalade/6.2/modules/iwgeom/h/IwGeomFVec2.h'
p975
(lp976
I1
ag923
asS'c:/marmalade/6.2/modules/iwgeom/h/IwGeomMat.h'
p977
(lp978
I1
ag923
asS'c:/marmalade/6.2/modules/iwgeom/h/IwGeomFQuat.h'
p979
(lp980
I1
ag923
asS'c:/marmalade/6.2/modules/iwgeom/h/IwGeomFMat2D.h'
p981
(lp982
I1
ag923
asS'c:/marmalade/6.2/modules/iwgeom/h/IwGeomVec.h'
p983
(lp984
I1
ag923
asS'c:/marmalade/6.2/modules/iwgeom/h/IwGeomVec3.h'
p985
(lp986
I1
ag923
assS'iwresmanager'
p987
(dp988
S'c:/marmalade/6.2/modules/iwresmanager/h/IwResSerialise.h'
p989
(lp990
I1
a(dp991
asS'c:/marmalade/6.2/modules/iwresmanager/h/IwResHandlerGROUP.h'
p992
(lp993
I1
ag991
asS'c:/marmalade/6.2/modules/iwresmanager/h/IwResManagerClass.h'
p994
(lp995
I1
ag991
asS'c:/marmalade/6.2/modules/iwresmanager/h/IwResHandlerImage.h'
p996
(lp997
I1
ag991
asS'c:/marmalade/6.2/modules/iwresmanager/docs/iwresmanager.config.txt'
p998
(lp999
I1
ag991
asS'c:/marmalade/6.2/modules/iwresmanager/h/IwResHandler.h'
p1000
(lp1001
I1
ag991
asS'c:/marmalade/6.2/modules/iwresmanager/iwresmanager.mkf'
p1002
(lp1003
I1
a(dp1004
asS'c:/marmalade/6.2/modules/iwresmanager/h/IwResGroup.h'
p1005
(lp1006
I1
ag991
asS'c:/marmalade/6.2/modules/iwresmanager/h/IwResManager.h'
p1007
(lp1008
I1
ag991
asS'c:/marmalade/6.2/modules/iwresmanager/h/IwResHandlerITX.h'
p1009
(lp1010
I1
ag991
assS'iwgx'
p1011
(dp1012
S'c:/marmalade/6.2/modules/iwgx/h/IwGxFuncTable.h'
p1013
(lp1014
I1
a(dp1015
asS'c:/marmalade/6.2/modules/iwgx/h/IwClip.inl'
p1016
(lp1017
I1
ag1015
asS'c:/marmalade/6.2/modules/iwgx/h/IwGxTypes.h'
p1018
(lp1019
I1
ag1015
asS'c:/marmalade/6.2/modules/iwgx/h/IwGxTransformSW.h'
p1020
(lp1021
I1
ag1015
asS'c:/marmalade/6.2/modules/iwgx/docs/iwgx_public.defines.txt'
p1022
(lp1023
I1
ag1015
asS'c:/marmalade/6.2/modules/iwgx/h/IwDebugPrim.h'
p1024
(lp1025
I1
ag1015
asS'c:/marmalade/6.2/modules/iwgx/h/IwResHandlerMTL.h'
p1026
(lp1027
I1
ag1015
asS'c:/marmalade/6.2/modules/iwgx/docs/iwgx.config.txt'
p1028
(lp1029
I1
ag1015
asS'c:/marmalade/6.2/modules/iwgx/h/IwGxDebug.h'
p1030
(lp1031
I1
ag1015
asS'c:/marmalade/6.2/modules/iwgx/h/IwTexture.h'
p1032
(lp1033
I1
ag1015
asS'c:/marmalade/6.2/modules/iwgx/h/IwFColour.h'
p1034
(lp1035
I1
ag1015
asS'c:/marmalade/6.2/modules/iwgx/h/IwGxError.h'
p1036
(lp1037
I1
ag1015
asS'c:/marmalade/6.2/modules/iwgx/h/IwColour.h'
p1038
(lp1039
I1
ag1015
asS'c:/marmalade/6.2/modules/iwgx/h/IwMaterial.h'
p1040
(lp1041
I1
ag1015
asS'c:/marmalade/6.2/modules/iwgx/h/IwGxPrint.h'
p1042
(lp1043
I1
ag1015
asS'c:/marmalade/6.2/modules/iwgx/h/IwTPage.h'
p1044
(lp1045
I1
ag1015
asS'c:/marmalade/6.2/modules/iwgx/iwgx.mkf'
p1046
(lp1047
I1
a(dp1048
asS'c:/marmalade/6.2/modules/iwgx/h/IwGxMetrics.h'
p1049
(lp1050
I1
ag1015
asS'c:/marmalade/6.2/modules/iwgx/h/IwGxSurface.h'
p1051
(lp1052
I1
ag1015
asS'c:/marmalade/6.2/modules/iwgx/h/IwGx.h'
p1053
(lp1054
I1
ag1015
asS'c:/marmalade/6.2/modules/iwgx/h/IwGxShaderTechnique.h'
p1055
(lp1056
I1
ag1015
asS'c:/marmalade/6.2/modules/iwgx/h/IwGxStream.h'
p1057
(lp1058
I1
ag1015
asS'c:/marmalade/6.2/modules/iwgx/h/IwMatAnim.h'
p1059
(lp1060
I1
ag1015
asS'c:/marmalade/6.2/modules/iwgx/h/IwClip.h'
p1061
(lp1062
I1
ag1015
asS'c:/marmalade/6.2/modules/iwgx/h/IwGxState.h'
p1063
(lp1064
I1
ag1015
assS'iwutil'
p1065
(dp1066
S'c:/marmalade/6.2/modules/iwutil/h/IwBuffer.h'
p1067
(lp1068
I1
a(dp1069
asS'c:/marmalade/6.2/modules/iwutil/h/IwResource.h'
p1070
(lp1071
I1
ag1069
asS'c:/marmalade/6.2/modules/iwutil/h/IwFile.h'
p1072
(lp1073
I1
ag1069
asS'c:/marmalade/6.2/modules/iwutil/docs/iwutil.config.txt'
p1074
(lp1075
I1
ag1069
asS'c:/marmalade/6.2/modules/iwutil/h/IwCore.h'
p1076
(lp1077
I1
ag1069
asS'c:/marmalade/6.2/modules/iwutil/h/IwOptimiseSpeed.h'
p1078
(lp1079
I1
ag1069
asS'c:/marmalade/6.2/modules/iwutil/h/IwSerialise.h'
p1080
(lp1081
I1
ag1069
asS'c:/marmalade/6.2/modules/iwutil/h/IwPath.h'
p1082
(lp1083
I1
ag1069
asS'c:/marmalade/6.2/modules/iwutil/h/IwImage.h'
p1084
(lp1085
I1
ag1069
asS'c:/marmalade/6.2/modules/iwutil/h/IwCopyingPtr.h'
p1086
(lp1087
I1
ag1069
asS'c:/marmalade/6.2/modules/iwutil/h/IwUtilInitTerm.h'
p1088
(lp1089
I1
ag1069
asS'c:/marmalade/6.2/modules/iwutil/h/IwOptimiseARM.h'
p1090
(lp1091
I1
ag1069
asS'c:/marmalade/6.2/modules/iwutil/h/IwMath.h'
p1092
(lp1093
I1
ag1069
asS'c:/marmalade/6.2/modules/iwutil/iwutil.mkf'
p1094
(lp1095
I1
a(dp1096
asS'c:/marmalade/6.2/modules/iwutil/h/IwUncopyable.h'
p1097
(lp1098
I1
ag1069
asS'c:/marmalade/6.2/modules/iwutil/h/IwDebug.h'
p1099
(lp1100
I1
ag1069
asS'c:/marmalade/6.2/modules/iwutil/h/IwSingleton.h'
p1101
(lp1102
I1
ag1069
asS'c:/marmalade/6.2/modules/iwutil/h/IwRandom.h'
p1103
(lp1104
I1
ag1069
asS'c:/marmalade/6.2/modules/iwutil/h/IwMemManagerDL.h'
p1105
(lp1106
I1
ag1069
asS'c:/marmalade/6.2/modules/iwutil/h/IwMemory.h'
p1107
(lp1108
I1
ag1069
asS'c:/marmalade/6.2/modules/iwutil/h/IwUtil.h'
p1109
(lp1110
I1
ag1069
asS'c:/marmalade/6.2/modules/iwutil/h/IwManagedList.h'
p1111
(lp1112
I1
ag1069
asS'c:/marmalade/6.2/modules/iwutil/h/IwMenu.h'
p1113
(lp1114
I1
ag1069
asS'c:/marmalade/6.2/modules/iwutil/h/IwArray.h'
p1115
(lp1116
I1
ag1069
asS'c:/marmalade/6.2/modules/iwutil/h/IwOptimiseSize.h'
p1117
(lp1118
I1
ag1069
asS'c:/marmalade/6.2/modules/iwutil/h/IwString.h'
p1119
(lp1120
I1
ag1069
asS'c:/marmalade/6.2/modules/iwutil/h/IwProfileMenu.h'
p1121
(lp1122
I1
ag1069
asS'c:/marmalade/6.2/modules/iwutil/h/IwKeymap.h'
p1123
(lp1124
I1
ag1069
asS'c:/marmalade/6.2/modules/iwutil/h/IwMemBucket.h'
p1125
(lp1126
I1
ag1069
asS'c:/marmalade/6.2/modules/iwutil/h/IwUTF8.h'
p1127
(lp1128
I1
ag1069
asS'c:/marmalade/6.2/modules/iwutil/h/IwRuntime.h'
p1129
(lp1130
I1
ag1069
asS'c:/marmalade/6.2/modules/iwutil/h/IwVariableBitField.h'
p1131
(lp1132
I1
ag1069
asS'c:/marmalade/6.2/modules/iwutil/h/IwOptimiseThumb.h'
p1133
(lp1134
I1
ag1069
asS'c:/marmalade/6.2/modules/iwutil/h/IwList.h'
p1135
(lp1136
I1
ag1069
asS'c:/marmalade/6.2/modules/iwutil/h/IwDivTable.h'
p1137
(lp1138
I1
ag1069
asS'c:/marmalade/6.2/modules/iwutil/h/IwMemBucketHelpers.h'
p1139
(lp1140
I1
ag1069
asS'c:/marmalade/6.2/modules/iwutil/h/IwClassFactory.h'
p1141
(lp1142
I1
ag1069
asS'c:/marmalade/6.2/modules/iwutil/h/IwAutoFile.h'
p1143
(lp1144
I1
ag1069
asS'c:/marmalade/6.2/modules/iwutil/h/IwAllocator.h'
p1145
(lp1146
I1
ag1069
asS'c:/marmalade/6.2/modules/iwutil/h/IwImageHelper.h'
p1147
(lp1148
I1
ag1069
asS'c:/marmalade/6.2/modules/iwutil/h/IwTextParserITX.h'
p1149
(lp1150
I1
ag1069
asS'c:/marmalade/6.2/modules/iwutil/h/IwTextParser.h'
p1151
(lp1152
I1
ag1069
asS'c:/marmalade/6.2/modules/iwutil/h/IwTextParseable.h'
p1153
(lp1154
I1
ag1069
asS'c:/marmalade/6.2/modules/iwutil/h/IwDivide.h'
p1155
(lp1156
I1
ag1069
asS'c:/marmalade/6.2/modules/iwutil/h/IwHashString.h'
p1157
(lp1158
I1
ag1069
asS'c:/marmalade/6.2/modules/iwutil/h/IwTypes.h'
p1159
(lp1160
I1
ag1069
asS'c:/marmalade/6.2/modules/iwutil/h/IwManaged.h'
p1161
(lp1162
I1
ag1069
asS'c:/marmalade/6.2/modules/iwutil/h/IwEvent.h'
p1163
(lp1164
I1
ag1069
asS'c:/marmalade/6.2/modules/iwutil/h/IwChar.h'
p1165
(lp1166
I1
ag1069
asS'c:/marmalade/6.2/modules/iwutil/h/IwFibre.h'
p1167
(lp1168
I1
ag1069
asssS'(zlib)'
p1169
(dp1170
Vc:/users/1106786/appdata/roaming/marmalade/packages/6.2.2/zlib_1.2.4/h/zconf.h
p1171
(lp1172
I1
a(dp1173
asVc:/users/1106786/appdata/roaming/marmalade/packages/6.2.2/zlib_1.2.4/h/zlib.h
p1174
(lp1175
I1
ag1173
asVc:/users/1106786/appdata/roaming/marmalade/packages/6.2.2/zlib_1.2.4/zlib.mkf
p1176
(lp1177
I1
a(dp1178
asssS'files'
p1179
(dp1180
S'IwGxFontPreparedData.h'
p1181
g241
(cmkb_main
File
p1182
g243
Ntp1183
Rp1184
(dp1185
S'flags'
p1186
g901
sS'group'
p1187
(lp1188
S"'Marmalade Studio'"
p1189
ag897
asg271
g909
sbsS'iterator'
p1190
g241
(g1182
g243
Ntp1191
Rp1192
(dp1193
g1186
(dp1194
sg1187
(lp1195
S"'Marmalade System (S3E)'"
p1196
aS'stdc headers'
p1197
aS'c++'
p1198
asg271
S'c:/marmalade/6.2/s3e/h/std/c++/iterator'
p1199
sbsS'IwGeomPlane.h'
p1200
g241
(g1182
g243
Ntp1201
Rp1202
(dp1203
g1186
g923
sg1187
(lp1204
S"'Marmalade Studio'"
p1205
ag919
asg271
g971
sbsS's3e.h'
p1206
g241
(g1182
g243
Ntp1207
Rp1208
(dp1209
g1186
g1194
sg1187
(lp1210
g1196
asg271
S'c:/marmalade/6.2/s3e/h/s3e.h'
p1211
sbsS'errno.h'
p1212
g241
(g1182
g243
Ntp1213
Rp1214
(dp1215
g1186
g1194
sg1187
(lp1216
g1196
aS'stdc headers'
p1217
asg271
S'c:/marmalade/6.2/s3e/h/std/errno.h'
p1218
sbsS'IwSingleton.h'
p1219
g241
(g1182
g243
Ntp1220
Rp1221
(dp1222
g1186
g1069
sg1187
(lp1223
S"'Marmalade Studio'"
p1224
ag1065
asg271
g1101
sbsS'dlfcn.h'
p1225
g241
(g1182
g243
Ntp1226
Rp1227
(dp1228
g1186
g1194
sg1187
g1216
sg271
S'c:/marmalade/6.2/s3e/h/std/dlfcn.h'
p1229
sbsS'stdio_streambuf'
p1230
g241
(g1182
g243
Ntp1231
Rp1232
(dp1233
g1186
g1194
sg1187
g1195
sg271
S'c:/marmalade/6.2/s3e/h/std/c++/stdio_streambuf'
p1234
sbsS'sched.h'
p1235
g241
(g1182
g243
Ntp1236
Rp1237
(dp1238
g1186
g1194
sg1187
g1216
sg271
S'c:/marmalade/6.2/s3e/h/std/sched.h'
p1239
sbsS'IwGeomFMat2D.h'
p1240
g241
(g1182
g243
Ntp1241
Rp1242
(dp1243
g1186
g923
sg1187
g1204
sg271
g981
sbsS'cassert'
p1244
g241
(g1182
g243
Ntp1245
Rp1246
(dp1247
g1186
g1194
sg1187
g1195
sg271
S'c:/marmalade/6.2/s3e/h/std/c++/cassert'
p1248
sbsS'grp.h'
p1249
g241
(g1182
g243
Ntp1250
Rp1251
(dp1252
g1186
g1194
sg1187
g1216
sg271
S'c:/marmalade/6.2/s3e/h/std/grp.h'
p1253
sbsS'list'
p1254
g241
(g1182
g243
Ntp1255
Rp1256
(dp1257
g1186
g1194
sg1187
g1195
sg271
S'c:/marmalade/6.2/s3e/h/std/c++/list'
p1258
sbsS'istream'
p1259
g241
(g1182
g243
Ntp1260
Rp1261
(dp1262
g1186
g1194
sg1187
g1195
sg271
S'c:/marmalade/6.2/s3e/h/std/c++/istream'
p1263
sbsVjpeglib.h
p1264
g241
(g1182
g243
Ntp1265
Rp1266
(dp1267
g1186
g759
sg1187
(lp1268
g755
asg271
g779
sbsS'iw2d_public.defines.txt'
p1269
g241
(g1182
g243
Ntp1270
Rp1271
(dp1272
g1186
g889
sg1187
(lp1273
S"'Marmalade Studio'"
p1274
ag885
asg271
g890
sbsS'iostream.h'
p1275
g241
(g1182
g243
Ntp1276
Rp1277
(dp1278
g1186
g1194
sg1187
g1195
sg271
S'c:/marmalade/6.2/s3e/h/std/c++/iostream.h'
p1279
sbsS'string'
p1280
g241
(g1182
g243
Ntp1281
Rp1282
(dp1283
g1186
g1194
sg1187
g1195
sg271
S'c:/marmalade/6.2/s3e/h/std/c++/string'
p1284
sbsS'IwMemory.h'
p1285
g241
(g1182
g243
Ntp1286
Rp1287
(dp1288
g1186
g1069
sg1187
g1223
sg271
g1107
sbsS'IwGL.h'
p1289
g241
(g1182
g243
Ntp1290
Rp1291
(dp1292
g1186
g877
sg1187
(lp1293
S"'Marmalade Studio'"
p1294
ag873
asg271
g880
sbsS'resmgr.h'
p1295
g241
(g1182
g243
Ntp1296
Rp1297
(dp1298
g1186
g815
sg1187
(lp1299
g809
ag811
asg271
g828
sbsS'iw2d.config.txt'
p1300
g241
(g1182
g243
Ntp1301
Rp1302
(dp1303
g1186
g889
sg1187
g1273
sg271
g892
sbsS'iomanip'
p1304
g241
(g1182
g243
Ntp1305
Rp1306
(dp1307
g1186
g1194
sg1187
g1195
sg271
S'c:/marmalade/6.2/s3e/h/std/c++/iomanip'
p1308
sbsS'iwgeom.mkf'
p1309
g241
(g1182
g243
Ntp1310
Rp1311
(dp1312
g1186
g958
sg1187
g1204
sg271
g956
sbsS'IwGxError.h'
p1313
g241
(g1182
g243
Ntp1314
Rp1315
(dp1316
g1186
g1015
sg1187
(lp1317
S"'Marmalade Studio'"
p1318
ag1011
asg271
g1036
sbsS'IwGeom.h'
p1319
g241
(g1182
g243
Ntp1320
Rp1321
(dp1322
g1186
g923
sg1187
g1204
sg271
g926
sbsS'IwGeomVec4.h'
p1323
g241
(g1182
g243
Ntp1324
Rp1325
(dp1326
g1186
g923
sg1187
g1204
sg271
g948
sbsS'dir.h'
p1327
g241
(g1182
g243
Ntp1328
Rp1329
(dp1330
g1186
g1194
sg1187
(lp1331
g1196
aS'stdc headers'
p1332
aS'sys'
p1333
asg271
S'c:/marmalade/6.2/s3e/h/std/sys/dir.h'
p1334
sbsS'locale.h'
p1335
g241
(g1182
g243
Ntp1336
Rp1337
(dp1338
g1186
g1194
sg1187
g1216
sg271
S'c:/marmalade/6.2/s3e/h/std/locale.h'
p1339
sbsS'vector'
p1340
g241
(g1182
g243
Ntp1341
Rp1342
(dp1343
g1186
g1194
sg1187
g1195
sg271
S'c:/marmalade/6.2/s3e/h/std/c++/vector'
p1344
sbsS'IwManaged.h'
p1345
g241
(g1182
g243
Ntp1346
Rp1347
(dp1348
g1186
g1069
sg1187
g1223
sg271
g1161
sbsS's3eCompass.h'
p1349
g241
(g1182
g243
Ntp1350
Rp1351
(dp1352
g1186
g1194
sg1187
g1210
sg271
S'c:/marmalade/6.2/s3e/h/s3eCompass.h'
p1353
sbsVcderror.h
p1354
g241
(g1182
g243
Ntp1355
Rp1356
(dp1357
g1186
g759
sg1187
g1268
sg271
g764
sbsS'climits'
p1358
g241
(g1182
g243
Ntp1359
Rp1360
(dp1361
g1186
g1194
sg1187
g1195
sg271
S'c:/marmalade/6.2/s3e/h/std/c++/climits'
p1362
sbsS's3eVibra.h'
p1363
g241
(g1182
g243
Ntp1364
Rp1365
(dp1366
g1186
g1194
sg1187
g1210
sg271
S'c:/marmalade/6.2/s3e/h/s3eVibra.h'
p1367
sbsVjversion.h
p1368
g241
(g1182
g243
Ntp1369
Rp1370
(dp1371
g1186
g759
sg1187
g1268
sg271
g773
sbsS'fnmatch.h'
p1372
g241
(g1182
g243
Ntp1373
Rp1374
(dp1375
g1186
g1194
sg1187
g1216
sg271
S'c:/marmalade/6.2/s3e/h/std/fnmatch.h'
p1376
sbsS'IwGxState.h'
p1377
g241
(g1182
g243
Ntp1378
Rp1379
(dp1380
g1186
g1015
sg1187
g1317
sg271
g1063
sbsS's3eAudio.h'
p1381
g241
(g1182
g243
Ntp1382
Rp1383
(dp1384
g1186
g1194
sg1187
g1210
sg271
S'c:/marmalade/6.2/s3e/h/s3eAudio.h'
p1385
sbsS's3eSurface.h'
p1386
g241
(g1182
g243
Ntp1387
Rp1388
(dp1389
g1186
g1194
sg1187
g1210
sg271
S'c:/marmalade/6.2/s3e/h/s3eSurface.h'
p1390
sbsS'new'
p1391
g241
(g1182
g243
Ntp1392
Rp1393
(dp1394
g1186
g1194
sg1187
g1195
sg271
S'c:/marmalade/6.2/s3e/h/std/c++/new'
p1395
sbsS's3eWindow.h'
p1396
g241
(g1182
g243
Ntp1397
Rp1398
(dp1399
g1186
g1194
sg1187
(lp1400
g1196
aS'Extensions'
p1401
asg271
S'c:/marmalade/6.2/s3e/h/ext/s3eWindow.h'
p1402
sbsS'IwBuffer.h'
p1403
g241
(g1182
g243
Ntp1404
Rp1405
(dp1406
g1186
g1069
sg1187
g1223
sg271
g1067
sbsS's3eOSExec.h'
p1407
g241
(g1182
g243
Ntp1408
Rp1409
(dp1410
g1186
g1194
sg1187
g1400
sg271
S'c:/marmalade/6.2/s3e/h/ext/s3eOSExec.h'
p1411
sbsS'IwGxTransformSW.h'
p1412
g241
(g1182
g243
Ntp1413
Rp1414
(dp1415
g1186
g1015
sg1187
g1317
sg271
g1020
sbsS'maze.cpp'
p1416
g241
(g1182
g243
Ntp1417
Rp1418
(dp1419
g1186
g815
sg1187
g1299
sg271
g820
sbsS'imgs.group'
p1420
g241
(g1182
g243
Ntp1421
Rp1422
(dp1423
g1186
g815
sg1187
(lp1424
g809
ag864
asg271
g866
sbsS'unistd.h'
p1425
g241
(g1182
g243
Ntp1426
Rp1427
(dp1428
g1186
g1194
sg1187
g1216
sg271
S'c:/marmalade/6.2/s3e/h/std/unistd.h'
p1429
sbsS'iwgxfont.config.txt'
p1430
g241
(g1182
g243
Ntp1431
Rp1432
(dp1433
g1186
g901
sg1187
g1188
sg271
g915
sbsS'gl2platform.h'
p1434
g241
(g1182
g243
Ntp1435
Rp1436
(dp1437
g1186
g1194
sg1187
(lp1438
g1196
aS'GL'
p1439
aS'GLES 2.0'
p1440
asg271
S'c:/marmalade/6.2/s3e/h/GLES2/gl2platform.h'
p1441
sbsS'IwResManagerClass.h'
p1442
g241
(g1182
g243
Ntp1443
Rp1444
(dp1445
g1186
g991
sg1187
(lp1446
g871
ag987
asg271
g994
sbsS'queue'
p1447
g241
(g1182
g243
Ntp1448
Rp1449
(dp1450
g1186
g1194
sg1187
g1195
sg271
S'c:/marmalade/6.2/s3e/h/std/c++/queue'
p1451
sbsS'time_1.h'
p1452
g241
(g1182
g243
Ntp1453
Rp1454
(dp1455
g1186
g1194
sg1187
g1331
sg271
S'c:/marmalade/6.2/s3e/h/std/sys/time.h'
p1456
sbsS'Iw2D.h'
p1457
g241
(g1182
g243
Ntp1458
Rp1459
(dp1460
g1186
g889
sg1187
g1273
sg271
g887
sbsS'IwGeomVec2.h'
p1461
g241
(g1182
g243
Ntp1462
Rp1463
(dp1464
g1186
g923
sg1187
g1204
sg271
g930
sbsS's3eDevice.h'
p1465
g241
(g1182
g243
Ntp1466
Rp1467
(dp1468
g1186
g1194
sg1187
g1210
sg271
S'c:/marmalade/6.2/s3e/h/s3eDevice.h'
p1469
sbsS'resmgr.cpp'
p1470
g241
(g1182
g243
Ntp1471
Rp1472
(dp1473
g1186
g815
sg1187
g1299
sg271
g850
sbsS'malloc.h'
p1474
g241
(g1182
g243
Ntp1475
Rp1476
(dp1477
g1186
g1194
sg1187
g1216
sg271
S'c:/marmalade/6.2/s3e/h/std/malloc.h'
p1478
sbsS'stdarg.h'
p1479
g241
(g1182
g243
Ntp1480
Rp1481
(dp1482
g1186
g1194
sg1187
g1216
sg271
S'c:/marmalade/6.2/s3e/h/std/stdarg.h'
p1483
sbsS'IwGeomCore.h'
p1484
g241
(g1182
g243
Ntp1485
Rp1486
(dp1487
g1186
g923
sg1187
g1204
sg271
g944
sbsS'endian.h'
p1488
g241
(g1182
g243
Ntp1489
Rp1490
(dp1491
g1186
g1194
sg1187
g1216
sg271
S'c:/marmalade/6.2/s3e/h/std/endian.h'
p1492
sbsS'glob.h'
p1493
g241
(g1182
g243
Ntp1494
Rp1495
(dp1496
g1186
g1194
sg1187
g1216
sg271
S'c:/marmalade/6.2/s3e/h/std/glob.h'
p1497
sbsS'fstream'
p1498
g241
(g1182
g243
Ntp1499
Rp1500
(dp1501
g1186
g1194
sg1187
g1195
sg271
S'c:/marmalade/6.2/s3e/h/std/c++/fstream'
p1502
sbsS's3eCamera.h'
p1503
g241
(g1182
g243
Ntp1504
Rp1505
(dp1506
g1186
g1194
sg1187
g1210
sg271
S'c:/marmalade/6.2/s3e/h/s3eCamera.h'
p1507
sbsVjconfig.h
p1508
g241
(g1182
g243
Ntp1509
Rp1510
(dp1511
g1186
g759
sg1187
g1268
sg271
g762
sbsS'memory'
p1512
g241
(g1182
g243
Ntp1513
Rp1514
(dp1515
g1186
g1194
sg1187
g1195
sg271
S'c:/marmalade/6.2/s3e/h/std/c++/memory'
p1516
sbsS'egl.h'
p1517
g241
(g1182
g243
Ntp1518
Rp1519
(dp1520
g1186
g1194
sg1187
(lp1521
g1196
aS'GL'
p1522
aS'EGL'
p1523
asg271
S'c:/marmalade/6.2/s3e/h/EGL/egl.h'
p1524
sbsS'IwClip.inl'
p1525
g241
(g1182
g243
Ntp1526
Rp1527
(dp1528
g1186
g1015
sg1187
g1317
sg271
g1016
sbsS'IwMemManagerDL.h'
p1529
g241
(g1182
g243
Ntp1530
Rp1531
(dp1532
g1186
g1069
sg1187
g1223
sg271
g1105
sbsS'deque'
p1533
g241
(g1182
g243
Ntp1534
Rp1535
(dp1536
g1186
g1194
sg1187
g1195
sg271
S'c:/marmalade/6.2/s3e/h/std/c++/deque'
p1537
sbsS'IwString.h'
p1538
g241
(g1182
g243
Ntp1539
Rp1540
(dp1541
g1186
g1069
sg1187
g1223
sg271
g1119
sbsS'cwchar'
p1542
g241
(g1182
g243
Ntp1543
Rp1544
(dp1545
g1186
g1194
sg1187
g1195
sg271
S'c:/marmalade/6.2/s3e/h/std/c++/cwchar'
p1546
sbsS'iwutil.mkf'
p1547
g241
(g1182
g243
Ntp1548
Rp1549
(dp1550
g1186
g1096
sg1187
g1223
sg271
g1094
sbsS'csignal'
p1551
g241
(g1182
g243
Ntp1552
Rp1553
(dp1554
g1186
g1194
sg1187
g1195
sg271
S'c:/marmalade/6.2/s3e/h/std/c++/csignal'
p1555
sbsS'float.h'
p1556
g241
(g1182
g243
Ntp1557
Rp1558
(dp1559
g1186
g1194
sg1187
g1216
sg271
S'c:/marmalade/6.2/s3e/h/std/float.h'
p1560
sbsS'pthread_alloc'
p1561
g241
(g1182
g243
Ntp1562
Rp1563
(dp1564
g1186
g1194
sg1187
g1195
sg271
S'c:/marmalade/6.2/s3e/h/std/c++/pthread_alloc'
p1565
sbsS'getopt.h'
p1566
g241
(g1182
g243
Ntp1567
Rp1568
(dp1569
g1186
g1194
sg1187
g1216
sg271
S'c:/marmalade/6.2/s3e/h/std/getopt.h'
p1570
sbsS'IwOptimiseARM.h'
p1571
g241
(g1182
g243
Ntp1572
Rp1573
(dp1574
g1186
g1069
sg1187
g1223
sg271
g1090
sbsS'times.h'
p1575
g241
(g1182
g243
Ntp1576
Rp1577
(dp1578
g1186
g1194
sg1187
g1331
sg271
S'c:/marmalade/6.2/s3e/h/std/sys/times.h'
p1579
sbsS'IwGeomFSphere.h'
p1580
g241
(g1182
g243
Ntp1581
Rp1582
(dp1583
g1186
g923
sg1187
g1204
sg271
g963
sbsS'game.h'
p1584
g241
(g1182
g243
Ntp1585
Rp1586
(dp1587
g1186
g815
sg1187
g1299
sg271
g818
sbsS'functional'
p1588
g241
(g1182
g243
Ntp1589
Rp1590
(dp1591
g1186
g1194
sg1187
g1195
sg271
S'c:/marmalade/6.2/s3e/h/std/c++/functional'
p1592
sbsS'IwTypes.h'
p1593
g241
(g1182
g243
Ntp1594
Rp1595
(dp1596
g1186
g1069
sg1187
g1223
sg271
g1159
sbsS'IwGxMetrics.h'
p1597
g241
(g1182
g243
Ntp1598
Rp1599
(dp1600
g1186
g1015
sg1187
g1317
sg271
g1049
sbsS'audio.cpp'
p1601
g241
(g1182
g243
Ntp1602
Rp1603
(dp1604
g1186
g815
sg1187
g1299
sg271
g822
sbsS's3eCompression.h'
p1605
g241
(g1182
g243
Ntp1606
Rp1607
(dp1608
g1186
g1194
sg1187
g1210
sg271
S'c:/marmalade/6.2/s3e/h/s3eCompression.h'
p1609
sbsS'langinfo.h'
p1610
g241
(g1182
g243
Ntp1611
Rp1612
(dp1613
g1186
g1194
sg1187
g1216
sg271
S'c:/marmalade/6.2/s3e/h/std/langinfo.h'
p1614
sbsS's3edebugHeap.h'
p1615
g241
(g1182
g243
Ntp1616
Rp1617
(dp1618
g1186
g1194
sg1187
g1400
sg271
S'c:/marmalade/6.2/s3e/h/ext/s3edebugHeap.h'
p1619
sbsS'AirplayVersion.h'
p1620
g241
(g1182
g243
Ntp1621
Rp1622
(dp1623
g1186
g1194
sg1187
g1210
sg271
S'c:/marmalade/6.2/s3e/h/AirplayVersion.h'
p1624
sbsS'gl2extimg.h'
p1625
g241
(g1182
g243
Ntp1626
Rp1627
(dp1628
g1186
g1194
sg1187
g1438
sg271
S'c:/marmalade/6.2/s3e/h/GLES2/gl2extimg.h'
p1629
sbsS'app.config.txt'
p1630
g241
(g1182
g243
Ntp1631
Rp1632
(dp1633
g1186
(dp1634
sg1187
g4
sg271
S'c:/Users/1106786/Dropbox/Dropbox/PG life/Project Impact/Code/Demos/Demo_3_ResMan_Audio_LoadTile/data/app.config.txt'
p1635
sbsS'IwGeomSqrt.h'
p1636
g241
(g1182
g243
Ntp1637
Rp1638
(dp1639
g1186
g923
sg1187
g1204
sg271
g938
sbsVtiniconv_int.h
p1640
g241
(g1182
g243
Ntp1641
Rp1642
(dp1643
g1186
g806
sg1187
(lp1644
g799
asg271
g807
sbsS'syslog.h'
p1645
g241
(g1182
g243
Ntp1646
Rp1647
(dp1648
g1186
g1194
sg1187
g1216
sg271
S'c:/marmalade/6.2/s3e/h/std/syslog.h'
p1649
sbsS'IwGxFontTypes.h'
p1650
g241
(g1182
g243
Ntp1651
Rp1652
(dp1653
g1186
g901
sg1187
g1188
sg271
g913
sbsS'IwGeomFIntersect.h'
p1654
g241
(g1182
g243
Ntp1655
Rp1656
(dp1657
g1186
g923
sg1187
g1204
sg271
g940
sbsS'hash_map'
p1658
g241
(g1182
g243
Ntp1659
Rp1660
(dp1661
g1186
g1194
sg1187
g1195
sg271
S'c:/marmalade/6.2/s3e/h/std/c++/hash_map'
p1662
sbsS's3e.mkf'
p1663
g241
(g1182
g243
Ntp1664
Rp1665
(dp1666
g1186
(dp1667
sg1187
g1210
sg271
S'c:/marmalade/6.2/s3e/s3e.mkf'
p1668
sbsS's3eOSReadString.h'
p1669
g241
(g1182
g243
Ntp1670
Rp1671
(dp1672
g1186
g1194
sg1187
g1400
sg271
S'c:/marmalade/6.2/s3e/h/ext/s3eOSReadString.h'
p1673
sbsS'map'
p1674
g241
(g1182
g243
Ntp1675
Rp1676
(dp1677
g1186
g1194
sg1187
g1195
sg271
S'c:/marmalade/6.2/s3e/h/std/c++/map'
p1678
sbsS'IwOptimiseSpeed.h'
p1679
g241
(g1182
g243
Ntp1680
Rp1681
(dp1682
g1186
g1069
sg1187
g1223
sg271
g1078
sbsS'msl_string.h'
p1683
g241
(g1182
g243
Ntp1684
Rp1685
(dp1686
g1186
g1194
sg1187
g1195
sg271
S'c:/marmalade/6.2/s3e/h/std/c++/msl_string.h'
p1687
sbsS'select.h'
p1688
g241
(g1182
g243
Ntp1689
Rp1690
(dp1691
g1186
g1194
sg1187
g1331
sg271
S'c:/marmalade/6.2/s3e/h/std/sys/select.h'
p1692
sbsVzlib.mkf
p1693
g241
(g1182
g243
Ntp1694
Rp1695
(dp1696
g1186
g1178
sg1187
(lp1697
g1169
asg271
g1176
sbsS'signal.h'
p1698
g241
(g1182
g243
Ntp1699
Rp1700
(dp1701
g1186
g1194
sg1187
g1216
sg271
S'c:/marmalade/6.2/s3e/h/std/signal.h'
p1702
sbsS'iwgl.config.txt'
p1703
g241
(g1182
g243
Ntp1704
Rp1705
(dp1706
g1186
g877
sg1187
g1293
sg271
g878
sbsVlibpng.mkf
p1707
g241
(g1182
g243
Ntp1708
Rp1709
(dp1710
g1186
g749
sg1187
(lp1711
g745
asg271
g747
sbsS's3eClipboard.h'
p1712
g241
(g1182
g243
Ntp1713
Rp1714
(dp1715
g1186
g1194
sg1187
g1210
sg271
S'c:/marmalade/6.2/s3e/h/s3eClipboard.h'
p1716
sbsS'IwGxFuncTable.h'
p1717
g241
(g1182
g243
Ntp1718
Rp1719
(dp1720
g1186
g1015
sg1187
g1317
sg271
g1013
sbsS'IwResHandlerGROUP.h'
p1721
g241
(g1182
g243
Ntp1722
Rp1723
(dp1724
g1186
g991
sg1187
g1446
sg271
g992
sbsS's3eDebug.h'
p1725
g241
(g1182
g243
Ntp1726
Rp1727
(dp1728
g1186
g1194
sg1187
g1210
sg271
S'c:/marmalade/6.2/s3e/h/s3eDebug.h'
p1729
sbsS'socket.h'
p1730
g241
(g1182
g243
Ntp1731
Rp1732
(dp1733
g1186
g1194
sg1187
g1331
sg271
S'c:/marmalade/6.2/s3e/h/std/sys/socket.h'
p1734
sbsS'glext.h'
p1735
g241
(g1182
g243
Ntp1736
Rp1737
(dp1738
g1186
g1194
sg1187
(lp1739
g1196
aS'GL'
p1740
aS'GLES 1.x'
p1741
asg271
S'c:/marmalade/6.2/s3e/h/GLES/glext.h'
p1742
sbsS'typeinfo.h'
p1743
g241
(g1182
g243
Ntp1744
Rp1745
(dp1746
g1186
g1194
sg1187
g1195
sg271
S'c:/marmalade/6.2/s3e/h/std/c++/typeinfo.h'
p1747
sbsS'typeinfo'
p1748
g241
(g1182
g243
Ntp1749
Rp1750
(dp1751
g1186
g1194
sg1187
g1195
sg271
S'c:/marmalade/6.2/s3e/h/std/c++/typeinfo'
p1752
sbsS'fstream.h'
p1753
g241
(g1182
g243
Ntp1754
Rp1755
(dp1756
g1186
g1194
sg1187
g1195
sg271
S'c:/marmalade/6.2/s3e/h/std/c++/fstream.h'
p1757
sbsS'cjson.mkf'
p1758
g241
(g1182
g243
Ntp1759
Rp1760
(dp1761
g1186
g793
sg1187
(lp1762
g789
asg271
g791
sbsS'iw2d.mkf'
p1763
g241
(g1182
g243
Ntp1764
Rp1765
(dp1766
g1186
g896
sg1187
g1273
sg271
g894
sbsS's3eGL.h'
p1767
g241
(g1182
g243
Ntp1768
Rp1769
(dp1770
g1186
g1194
sg1187
g1210
sg271
S'c:/marmalade/6.2/s3e/h/s3eGL.h'
p1771
sbsS'IwGeomFVec2.h'
p1772
g241
(g1182
g243
Ntp1773
Rp1774
(dp1775
g1186
g923
sg1187
g1204
sg271
g975
sbsS'IwGeomSVec4.h'
p1776
g241
(g1182
g243
Ntp1777
Rp1778
(dp1779
g1186
g923
sg1187
g1204
sg271
g942
sbsS'poll.h'
p1780
g241
(g1182
g243
Ntp1781
Rp1782
(dp1783
g1186
g1194
sg1187
g1216
sg271
S'c:/marmalade/6.2/s3e/h/std/poll.h'
p1784
sbsS'IwMatAnim.h'
p1785
g241
(g1182
g243
Ntp1786
Rp1787
(dp1788
g1186
g1015
sg1187
g1317
sg271
g1059
sbsS'IwGeomFVec4.h'
p1789
g241
(g1182
g243
Ntp1790
Rp1791
(dp1792
g1186
g923
sg1187
g1204
sg271
g928
sbsS'IwGx.h'
p1793
g241
(g1182
g243
Ntp1794
Rp1795
(dp1796
g1186
g1015
sg1187
g1317
sg271
g1053
sbsS'valarray'
p1797
g241
(g1182
g243
Ntp1798
Rp1799
(dp1800
g1186
g1194
sg1187
g1195
sg271
S'c:/marmalade/6.2/s3e/h/std/c++/valarray'
p1801
sbsS'iosfwd'
p1802
g241
(g1182
g243
Ntp1803
Rp1804
(dp1805
g1186
g1194
sg1187
g1195
sg271
S'c:/marmalade/6.2/s3e/h/std/c++/iosfwd'
p1806
sbsS'gl2.h'
p1807
g241
(g1182
g243
Ntp1808
Rp1809
(dp1810
g1186
g1194
sg1187
g1438
sg271
S'c:/marmalade/6.2/s3e/h/GLES2/gl2.h'
p1811
sbsS'IwManagedList.h'
p1812
g241
(g1182
g243
Ntp1813
Rp1814
(dp1815
g1186
g1069
sg1187
g1223
sg271
g1111
sbsS'stdiostream.h'
p1816
g241
(g1182
g243
Ntp1817
Rp1818
(dp1819
g1186
g1194
sg1187
g1195
sg271
S'c:/marmalade/6.2/s3e/h/std/c++/stdiostream.h'
p1820
sbsS'mem.h'
p1821
g241
(g1182
g243
Ntp1822
Rp1823
(dp1824
g1186
g1194
sg1187
g1195
sg271
S'c:/marmalade/6.2/s3e/h/std/c++/mem.h'
p1825
sbsVjerror.h
p1826
g241
(g1182
g243
Ntp1827
Rp1828
(dp1829
g1186
g759
sg1187
g1268
sg271
g766
sbsVzconf.h
p1830
g241
(g1182
g243
Ntp1831
Rp1832
(dp1833
g1186
g1173
sg1187
g1697
sg271
g1171
sbsS's3e.config.txt'
p1834
g241
(g1182
g243
Ntp1835
Rp1836
(dp1837
g1186
g1194
sg1187
g1210
sg271
S'c:/marmalade/6.2/s3e/s3e.config.txt'
p1838
sbsS'numeric'
p1839
g241
(g1182
g243
Ntp1840
Rp1841
(dp1842
g1186
g1194
sg1187
g1195
sg271
S'c:/marmalade/6.2/s3e/h/std/c++/numeric'
p1843
sbsS'utime.h'
p1844
g241
(g1182
g243
Ntp1845
Rp1846
(dp1847
g1186
g1194
sg1187
g1216
sg271
S'c:/marmalade/6.2/s3e/h/std/utime.h'
p1848
sbsVjdhuff.h
p1849
g241
(g1182
g243
Ntp1850
Rp1851
(dp1852
g1186
g759
sg1187
g1268
sg271
g781
sbsS'tiles.h'
p1853
g241
(g1182
g243
Ntp1854
Rp1855
(dp1856
g1186
g815
sg1187
g1299
sg271
g858
sbsS'character.h'
p1857
g241
(g1182
g243
Ntp1858
Rp1859
(dp1860
g1186
g815
sg1187
g1299
sg271
g838
sbsS'IwGxStream.h'
p1861
g241
(g1182
g243
Ntp1862
Rp1863
(dp1864
g1186
g1015
sg1187
g1317
sg271
g1057
sbsS'IwImage.h'
p1865
g241
(g1182
g243
Ntp1866
Rp1867
(dp1868
g1186
g1069
sg1187
g1223
sg271
g1084
sbsS's3eImagePicker.h'
p1869
g241
(g1182
g243
Ntp1870
Rp1871
(dp1872
g1186
g1194
sg1187
g1400
sg271
S'c:/marmalade/6.2/s3e/h/ext/s3eImagePicker.h'
p1873
sbsS'stdlib.h'
p1874
g241
(g1182
g243
Ntp1875
Rp1876
(dp1877
g1186
g1194
sg1187
g1216
sg271
S'c:/marmalade/6.2/s3e/h/std/stdlib.h'
p1878
sbsS'IwCopyingPtr.h'
p1879
g241
(g1182
g243
Ntp1880
Rp1881
(dp1882
g1186
g1069
sg1187
g1223
sg271
g1086
sbsS'iostream'
p1883
g241
(g1182
g243
Ntp1884
Rp1885
(dp1886
g1186
g1194
sg1187
g1195
sg271
S'c:/marmalade/6.2/s3e/h/std/c++/iostream'
p1887
sbsVpng.h
p1888
g241
(g1182
g243
Ntp1889
Rp1890
(dp1891
g1186
g752
sg1187
g1711
sg271
g750
sbsS'stddef.h'
p1892
g241
(g1182
g243
Ntp1893
Rp1894
(dp1895
g1186
g1194
sg1187
g1216
sg271
S'c:/marmalade/6.2/s3e/h/std/stddef.h'
p1896
sbsS'character.cpp'
p1897
g241
(g1182
g243
Ntp1898
Rp1899
(dp1900
g1186
g815
sg1187
g1299
sg271
g848
sbsS'setjmp_win32.h'
p1901
g241
(g1182
g243
Ntp1902
Rp1903
(dp1904
g1186
g1194
sg1187
g1216
sg271
S'c:/marmalade/6.2/s3e/h/std/setjmp_win32.h'
p1905
sbsS'IwGxPrint.h'
p1906
g241
(g1182
g243
Ntp1907
Rp1908
(dp1909
g1186
g1015
sg1187
g1317
sg271
g1042
sbsS'IwGeomSVec2.h'
p1910
g241
(g1182
g243
Ntp1911
Rp1912
(dp1913
g1186
g923
sg1187
g1204
sg271
g967
sbsS'streambuf.h'
p1914
g241
(g1182
g243
Ntp1915
Rp1916
(dp1917
g1186
g1194
sg1187
g1195
sg271
S'c:/marmalade/6.2/s3e/h/std/c++/streambuf.h'
p1918
sbsS'IwGeomFPlane.h'
p1919
g241
(g1182
g243
Ntp1920
Rp1921
(dp1922
g1186
g923
sg1187
g1204
sg271
g950
sbsS'wchar.h'
p1923
g241
(g1182
g243
Ntp1924
Rp1925
(dp1926
g1186
g1194
sg1187
g1216
sg271
S'c:/marmalade/6.2/s3e/h/std/wchar.h'
p1927
sbsS's3eCameraCapture.h'
p1928
g241
(g1182
g243
Ntp1929
Rp1930
(dp1931
g1186
g1194
sg1187
g1400
sg271
S'c:/marmalade/6.2/s3e/h/ext/s3eCameraCapture.h'
p1932
sbsS'eglext.h'
p1933
g241
(g1182
g243
Ntp1934
Rp1935
(dp1936
g1186
g1194
sg1187
g1521
sg271
S'c:/marmalade/6.2/s3e/h/EGL/eglext.h'
p1937
sbsS'IwResHandlerImage.h'
p1938
g241
(g1182
g243
Ntp1939
Rp1940
(dp1941
g1186
g991
sg1187
g1446
sg271
g996
sbsS'strstream.h'
p1942
g241
(g1182
g243
Ntp1943
Rp1944
(dp1945
g1186
g1194
sg1187
g1195
sg271
S'c:/marmalade/6.2/s3e/h/std/c++/strstream.h'
p1946
sbsVtiniconv.h
p1947
g241
(g1182
g243
Ntp1948
Rp1949
(dp1950
g1186
g806
sg1187
g1644
sg271
g804
sbsS'IwGLExt.h'
p1951
g241
(g1182
g243
Ntp1952
Rp1953
(dp1954
g1186
g877
sg1187
g1293
sg271
g875
sbsS'app.icf'
p1955
g241
(g1182
g243
Ntp1956
Rp1957
(dp1958
g1186
(dp1959
sg1187
g4
sg271
S'c:/Users/1106786/Dropbox/Dropbox/PG life/Project Impact/Code/Demos/Demo_3_ResMan_Audio_LoadTile/data/app.icf'
p1960
sbsS'IwClassFactory.h'
p1961
g241
(g1182
g243
Ntp1962
Rp1963
(dp1964
g1186
g1069
sg1187
g1223
sg271
g1141
sbsS'file.h'
p1965
g241
(g1182
g243
Ntp1966
Rp1967
(dp1968
g1186
g1194
sg1187
g1331
sg271
S'c:/marmalade/6.2/s3e/h/std/sys/file.h'
p1969
sbsS'cstring'
p1970
g241
(g1182
g243
Ntp1971
Rp1972
(dp1973
g1186
g1194
sg1187
g1195
sg271
S'c:/marmalade/6.2/s3e/h/std/c++/cstring'
p1974
sbsS'iwutil.config.txt'
p1975
g241
(g1182
g243
Ntp1976
Rp1977
(dp1978
g1186
g1069
sg1187
g1223
sg271
g1074
sbsS's3eSMS.h'
p1979
g241
(g1182
g243
Ntp1980
Rp1981
(dp1982
g1186
g1194
sg1187
g1400
sg271
S'c:/marmalade/6.2/s3e/h/ext/s3eSMS.h'
p1983
sbsS'limits.h'
p1984
g241
(g1182
g243
Ntp1985
Rp1986
(dp1987
g1186
g1194
sg1187
g1216
sg271
S'c:/marmalade/6.2/s3e/h/std/limits.h'
p1988
sbsS'sigcontext.h'
p1989
g241
(g1182
g243
Ntp1990
Rp1991
(dp1992
g1186
g1194
sg1187
g1216
sg271
S'c:/marmalade/6.2/s3e/h/std/sigcontext.h'
p1993
sbsS'cJSON.h'
p1994
g241
(g1182
g243
Ntp1995
Rp1996
(dp1997
g1186
g796
sg1187
g1762
sg271
g794
sbsS'iwgx_public.defines.txt'
p1998
g241
(g1182
g243
Ntp1999
Rp2000
(dp2001
g1186
g1015
sg1187
g1317
sg271
g1022
sbsS'IwMaterial.h'
p2002
g241
(g1182
g243
Ntp2003
Rp2004
(dp2005
g1186
g1015
sg1187
g1317
sg271
g1040
sbsS'cJSON.c'
p2006
g241
(g1182
g243
Ntp2007
Rp2008
(dp2009
g1186
g796
sg1187
g1762
sg271
g797
sbsS'IwGxSurface.h'
p2010
g241
(g1182
g243
Ntp2011
Rp2012
(dp2013
g1186
g1015
sg1187
g1317
sg271
g1051
sbsS's3eSocket.h'
p2014
g241
(g1182
g243
Ntp2015
Rp2016
(dp2017
g1186
g1194
sg1187
g1210
sg271
S'c:/marmalade/6.2/s3e/h/s3eSocket.h'
p2018
sbsS'IwAutoFile.h'
p2019
g241
(g1182
g243
Ntp2020
Rp2021
(dp2022
g1186
g1069
sg1187
g1223
sg271
g1143
sbsS'ipc.h'
p2023
g241
(g1182
g243
Ntp2024
Rp2025
(dp2026
g1186
g1194
sg1187
g1331
sg271
S'c:/marmalade/6.2/s3e/h/std/sys/ipc.h'
p2027
sbsS'poll_1.h'
p2028
g241
(g1182
g243
Ntp2029
Rp2030
(dp2031
g1186
g1194
sg1187
g1331
sg271
S'c:/marmalade/6.2/s3e/h/std/sys/poll.h'
p2032
sbsS's3eThread.h'
p2033
g241
(g1182
g243
Ntp2034
Rp2035
(dp2036
g1186
g1194
sg1187
g1210
sg271
S'c:/marmalade/6.2/s3e/h/s3eThread.h'
p2037
sbsS'ucontext.h'
p2038
g241
(g1182
g243
Ntp2039
Rp2040
(dp2041
g1186
g1194
sg1187
g1216
sg271
S'c:/marmalade/6.2/s3e/h/std/ucontext.h'
p2042
sbsS'time.h'
p2043
g241
(g1182
g243
Ntp2044
Rp2045
(dp2046
g1186
g1194
sg1187
g1216
sg271
S'c:/marmalade/6.2/s3e/h/std/time.h'
p2047
sbsVjchuff.h
p2048
g241
(g1182
g243
Ntp2049
Rp2050
(dp2051
g1186
g759
sg1187
g1268
sg271
g785
sbsS's3eSoundRecord.h'
p2052
g241
(g1182
g243
Ntp2053
Rp2054
(dp2055
g1186
g1194
sg1187
g1210
sg271
S'c:/marmalade/6.2/s3e/h/s3eSoundRecord.h'
p2056
sbsS'IwFibre.h'
p2057
g241
(g1182
g243
Ntp2058
Rp2059
(dp2060
g1186
g1069
sg1187
g1223
sg271
g1167
sbsS's3eVersion.h'
p2061
g241
(g1182
g243
Ntp2062
Rp2063
(dp2064
g1186
g1194
sg1187
g1210
sg271
S'c:/marmalade/6.2/s3e/h/s3eVersion.h'
p2065
sbsS'input.cpp'
p2066
g241
(g1182
g243
Ntp2067
Rp2068
(dp2069
g1186
g815
sg1187
g1299
sg271
g836
sbsS'IwGxFontGlyph.h'
p2070
g241
(g1182
g243
Ntp2071
Rp2072
(dp2073
g1186
g901
sg1187
g1188
sg271
g907
sbsS's3eTypes.h'
p2074
g241
(g1182
g243
Ntp2075
Rp2076
(dp2077
g1186
g1194
sg1187
g1210
sg271
S'c:/marmalade/6.2/s3e/h/s3eTypes.h'
p2078
sbsS'signal_2.h'
p2079
g241
(g1182
g243
Ntp2080
Rp2081
(dp2082
g1186
g1194
sg1187
g1195
sg271
S'c:/marmalade/6.2/s3e/h/std/c++/signal.h'
p2083
sbsS'termios.h'
p2084
g241
(g1182
g243
Ntp2085
Rp2086
(dp2087
g1186
g1194
sg1187
g1216
sg271
S'c:/marmalade/6.2/s3e/h/std/termios.h'
p2088
sbsS'slist'
p2089
g241
(g1182
g243
Ntp2090
Rp2091
(dp2092
g1186
g1194
sg1187
g1195
sg271
S'c:/marmalade/6.2/s3e/h/std/c++/slist'
p2093
sbsS'cstdlib'
p2094
g241
(g1182
g243
Ntp2095
Rp2096
(dp2097
g1186
g1194
sg1187
g1195
sg271
S'c:/marmalade/6.2/s3e/h/std/c++/cstdlib'
p2098
sbsS's3eLocation.h'
p2099
g241
(g1182
g243
Ntp2100
Rp2101
(dp2102
g1186
g1194
sg1187
g1210
sg271
S'c:/marmalade/6.2/s3e/h/s3eLocation.h'
p2103
sbsS'IwMemBucketHelpers.h'
p2104
g241
(g1182
g243
Ntp2105
Rp2106
(dp2107
g1186
g1069
sg1187
g1223
sg271
g1139
sbsS's3eHash.h'
p2108
g241
(g1182
g243
Ntp2109
Rp2110
(dp2111
g1186
g1194
sg1187
g1210
sg271
S'c:/marmalade/6.2/s3e/h/s3eHash.h'
p2112
sbsS'IwGeomFMat.h'
p2113
g241
(g1182
g243
Ntp2114
Rp2115
(dp2116
g1186
g923
sg1187
g1204
sg271
g973
sbsS'type_traits.h'
p2117
g241
(g1182
g243
Ntp2118
Rp2119
(dp2120
g1186
g1194
sg1187
g1195
sg271
S'c:/marmalade/6.2/s3e/h/std/c++/type_traits.h'
p2121
sbsS'IwMenu.h'
p2122
g241
(g1182
g243
Ntp2123
Rp2124
(dp2125
g1186
g1069
sg1187
g1223
sg271
g1113
sbsS'IwResHandlerITX.h'
p2126
g241
(g1182
g243
Ntp2127
Rp2128
(dp2129
g1186
g991
sg1187
g1446
sg271
g1009
sbsS'IwArray.h'
p2130
g241
(g1182
g243
Ntp2131
Rp2132
(dp2133
g1186
g1069
sg1187
g1223
sg271
g1115
sbsS'IwUTF8.h'
p2134
g241
(g1182
g243
Ntp2135
Rp2136
(dp2137
g1186
g1069
sg1187
g1223
sg271
g1127
sbsS'math_rvct.h'
p2138
g241
(g1182
g243
Ntp2139
Rp2140
(dp2141
g1186
g1194
sg1187
g1216
sg271
S'c:/marmalade/6.2/s3e/h/std/math_rvct.h'
p2142
sbsS'IwUtil.h'
p2143
g241
(g1182
g243
Ntp2144
Rp2145
(dp2146
g1186
g1069
sg1187
g1223
sg271
g1109
sbsS'IwGeomVec3.h'
p2147
g241
(g1182
g243
Ntp2148
Rp2149
(dp2150
g1186
g923
sg1187
g1204
sg271
g985
sbsS'wctype.h'
p2151
g241
(g1182
g243
Ntp2152
Rp2153
(dp2154
g1186
g1194
sg1187
g1216
sg271
S'c:/marmalade/6.2/s3e/h/std/wctype.h'
p2155
sbsS'pthread.h'
p2156
g241
(g1182
g243
Ntp2157
Rp2158
(dp2159
g1186
g1194
sg1187
g1216
sg271
S'c:/marmalade/6.2/s3e/h/std/pthread.h'
p2160
sbsS'cstddef'
p2161
g241
(g1182
g243
Ntp2162
Rp2163
(dp2164
g1186
g1194
sg1187
g1195
sg271
S'c:/marmalade/6.2/s3e/h/std/c++/cstddef'
p2165
sbsS'assert.h'
p2166
g241
(g1182
g243
Ntp2167
Rp2168
(dp2169
g1186
g1194
sg1187
g1216
sg271
S'c:/marmalade/6.2/s3e/h/std/assert.h'
p2170
sbsS'mman.h'
p2171
g241
(g1182
g243
Ntp2172
Rp2173
(dp2174
g1186
g1194
sg1187
g1331
sg271
S'c:/marmalade/6.2/s3e/h/std/sys/mman.h'
p2175
sbsS'IwRandom.h'
p2176
g241
(g1182
g243
Ntp2177
Rp2178
(dp2179
g1186
g1069
sg1187
g1223
sg271
g1103
sbsS'libgen.h'
p2180
g241
(g1182
g243
Ntp2181
Rp2182
(dp2183
g1186
g1194
sg1187
g1216
sg271
S'c:/marmalade/6.2/s3e/h/std/libgen.h'
p2184
sbsS'utsname.h'
p2185
g241
(g1182
g243
Ntp2186
Rp2187
(dp2188
g1186
g1194
sg1187
g1331
sg271
S'c:/marmalade/6.2/s3e/h/std/sys/utsname.h'
p2189
sbsS'wait.h'
p2190
g241
(g1182
g243
Ntp2191
Rp2192
(dp2193
g1186
g1194
sg1187
g1331
sg271
S'c:/marmalade/6.2/s3e/h/std/sys/wait.h'
p2194
sbsS'tileunit.h'
p2195
g241
(g1182
g243
Ntp2196
Rp2197
(dp2198
g1186
g815
sg1187
g1299
sg271
g862
sbsS'param.h'
p2199
g241
(g1182
g243
Ntp2200
Rp2201
(dp2202
g1186
g1194
sg1187
g1331
sg271
S'c:/marmalade/6.2/s3e/h/std/sys/param.h'
p2203
sbsS'IwDivide.h'
p2204
g241
(g1182
g243
Ntp2205
Rp2206
(dp2207
g1186
g1069
sg1187
g1223
sg271
g1155
sbsS'IwResManager.h'
p2208
g241
(g1182
g243
Ntp2209
Rp2210
(dp2211
g1186
g991
sg1187
g1446
sg271
g1007
sbsS'ostream'
p2212
g241
(g1182
g243
Ntp2213
Rp2214
(dp2215
g1186
g1194
sg1187
g1195
sg271
S'c:/marmalade/6.2/s3e/h/std/c++/ostream'
p2216
sbsS'cwctype'
p2217
g241
(g1182
g243
Ntp2218
Rp2219
(dp2220
g1186
g1194
sg1187
g1195
sg271
S'c:/marmalade/6.2/s3e/h/std/c++/cwctype'
p2221
sbsS's3ePointer.h'
p2222
g241
(g1182
g243
Ntp2223
Rp2224
(dp2225
g1186
g1194
sg1187
g1210
sg271
S'c:/marmalade/6.2/s3e/h/s3ePointer.h'
p2226
sbsS'set'
p2227
g241
(g1182
g243
Ntp2228
Rp2229
(dp2230
g1186
g1194
sg1187
g1195
sg271
S'c:/marmalade/6.2/s3e/h/std/c++/set'
p2231
sbsS'IwGeomSQuat.h'
p2232
g241
(g1182
g243
Ntp2233
Rp2234
(dp2235
g1186
g923
sg1187
g1204
sg271
g954
sbsS'locale'
p2236
g241
(g1182
g243
Ntp2237
Rp2238
(dp2239
g1186
g1194
sg1187
g1195
sg271
S'c:/marmalade/6.2/s3e/h/std/c++/locale'
p2240
sbsS'cstdio'
p2241
g241
(g1182
g243
Ntp2242
Rp2243
(dp2244
g1186
g1194
sg1187
g1195
sg271
S'c:/marmalade/6.2/s3e/h/std/c++/cstdio'
p2245
sbsVcdjpeg.h
p2246
g241
(g1182
g243
Ntp2247
Rp2248
(dp2249
g1186
g759
sg1187
g1268
sg271
g771
sbsS'audio.h'
p2250
g241
(g1182
g243
Ntp2251
Rp2252
(dp2253
g1186
g815
sg1187
g1299
sg271
g840
sbsS'IwList.h'
p2254
g241
(g1182
g243
Ntp2255
Rp2256
(dp2257
g1186
g1069
sg1187
g1223
sg271
g1135
sbsS'inttypes.h'
p2258
g241
(g1182
g243
Ntp2259
Rp2260
(dp2261
g1186
g1194
sg1187
g1216
sg271
S'c:/marmalade/6.2/s3e/h/std/inttypes.h'
p2262
sbsS'maze.h'
p2263
g241
(g1182
g243
Ntp2264
Rp2265
(dp2266
g1186
g815
sg1187
g1299
sg271
g832
sbsS'dirent.h'
p2267
g241
(g1182
g243
Ntp2268
Rp2269
(dp2270
g1186
g1194
sg1187
g1216
sg271
S'c:/marmalade/6.2/s3e/h/std/dirent.h'
p2271
sbsS'IwFColour.h'
p2272
g241
(g1182
g243
Ntp2273
Rp2274
(dp2275
g1186
g1015
sg1187
g1317
sg271
g1034
sbsVtransupp.h
p2276
g241
(g1182
g243
Ntp2277
Rp2278
(dp2279
g1186
g759
sg1187
g1268
sg271
g783
sbsS'IwMath.h'
p2280
g241
(g1182
g243
Ntp2281
Rp2282
(dp2283
g1186
g1069
sg1187
g1223
sg271
g1092
sbsS'IwGeomQuat.h'
p2284
g241
(g1182
g243
Ntp2285
Rp2286
(dp2287
g1186
g923
sg1187
g1204
sg271
g959
sbsS'glplatform.h'
p2288
g241
(g1182
g243
Ntp2289
Rp2290
(dp2291
g1186
g1194
sg1187
g1739
sg271
S'c:/marmalade/6.2/s3e/h/GLES/glplatform.h'
p2292
sbsS'bitset'
p2293
g241
(g1182
g243
Ntp2294
Rp2295
(dp2296
g1186
g1194
sg1187
g1195
sg271
S'c:/marmalade/6.2/s3e/h/std/c++/bitset'
p2297
sbsS'alloca.h'
p2298
g241
(g1182
g243
Ntp2299
Rp2300
(dp2301
g1186
g1194
sg1187
g1216
sg271
S'c:/marmalade/6.2/s3e/h/std/alloca.h'
p2302
sbsS'IwResHandler.h'
p2303
g241
(g1182
g243
Ntp2304
Rp2305
(dp2306
g1186
g991
sg1187
g1446
sg271
g1000
sbsS'IwResHandlerMTL.h'
p2307
g241
(g1182
g243
Ntp2308
Rp2309
(dp2310
g1186
g1015
sg1187
g1317
sg271
g1026
sbsS'IwRuntime.h'
p2311
g241
(g1182
g243
Ntp2312
Rp2313
(dp2314
g1186
g1069
sg1187
g1223
sg271
g1129
sbsS'limits'
p2315
g241
(g1182
g243
Ntp2316
Rp2317
(dp2318
g1186
g1194
sg1187
g1195
sg271
S'c:/marmalade/6.2/s3e/h/std/c++/limits'
p2319
sbsS'IwGeomBBox.h'
p2320
g241
(g1182
g243
Ntp2321
Rp2322
(dp2323
g1186
g923
sg1187
g1204
sg271
g946
sbsS's3eContacts.h'
p2324
g241
(g1182
g243
Ntp2325
Rp2326
(dp2327
g1186
g1194
sg1187
g1210
sg271
S'c:/marmalade/6.2/s3e/h/s3eContacts.h'
p2328
sbsS's3eLicense.h'
p2329
g241
(g1182
g243
Ntp2330
Rp2331
(dp2332
g1186
g1194
sg1187
g1210
sg271
S'c:/marmalade/6.2/s3e/h/s3eLicense.h'
p2333
sbsS'iwgx.config.txt'
p2334
g241
(g1182
g243
Ntp2335
Rp2336
(dp2337
g1186
g1015
sg1187
g1317
sg271
g1028
sbsS'IwTextParser.h'
p2338
g241
(g1182
g243
Ntp2339
Rp2340
(dp2341
g1186
g1069
sg1187
g1223
sg271
g1151
sbsS's3eTimer.h'
p2342
g241
(g1182
g243
Ntp2343
Rp2344
(dp2345
g1186
g1194
sg1187
g1210
sg271
S'c:/marmalade/6.2/s3e/h/s3eTimer.h'
p2346
sbsS'IwGeomVec.h'
p2347
g241
(g1182
g243
Ntp2348
Rp2349
(dp2350
g1186
g923
sg1187
g1204
sg271
g983
sbsS'IwSerialise.h'
p2351
g241
(g1182
g243
Ntp2352
Rp2353
(dp2354
g1186
g1069
sg1187
g1223
sg271
g1080
sbsS'obstacle.cpp'
p2355
g241
(g1182
g243
Ntp2356
Rp2357
(dp2358
g1186
g815
sg1187
g1299
sg271
g824
sbsS'gl2ext.h'
p2359
g241
(g1182
g243
Ntp2360
Rp2361
(dp2362
g1186
g1194
sg1187
g1438
sg271
S'c:/marmalade/6.2/s3e/h/GLES2/gl2ext.h'
p2363
sbsS'IwChar.h'
p2364
g241
(g1182
g243
Ntp2365
Rp2366
(dp2367
g1186
g1069
sg1187
g1223
sg271
g1165
sbsS's3eSound.h'
p2368
g241
(g1182
g243
Ntp2369
Rp2370
(dp2371
g1186
g1194
sg1187
g1210
sg271
S'c:/marmalade/6.2/s3e/h/s3eSound.h'
p2372
sbsS'IwOptimiseThumb.h'
p2373
g241
(g1182
g243
Ntp2374
Rp2375
(dp2376
g1186
g1069
sg1187
g1223
sg271
g1133
sbsS'exception.h'
p2377
g241
(g1182
g243
Ntp2378
Rp2379
(dp2380
g1186
g1194
sg1187
g1195
sg271
S'c:/marmalade/6.2/s3e/h/std/c++/exception.h'
p2381
sbsS'iwgeom.config.txt'
p2382
g241
(g1182
g243
Ntp2383
Rp2384
(dp2385
g1186
g923
sg1187
g1204
sg271
g952
sbsS'iwgx.mkf'
p2386
g241
(g1182
g243
Ntp2387
Rp2388
(dp2389
g1186
g1048
sg1187
g1317
sg271
g1046
sbsS'gl.h'
p2390
g241
(g1182
g243
Ntp2391
Rp2392
(dp2393
g1186
g1194
sg1187
g1739
sg271
S'c:/marmalade/6.2/s3e/h/GLES/gl.h'
p2394
sbsVzlib.h
p2395
g241
(g1182
g243
Ntp2396
Rp2397
(dp2398
g1186
g1173
sg1187
g1697
sg271
g1174
sbsS'iwgl.mkf'
p2399
g241
(g1182
g243
Ntp2400
Rp2401
(dp2402
g1186
g884
sg1187
g1293
sg271
g882
sbsS'IwColour.h'
p2403
g241
(g1182
g243
Ntp2404
Rp2405
(dp2406
g1186
g1015
sg1187
g1317
sg271
g1038
sbsS's3eLibrary.h'
p2407
g241
(g1182
g243
Ntp2408
Rp2409
(dp2410
g1186
g1194
sg1187
g1400
sg271
S'c:/marmalade/6.2/s3e/h/ext/s3eLibrary.h'
p2411
sbsS'types.h'
p2412
g241
(g1182
g243
Ntp2413
Rp2414
(dp2415
g1186
g1194
sg1187
g1331
sg271
S'c:/marmalade/6.2/s3e/h/std/sys/types.h'
p2416
sbsS'ifaddrs.h'
p2417
g241
(g1182
g243
Ntp2418
Rp2419
(dp2420
g1186
g1194
sg1187
g1216
sg271
S'c:/marmalade/6.2/s3e/h/std/ifaddrs.h'
p2421
sbsS'strstream'
p2422
g241
(g1182
g243
Ntp2423
Rp2424
(dp2425
g1186
g1194
sg1187
g1195
sg271
S'c:/marmalade/6.2/s3e/h/std/c++/strstream'
p2426
sbsS'exception'
p2427
g241
(g1182
g243
Ntp2428
Rp2429
(dp2430
g1186
g1194
sg1187
g1195
sg271
S'c:/marmalade/6.2/s3e/h/std/c++/exception'
p2431
sbsS'rlocks.h'
p2432
g241
(g1182
g243
Ntp2433
Rp2434
(dp2435
g1186
g1194
sg1187
g1195
sg271
S'c:/marmalade/6.2/s3e/h/std/c++/rlocks.h'
p2436
sbsS'ioctl.h'
p2437
g241
(g1182
g243
Ntp2438
Rp2439
(dp2440
g1186
g1194
sg1187
g1331
sg271
S'c:/marmalade/6.2/s3e/h/std/sys/ioctl.h'
p2441
sbsS'rope'
p2442
g241
(g1182
g243
Ntp2443
Rp2444
(dp2445
g1186
g1194
sg1187
g1195
sg271
S'c:/marmalade/6.2/s3e/h/std/c++/rope'
p2446
sbsVjinclude.h
p2447
g241
(g1182
g243
Ntp2448
Rp2449
(dp2450
g1186
g759
sg1187
g1268
sg271
g775
sbsS'IwEvent.h'
p2451
g241
(g1182
g243
Ntp2452
Rp2453
(dp2454
g1186
g1069
sg1187
g1223
sg271
g1163
sbsS'IwOptimiseSize.h'
p2455
g241
(g1182
g243
Ntp2456
Rp2457
(dp2458
g1186
g1069
sg1187
g1223
sg271
g1117
sbsS'iwgxfont_public.defines.txt'
p2459
g241
(g1182
g243
Ntp2460
Rp2461
(dp2462
g1186
g901
sg1187
g1188
sg271
g899
sbsS'iconv.h'
p2463
g241
(g1182
g243
Ntp2464
Rp2465
(dp2466
g1186
g1194
sg1187
g1216
sg271
S'c:/marmalade/6.2/s3e/h/std/iconv.h'
p2467
sbsS'sendfile.h'
p2468
g241
(g1182
g243
Ntp2469
Rp2470
(dp2471
g1186
g1194
sg1187
g1331
sg271
S'c:/marmalade/6.2/s3e/h/std/sys/sendfile.h'
p2472
sbsS'IwGeomSphere.h'
p2473
g241
(g1182
g243
Ntp2474
Rp2475
(dp2476
g1186
g923
sg1187
g1204
sg271
g969
sbsVtiniconv.mkf
p2477
g241
(g1182
g243
Ntp2478
Rp2479
(dp2480
g1186
g803
sg1187
g1644
sg271
g801
sbsVjdct.h
p2481
g241
(g1182
g243
Ntp2482
Rp2483
(dp2484
g1186
g759
sg1187
g1268
sg271
g777
sbsS'cctype'
p2485
g241
(g1182
g243
Ntp2486
Rp2487
(dp2488
g1186
g1194
sg1187
g1195
sg271
S'c:/marmalade/6.2/s3e/h/std/c++/cctype'
p2489
sbsS's3eConfig.h'
p2490
g241
(g1182
g243
Ntp2491
Rp2492
(dp2493
g1186
g1194
sg1187
g1210
sg271
S'c:/marmalade/6.2/s3e/h/s3eConfig.h'
p2494
sbsS'IwHashString.h'
p2495
g241
(g1182
g243
Ntp2496
Rp2497
(dp2498
g1186
g1069
sg1187
g1223
sg271
g1157
sbsS'stat.h'
p2499
g241
(g1182
g243
Ntp2500
Rp2501
(dp2502
g1186
g1194
sg1187
g1331
sg271
S'c:/marmalade/6.2/s3e/h/std/sys/stat.h'
p2503
sbsS'byteswap.h'
p2504
g241
(g1182
g243
Ntp2505
Rp2506
(dp2507
g1186
g1194
sg1187
g1216
sg271
S'c:/marmalade/6.2/s3e/h/std/byteswap.h'
p2508
sbsS'iwresmanager.mkf'
p2509
g241
(g1182
g243
Ntp2510
Rp2511
(dp2512
g1186
g1004
sg1187
g1446
sg271
g1002
sbsS'IwUtilInitTerm.h'
p2513
g241
(g1182
g243
Ntp2514
Rp2515
(dp2516
g1186
g1069
sg1187
g1223
sg271
g1088
sbsS'pthread_1.h'
p2517
g241
(g1182
g243
Ntp2518
Rp2519
(dp2520
g1186
g1194
sg1187
g1195
sg271
S'c:/marmalade/6.2/s3e/h/std/c++/pthread.h'
p2521
sbsS'IwMemBucket.h'
p2522
g241
(g1182
g243
Ntp2523
Rp2524
(dp2525
g1186
g1069
sg1187
g1223
sg271
g1125
sbsS'complex'
p2526
g241
(g1182
g243
Ntp2527
Rp2528
(dp2529
g1186
g1194
sg1187
g1195
sg271
S'c:/marmalade/6.2/s3e/h/std/c++/complex'
p2530
sbsS'game.cpp'
p2531
g241
(g1182
g243
Ntp2532
Rp2533
(dp2534
g1186
g815
sg1187
g1299
sg271
g834
sbsS'algorithm'
p2535
g241
(g1182
g243
Ntp2536
Rp2537
(dp2538
g1186
g1194
sg1187
g1195
sg271
S'c:/marmalade/6.2/s3e/h/std/c++/algorithm'
p2539
sbsS's3e.icf'
p2540
g241
(g1182
g243
Ntp2541
Rp2542
(dp2543
g1186
g1194
sg1187
g1210
sg271
S'c:/marmalade/6.2/s3e/s3e.icf'
p2544
sbsS'IwVariableBitField.h'
p2545
g241
(g1182
g243
Ntp2546
Rp2547
(dp2548
g1186
g1069
sg1187
g1223
sg271
g1131
sbsS'sem.h'
p2549
g241
(g1182
g243
Ntp2550
Rp2551
(dp2552
g1186
g1194
sg1187
g1331
sg271
S'c:/marmalade/6.2/s3e/h/std/sys/sem.h'
p2553
sbsS'IwGxFontState.h'
p2554
g241
(g1182
g243
Ntp2555
Rp2556
(dp2557
g1186
g901
sg1187
g1188
sg271
g905
sbsS'stdio.h'
p2558
g241
(g1182
g243
Ntp2559
Rp2560
(dp2561
g1186
g1194
sg1187
g1216
sg271
S'c:/marmalade/6.2/s3e/h/std/stdio.h'
p2562
sbsVjmemsys.h
p2563
g241
(g1182
g243
Ntp2564
Rp2565
(dp2566
g1186
g759
sg1187
g1268
sg271
g757
sbsS'ios'
p2567
g241
(g1182
g243
Ntp2568
Rp2569
(dp2570
g1186
g1194
sg1187
g1195
sg271
S'c:/marmalade/6.2/s3e/h/std/c++/ios'
p2571
sbsS'stack'
p2572
g241
(g1182
g243
Ntp2573
Rp2574
(dp2575
g1186
g1194
sg1187
g1195
sg271
S'c:/marmalade/6.2/s3e/h/std/c++/stack'
p2576
sbsS'new.h'
p2577
g241
(g1182
g243
Ntp2578
Rp2579
(dp2580
g1186
g1194
sg1187
g1195
sg271
S'c:/marmalade/6.2/s3e/h/std/c++/new.h'
p2581
sbsS's3eEMail.h'
p2582
g241
(g1182
g243
Ntp2583
Rp2584
(dp2585
g1186
g1194
sg1187
g1400
sg271
S'c:/marmalade/6.2/s3e/h/ext/s3eEMail.h'
p2586
sbsS's3eVideo.h'
p2587
g241
(g1182
g243
Ntp2588
Rp2589
(dp2590
g1186
g1194
sg1187
g1210
sg271
S'c:/marmalade/6.2/s3e/h/s3eVideo.h'
p2591
sbsS'IwFile.h'
p2592
g241
(g1182
g243
Ntp2593
Rp2594
(dp2595
g1186
g1069
sg1187
g1223
sg271
g1072
sbsS'pwd.h'
p2596
g241
(g1182
g243
Ntp2597
Rp2598
(dp2599
g1186
g1194
sg1187
g1216
sg271
S'c:/marmalade/6.2/s3e/h/std/pwd.h'
p2600
sbsS'IwClip.h'
p2601
g241
(g1182
g243
Ntp2602
Rp2603
(dp2604
g1186
g1015
sg1187
g1317
sg271
g1061
sbsS'iwresmanager.config.txt'
p2605
g241
(g1182
g243
Ntp2606
Rp2607
(dp2608
g1186
g991
sg1187
g1446
sg271
g998
sbsS'IwGxShaderTechnique.h'
p2609
g241
(g1182
g243
Ntp2610
Rp2611
(dp2612
g1186
g1015
sg1187
g1317
sg271
g1055
sbsS'IwCore.h'
p2613
g241
(g1182
g243
Ntp2614
Rp2615
(dp2616
g1186
g1069
sg1187
g1223
sg271
g1076
sbsS'cfloat'
p2617
g241
(g1182
g243
Ntp2618
Rp2619
(dp2620
g1186
g1194
sg1187
g1195
sg271
S'c:/marmalade/6.2/s3e/h/std/c++/cfloat'
p2621
sbsS'IwGeomMat2D.h'
p2622
g241
(g1182
g243
Ntp2623
Rp2624
(dp2625
g1186
g923
sg1187
g1204
sg271
g961
sbsS'IwAllocator.h'
p2626
g241
(g1182
g243
Ntp2627
Rp2628
(dp2629
g1186
g1069
sg1187
g1223
sg271
g1145
sbsS'IwPath.h'
p2630
g241
(g1182
g243
Ntp2631
Rp2632
(dp2633
g1186
g1069
sg1187
g1223
sg271
g1082
sbsS'tiles.cpp'
p2634
g241
(g1182
g243
Ntp2635
Rp2636
(dp2637
g1186
g815
sg1187
g1299
sg271
g860
sbsS'iwgxfont.mkf'
p2638
g241
(g1182
g243
Ntp2639
Rp2640
(dp2641
g1186
g904
sg1187
g1188
sg271
g902
sbsS'IwTexture.h'
p2642
g241
(g1182
g243
Ntp2643
Rp2644
(dp2645
g1186
g1015
sg1187
g1317
sg271
g1032
sbsS's3eAccelerometer.h'
p2646
g241
(g1182
g243
Ntp2647
Rp2648
(dp2649
g1186
g1194
sg1187
g1210
sg271
S'c:/marmalade/6.2/s3e/h/s3eAccelerometer.h'
p2650
sbsS'setjmp.h'
p2651
g241
(g1182
g243
Ntp2652
Rp2653
(dp2654
g1186
g1194
sg1187
g1216
sg271
S'c:/marmalade/6.2/s3e/h/std/setjmp.h'
p2655
sbsS'cstdarg'
p2656
g241
(g1182
g243
Ntp2657
Rp2658
(dp2659
g1186
g1194
sg1187
g1195
sg271
S'c:/marmalade/6.2/s3e/h/std/c++/cstdarg'
p2660
sbsVpngconf.h
p2661
g241
(g1182
g243
Ntp2662
Rp2663
(dp2664
g1186
g752
sg1187
g1711
sg271
g753
sbsS'IwTextParseable.h'
p2665
g241
(g1182
g243
Ntp2666
Rp2667
(dp2668
g1186
g1069
sg1187
g1223
sg271
g1153
sbsS'istream.h'
p2669
g241
(g1182
g243
Ntp2670
Rp2671
(dp2672
g1186
g1194
sg1187
g1195
sg271
S'c:/marmalade/6.2/s3e/h/std/c++/istream.h'
p2673
sbsS'stdint.h'
p2674
g241
(g1182
g243
Ntp2675
Rp2676
(dp2677
g1186
g1194
sg1187
g1216
sg271
S'c:/marmalade/6.2/s3e/h/std/stdint.h'
p2678
sbsS'layer.h'
p2679
g241
(g1182
g243
Ntp2680
Rp2681
(dp2682
g1186
g815
sg1187
g1299
sg271
g813
sbsS'semaphore.h'
p2683
g241
(g1182
g243
Ntp2684
Rp2685
(dp2686
g1186
g1194
sg1187
g1216
sg271
S'c:/marmalade/6.2/s3e/h/std/semaphore.h'
p2687
sbsS'demo_3_resman_audio_loadtile.mkf'
p2688
g241
(g1182
g243
Ntp2689
Rp2690
(dp2691
g1186
g870
sg1187
(lp2692
g809
asg271
g868
sbsS'ctime'
p2693
g241
(g1182
g243
Ntp2694
Rp2695
(dp2696
g1186
g1194
sg1187
g1195
sg271
S'c:/marmalade/6.2/s3e/h/std/c++/ctime'
p2697
sbsS'sstream'
p2698
g241
(g1182
g243
Ntp2699
Rp2700
(dp2701
g1186
g1194
sg1187
g1195
sg271
S'c:/marmalade/6.2/s3e/h/std/c++/sstream'
p2702
sbsS'IwGeomFBBox.h'
p2703
g241
(g1182
g243
Ntp2704
Rp2705
(dp2706
g1186
g923
sg1187
g1204
sg271
g934
sbsS'IwDebugPrim.h'
p2707
g241
(g1182
g243
Ntp2708
Rp2709
(dp2710
g1186
g1015
sg1187
g1317
sg271
g1024
sbsS'IwGxFontContainer.h'
p2711
g241
(g1182
g243
Ntp2712
Rp2713
(dp2714
g1186
g901
sg1187
g1188
sg271
g911
sbsS'obstacle.h'
p2715
g241
(g1182
g243
Ntp2716
Rp2717
(dp2718
g1186
g815
sg1187
g1299
sg271
g852
sbsS'tile.h'
p2719
g241
(g1182
g243
Ntp2720
Rp2721
(dp2722
g1186
g815
sg1187
g1299
sg271
g816
sbsS'IwGeomSVec3.h'
p2723
g241
(g1182
g243
Ntp2724
Rp2725
(dp2726
g1186
g923
sg1187
g1204
sg271
g965
sbsS's3eExt.h'
p2727
g241
(g1182
g243
Ntp2728
Rp2729
(dp2730
g1186
g1194
sg1187
g1210
sg271
S'c:/marmalade/6.2/s3e/h/s3eExt.h'
p2731
sbsS'IwGeomFVec3.h'
p2732
g241
(g1182
g243
Ntp2733
Rp2734
(dp2735
g1186
g923
sg1187
g1204
sg271
g924
sbsS'streambuf'
p2736
g241
(g1182
g243
Ntp2737
Rp2738
(dp2739
g1186
g1194
sg1187
g1195
sg271
S'c:/marmalade/6.2/s3e/h/std/c++/streambuf'
p2740
sbsS's3eMetrics.h'
p2741
g241
(g1182
g243
Ntp2742
Rp2743
(dp2744
g1186
g1194
sg1187
g1400
sg271
S'c:/marmalade/6.2/s3e/h/ext/s3eMetrics.h'
p2745
sbsS'IwGxFont.h'
p2746
g241
(g1182
g243
Ntp2747
Rp2748
(dp2749
g1186
g901
sg1187
g1188
sg271
g917
sbsS's3eSecureStorage.h'
p2750
g241
(g1182
g243
Ntp2751
Rp2752
(dp2753
g1186
g1194
sg1187
g1210
sg271
S'c:/marmalade/6.2/s3e/h/s3eSecureStorage.h'
p2754
sbsS'map.cpp'
p2755
g241
(g1182
g243
Ntp2756
Rp2757
(dp2758
g1186
g815
sg1187
g1299
sg271
g854
sbsS'string.h'
p2759
g241
(g1182
g243
Ntp2760
Rp2761
(dp2762
g1186
g1194
sg1187
g1216
sg271
S'c:/marmalade/6.2/s3e/h/std/string.h'
p2763
sbsS'IwResource.h'
p2764
g241
(g1182
g243
Ntp2765
Rp2766
(dp2767
g1186
g1069
sg1187
g1223
sg271
g1070
sbsVlibjpeg.mkf
p2768
g241
(g1182
g243
Ntp2769
Rp2770
(dp2771
g1186
g770
sg1187
g1268
sg271
g768
sbsS'IwGxDebug.h'
p2772
g241
(g1182
g243
Ntp2773
Rp2774
(dp2775
g1186
g1015
sg1187
g1317
sg271
g1030
sbsS'pthread_types.h'
p2776
g241
(g1182
g243
Ntp2777
Rp2778
(dp2779
g1186
g1194
sg1187
g1216
sg271
S'c:/marmalade/6.2/s3e/h/std/pthread_types.h'
p2780
sbsS'iomanip.h'
p2781
g241
(g1182
g243
Ntp2782
Rp2783
(dp2784
g1186
g1194
sg1187
g1195
sg271
S'c:/marmalade/6.2/s3e/h/std/c++/iomanip.h'
p2785
sbsS'layer.cpp'
p2786
g241
(g1182
g243
Ntp2787
Rp2788
(dp2789
g1186
g815
sg1187
g1299
sg271
g830
sbsS'IwKeymap.h'
p2790
g241
(g1182
g243
Ntp2791
Rp2792
(dp2793
g1186
g1069
sg1187
g1223
sg271
g1123
sbsS'IwDebug.h'
p2794
g241
(g1182
g243
Ntp2795
Rp2796
(dp2797
g1186
g1069
sg1187
g1223
sg271
g1099
sbsS's3eIOSBackgroundAudio.h'
p2798
g241
(g1182
g243
Ntp2799
Rp2800
(dp2801
g1186
g1194
sg1187
g1400
sg271
S'c:/marmalade/6.2/s3e/h/ext/s3eIOSBackgroundAudio.h'
p2802
sbsS'IwGeomMenu.h'
p2803
g241
(g1182
g243
Ntp2804
Rp2805
(dp2806
g1186
g923
sg1187
g1204
sg271
g921
sbsS'IwDivTable.h'
p2807
g241
(g1182
g243
Ntp2808
Rp2809
(dp2810
g1186
g1069
sg1187
g1223
sg271
g1137
sbsS'ctype.h'
p2811
g241
(g1182
g243
Ntp2812
Rp2813
(dp2814
g1186
g1194
sg1187
g1216
sg271
S'c:/marmalade/6.2/s3e/h/std/ctype.h'
p2815
sbsS'IwGeomMat.h'
p2816
g241
(g1182
g243
Ntp2817
Rp2818
(dp2819
g1186
g923
sg1187
g1204
sg271
g977
sbsS'IwResGroup.h'
p2820
g241
(g1182
g243
Ntp2821
Rp2822
(dp2823
g1186
g991
sg1187
g1446
sg271
g1005
sbsS'signal_1.h'
p2824
g241
(g1182
g243
Ntp2825
Rp2826
(dp2827
g1186
g1194
sg1187
g1331
sg271
S'c:/marmalade/6.2/s3e/h/std/sys/signal.h'
p2828
sbsS'main.cpp'
p2829
g241
(g1182
g243
Ntp2830
Rp2831
(dp2832
g1186
g815
sg1187
g1299
sg271
g826
sbsS'shm.h'
p2833
g241
(g1182
g243
Ntp2834
Rp2835
(dp2836
g1186
g1194
sg1187
g1331
sg271
S'c:/marmalade/6.2/s3e/h/std/sys/shm.h'
p2837
sbsVjpegint.h
p2838
g241
(g1182
g243
Ntp2839
Rp2840
(dp2841
g1186
g759
sg1187
g1268
sg271
g760
sbsS'prctl.h'
p2842
g241
(g1182
g243
Ntp2843
Rp2844
(dp2845
g1186
g1194
sg1187
g1331
sg271
S'c:/marmalade/6.2/s3e/h/std/sys/prctl.h'
p2846
sbsS'un.h'
p2847
g241
(g1182
g243
Ntp2848
Rp2849
(dp2850
g1186
g1194
sg1187
g1331
sg271
S'c:/marmalade/6.2/s3e/h/std/sys/un.h'
p2851
sbsS'tile.cpp'
p2852
g241
(g1182
g243
Ntp2853
Rp2854
(dp2855
g1186
g815
sg1187
g1299
sg271
g856
sbsS'utility'
p2856
g241
(g1182
g243
Ntp2857
Rp2858
(dp2859
g1186
g1194
sg1187
g1195
sg271
S'c:/marmalade/6.2/s3e/h/std/c++/utility'
p2860
sbsS'input.h'
p2861
g241
(g1182
g243
Ntp2862
Rp2863
(dp2864
g1186
g815
sg1187
g1299
sg271
g842
sbsS'IwGeomLegacy.h'
p2865
g241
(g1182
g243
Ntp2866
Rp2867
(dp2868
g1186
g923
sg1187
g1204
sg271
g936
sbsS'IwTPage.h'
p2869
g241
(g1182
g243
Ntp2870
Rp2871
(dp2872
g1186
g1015
sg1187
g1317
sg271
g1044
sbsS'IwResSerialise.h'
p2873
g241
(g1182
g243
Ntp2874
Rp2875
(dp2876
g1186
g991
sg1187
g1446
sg271
g989
sbsS's3eCrypto.h'
p2877
g241
(g1182
g243
Ntp2878
Rp2879
(dp2880
g1186
g1194
sg1187
g1210
sg271
S'c:/marmalade/6.2/s3e/h/s3eCrypto.h'
p2881
sbsS's3eKeyboard.h'
p2882
g241
(g1182
g243
Ntp2883
Rp2884
(dp2885
g1186
g1194
sg1187
g1210
sg271
S'c:/marmalade/6.2/s3e/h/s3eKeyboard.h'
p2886
sbsS'fcntl.h'
p2887
g241
(g1182
g243
Ntp2888
Rp2889
(dp2890
g1186
g1194
sg1187
g1216
sg271
S'c:/marmalade/6.2/s3e/h/std/fcntl.h'
p2891
sbsS'memory.h'
p2892
g241
(g1182
g243
Ntp2893
Rp2894
(dp2895
g1186
g1194
sg1187
g1216
sg271
S'c:/marmalade/6.2/s3e/h/std/memory.h'
p2896
sbsS'tileunit.cpp'
p2897
g241
(g1182
g243
Ntp2898
Rp2899
(dp2900
g1186
g815
sg1187
g1299
sg271
g844
sbsS'IwGeomIntersect.h'
p2901
g241
(g1182
g243
Ntp2902
Rp2903
(dp2904
g1186
g923
sg1187
g1204
sg271
g932
sbsS'IwTextParserITX.h'
p2905
g241
(g1182
g243
Ntp2906
Rp2907
(dp2908
g1186
g1069
sg1187
g1223
sg271
g1149
sbsS'egl_1.h'
p2909
g241
(g1182
g243
Ntp2910
Rp2911
(dp2912
g1186
g1194
sg1187
g1739
sg271
S'c:/marmalade/6.2/s3e/h/GLES/egl.h'
p2913
sbsS'ostream.h'
p2914
g241
(g1182
g243
Ntp2915
Rp2916
(dp2917
g1186
g1194
sg1187
g1195
sg271
S'c:/marmalade/6.2/s3e/h/std/c++/ostream.h'
p2918
sbsS'stl_user_config.h'
p2919
g241
(g1182
g243
Ntp2920
Rp2921
(dp2922
g1186
g1194
sg1187
g1195
sg271
S'c:/marmalade/6.2/s3e/h/std/c++/stl_user_config.h'
p2923
sbsS'IwProfileMenu.h'
p2924
g241
(g1182
g243
Ntp2925
Rp2926
(dp2927
g1186
g1069
sg1187
g1223
sg271
g1121
sbsS'MarmaladeVersion.h'
p2928
g241
(g1182
g243
Ntp2929
Rp2930
(dp2931
g1186
g1194
sg1187
g1210
sg271
S'c:/marmalade/6.2/s3e/h/MarmaladeVersion.h'
p2932
sbsS'ios.h'
p2933
g241
(g1182
g243
Ntp2934
Rp2935
(dp2936
g1186
g1194
sg1187
g1195
sg271
S'c:/marmalade/6.2/s3e/h/std/c++/ios.h'
p2937
sbsS'IwImageHelper.h'
p2938
g241
(g1182
g243
Ntp2939
Rp2940
(dp2941
g1186
g1069
sg1187
g1223
sg271
g1147
sbsS'hash_set'
p2942
g241
(g1182
g243
Ntp2943
Rp2944
(dp2945
g1186
g1194
sg1187
g1195
sg271
S'c:/marmalade/6.2/s3e/h/std/c++/hash_set'
p2946
sbsS'IwGeomFQuat.h'
p2947
g241
(g1182
g243
Ntp2948
Rp2949
(dp2950
g1186
g923
sg1187
g1204
sg271
g979
sbsVjmorecfg.h
p2951
g241
(g1182
g243
Ntp2952
Rp2953
(dp2954
g1186
g759
sg1187
g1268
sg271
g787
sbsS'eglplatform.h'
p2955
g241
(g1182
g243
Ntp2956
Rp2957
(dp2958
g1186
g1194
sg1187
g1521
sg271
S'c:/marmalade/6.2/s3e/h/EGL/eglplatform.h'
p2959
sbsS'cmath'
p2960
g241
(g1182
g243
Ntp2961
Rp2962
(dp2963
g1186
g1194
sg1187
g1195
sg271
S'c:/marmalade/6.2/s3e/h/std/c++/cmath'
p2964
sbsS'math_gcc.h'
p2965
g241
(g1182
g243
Ntp2966
Rp2967
(dp2968
g1186
g1194
sg1187
g1216
sg271
S'c:/marmalade/6.2/s3e/h/std/math_gcc.h'
p2969
sbsS's3eMemory.h'
p2970
g241
(g1182
g243
Ntp2971
Rp2972
(dp2973
g1186
g1194
sg1187
g1210
sg271
S'c:/marmalade/6.2/s3e/h/s3eMemory.h'
p2974
sbsS'strings.h'
p2975
g241
(g1182
g243
Ntp2976
Rp2977
(dp2978
g1186
g1194
sg1187
g1216
sg271
S'c:/marmalade/6.2/s3e/h/std/strings.h'
p2979
sbsS's3eFile.h'
p2980
g241
(g1182
g243
Ntp2981
Rp2982
(dp2983
g1186
g1194
sg1187
g1210
sg271
S'c:/marmalade/6.2/s3e/h/s3eFile.h'
p2984
sbsS'IwGxTypes.h'
p2985
g241
(g1182
g243
Ntp2986
Rp2987
(dp2988
g1186
g1015
sg1187
g1317
sg271
g1018
sbsS'cerrno'
p2989
g241
(g1182
g243
Ntp2990
Rp2991
(dp2992
g1186
g1194
sg1187
g1195
sg271
S'c:/marmalade/6.2/s3e/h/std/c++/cerrno'
p2993
sbsS'map.h'
p2994
g241
(g1182
g243
Ntp2995
Rp2996
(dp2997
g1186
g815
sg1187
g1299
sg271
g846
sbsS'resource.h'
p2998
g241
(g1182
g243
Ntp2999
Rp3000
(dp3001
g1186
g1194
sg1187
g1331
sg271
S'c:/marmalade/6.2/s3e/h/std/sys/resource.h'
p3002
sbsS'clocale'
p3003
g241
(g1182
g243
Ntp3004
Rp3005
(dp3006
g1186
g1194
sg1187
g1195
sg271
S'c:/marmalade/6.2/s3e/h/std/c++/clocale'
p3007
sbsS'csetjmp'
p3008
g241
(g1182
g243
Ntp3009
Rp3010
(dp3011
g1186
g1194
sg1187
g1195
sg271
S'c:/marmalade/6.2/s3e/h/std/c++/csetjmp'
p3012
sbsS'netdb.h'
p3013
g241
(g1182
g243
Ntp3014
Rp3015
(dp3016
g1186
g1194
sg1187
g1216
sg271
S'c:/marmalade/6.2/s3e/h/std/netdb.h'
p3017
sbsS's3eAndroidJNI.h'
p3018
g241
(g1182
g243
Ntp3019
Rp3020
(dp3021
g1186
g1194
sg1187
g1400
sg271
S'c:/marmalade/6.2/s3e/h/ext/s3eAndroidJNI.h'
p3022
sbsS'stdexcept'
p3023
g241
(g1182
g243
Ntp3024
Rp3025
(dp3026
g1186
g1194
sg1187
g1195
sg271
S'c:/marmalade/6.2/s3e/h/std/c++/stdexcept'
p3027
sbsS'math.h'
p3028
g241
(g1182
g243
Ntp3029
Rp3030
(dp3031
g1186
g1194
sg1187
g1216
sg271
S'c:/marmalade/6.2/s3e/h/std/math.h'
p3032
sbsS'stdbool.h'
p3033
g241
(g1182
g243
Ntp3034
Rp3035
(dp3036
g1186
g1194
sg1187
g1216
sg271
S'c:/marmalade/6.2/s3e/h/std/stdbool.h'
p3037
sbsS'uio.h'
p3038
g241
(g1182
g243
Ntp3039
Rp3040
(dp3041
g1186
g1194
sg1187
g1331
sg271
S'c:/marmalade/6.2/s3e/h/std/sys/uio.h'
p3042
sbsS'IwUncopyable.h'
p3043
g241
(g1182
g243
Ntp3044
Rp3045
(dp3046
g1186
g1069
sg1187
g1223
sg271
g1097
sbssS'tests'
p3047
(lp3048
sS'project_name'
p3049
g249
sS'root_file'
p3050
g106
sS'current_root'
p3051
S'c:/Users/1106786/Dropbox/Dropbox/PG life/Project Impact/Code/Demos/Demo_3_ResMan_Audio_LoadTile'
p3052
sS'dependencies'
p3053
(lp3054
sS'include_paths'
p3055
(lp3056
Vc:/users/1106786/appdata/roaming/marmalade/packages/6.2.2/libjpeg_6b/h
p3057
aVc:/users/1106786/appdata/roaming/marmalade/packages/6.2.2/zlib_1.2.4/h
p3058
aVc:/users/1106786/appdata/roaming/marmalade/packages/6.2.2/libpng_1.2.34/h
p3059
aS'c:/marmalade/6.2/modules/iwutil/h'
p3060
aS'c:/marmalade/6.2/modules/iwgeom/h'
p3061
aS'c:/marmalade/6.2/modules/iwresmanager/h'
p3062
aS'c:/marmalade/6.2/modules/iwgl/h'
p3063
aS'c:/marmalade/6.2/modules/iwgx/h'
p3064
aVc:/users/1106786/appdata/roaming/marmalade/packages/6.2.2/tiniconv_1.0.1/h
p3065
aS'c:/marmalade/6.2/modules/iwgxfont/h'
p3066
aS'c:/marmalade/6.2/modules/iw2d/h'
p3067
aS'c:/users/1106786/dropbox/dropbox/pg life/project impact/code/demos/demo_3_resman_audio_loadtile/h'
p3068
aS'c:/users/1106786/dropbox/dropbox/pg life/project impact/code/demos/demo_3_resman_audio_loadtile/libs/cjson-for-marmalade'
p3069
aS'c:/marmalade/6.2/s3e/h'
p3070
aS'c:/marmalade/6.2/s3e/h/ext'
p3071
aS'c:/marmalade/6.2/s3e/h/std'
p3072
aS'c:/marmalade/6.2/s3e/h/std/c++'
p3073
aS'c:/marmalade/6.2/s3e/h/ext_legacy'
p3074
aS'c:/marmalade/6.2/s3e/h/legacy'
p3075
asS'weak_frameworks'
p3076
(lp3077
sS'extprojects'
p3078
(dp3079
sg489
(dp3080
g483
(lp3081
(g66
S'.'
p3082
I0
tp3083
asS'default'
p3084
(lp3085
(S'c:/users/1106786/dropbox/dropbox/pg life/project impact/code/demos/demo_3_resman_audio_loadtile/data/splashscreen.jpg'
p3086
S'splashscreen.jpg'
p3087
I0
tp3088
a(S'c:/users/1106786/dropbox/dropbox/pg life/project impact/code/demos/demo_3_resman_audio_loadtile/data/audio.mp3'
p3089
S'audio.mp3'
p3090
I0
tp3091
a(S'c:/users/1106786/dropbox/dropbox/pg life/project impact/code/demos/demo_3_resman_audio_loadtile/data-ram/data-gles1/imgs.group.bin,c:/users/1106786/dropbox/dropbox/pg life/project impact/code/demos/demo_3_resman_audio_loadtile/data/imgs.group.bin'
p3092
S'imgs.group.bin'
p3093
I0
tp3094
asS'artbuild'
p3095
(lp3096
(S'c:/users/1106786/dropbox/dropbox/pg life/project impact/code/demos/demo_3_resman_audio_loadtile/data'
p3097
g3082
I0
tp3098
assS'macro_types'
p3099
(dp3100
g430
I1
sg431
I0
sg432
I0
sg433
I0
sg434
I0
sg435
I0
sg436
I0
sg437
I0
sg439
I0
sg440
I0
sg441
I0
sg442
I0
sg444
I0
sg446
I0
sg447
I0
sg448
I0
sg449
I0
sg450
I1
sg451
I0
sg452
I0
sg453
I0
sg454
I01
sg455
I1
sg456
I0
sg457
I0
sg458
I0
sg459
I0
ssS'commands'
p3101
(lp3102
sg491
(g738
S'VC10'
p3103
S'X86ARM'
p3104
tp3105
sS'subprojectOptions'
p3106
(dp3107
g495
(lp3108
sg497
Nsg498
Nsg499
Nsg500
Nsg501
Nsg502
Nsg503
Nsg504
(lp3109
sg506
Nsg621
Nsg509
Nsg510
Nsg511
Nsg512
Nsg513
Nsg514
Nsg515
Nsg516
Nsg517
Nsg518
(lp3110
sg698
Nsg521
Nsg522
Nsg699
Nsg694
Nsg524
Nsg525
Nsg526
Nsg527
Nsg528
Nsg529
Nsg702
Nsg531
Nsg532
Nsg693
Nsg533
Nsg534
Nsg535
Nsg536
Nsg537
Nsg538
Nsg576
Nsg540
Nsg541
Nsg542
Nsg544
Nsg545
Nsg546
Nsg547
Nsg548
Nsg549
Nsg550
Nsg551
Nsg626
Nsg552
Nsg554
Nsg555
Nsg556
Nsg557
Nsg558
Nsg559
(lp3111
sg561
Nsg562
Nsg563
Nsg564
Nsg565
Nsg566
Nsg567
Nsg631
Nsg569
(lp3112
sg571
Nsg572
Nsg573
Nsg574
Nsg575
Nsg539
Nsg577
Nsg633
Nsg579
Nsg580
Nsg581
Nsg582
Nsg583
Nsg584
(lp3113
sg586
Nsg715
Nsg588
Nsg589
Nsg590
Nsg591
Nsg592
Nsg593
Nsg594
Nsg635
Nsg596
Nsg598
(lp3114
sg600
Nsg601
Nsg716
Nsg603
(lp3115
sg605
Nsg606
Nsg607
Nsg608
Nsg609
Nsg610
Nsg636
Nsg612
Nsg613
Nsg614
Nsg615
Nsg616
(lp3116
sg618
Nsg619
Nsg620
Nsg508
Nsg622
Nsg623
Nsg624
(lp3117
sg507
Nsg627
Nsg628
Nsg629
Nsg630
Nsg568
Nsg578
Nsg634
Nsg595
Nsg611
Nsg637
Nsg638
Nsg684
Nsg641
Nsg642
Nsg643
Nsg644
Nsg645
Nsg724
Nsg647
Nsg648
Nsg649
Nsg650
(lp3118
sg652
Nsg653
Nsg654
Nsg655
Nsg656
Nsg657
Nsg658
(lp3119
sg660
Nsg661
Nsg662
Nsg663
Nsg664
Nsg665
Nsg666
Nsg667
Nsg668
Nsg669
Nsg727
Nsg671
Nsg672
Nsg680
Nsg673
Nsg682
Nsg675
Nsg676
Nsg677
Nsg683
Nsg679
Nsg722
Nsg639
(lp3120
sg681
Nsg674
Nsg678
Nsg730
Nsg686
Nsg687
Nsg688
Nsg721
Nsg689
Nsg690
Nsg691
Nsg692
Nsg543
Nsg530
Nsg695
Nsg696
Nsg697
Nsg520
Nsg523
Nsg700
Nsg701
Nsg632
Nsg703
Nsg704
Nsg705
Nsg706
Nsg707
Nsg708
Nsg709
Nsg710
Nsg711
Nsg712
(lp3121
sg714
Nsg587
Nsg602
Nsg717
Nsg718
Nsg719
Nsg720
Nsg553
Nsg597
Nsg723
Nsg646
Nsg735
Nsg726
Nsg670
Nsg728
Nsg729
Nsg685
Nsg731
Nsg732
Nsg733
Nsg734
Nsg725
Nsg736
NssS'build_libs'
p3122
(dp3123
sS'frameworks'
p3124
(lp3125
sS'environ'
p3126
(dp3127
sS'target_name_debug'
p3128
g249
sS'builders'
p3129
(dp3130
S'.S'
p3131
(dp3132
S'rvct'
p3133
(lp3134
S'.obj'
p3135
aS'echo ARM Assembling(RVCT) ${SOURCE}...'
p3136
aS'c:/marmalade/6.2/s3e\\rvct\\bin\\armasm -o ${TARGET} ${SOURCE}'
p3137
asg350
(lp3138
g3135
aS'echo ARM Assembling(GCC) ${SOURCE}...'
p3139
aS'c:/marmalade/6.2/s3e\\gcc\\bin\\arm-none-eabi-gcc -c -o ${TARGET} ${SOURCE}'
p3140
asS'ppu'
p3141
(lp3142
S'.a'
p3143
aS'echo PPU Assembling(SNC) ${SOURCE}...'
p3144
aS'c:/marmalade/6.2/s3e\\rvct\\bin\\armasm -o ${TARGET} ${SOURCE}'
p3145
assS'.s'
p3146
g3132
sS'.vp'
p3147
(lp3148
NaS'"C:/Marmalade/6.2/s3e/python/python.exe" "c:/marmalade/6.2/modules/iwgx/tools/compile_shaders.py" ${SOURCE}'
p3149
assg493
g0
sbtp3150
.