((dp0
S'arm_dbg_args'
p1
S'-via:"c:\\Users\\1106786\\Dropbox\\Dropbox\\PG life\\Project Impact\\Code\\Demos\\Demo_3_ResMan_Audio_LoadTile\\build_demo_3_resman_audio_loadtile_vc10\\Demo_3_ResMan_Audio_LoadTile_vc10_arm_debug.via" -qemu'
p2
sS'game-icf'
p3
S''
p4
sS'dist'
p5
NsS'module_path_append'
p6
NsS'global_path'
p7
S'c:\\users\\1106786\\dropbox\\dropbox\\pg life\\project impact\\code\\demos'
p8
sS'system_path'
p9
S'c:\\marmalade\\6.2\\s3e\\makefile_builder'
p10
sS'use_prebuilt'
p11
NsS'arm_rel_rtsm_args'
p12
S'-via:"c:\\Users\\1106786\\Dropbox\\Dropbox\\PG life\\Project Impact\\Code\\Demos\\Demo_3_ResMan_Audio_LoadTile\\build_demo_3_resman_audio_loadtile_vc10\\Demo_3_ResMan_Audio_LoadTile_vc10_arm_release.via" -qemu'
p13
sS'amd64'
p14
NsS'line-width'
p15
I80
sS'gcc_dbg_args'
p16
S'-via:"c:\\Users\\1106786\\Dropbox\\Dropbox\\PG life\\Project Impact\\Code\\Demos\\Demo_3_ResMan_Audio_LoadTile\\build_demo_3_resman_audio_loadtile_vc10\\Demo_3_ResMan_Audio_LoadTile_vc10_gcc_debug.via" -qemu'
p17
sS'x86_dbg_exe'
p18
S'c:/marmalade/6.2/s3e\\win32\\s3e_simulator_debug.exe'
p19
sS'disable-runtime-checks'
p20
NsS'release'
p21
NsS'no-make'
p22
NsS'optimise-size'
p23
NsS'output-name-debug'
p24
g4
sS'arm-fpu'
p25
S'vfp'
p26
sS'psp'
p27
NsS'proj_name'
p28
S'Demo_3_ResMan_Audio_LoadTile_vc10'
p29
sS'rvct-version'
p30
S'none'
p31
sS'compiler'
p32
g4
sS'execute'
p33
NsS'compile-static'
p34
NsS'msvc-project'
p35
NsS'buildenv'
p36
g4
sS'debug'
p37
NsS'module_path'
p38
NsS'use-release-std-libs'
p39
NsS'using_perforce'
p40
I00
sS'mips-s3e'
p41
NsS'shared-arm-lib'
p42
NsS'arm-cpu'
p43
g4
sS'compile-thumb'
p44
NsS'no-ide'
p45
NsS'msvc-version'
p46
S'6.0'
p47
sS'arm'
p48
NsS'builddir'
p49
g4
sS'compile-debug-as-release'
p50
I0
sS'brief'
p51
NsS'dll'
p52
NsS'buildenv-toolset'
p53
g4
sS'version'
p54
NsS'ccache'
p55
I0
sS'offline'
p56
NsS'ios-version'
p57
g4
sS'jobs'
p58
I0
sS'linkflags'
p59
NsS'quick'
p60
NsS'gcc_rel_rtsm_args'
p61
S'-via:"c:\\Users\\1106786\\Dropbox\\Dropbox\\PG life\\Project Impact\\Code\\Demos\\Demo_3_ResMan_Audio_LoadTile\\build_demo_3_resman_audio_loadtile_vc10\\Demo_3_ResMan_Audio_LoadTile_vc10_gcc_release.via" -qemu'
p62
sS'done_defaults'
p63
I1
sS'path'
p64
NsS's3e-data-dir'
p65
S'c:/Users/1106786/Dropbox/Dropbox/PG life/Project Impact/Code/Demos/Demo_3_ResMan_Audio_LoadTile\\data'
p66
sS'enable-exceptions'
p67
NsS'osx-dll'
p68
NsS'extension'
p69
g4
sS'no-vc6'
p70
NsS'non-interactive'
p71
NsS'win32-console'
p72
NsS'nds'
p73
NsS'dist-format'
p74
g4
sS's3e-force-arch'
p75
NsS'dump_defines'
p76
NsS'verbose'
p77
I0
sS'psp-minis'
p78
NsS'gcc-version'
p79
g4
sS'x86_dbg_args'
p80
S'-via:"c:\\Users\\1106786\\Dropbox\\Dropbox\\PG life\\Project Impact\\Code\\Demos\\Demo_3_ResMan_Audio_LoadTile\\build_demo_3_resman_audio_loadtile_vc10\\Demo_3_ResMan_Audio_LoadTile_vc10_debug.via"'
p81
sS'arm-debugger'
p82
g4
sS'use_temp_extension'
p83
NsS'log'
p84
NsS'no-strip'
p85
NsS'rebuild'
p86
NsS'win32-simulator-dll'
p87
NsS'strict'
p88
I0
sS'mips_dbg_args'
p89
S'../../tools/DeployTool/DeployTool.exe --dir "c:\\Users\\1106786\\Dropbox\\Dropbox\\PG life\\Project Impact\\Code\\Demos\\Demo_3_ResMan_Audio_LoadTile\\build_demo_3_resman_audio_loadtile_vc10"'
p90
sS'enable-global-path'
p91
NsS'iphone'
p92
NsS'cflags'
p93
NsS'dist-dir'
p94
g4
sS'jflags'
p95
NsS'distcc'
p96
NsS'external-compiler'
p97
NsS'no-distcc'
p98
NsS'preinclude'
p99
NsS'using_sdk'
p100
I01
sS'nologo'
p101
NsS'warn-level'
p102
I2
sS'mips_dbg_exe'
p103
S'c:\\marmalade\\6.2\\s3e\\makefile_builder\\tool_launcher.exe'
p104
sS'mkb_in'
p105
S'c:/Users/1106786/Dropbox/Dropbox/PG life/Project Impact/Code/Demos/Demo_3_ResMan_Audio_LoadTile/Demo_3_ResMan_Audio_LoadTile.mkb'
p106
sS'arm_dbg_exe'
p107
S'c:/marmalade/6.2/s3e\\bin\\armdebug.exe'
p108
sS'list-targets'
p109
NsS'arm_rel_exe'
p110
g104
sS'arm_rel_args'
p111
g90
sS'makedeps'
p112
NsS'default-buildenv'
p113
S'VC10'
p114
sS'x86_rel_exe'
p115
g19
sS'preprocess-java'
p116
NsS'mips_rel_args'
p117
g90
sS'defines'
p118
NsS'lib'
p119
NsS'global_argv'
p120
(lp121
S'C:\\Marmalade\\6.2\\s3e\\makefile_builder\\mkb.py'
p122
aS'C:\\Users\\1106786\\Dropbox\\Dropbox\\PG life\\Project Impact\\Code\\Demos\\Demo_3_ResMan_Audio_LoadTile\\Demo_3_ResMan_Audio_LoadTile.mkb'
p123
asS'make'
p124
NsS'optimise-speed'
p125
NsS'internal'
p126
NsS'enable-stdinc'
p127
NsS'deploy-only'
p128
NsS'x86'
p129
NsS'deploy'
p130
g4
sS'x86_run_exe'
p131
S'c:/marmalade/6.2/s3e\\win32\\s3e_console.exe'
p132
sS'x86_rel_args'
p133
S'-via:"c:\\Users\\1106786\\Dropbox\\Dropbox\\PG life\\Project Impact\\Code\\Demos\\Demo_3_ResMan_Audio_LoadTile\\build_demo_3_resman_audio_loadtile_vc10\\Demo_3_ResMan_Audio_LoadTile_vc10_release.via"'
p134
sS'gcc_rel_args'
p135
g90
sS'mips'
p136
NsS'incredibuild'
p137
NsS'strict-compile'
p138
I0
sS'use-auto-subdirs'
p139
NsS'mips_rel_exe'
p140
g104
sS'app-icf'
p141
g4
sS'deployargs'
p142
NsS'mkf_in'
p143
(lp144
S'c:\\marmalade\\6.2\\modules\\iw2d\\iw2d.mkf'
p145
aS'c:\\marmalade\\6.2\\modules\\iwgx\\iwgx.mkf'
p146
aS'c:\\marmalade\\6.2\\modules\\iwgeom\\iwgeom.mkf'
p147
aS'c:\\marmalade\\6.2\\modules\\iwutil\\iwutil.mkf'
p148
aVc:\u005cusers\u005c1106786\u005cappdata\u005croaming\u005cmarmalade\u005cpackages\u005c6.2.2\u005clibjpeg_6b\u005clibjpeg.mkf
p149
aVc:\u005cusers\u005c1106786\u005cappdata\u005croaming\u005cmarmalade\u005cpackages\u005c6.2.2\u005clibpng_1.2.34\u005clibpng.mkf
p150
aVc:\u005cusers\u005c1106786\u005cappdata\u005croaming\u005cmarmalade\u005cpackages\u005c6.2.2\u005czlib_1.2.4\u005czlib.mkf
p151
aS'c:\\marmalade\\6.2\\modules\\iwresmanager\\iwresmanager.mkf'
p152
aS'c:\\marmalade\\6.2\\modules\\iwgl\\iwgl.mkf'
p153
aS'c:\\marmalade\\6.2\\modules\\iwgxfont\\iwgxfont.mkf'
p154
aVc:\u005cusers\u005c1106786\u005cappdata\u005croaming\u005cmarmalade\u005cpackages\u005c6.2.2\u005ctiniconv_1.0.1\u005ctiniconv.mkf
p155
aS'c:\\users\\1106786\\dropbox\\dropbox\\pg life\\project impact\\code\\demos\\demo_3_resman_audio_loadtile\\demo_3_resman_audio_loadtile.mkf'
p156
aS'c:\\users\\1106786\\dropbox\\dropbox\\pg life\\project impact\\code\\demos\\demo_3_resman_audio_loadtile\\libs\\cjson-for-marmalade\\cjson.mkf'
p157
asS'strict-mkb'
p158
I0
sS'executeargs'
p159
NsS'clean'
p160
NsS'no-asm'
p161
NsS'output-name'
p162
g4
sS'no-modules'
p163
NsS'find_define'
p164
g4
s(dp165
S'c:\\marmalade\\6.2\\s3e\\makefile_builder\\templates\\xcode_pbxuser.py'
p166
F1365595058.0
sS'c:\\marmalade\\6.2\\s3e\\makefile_builder\\templates'
p167
F1378901971.8745732
sS'c:\\marmalade\\6.2\\s3e\\makefile_builder\\plugins\\null.pyc'
p168
F1365605816.0
sS'c:\\marmalade\\6.2\\s3e\\makefile_builder\\plugins\\XcodeEmitter.pyc'
p169
F1382954982.4709132
sS'c:\\marmalade\\6.2\\s3e\\makefile_builder\\plugins'
p170
F1382954982.8219833
sS'c:\\marmalade\\6.2\\s3e\\makefile_builder\\extensions'
p171
F1378901971.8765736
sS'c:\\marmalade\\6.2\\s3e\\makefile_builder\\templates\\vc6_opt.pyc'
p172
F1365605816.0
sS'c:\\marmalade\\6.2\\s3e\\makefile_builder\\templates\\win32_vcxproj_filters.pyc'
p173
F1365605816.0
sS'c:\\marmalade\\6.2\\s3e\\makefile_builder\\mkb_parser.pyc'
p174
F1365605816.0
sS'c:\\marmalade\\6.2\\s3e\\makefile_builder\\plugins\\xcode4_schememanagement.pyc'
p175
F1382954982.4909172
sS'c:\\marmalade\\6.2\\s3e\\makefile_builder\\plugins\\win32_vc6.pyc'
p176
F1365605816.0
sS'c:\\marmalade\\6.2\\s3e\\makefile_builder\\templates\\template.suo'
p177
F1365595058.0
sS'c:\\marmalade\\6.2\\s3e\\makefile_builder\\plugins\\s3e_xcode.py'
p178
F1365595058.0
sS'c:\\marmalade\\6.2\\s3e\\makefile_builder\\templates\\make.py'
p179
F1365595058.0
sS'c:\\marmalade\\6.2\\s3e\\makefile_builder\\docs\\options.txt'
p180
F1365595058.0
sS'c:\\marmalade\\6.2\\s3e\\makefile_builder\\plugins\\linux_scons.pyc'
p181
F1365605816.0
sS'c:\\marmalade\\6.2\\s3e\\makefile_builder\\templates\\linker_script'
p182
F1365595058.0
sS'c:\\marmalade\\6.2\\s3e\\makefile_builder\\plugins\\s3e_scons.pyc'
p183
F1365605816.0
sS'c:\\marmalade\\6.2\\s3e\\makefile_builder\\templates\\xcode.py'
p184
F1365595058.0
sS'c:\\marmalade\\6.2\\s3e\\makefile_builder\\plugins\\java.pyc'
p185
F1365605816.0
sS'c:\\marmalade\\6.2\\s3e\\makefile_builder\\templates\\win32_dsw.pyc'
p186
F1365605816.0
sS'c:\\marmalade\\6.2\\s3e\\makefile_builder\\docs\\mkb.defines.txt'
p187
F1365595058.0
sS'c:\\marmalade\\6.2\\s3e\\makefile_builder\\docs\\deprecated.defines.txt'
p188
F1365595058.0
sS'c:\\marmalade\\6.2\\s3e\\makefile_builder\\templates\\win32_vcxproj.pyc'
p189
F1365605816.0
sS'c:\\marmalade\\6.2\\s3e\\makefile_builder\\deployment.pyc'
p190
F1365605816.0
sS'c:\\marmalade\\6.2\\s3e\\makefile_builder\\plugins\\s3e_qmake.py'
p191
F1365595058.0
sS'c:\\marmalade\\6.2\\s3e\\makefile_builder\\templates\\win32_sln.pyc'
p192
F1365605816.0
sS'c:\\marmalade\\6.2\\s3e\\makefile_builder\\tool_launcher.exe'
p193
F1365595808.0
sS'c:\\marmalade\\6.2\\s3e\\makefile_builder\\plugins\\Emitter.pyc'
p194
F1365605816.0
sS'c:\\marmalade\\6.2\\s3e\\makefile_builder\\docs\\deprecated.options.txt'
p195
F1365595058.0
sS'c:\\marmalade\\6.2\\s3e\\makefile_builder\\templates\\rvct_linker_script'
p196
F1365595058.0
sS'c:\\marmalade\\6.2\\s3e\\makefile_builder\\plugins\\vc6_utils.pyc'
p197
F1365605816.0
sS'c:\\marmalade\\6.2\\s3e\\makefile_builder\\mkb_main.pyc'
p198
F1365605816.0
sS'c:\\marmalade\\6.2\\s3e\\makefile_builder\\plugins\\iphone.pyc'
p199
F1365605816.0
sS'c:\\marmalade\\6.2\\s3e\\makefile_builder\\plugins\\S3EEmitter.pyc'
p200
F1365605816.0
sS'c:\\marmalade\\6.2\\s3e\\makefile_builder\\plugins\\xcode4_schememanagement.py'
p201
F1365595058.0
sS'c:\\marmalade\\6.2\\s3e\\makefile_builder\\templates\\xcode4_DeployTool.xcscheme'
p202
F1365595058.0
sS'c:\\marmalade\\6.2\\s3e\\makefile_builder\\mkb_util.pyc'
p203
F1365605816.0
sS'c:\\marmalade\\6.2\\s3e\\makefile_builder\\mkb_globals.pyc'
p204
F1365605816.0
sS'c:\\marmalade\\6.2\\s3e\\makefile_builder\\templates\\qmake_user.py'
p205
F1365595058.0
sS'c:\\marmalade\\6.2\\s3e\\makefile_builder\\plugins\\vc7_utils.pyc'
p206
F1365605816.0
sS'c:\\marmalade\\6.2\\s3e\\makefile_builder\\templates\\MainWindow.xib'
p207
F1365595058.0
sS'c:\\marmalade\\6.2\\s3e\\makefile_builder\\plugins\\s3e_make.pyc'
p208
F1365605816.0
sS'c:\\marmalade\\6.2\\s3e\\makefile_builder\\templates\\vc10_user.pyc'
p209
F1365605816.0
sS'c:\\marmalade\\6.2\\s3e\\makefile_builder\\templates\\Info.plist'
p210
F1365595058.0
sS'c:\\marmalade\\6.2\\s3e\\makefile_builder\\plugins\\SConsEmitter.pyc'
p211
F1365605816.0
sS'c:\\marmalade\\6.2\\s3e\\makefile_builder\\docs'
p212
F1378901971.9095769
sS'c:\\marmalade\\6.2\\s3e\\makefile_builder\\mkb_option.pyc'
p213
F1365605816.0
sS'c:\\marmalade\\6.2\\s3e\\makefile_builder\\docs\\parse_options.pyc'
p214
F1365605816.0
sS'c:\\marmalade\\6.2\\s3e\\makefile_builder\\plugins\\XcodeEmitter.py'
p215
F1365595058.0
sS'c:\\marmalade\\6.2\\s3e\\makefile_builder\\mkb_launcher.exe'
p216
F1365595806.0
sS'c:\\marmalade\\6.2\\s3e\\makefile_builder\\templates\\vc8_user.pyc'
p217
F1365605816.0
sS'c:\\marmalade\\6.2\\s3e\\makefile_builder\\templates\\win32_dsp.pyc'
p218
F1365605816.0
sS'c:\\marmalade\\6.2\\s3e\\makefile_builder\\templates\\mips_linker_script'
p219
F1365595058.0
sS'c:\\marmalade\\6.2\\s3e\\makefile_builder\\mkb.py'
p220
F1365595058.0
sS'c:\\marmalade\\6.2\\s3e\\makefile_builder\\plugins\\osx_scons.pyc'
p221
F1365605816.0
sS'c:\\marmalade\\6.2\\s3e\\makefile_builder\\plugins\\deploy.pyc'
p222
F1365605816.0
sS'c:\\marmalade\\6.2\\s3e\\makefile_builder\\plugins\\VisualStudioEmitter.pyc'
p223
F1365605816.0
sS'c:\\marmalade\\6.2\\s3e\\makefile_builder\\plugins\\s3e_qmake.pyc'
p224
F1382954982.7189629
sS'c:\\marmalade\\6.2\\s3e\\makefile_builder\\plugins\\s3e_xcode.pyc'
p225
F1382954982.8219833
sS'c:\\marmalade\\6.2\\s3e\\makefile_builder\\docs\\deployment_options.txt'
p226
F1365595058.0
sS'c:\\marmalade\\6.2\\s3e\\makefile_builder\\plugins\\s3e_web.pyc'
p227
F1365605816.0
sS'c:\\marmalade\\6.2\\s3e\\makefile_builder\\templates\\template.opt'
p228
F1365595058.0
sS'c:\\marmalade\\6.2\\s3e\\makefile_builder\\templates\\scons.pyc'
p229
F1365605816.0
sS'c:\\marmalade\\6.2\\s3e\\makefile_builder\\templates\\xcode4.xcscheme'
p230
F1365595058.0
sS'c:\\marmalade\\6.2\\s3e\\makefile_builder\\templates\\vc7_suo.pyc'
p231
F1365605816.0
sS'c:\\marmalade\\6.2\\s3e\\makefile_builder\\plugins\\MakeEmitter.pyc'
p232
F1365605816.0
sS'c:\\marmalade\\6.2\\s3e\\makefile_builder\\templates\\qmake.py'
p233
F1365595058.0
sS'c:\\marmalade\\6.2\\s3e\\makefile_builder\\templates\\win32_vcproj.pyc'
p234
F1365605816.0
sS'c:\\marmalade\\6.2\\s3e\\makefile_builder\\templates\\gdb_start.txt'
p235
F1365595058.0
sS'c:\\marmalade\\6.2\\s3e\\makefile_builder\\plugins\\s3e_vc6.pyc'
p236
F1365605816.0
sS'c:\\marmalade\\6.2\\s3e\\makefile_builder\\plugins\\osx_xcode.pyc'
p237
F1365605816.0
sS'c:\\marmalade\\6.2\\s3e\\makefile_builder\\extensions\\make_dist.py'
p238
F1365595058.0
sccopy_reg
_reconstructor
p239
(cmkb_main
MkbFile
p240
c__builtin__
object
p241
Ntp242
Rp243
(dp244
g5
(lp245
sS'target_name'
p246
S'Demo_3_ResMan_Audio_LoadTile'
p247
sS'current_file'
p248
g106
sS'package_path'
p249
(lp250
VC:\u005cUsers\u005c1106786\u005cAppData\u005cRoaming\u005cMarmalade\u005cpackages\u005c6.2.2\u005clibjpeg_6b
p251
aVC:\u005cUsers\u005c1106786\u005cAppData\u005cRoaming\u005cMarmalade\u005cpackages\u005c6.2.2\u005clibpng_1.2.34
p252
aVC:\u005cUsers\u005c1106786\u005cAppData\u005cRoaming\u005cMarmalade\u005cpackages\u005c6.2.2\u005czlib_1.2.4
p253
aVC:\u005cUsers\u005c1106786\u005cAppData\u005cRoaming\u005cMarmalade\u005cpackages\u005c6.2.2\u005ctiniconv_1.0.1
p254
asS'post_build'
p255
(lp256
(lp257
S'c:/marmalade/6.2/s3e/tools'
p258
aS'C:\\Marmalade\\6.2\\s3e\\python\\python.exe .\\process_map.py "$(TargetPath)"'
p259
aa(S'c:\\marmalade\\6.2\\s3e'
p260
S'"c:\\marmalade\\6.2\\s3e\\bin\\s3e_plink" -l "$(TargetPath)"'
p261
g129
tp262
asS'librarys'
p263
(lp264
g239
(cmkb_main
Library
p265
g241
Ntp266
Rp267
(dp268
S'name'
p269
S'vc6_compat.lib'
p270
sS'expand_name'
p271
I00
sS'include_spec_rvct_objs'
p272
(lp273
sS'include_all_objs'
p274
I00
sS'share_arm'
p275
I00
sS'arch'
p276
S'x86'
p277
sS'nodebug'
p278
I00
sg32
Nsbag239
(g265
g241
Ntp279
Rp280
(dp281
g269
S'jpeg'
p282
sg271
I01
sg272
(lp283
sg274
I00
sg275
Nsg276
Nsg278
I00
sg32
Nsbag239
(g265
g241
Ntp284
Rp285
(dp286
g269
S'z'
p287
sg271
I01
sg272
g283
sg274
I00
sg275
Nsg276
Nsg278
I00
sg32
Nsbag239
(g265
g241
Ntp288
Rp289
(dp290
g269
S'png'
p291
sg271
I01
sg272
g283
sg274
I00
sg275
Nsg276
Nsg278
I00
sg32
Nsbag239
(g265
g241
Ntp292
Rp293
(dp294
g269
S'iwutil'
p295
sg271
I01
sg272
g283
sg274
I00
sg275
I01
sg276
Nsg278
I00
sg32
Nsbag239
(g265
g241
Ntp296
Rp297
(dp298
g269
S'iwgeom'
p299
sg271
I01
sg272
g283
sg274
I00
sg275
I01
sg276
Nsg278
I00
sg32
Nsbag239
(g265
g241
Ntp300
Rp301
(dp302
g269
S'iwresmanager'
p303
sg271
I01
sg272
g283
sg274
I00
sg275
I01
sg276
Nsg278
I00
sg32
Nsbag239
(g265
g241
Ntp304
Rp305
(dp306
g269
S'ATI_Compress_MT_VC7.lib'
p307
sg271
I00
sg272
g283
sg274
I00
sg275
Nsg276
S'x86'
p308
sg278
I00
sg32
Nsbag239
(g265
g241
Ntp309
Rp310
(dp311
g269
S'iwgx'
p312
sg271
I01
sg272
g283
sg274
I00
sg275
I01
sg276
Nsg278
I00
sg32
Nsbag239
(g265
g241
Ntp313
Rp314
(dp315
g269
S'iwgl'
p316
sg271
I01
sg272
g283
sg274
I00
sg275
Nsg276
Nsg278
I00
sg32
Nsbag239
(g265
g241
Ntp317
Rp318
(dp319
g269
S'iwgxfont'
p320
sg271
I01
sg272
g283
sg274
I00
sg275
I01
sg276
Nsg278
I00
sg32
Nsbag239
(g265
g241
Ntp321
Rp322
(dp323
g269
S'tiniconv'
p324
sg271
I01
sg272
g283
sg274
I00
sg275
Nsg276
Nsg278
I00
sg32
Nsbag239
(g265
g241
Ntp325
Rp326
(dp327
g269
S'iw2d'
p328
sg271
I01
sg272
g283
sg274
I00
sg275
I01
sg276
Nsg278
I00
sg32
Nsbag239
(g265
g241
Ntp329
Rp330
(dp331
g269
S's3e_cpp'
p332
sg271
I01
sg272
g273
sg274
I00
sg275
I00
sg276
Nsg278
I00
sg32
Nsbag239
(g265
g241
Ntp333
Rp334
(dp335
g269
S's3e'
p336
sg271
I01
sg272
(lp337
S'iwcrt.o'
p338
asg274
I00
sg275
I00
sg276
Nsg278
I00
sg32
Nsbag239
(g265
g241
Ntp339
Rp340
(dp341
g269
S's3e_api'
p342
sg271
I01
sg272
g273
sg274
I00
sg275
I00
sg276
Nsg278
I1
sg32
Nsbag239
(g265
g241
Ntp343
Rp344
(dp345
g269
S's3e_api'
p346
sg271
I00
sg272
g273
sg274
I00
sg275
I00
sg276
S'arm'
p347
sg278
I00
sg32
S'gcc'
p348
sbag239
(g265
g241
Ntp349
Rp350
(dp351
g269
S'stdc++'
p352
sg271
I00
sg272
g273
sg274
I00
sg275
I00
sg276
S'mips'
p353
sg278
I00
sg32
Nsbag239
(g265
g241
Ntp354
Rp355
(dp356
g269
S'c'
p357
sg271
I00
sg272
g273
sg274
I00
sg275
I00
sg276
S'mips'
p358
sg278
I00
sg32
Nsbag239
(g265
g241
Ntp359
Rp360
(dp361
g269
S'm'
p362
sg271
I00
sg272
g273
sg274
I00
sg275
I00
sg276
S'mips'
p363
sg278
I00
sg32
Nsbag239
(g265
g241
Ntp364
Rp365
(dp366
g269
S'gcc'
p367
sg271
I00
sg272
g273
sg274
I00
sg275
I00
sg276
S'mips'
p368
sg278
I00
sg32
NsbasS'library_paths'
p369
(lp370
g239
(cmkb_main
LibraryPath
p371
g241
Ntp372
Rp373
(dp374
S'expand_path'
p375
I01
sS'add_cpu_variant'
p376
I00
sg269
Vc:/users/1106786/appdata/roaming/marmalade/packages/6.2.2/libjpeg_6b
p377
sbag239
(g371
g241
Ntp378
Rp379
(dp380
g375
I01
sg376
I00
sg269
Vc:/users/1106786/appdata/roaming/marmalade/packages/6.2.2/zlib_1.2.4
p381
sbag239
(g371
g241
Ntp382
Rp383
(dp384
g375
I01
sg376
I00
sg269
Vc:/users/1106786/appdata/roaming/marmalade/packages/6.2.2/libpng_1.2.34
p385
sbag239
(g371
g241
Ntp386
Rp387
(dp388
g375
I01
sg376
I00
sg269
S'c:/marmalade/6.2/modules/iwutil'
p389
sbag239
(g371
g241
Ntp390
Rp391
(dp392
g375
I01
sg376
I00
sg269
S'c:/marmalade/6.2/modules/iwgeom'
p393
sbag239
(g371
g241
Ntp394
Rp395
(dp396
g375
I01
sg376
I00
sg269
S'c:/marmalade/6.2/modules/iwresmanager'
p397
sbag239
(g371
g241
Ntp398
Rp399
(dp400
g375
I00
sg376
I00
sg269
S'c:/marmalade/6.2/modules/iwgx/atitools'
p401
sbag239
(g371
g241
Ntp402
Rp403
(dp404
g375
I01
sg376
I00
sg269
S'c:/marmalade/6.2/modules/iwgx'
p405
sbag239
(g371
g241
Ntp406
Rp407
(dp408
g375
I01
sg376
I00
sg269
S'c:/marmalade/6.2/modules/iwgl'
p409
sbag239
(g371
g241
Ntp410
Rp411
(dp412
g375
I01
sg376
I00
sg269
S'c:/marmalade/6.2/modules/iwgxfont'
p413
sbag239
(g371
g241
Ntp414
Rp415
(dp416
g375
I01
sg376
I00
sg269
Vc:/users/1106786/appdata/roaming/marmalade/packages/6.2.2/tiniconv_1.0.1
p417
sbag239
(g371
g241
Ntp418
Rp419
(dp420
g375
I01
sg376
I00
sg269
S'c:/marmalade/6.2/modules/iw2d'
p421
sbag239
(g371
g241
Ntp422
Rp423
(dp424
g375
I01
sg376
I00
sg269
S'c:/marmalade/6.2/s3e'
p425
sbasS'macros'
p426
(dp427
S'IW_USE_CALLSTACK'
p428
NsS'IW_SDK'
p429
NsS'I3D_PLATFORM_S3E'
p430
NsS'IW_MKF_CJSON'
p431
NsS'IW_MKF_LIBJPEG'
p432
NsS'I3D_OS_S3E'
p433
NsS'IW_MKF_TINICONV'
p434
NsS'IW_APP_VERSION'
p435
S'"1.0"'
p436
sS'IW_MKF_IWRESMANAGER'
p437
NsS'IW_MKF_IWUTIL'
p438
NsS'IW_PLATFORM_S3E'
p439
NsS'IW_ASSERTION_CHANNEL_2D'
p440
S'1'
p441
sS'IW_APP_NAME'
p442
S'"Demo_3_ResMan_Audio_LoadTile"'
p443
sS'IW_MKF_IWGXFONT'
p444
NsS'IW_MKF_ZLIB'
p445
NsS'IW_MKF_IWGX'
p446
NsS'IW_MKF_DEMO_3_RESMAN_AUDIO_LOADTILE'
p447
NsS'IW_USE_ASSERTIONS'
p448
NsS'_CRT_SECURE_NO_DEPRECATE'
p449
NsS'IW_MKF_IWGL'
p450
NsS'IW_MKF_LIBPNG'
p451
NsS'IW_DEBUG'
p452
NsS'IW_USE_TRACING'
p453
NsS'S3E_INCLUDE_LEGACY'
p454
NsS'__S3E__'
p455
NsS'IW_MKF_IW2D'
p456
NsS'IW_MKF_IWGEOM'
p457
NssS'done_warnings'
p458
(dp459
sS'subprojects'
p460
(dp461
g152
S'iwresmanager'
p462
sg156
S'Demo_3_ResMan_Audio_LoadTile'
p463
sVc:\u005cusers\u005c1106786\u005cappdata\u005croaming\u005cmarmalade\u005cpackages\u005c6.2.2\u005czlib_1.2.4\u005czlib.mkf
p464
S'zlib'
p465
sg148
S'iwutil'
p466
sVc:\u005cusers\u005c1106786\u005cappdata\u005croaming\u005cmarmalade\u005cpackages\u005c6.2.2\u005clibjpeg_6b\u005clibjpeg.mkf
p467
S'libjpeg'
p468
sg147
S'iwgeom'
p469
sg146
S'iwgx'
p470
sVc:\u005cusers\u005c1106786\u005cappdata\u005croaming\u005cmarmalade\u005cpackages\u005c6.2.2\u005clibpng_1.2.34\u005clibpng.mkf
p471
S'libpng'
p472
sg154
S'iwgxfont'
p473
sg153
S'iwgl'
p474
sg145
S'iw2d'
p475
sg157
S'c:/Users/1106786/Dropbox/Dropbox/PG life/Project Impact/Code/Demos/Demo_3_ResMan_Audio_LoadTile/libs/cJSON-for-marmalade/cjson'
p476
sVc:\u005cusers\u005c1106786\u005cappdata\u005croaming\u005cmarmalade\u005cpackages\u005c6.2.2\u005ctiniconv_1.0.1\u005ctiniconv.mkf
p477
S'tiniconv'
p478
ssS'deployments'
p479
(dp480
S'Default'
p481
g239
(cdeployment
Deployment
p482
g241
Ntp483
Rp484
(dp485
S'got_version'
p486
I0
sS'assets'
p487
g481
sS'mkb'
p488
g243
sS'target'
p489
Nsg276
(lp490
sS'options'
p491
(dp492
S'iphone-link-lib'
p493
(lp494
sS'game-icf'
p495
NsS'iphone-icon-high-res'
p496
NsS'win32-pref-windowposy'
p497
NsS'win32-pref-windowposx'
p498
NsS'bada-appsecret'
p499
NsS'playbook-author'
p500
NsS'winmobile-icon32'
p501
NsS'linux-ext-lib'
p502
(lp503
sS'target-folder'
p504
NsS'iphone-splashscreen-landscape'
p505
NsS'psp-discversion'
p506
NsS'lgtv-use-drm'
p507
NsS'nds-bannertitle-sp'
p508
NsS'symbian-platsecflags'
p509
NsS'psp-producer'
p510
NsS'blackberry-playbook-icon'
p511
NsS'iphone-icon-ipad-search-high-res'
p512
NsS'iphone-provisioning-profile'
p513
NsS'copyright'
p514
NsS'winmobile-png45'
p515
NsS'iphone-link-libdir'
p516
(lp517
sS'symbian-cert'
p518
NsS'nds-bannertitle-hn'
p519
NsS'brew-depends'
p520
NsS'winmobile-png60'
p521
NsS'winmobile-nouninstall'
p522
NsS'android-icon-hdpi'
p523
NsS'iphone-ipad-only'
p524
NsS'iphone-splash-full-orient'
p525
NsS'iphone-bundle-url-name'
p526
NsS'android-aliasname'
p527
NsS'iphone-splash-retina-generate'
p528
NsS'psp-dlgmanual'
p529
NsS'iphone-backgroundmode-audio'
p530
NsS'android-pkgname'
p531
NsS'webos-memory'
p532
NsS'brew-uid'
p533
NsS'android-keypass'
p534
NsS'symbian-locationsupport'
p535
NsS'iphone-signing-host'
p536
NsS'nds-bannertitle-jp'
p537
NsS'name'
p538
NsS'osx-info-plist'
p539
NsS'symbian-icon1-format'
p540
NsS'uiq3-uid'
p541
NsS'psp-dlgcontentid'
p542
NsS'auto-derbh'
p543
NsS'bada-use-partner-privileges'
p544
NsS'nds-bannertitle-it'
p545
NsS'blackberry-authorid'
p546
NsS'nds-publicsavedatasize'
p547
NsS'splashscreen'
p548
NsS'brew-mif'
p549
NsS'symbian-icon2-format'
p550
NsS'long-caption'
p551
NsS'iphone-icon-settings-high-res'
p552
NsS'android-manifest'
p553
NsS'winmobile-icon16'
p554
NsS's3e-compression'
p555
NsS'blackberry-cskpass'
p556
NsS'iphone-link-opts'
p557
(lp558
sS'iphone-region'
p559
NsS'uiq3-icon3-mask'
p560
NsS'winmobile-start-menu-folder'
p561
NsS'brew-clsid'
p562
NsS'brew-encoding'
p563
NsS'symbian-icon1'
p564
NsS'symbian-icon2'
p565
NsS'psp-parentallevel'
p566
NsS'osx-ext-dll'
p567
(lp568
sS'version'
p569
NsS'bada-manifest'
p570
NsS'provider'
p571
NsS'iphone-prerendered-icon'
p572
NsS'iphone-appid'
p573
NsS'playbook-keystore'
p574
NsS'nds-initialcode'
p575
NsS'symbian8-uid'
p576
NsS'symbian-osexecsupport'
p577
NsS'winmobile-icon64'
p578
NsS'iphone-persistent-wifi'
p579
NsS'symbian7-uid'
p580
NsS'winmobile-setup-dll'
p581
NsS'android-external-jars'
p582
(lp583
sS'android-install-location'
p584
NsS'olddeploytoolstyle'
p585
NsS'nds-privatesavedatasize'
p586
NsS'symbian9-uid'
p587
NsS'nds-bannertitle-cn'
p588
NsS'winmobile-trace-file'
p589
NsS'playbook-storepass'
p590
NsS'android-icon-ldpi'
p591
NsS'psp-appversion'
p592
NsS'networking'
p593
NsS'winmobile-install-folder'
p594
NsS'arch'
p595
NsS'android-external-res'
p596
(lp597
sS'manufacturer'
p598
NsS'android-icon-gallery'
p599
NsS'bada-signed'
p600
NsS'android-supports-gl-texture'
p601
(lp602
sS'iphone-apple-wwdr-cert'
p603
NsS'psp-snd0'
p604
NsS'iphone-extra-sections'
p605
NsS'blackberry-keystore'
p606
NsS'iphone-nosign'
p607
NsS'caption'
p608
NsS'winmobile-ampd-part-number'
p609
NsS'iphone-icon-large'
p610
NsS'android-storepass'
p611
NsS'iphone-info-plist'
p612
NsS'win32-icon'
p613
NsS'android-extra-manifest'
p614
(lp615
sS'iphone-icon-ipad-search'
p616
NsS'android-custom-activity'
p617
NsS'version-minor'
p618
NsS'iphone-icon-ipad'
p619
NsS'bada-appid'
p620
NsS'iphone-distribution-key'
p621
NsS'iphone-link-libdirs'
p622
(lp623
sS'psp-copyright'
p624
NsS'symbian-maxheapsize'
p625
NsS'embed-icf'
p626
NsS'psp-titlename'
p627
NsS'symbian-icon1-mask'
p628
NsS'nds-makercode'
p629
NsS'psp-icon1'
p630
NsS'priv-sign-key'
p631
NsS'webos-appinfo'
p632
NsS'symbian-cert-key'
p633
NsS'android-icon'
p634
NsS'webos-appid'
p635
NsS'android-icon-nonstandard'
p636
NsS'android-extra-application-manifest'
p637
(lp638
sS'iphone-icon-settings'
p639
NsS'iphone-distribution-cert'
p640
NsS'osx-icon'
p641
NsS'nds-titlename'
p642
NsS'splashscreen-auto-onblack'
p643
NsS'icon'
p644
NsS'nds-romheadertemplate'
p645
NsS'webos-icon'
p646
NsS'nds-bannertitle-en'
p647
NsS'win32-ext-dll'
p648
(lp649
sS'psp-dlgicon0'
p650
NsS'iphone-development-key'
p651
NsS'psp-discid'
p652
NsS'winmobile-icon48'
p653
NsS'uiq3-icon1-mask'
p654
NsS'playbook-cskpass'
p655
NsS'android-so'
p656
(lp657
sS'itunes-artwork'
p658
NsS'bada-splash'
p659
NsS'version-revision'
p660
NsS'android-icon-mdpi'
p661
NsS'android-keystore'
p662
NsS'uiq3-icon2-format'
p663
NsS'version-string'
p664
NsS'winmobile-png90'
p665
NsS'iphone-icon-ipad-high-res'
p666
NsS'iphone-disable-ipad'
p667
NsS'uiq3-icon1-format'
p668
NsS'iphone-bundle-url-schemes'
p669
NsS'nds-icon'
p670
NsS'iphone-development-cert'
p671
NsS'playbook-authorid'
p672
NsS'android_extra_strings'
p673
NsS'playbook-icon'
p674
NsS'uid'
p675
NsS'iphone-signing-identity'
p676
NsS'brew-icon-medium'
p677
NsS'blackberry-phone-icon'
p678
NsS'iphone-enable-4inch-retina'
p679
NsS'pkguid-as-uid'
p680
NsS'symbian-icon1-mask-black'
p681
NsS'uiq3-icon2'
p682
NsS'pub-sign-key'
p683
NsS'nds-bannertitle-fr'
p684
NsS'win32-pref-windowtitle'
p685
NsS'symbian-disable-ecompxl'
p686
NsS'symbian-soundrecordsupport'
p687
NsS'splashscreen-use-all'
p688
NsS'android-unsigned'
p689
NsS'brew-priviledges'
p690
NsS'brew-icon-small'
p691
NsS'psp-dlgpic2'
p692
NsS'bada-icon'
p693
NsS'psp-dlgpic0'
p694
NsS'lgtv_l9-use-drm'
p695
NsS'psp-pic0'
p696
NsS'psp-pic1'
p697
NsS'iphone-icon'
p698
NsS'psp-icon0'
p699
NsS'blackberry-permissions-access-shared'
p700
NsS'uiq3-icon3-format'
p701
NsS'version-major'
p702
NsS'iphone_bundle_localisations'
p703
NsS'winmobile-icon'
p704
NsS'blackberry-author'
p705
NsS'symbian-keypwd'
p706
NsS'iphone-no-splash'
p707
NsS'playbook-access-shared'
p708
NsS'psp-dlghealthwarning'
p709
NsS'iphone-link-libs'
p710
(lp711
sS'iphone-splash'
p712
NsS'nds-bannertitle-ge'
p713
NsS'android_icon_gallery'
p714
NsS'brew-icon-large'
p715
NsS'iphone-app-fonts'
p716
NsS'symbian-icon2-mask'
p717
NsS'iphone-sign-for-distribution'
p718
NsS'psp-dlgprotectdocument'
p719
NsS'winmobile-cab-compress'
p720
NsS'uiq3-icon3'
p721
NsS'uiq3-icon1'
p722
NsS'symbian-run-on-install'
p723
NsS'assets'
p724
NsS'symbian-key'
p725
NsS'app-icf'
p726
NsS'blackberry-storepass'
p727
NsS'brew-compress-loader'
p728
NsS'uiq3-icon2-mask'
p729
NsS'symbian-icon2-mask-black'
p730
NsS'symbian-icon-svg'
p731
NsS'android-extra-strings'
p732
NsS'iphone-splashscreen-portrait'
p733
NsS'iphone-bundle-localisations'
p734
Nssg269
g481
sbssS'platform'
p735
S'S3E'
p736
sg54
S'1.0'
p737
sS'arcade_platform'
p738
g4
sS'extensions'
p739
(dp740
sS'source_groups_tree'
p741
(dp742
S'(libpng)'
p743
(dp744
Vc:/users/1106786/appdata/roaming/marmalade/packages/6.2.2/libpng_1.2.34/libpng.mkf
p745
(lp746
I1
a(dp747
asVc:/users/1106786/appdata/roaming/marmalade/packages/6.2.2/libpng_1.2.34/h/png.h
p748
(lp749
I1
a(dp750
asVc:/users/1106786/appdata/roaming/marmalade/packages/6.2.2/libpng_1.2.34/h/pngconf.h
p751
(lp752
I1
ag750
assS'(libjpeg)'
p753
(dp754
Vc:/users/1106786/appdata/roaming/marmalade/packages/6.2.2/libjpeg_6b/h/jmemsys.h
p755
(lp756
I1
a(dp757
asVc:/users/1106786/appdata/roaming/marmalade/packages/6.2.2/libjpeg_6b/h/jpegint.h
p758
(lp759
I1
ag757
asVc:/users/1106786/appdata/roaming/marmalade/packages/6.2.2/libjpeg_6b/h/jconfig.h
p760
(lp761
I1
ag757
asVc:/users/1106786/appdata/roaming/marmalade/packages/6.2.2/libjpeg_6b/h/cderror.h
p762
(lp763
I1
ag757
asVc:/users/1106786/appdata/roaming/marmalade/packages/6.2.2/libjpeg_6b/h/jerror.h
p764
(lp765
I1
ag757
asVc:/users/1106786/appdata/roaming/marmalade/packages/6.2.2/libjpeg_6b/libjpeg.mkf
p766
(lp767
I1
a(dp768
asVc:/users/1106786/appdata/roaming/marmalade/packages/6.2.2/libjpeg_6b/h/cdjpeg.h
p769
(lp770
I1
ag757
asVc:/users/1106786/appdata/roaming/marmalade/packages/6.2.2/libjpeg_6b/h/jversion.h
p771
(lp772
I1
ag757
asVc:/users/1106786/appdata/roaming/marmalade/packages/6.2.2/libjpeg_6b/h/jinclude.h
p773
(lp774
I1
ag757
asVc:/users/1106786/appdata/roaming/marmalade/packages/6.2.2/libjpeg_6b/h/jdct.h
p775
(lp776
I1
ag757
asVc:/users/1106786/appdata/roaming/marmalade/packages/6.2.2/libjpeg_6b/h/jpeglib.h
p777
(lp778
I1
ag757
asVc:/users/1106786/appdata/roaming/marmalade/packages/6.2.2/libjpeg_6b/h/jdhuff.h
p779
(lp780
I1
ag757
asVc:/users/1106786/appdata/roaming/marmalade/packages/6.2.2/libjpeg_6b/h/transupp.h
p781
(lp782
I1
ag757
asVc:/users/1106786/appdata/roaming/marmalade/packages/6.2.2/libjpeg_6b/h/jchuff.h
p783
(lp784
I1
ag757
asVc:/users/1106786/appdata/roaming/marmalade/packages/6.2.2/libjpeg_6b/h/jmorecfg.h
p785
(lp786
I1
ag757
assS'(cjson)'
p787
(dp788
S'c:/users/1106786/dropbox/dropbox/pg life/project impact/code/demos/demo_3_resman_audio_loadtile/libs/cjson-for-marmalade/cjson.mkf'
p789
(lp790
I1
a(dp791
asS'c:/users/1106786/dropbox/dropbox/pg life/project impact/code/demos/demo_3_resman_audio_loadtile/libs/cjson-for-marmalade/cJSON.h'
p792
(lp793
I1
a(dp794
asS'c:/users/1106786/dropbox/dropbox/pg life/project impact/code/demos/demo_3_resman_audio_loadtile/libs/cjson-for-marmalade/cJSON.c'
p795
(lp796
I1
ag794
assS'(tiniconv)'
p797
(dp798
Vc:/users/1106786/appdata/roaming/marmalade/packages/6.2.2/tiniconv_1.0.1/tiniconv.mkf
p799
(lp800
I1
a(dp801
asVc:/users/1106786/appdata/roaming/marmalade/packages/6.2.2/tiniconv_1.0.1/h/tiniconv.h
p802
(lp803
I1
a(dp804
asVc:/users/1106786/appdata/roaming/marmalade/packages/6.2.2/tiniconv_1.0.1/h/tiniconv_int.h
p805
(lp806
I1
ag804
assS'(Demo_3_ResMan_Audio_LoadTile)'
p807
(dp808
S'src'
p809
(dp810
S'c:/users/1106786/dropbox/dropbox/pg life/project impact/code/demos/demo_3_resman_audio_loadtile/h/layer.h'
p811
(lp812
I1
a(dp813
asS'c:/users/1106786/dropbox/dropbox/pg life/project impact/code/demos/demo_3_resman_audio_loadtile/h/tile.h'
p814
(lp815
I1
ag813
asS'c:/users/1106786/dropbox/dropbox/pg life/project impact/code/demos/demo_3_resman_audio_loadtile/h/game.h'
p816
(lp817
I1
ag813
asS'c:/users/1106786/dropbox/dropbox/pg life/project impact/code/demos/demo_3_resman_audio_loadtile/src/audio.cpp'
p818
(lp819
I1
ag813
asS'c:/users/1106786/dropbox/dropbox/pg life/project impact/code/demos/demo_3_resman_audio_loadtile/src/obstacle.cpp'
p820
(lp821
I1
ag813
asS'c:/users/1106786/dropbox/dropbox/pg life/project impact/code/demos/demo_3_resman_audio_loadtile/src/tileset.cpp'
p822
(lp823
I1
ag813
asS'c:/users/1106786/dropbox/dropbox/pg life/project impact/code/demos/demo_3_resman_audio_loadtile/src/main.cpp'
p824
(lp825
I1
ag813
asS'c:/users/1106786/dropbox/dropbox/pg life/project impact/code/demos/demo_3_resman_audio_loadtile/h/resmgr.h'
p826
(lp827
I1
ag813
asS'c:/users/1106786/dropbox/dropbox/pg life/project impact/code/demos/demo_3_resman_audio_loadtile/src/layer.cpp'
p828
(lp829
I1
ag813
asS'c:/users/1106786/dropbox/dropbox/pg life/project impact/code/demos/demo_3_resman_audio_loadtile/h/map.h'
p830
(lp831
I1
ag813
asS'c:/users/1106786/dropbox/dropbox/pg life/project impact/code/demos/demo_3_resman_audio_loadtile/src/game.cpp'
p832
(lp833
I1
ag813
asS'c:/users/1106786/dropbox/dropbox/pg life/project impact/code/demos/demo_3_resman_audio_loadtile/src/input.cpp'
p834
(lp835
I1
ag813
asS'c:/users/1106786/dropbox/dropbox/pg life/project impact/code/demos/demo_3_resman_audio_loadtile/h/tileset.h'
p836
(lp837
I1
ag813
asS'c:/users/1106786/dropbox/dropbox/pg life/project impact/code/demos/demo_3_resman_audio_loadtile/h/character.h'
p838
(lp839
I1
ag813
asS'c:/users/1106786/dropbox/dropbox/pg life/project impact/code/demos/demo_3_resman_audio_loadtile/h/audio.h'
p840
(lp841
I1
ag813
asS'c:/users/1106786/dropbox/dropbox/pg life/project impact/code/demos/demo_3_resman_audio_loadtile/h/input.h'
p842
(lp843
I1
ag813
asS'c:/users/1106786/dropbox/dropbox/pg life/project impact/code/demos/demo_3_resman_audio_loadtile/src/resmgr.cpp'
p844
(lp845
I1
ag813
asS'c:/users/1106786/dropbox/dropbox/pg life/project impact/code/demos/demo_3_resman_audio_loadtile/src/character.cpp'
p846
(lp847
I1
ag813
asS'c:/users/1106786/dropbox/dropbox/pg life/project impact/code/demos/demo_3_resman_audio_loadtile/src/tileunit.cpp'
p848
(lp849
I1
ag813
asS'c:/users/1106786/dropbox/dropbox/pg life/project impact/code/demos/demo_3_resman_audio_loadtile/h/obstacle.h'
p850
(lp851
I1
ag813
asS'c:/users/1106786/dropbox/dropbox/pg life/project impact/code/demos/demo_3_resman_audio_loadtile/src/map.cpp'
p852
(lp853
I1
ag813
asS'c:/users/1106786/dropbox/dropbox/pg life/project impact/code/demos/demo_3_resman_audio_loadtile/src/tile.cpp'
p854
(lp855
I1
ag813
asS'c:/users/1106786/dropbox/dropbox/pg life/project impact/code/demos/demo_3_resman_audio_loadtile/h/tiles.h'
p856
(lp857
I1
ag813
asS'c:/users/1106786/dropbox/dropbox/pg life/project impact/code/demos/demo_3_resman_audio_loadtile/src/tiles.cpp'
p858
(lp859
I1
ag813
asS'c:/users/1106786/dropbox/dropbox/pg life/project impact/code/demos/demo_3_resman_audio_loadtile/h/tileunit.h'
p860
(lp861
I1
ag813
assS'Data'
p862
(dp863
S'c:/users/1106786/dropbox/dropbox/pg life/project impact/code/demos/demo_3_resman_audio_loadtile/data/imgs.group'
p864
(lp865
I1
ag813
assS'c:/users/1106786/dropbox/dropbox/pg life/project impact/code/demos/demo_3_resman_audio_loadtile/demo_3_resman_audio_loadtile.mkf'
p866
(lp867
I1
a(dp868
assS"'Marmalade Studio'"
p869
(dp870
S'iwgl'
p871
(dp872
S'c:/marmalade/6.2/modules/iwgl/h/IwGLExt.h'
p873
(lp874
I1
a(dp875
asS'c:/marmalade/6.2/modules/iwgl/docs/iwgl.config.txt'
p876
(lp877
I1
ag875
asS'c:/marmalade/6.2/modules/iwgl/h/IwGL.h'
p878
(lp879
I1
ag875
asS'c:/marmalade/6.2/modules/iwgl/iwgl.mkf'
p880
(lp881
I1
a(dp882
assS'iw2d'
p883
(dp884
S'c:/marmalade/6.2/modules/iw2d/h/Iw2D.h'
p885
(lp886
I1
a(dp887
asS'c:/marmalade/6.2/modules/iw2d/docs/iw2d_public.defines.txt'
p888
(lp889
I1
ag887
asS'c:/marmalade/6.2/modules/iw2d/docs/iw2d.config.txt'
p890
(lp891
I1
ag887
asS'c:/marmalade/6.2/modules/iw2d/iw2d.mkf'
p892
(lp893
I1
a(dp894
assS'iwgxfont'
p895
(dp896
S'c:/marmalade/6.2/modules/iwgxfont/docs/iwgxfont_public.defines.txt'
p897
(lp898
I1
a(dp899
asS'c:/marmalade/6.2/modules/iwgxfont/iwgxfont.mkf'
p900
(lp901
I1
a(dp902
asS'c:/marmalade/6.2/modules/iwgxfont/h/IwGxFontState.h'
p903
(lp904
I1
ag899
asS'c:/marmalade/6.2/modules/iwgxfont/h/IwGxFontGlyph.h'
p905
(lp906
I1
ag899
asS'c:/marmalade/6.2/modules/iwgxfont/h/IwGxFontPreparedData.h'
p907
(lp908
I1
ag899
asS'c:/marmalade/6.2/modules/iwgxfont/h/IwGxFontContainer.h'
p909
(lp910
I1
ag899
asS'c:/marmalade/6.2/modules/iwgxfont/h/IwGxFontTypes.h'
p911
(lp912
I1
ag899
asS'c:/marmalade/6.2/modules/iwgxfont/docs/iwgxfont.config.txt'
p913
(lp914
I1
ag899
asS'c:/marmalade/6.2/modules/iwgxfont/h/IwGxFont.h'
p915
(lp916
I1
ag899
assS'iwgeom'
p917
(dp918
S'c:/marmalade/6.2/modules/iwgeom/h/IwGeomMenu.h'
p919
(lp920
I1
a(dp921
asS'c:/marmalade/6.2/modules/iwgeom/h/IwGeomFVec3.h'
p922
(lp923
I1
ag921
asS'c:/marmalade/6.2/modules/iwgeom/h/IwGeom.h'
p924
(lp925
I1
ag921
asS'c:/marmalade/6.2/modules/iwgeom/h/IwGeomFVec4.h'
p926
(lp927
I1
ag921
asS'c:/marmalade/6.2/modules/iwgeom/h/IwGeomVec2.h'
p928
(lp929
I1
ag921
asS'c:/marmalade/6.2/modules/iwgeom/h/IwGeomIntersect.h'
p930
(lp931
I1
ag921
asS'c:/marmalade/6.2/modules/iwgeom/h/IwGeomFBBox.h'
p932
(lp933
I1
ag921
asS'c:/marmalade/6.2/modules/iwgeom/h/IwGeomLegacy.h'
p934
(lp935
I1
ag921
asS'c:/marmalade/6.2/modules/iwgeom/h/IwGeomSqrt.h'
p936
(lp937
I1
ag921
asS'c:/marmalade/6.2/modules/iwgeom/h/IwGeomFIntersect.h'
p938
(lp939
I1
ag921
asS'c:/marmalade/6.2/modules/iwgeom/h/IwGeomSVec4.h'
p940
(lp941
I1
ag921
asS'c:/marmalade/6.2/modules/iwgeom/h/IwGeomCore.h'
p942
(lp943
I1
ag921
asS'c:/marmalade/6.2/modules/iwgeom/h/IwGeomBBox.h'
p944
(lp945
I1
ag921
asS'c:/marmalade/6.2/modules/iwgeom/h/IwGeomVec4.h'
p946
(lp947
I1
ag921
asS'c:/marmalade/6.2/modules/iwgeom/h/IwGeomFPlane.h'
p948
(lp949
I1
ag921
asS'c:/marmalade/6.2/modules/iwgeom/docs/iwgeom.config.txt'
p950
(lp951
I1
ag921
asS'c:/marmalade/6.2/modules/iwgeom/h/IwGeomSQuat.h'
p952
(lp953
I1
ag921
asS'c:/marmalade/6.2/modules/iwgeom/iwgeom.mkf'
p954
(lp955
I1
a(dp956
asS'c:/marmalade/6.2/modules/iwgeom/h/IwGeomQuat.h'
p957
(lp958
I1
ag921
asS'c:/marmalade/6.2/modules/iwgeom/h/IwGeomMat2D.h'
p959
(lp960
I1
ag921
asS'c:/marmalade/6.2/modules/iwgeom/h/IwGeomFSphere.h'
p961
(lp962
I1
ag921
asS'c:/marmalade/6.2/modules/iwgeom/h/IwGeomSVec3.h'
p963
(lp964
I1
ag921
asS'c:/marmalade/6.2/modules/iwgeom/h/IwGeomSVec2.h'
p965
(lp966
I1
ag921
asS'c:/marmalade/6.2/modules/iwgeom/h/IwGeomSphere.h'
p967
(lp968
I1
ag921
asS'c:/marmalade/6.2/modules/iwgeom/h/IwGeomPlane.h'
p969
(lp970
I1
ag921
asS'c:/marmalade/6.2/modules/iwgeom/h/IwGeomFMat.h'
p971
(lp972
I1
ag921
asS'c:/marmalade/6.2/modules/iwgeom/h/IwGeomFVec2.h'
p973
(lp974
I1
ag921
asS'c:/marmalade/6.2/modules/iwgeom/h/IwGeomMat.h'
p975
(lp976
I1
ag921
asS'c:/marmalade/6.2/modules/iwgeom/h/IwGeomFQuat.h'
p977
(lp978
I1
ag921
asS'c:/marmalade/6.2/modules/iwgeom/h/IwGeomFMat2D.h'
p979
(lp980
I1
ag921
asS'c:/marmalade/6.2/modules/iwgeom/h/IwGeomVec.h'
p981
(lp982
I1
ag921
asS'c:/marmalade/6.2/modules/iwgeom/h/IwGeomVec3.h'
p983
(lp984
I1
ag921
assS'iwresmanager'
p985
(dp986
S'c:/marmalade/6.2/modules/iwresmanager/h/IwResSerialise.h'
p987
(lp988
I1
a(dp989
asS'c:/marmalade/6.2/modules/iwresmanager/h/IwResHandlerGROUP.h'
p990
(lp991
I1
ag989
asS'c:/marmalade/6.2/modules/iwresmanager/h/IwResManagerClass.h'
p992
(lp993
I1
ag989
asS'c:/marmalade/6.2/modules/iwresmanager/h/IwResHandlerImage.h'
p994
(lp995
I1
ag989
asS'c:/marmalade/6.2/modules/iwresmanager/docs/iwresmanager.config.txt'
p996
(lp997
I1
ag989
asS'c:/marmalade/6.2/modules/iwresmanager/h/IwResHandler.h'
p998
(lp999
I1
ag989
asS'c:/marmalade/6.2/modules/iwresmanager/iwresmanager.mkf'
p1000
(lp1001
I1
a(dp1002
asS'c:/marmalade/6.2/modules/iwresmanager/h/IwResGroup.h'
p1003
(lp1004
I1
ag989
asS'c:/marmalade/6.2/modules/iwresmanager/h/IwResManager.h'
p1005
(lp1006
I1
ag989
asS'c:/marmalade/6.2/modules/iwresmanager/h/IwResHandlerITX.h'
p1007
(lp1008
I1
ag989
assS'iwgx'
p1009
(dp1010
S'c:/marmalade/6.2/modules/iwgx/h/IwGxFuncTable.h'
p1011
(lp1012
I1
a(dp1013
asS'c:/marmalade/6.2/modules/iwgx/h/IwClip.inl'
p1014
(lp1015
I1
ag1013
asS'c:/marmalade/6.2/modules/iwgx/h/IwGxTypes.h'
p1016
(lp1017
I1
ag1013
asS'c:/marmalade/6.2/modules/iwgx/h/IwGxTransformSW.h'
p1018
(lp1019
I1
ag1013
asS'c:/marmalade/6.2/modules/iwgx/docs/iwgx_public.defines.txt'
p1020
(lp1021
I1
ag1013
asS'c:/marmalade/6.2/modules/iwgx/h/IwDebugPrim.h'
p1022
(lp1023
I1
ag1013
asS'c:/marmalade/6.2/modules/iwgx/h/IwResHandlerMTL.h'
p1024
(lp1025
I1
ag1013
asS'c:/marmalade/6.2/modules/iwgx/docs/iwgx.config.txt'
p1026
(lp1027
I1
ag1013
asS'c:/marmalade/6.2/modules/iwgx/h/IwGxDebug.h'
p1028
(lp1029
I1
ag1013
asS'c:/marmalade/6.2/modules/iwgx/h/IwTexture.h'
p1030
(lp1031
I1
ag1013
asS'c:/marmalade/6.2/modules/iwgx/h/IwFColour.h'
p1032
(lp1033
I1
ag1013
asS'c:/marmalade/6.2/modules/iwgx/h/IwGxError.h'
p1034
(lp1035
I1
ag1013
asS'c:/marmalade/6.2/modules/iwgx/h/IwColour.h'
p1036
(lp1037
I1
ag1013
asS'c:/marmalade/6.2/modules/iwgx/h/IwMaterial.h'
p1038
(lp1039
I1
ag1013
asS'c:/marmalade/6.2/modules/iwgx/h/IwGxPrint.h'
p1040
(lp1041
I1
ag1013
asS'c:/marmalade/6.2/modules/iwgx/h/IwTPage.h'
p1042
(lp1043
I1
ag1013
asS'c:/marmalade/6.2/modules/iwgx/iwgx.mkf'
p1044
(lp1045
I1
a(dp1046
asS'c:/marmalade/6.2/modules/iwgx/h/IwGxMetrics.h'
p1047
(lp1048
I1
ag1013
asS'c:/marmalade/6.2/modules/iwgx/h/IwGxSurface.h'
p1049
(lp1050
I1
ag1013
asS'c:/marmalade/6.2/modules/iwgx/h/IwGx.h'
p1051
(lp1052
I1
ag1013
asS'c:/marmalade/6.2/modules/iwgx/h/IwGxShaderTechnique.h'
p1053
(lp1054
I1
ag1013
asS'c:/marmalade/6.2/modules/iwgx/h/IwGxStream.h'
p1055
(lp1056
I1
ag1013
asS'c:/marmalade/6.2/modules/iwgx/h/IwMatAnim.h'
p1057
(lp1058
I1
ag1013
asS'c:/marmalade/6.2/modules/iwgx/h/IwClip.h'
p1059
(lp1060
I1
ag1013
asS'c:/marmalade/6.2/modules/iwgx/h/IwGxState.h'
p1061
(lp1062
I1
ag1013
assS'iwutil'
p1063
(dp1064
S'c:/marmalade/6.2/modules/iwutil/h/IwBuffer.h'
p1065
(lp1066
I1
a(dp1067
asS'c:/marmalade/6.2/modules/iwutil/h/IwResource.h'
p1068
(lp1069
I1
ag1067
asS'c:/marmalade/6.2/modules/iwutil/h/IwFile.h'
p1070
(lp1071
I1
ag1067
asS'c:/marmalade/6.2/modules/iwutil/docs/iwutil.config.txt'
p1072
(lp1073
I1
ag1067
asS'c:/marmalade/6.2/modules/iwutil/h/IwCore.h'
p1074
(lp1075
I1
ag1067
asS'c:/marmalade/6.2/modules/iwutil/h/IwOptimiseSpeed.h'
p1076
(lp1077
I1
ag1067
asS'c:/marmalade/6.2/modules/iwutil/h/IwSerialise.h'
p1078
(lp1079
I1
ag1067
asS'c:/marmalade/6.2/modules/iwutil/h/IwPath.h'
p1080
(lp1081
I1
ag1067
asS'c:/marmalade/6.2/modules/iwutil/h/IwImage.h'
p1082
(lp1083
I1
ag1067
asS'c:/marmalade/6.2/modules/iwutil/h/IwCopyingPtr.h'
p1084
(lp1085
I1
ag1067
asS'c:/marmalade/6.2/modules/iwutil/h/IwUtilInitTerm.h'
p1086
(lp1087
I1
ag1067
asS'c:/marmalade/6.2/modules/iwutil/h/IwOptimiseARM.h'
p1088
(lp1089
I1
ag1067
asS'c:/marmalade/6.2/modules/iwutil/h/IwMath.h'
p1090
(lp1091
I1
ag1067
asS'c:/marmalade/6.2/modules/iwutil/iwutil.mkf'
p1092
(lp1093
I1
a(dp1094
asS'c:/marmalade/6.2/modules/iwutil/h/IwUncopyable.h'
p1095
(lp1096
I1
ag1067
asS'c:/marmalade/6.2/modules/iwutil/h/IwDebug.h'
p1097
(lp1098
I1
ag1067
asS'c:/marmalade/6.2/modules/iwutil/h/IwSingleton.h'
p1099
(lp1100
I1
ag1067
asS'c:/marmalade/6.2/modules/iwutil/h/IwRandom.h'
p1101
(lp1102
I1
ag1067
asS'c:/marmalade/6.2/modules/iwutil/h/IwMemManagerDL.h'
p1103
(lp1104
I1
ag1067
asS'c:/marmalade/6.2/modules/iwutil/h/IwMemory.h'
p1105
(lp1106
I1
ag1067
asS'c:/marmalade/6.2/modules/iwutil/h/IwUtil.h'
p1107
(lp1108
I1
ag1067
asS'c:/marmalade/6.2/modules/iwutil/h/IwManagedList.h'
p1109
(lp1110
I1
ag1067
asS'c:/marmalade/6.2/modules/iwutil/h/IwMenu.h'
p1111
(lp1112
I1
ag1067
asS'c:/marmalade/6.2/modules/iwutil/h/IwArray.h'
p1113
(lp1114
I1
ag1067
asS'c:/marmalade/6.2/modules/iwutil/h/IwOptimiseSize.h'
p1115
(lp1116
I1
ag1067
asS'c:/marmalade/6.2/modules/iwutil/h/IwString.h'
p1117
(lp1118
I1
ag1067
asS'c:/marmalade/6.2/modules/iwutil/h/IwProfileMenu.h'
p1119
(lp1120
I1
ag1067
asS'c:/marmalade/6.2/modules/iwutil/h/IwKeymap.h'
p1121
(lp1122
I1
ag1067
asS'c:/marmalade/6.2/modules/iwutil/h/IwMemBucket.h'
p1123
(lp1124
I1
ag1067
asS'c:/marmalade/6.2/modules/iwutil/h/IwUTF8.h'
p1125
(lp1126
I1
ag1067
asS'c:/marmalade/6.2/modules/iwutil/h/IwRuntime.h'
p1127
(lp1128
I1
ag1067
asS'c:/marmalade/6.2/modules/iwutil/h/IwVariableBitField.h'
p1129
(lp1130
I1
ag1067
asS'c:/marmalade/6.2/modules/iwutil/h/IwOptimiseThumb.h'
p1131
(lp1132
I1
ag1067
asS'c:/marmalade/6.2/modules/iwutil/h/IwList.h'
p1133
(lp1134
I1
ag1067
asS'c:/marmalade/6.2/modules/iwutil/h/IwDivTable.h'
p1135
(lp1136
I1
ag1067
asS'c:/marmalade/6.2/modules/iwutil/h/IwMemBucketHelpers.h'
p1137
(lp1138
I1
ag1067
asS'c:/marmalade/6.2/modules/iwutil/h/IwClassFactory.h'
p1139
(lp1140
I1
ag1067
asS'c:/marmalade/6.2/modules/iwutil/h/IwAutoFile.h'
p1141
(lp1142
I1
ag1067
asS'c:/marmalade/6.2/modules/iwutil/h/IwAllocator.h'
p1143
(lp1144
I1
ag1067
asS'c:/marmalade/6.2/modules/iwutil/h/IwImageHelper.h'
p1145
(lp1146
I1
ag1067
asS'c:/marmalade/6.2/modules/iwutil/h/IwTextParserITX.h'
p1147
(lp1148
I1
ag1067
asS'c:/marmalade/6.2/modules/iwutil/h/IwTextParser.h'
p1149
(lp1150
I1
ag1067
asS'c:/marmalade/6.2/modules/iwutil/h/IwTextParseable.h'
p1151
(lp1152
I1
ag1067
asS'c:/marmalade/6.2/modules/iwutil/h/IwDivide.h'
p1153
(lp1154
I1
ag1067
asS'c:/marmalade/6.2/modules/iwutil/h/IwHashString.h'
p1155
(lp1156
I1
ag1067
asS'c:/marmalade/6.2/modules/iwutil/h/IwTypes.h'
p1157
(lp1158
I1
ag1067
asS'c:/marmalade/6.2/modules/iwutil/h/IwManaged.h'
p1159
(lp1160
I1
ag1067
asS'c:/marmalade/6.2/modules/iwutil/h/IwEvent.h'
p1161
(lp1162
I1
ag1067
asS'c:/marmalade/6.2/modules/iwutil/h/IwChar.h'
p1163
(lp1164
I1
ag1067
asS'c:/marmalade/6.2/modules/iwutil/h/IwFibre.h'
p1165
(lp1166
I1
ag1067
asssS'(zlib)'
p1167
(dp1168
Vc:/users/1106786/appdata/roaming/marmalade/packages/6.2.2/zlib_1.2.4/h/zconf.h
p1169
(lp1170
I1
a(dp1171
asVc:/users/1106786/appdata/roaming/marmalade/packages/6.2.2/zlib_1.2.4/h/zlib.h
p1172
(lp1173
I1
ag1171
asVc:/users/1106786/appdata/roaming/marmalade/packages/6.2.2/zlib_1.2.4/zlib.mkf
p1174
(lp1175
I1
a(dp1176
asssS'files'
p1177
(dp1178
S'IwGxFontPreparedData.h'
p1179
g239
(cmkb_main
File
p1180
g241
Ntp1181
Rp1182
(dp1183
S'flags'
p1184
g899
sS'group'
p1185
(lp1186
S"'Marmalade Studio'"
p1187
ag895
asg269
g907
sbsS'iterator'
p1188
g239
(g1180
g241
Ntp1189
Rp1190
(dp1191
g1184
(dp1192
sg1185
(lp1193
S"'Marmalade System (S3E)'"
p1194
aS'stdc headers'
p1195
aS'c++'
p1196
asg269
S'c:/marmalade/6.2/s3e/h/std/c++/iterator'
p1197
sbsS'IwGeomPlane.h'
p1198
g239
(g1180
g241
Ntp1199
Rp1200
(dp1201
g1184
g921
sg1185
(lp1202
S"'Marmalade Studio'"
p1203
ag917
asg269
g969
sbsS's3e.h'
p1204
g239
(g1180
g241
Ntp1205
Rp1206
(dp1207
g1184
g1192
sg1185
(lp1208
g1194
asg269
S'c:/marmalade/6.2/s3e/h/s3e.h'
p1209
sbsS'errno.h'
p1210
g239
(g1180
g241
Ntp1211
Rp1212
(dp1213
g1184
g1192
sg1185
(lp1214
g1194
aS'stdc headers'
p1215
asg269
S'c:/marmalade/6.2/s3e/h/std/errno.h'
p1216
sbsS'IwSingleton.h'
p1217
g239
(g1180
g241
Ntp1218
Rp1219
(dp1220
g1184
g1067
sg1185
(lp1221
S"'Marmalade Studio'"
p1222
ag1063
asg269
g1099
sbsS'dlfcn.h'
p1223
g239
(g1180
g241
Ntp1224
Rp1225
(dp1226
g1184
g1192
sg1185
g1214
sg269
S'c:/marmalade/6.2/s3e/h/std/dlfcn.h'
p1227
sbsS'stdio_streambuf'
p1228
g239
(g1180
g241
Ntp1229
Rp1230
(dp1231
g1184
g1192
sg1185
g1193
sg269
S'c:/marmalade/6.2/s3e/h/std/c++/stdio_streambuf'
p1232
sbsS'sched.h'
p1233
g239
(g1180
g241
Ntp1234
Rp1235
(dp1236
g1184
g1192
sg1185
g1214
sg269
S'c:/marmalade/6.2/s3e/h/std/sched.h'
p1237
sbsS'IwGeomFMat2D.h'
p1238
g239
(g1180
g241
Ntp1239
Rp1240
(dp1241
g1184
g921
sg1185
g1202
sg269
g979
sbsS'cassert'
p1242
g239
(g1180
g241
Ntp1243
Rp1244
(dp1245
g1184
g1192
sg1185
g1193
sg269
S'c:/marmalade/6.2/s3e/h/std/c++/cassert'
p1246
sbsS'grp.h'
p1247
g239
(g1180
g241
Ntp1248
Rp1249
(dp1250
g1184
g1192
sg1185
g1214
sg269
S'c:/marmalade/6.2/s3e/h/std/grp.h'
p1251
sbsS'list'
p1252
g239
(g1180
g241
Ntp1253
Rp1254
(dp1255
g1184
g1192
sg1185
g1193
sg269
S'c:/marmalade/6.2/s3e/h/std/c++/list'
p1256
sbsS'istream'
p1257
g239
(g1180
g241
Ntp1258
Rp1259
(dp1260
g1184
g1192
sg1185
g1193
sg269
S'c:/marmalade/6.2/s3e/h/std/c++/istream'
p1261
sbsVjpeglib.h
p1262
g239
(g1180
g241
Ntp1263
Rp1264
(dp1265
g1184
g757
sg1185
(lp1266
g753
asg269
g777
sbsS'iw2d_public.defines.txt'
p1267
g239
(g1180
g241
Ntp1268
Rp1269
(dp1270
g1184
g887
sg1185
(lp1271
S"'Marmalade Studio'"
p1272
ag883
asg269
g888
sbsS'iostream.h'
p1273
g239
(g1180
g241
Ntp1274
Rp1275
(dp1276
g1184
g1192
sg1185
g1193
sg269
S'c:/marmalade/6.2/s3e/h/std/c++/iostream.h'
p1277
sbsS'string'
p1278
g239
(g1180
g241
Ntp1279
Rp1280
(dp1281
g1184
g1192
sg1185
g1193
sg269
S'c:/marmalade/6.2/s3e/h/std/c++/string'
p1282
sbsS'IwMemory.h'
p1283
g239
(g1180
g241
Ntp1284
Rp1285
(dp1286
g1184
g1067
sg1185
g1221
sg269
g1105
sbsS'IwGL.h'
p1287
g239
(g1180
g241
Ntp1288
Rp1289
(dp1290
g1184
g875
sg1185
(lp1291
S"'Marmalade Studio'"
p1292
ag871
asg269
g878
sbsS'resmgr.h'
p1293
g239
(g1180
g241
Ntp1294
Rp1295
(dp1296
g1184
g813
sg1185
(lp1297
g807
ag809
asg269
g826
sbsS'iw2d.config.txt'
p1298
g239
(g1180
g241
Ntp1299
Rp1300
(dp1301
g1184
g887
sg1185
g1271
sg269
g890
sbsS'iomanip'
p1302
g239
(g1180
g241
Ntp1303
Rp1304
(dp1305
g1184
g1192
sg1185
g1193
sg269
S'c:/marmalade/6.2/s3e/h/std/c++/iomanip'
p1306
sbsS'iwgeom.mkf'
p1307
g239
(g1180
g241
Ntp1308
Rp1309
(dp1310
g1184
g956
sg1185
g1202
sg269
g954
sbsS'IwGxError.h'
p1311
g239
(g1180
g241
Ntp1312
Rp1313
(dp1314
g1184
g1013
sg1185
(lp1315
S"'Marmalade Studio'"
p1316
ag1009
asg269
g1034
sbsS'IwGeom.h'
p1317
g239
(g1180
g241
Ntp1318
Rp1319
(dp1320
g1184
g921
sg1185
g1202
sg269
g924
sbsS'IwGeomVec4.h'
p1321
g239
(g1180
g241
Ntp1322
Rp1323
(dp1324
g1184
g921
sg1185
g1202
sg269
g946
sbsS'dir.h'
p1325
g239
(g1180
g241
Ntp1326
Rp1327
(dp1328
g1184
g1192
sg1185
(lp1329
g1194
aS'stdc headers'
p1330
aS'sys'
p1331
asg269
S'c:/marmalade/6.2/s3e/h/std/sys/dir.h'
p1332
sbsS'locale.h'
p1333
g239
(g1180
g241
Ntp1334
Rp1335
(dp1336
g1184
g1192
sg1185
g1214
sg269
S'c:/marmalade/6.2/s3e/h/std/locale.h'
p1337
sbsS'vector'
p1338
g239
(g1180
g241
Ntp1339
Rp1340
(dp1341
g1184
g1192
sg1185
g1193
sg269
S'c:/marmalade/6.2/s3e/h/std/c++/vector'
p1342
sbsS'IwManaged.h'
p1343
g239
(g1180
g241
Ntp1344
Rp1345
(dp1346
g1184
g1067
sg1185
g1221
sg269
g1159
sbsS's3eCompass.h'
p1347
g239
(g1180
g241
Ntp1348
Rp1349
(dp1350
g1184
g1192
sg1185
g1208
sg269
S'c:/marmalade/6.2/s3e/h/s3eCompass.h'
p1351
sbsVcderror.h
p1352
g239
(g1180
g241
Ntp1353
Rp1354
(dp1355
g1184
g757
sg1185
g1266
sg269
g762
sbsS'climits'
p1356
g239
(g1180
g241
Ntp1357
Rp1358
(dp1359
g1184
g1192
sg1185
g1193
sg269
S'c:/marmalade/6.2/s3e/h/std/c++/climits'
p1360
sbsS's3eVibra.h'
p1361
g239
(g1180
g241
Ntp1362
Rp1363
(dp1364
g1184
g1192
sg1185
g1208
sg269
S'c:/marmalade/6.2/s3e/h/s3eVibra.h'
p1365
sbsVjversion.h
p1366
g239
(g1180
g241
Ntp1367
Rp1368
(dp1369
g1184
g757
sg1185
g1266
sg269
g771
sbsS'fnmatch.h'
p1370
g239
(g1180
g241
Ntp1371
Rp1372
(dp1373
g1184
g1192
sg1185
g1214
sg269
S'c:/marmalade/6.2/s3e/h/std/fnmatch.h'
p1374
sbsS'IwGxState.h'
p1375
g239
(g1180
g241
Ntp1376
Rp1377
(dp1378
g1184
g1013
sg1185
g1315
sg269
g1061
sbsS's3eAudio.h'
p1379
g239
(g1180
g241
Ntp1380
Rp1381
(dp1382
g1184
g1192
sg1185
g1208
sg269
S'c:/marmalade/6.2/s3e/h/s3eAudio.h'
p1383
sbsS's3eSurface.h'
p1384
g239
(g1180
g241
Ntp1385
Rp1386
(dp1387
g1184
g1192
sg1185
g1208
sg269
S'c:/marmalade/6.2/s3e/h/s3eSurface.h'
p1388
sbsS'new'
p1389
g239
(g1180
g241
Ntp1390
Rp1391
(dp1392
g1184
g1192
sg1185
g1193
sg269
S'c:/marmalade/6.2/s3e/h/std/c++/new'
p1393
sbsS's3eWindow.h'
p1394
g239
(g1180
g241
Ntp1395
Rp1396
(dp1397
g1184
g1192
sg1185
(lp1398
g1194
aS'Extensions'
p1399
asg269
S'c:/marmalade/6.2/s3e/h/ext/s3eWindow.h'
p1400
sbsS'IwBuffer.h'
p1401
g239
(g1180
g241
Ntp1402
Rp1403
(dp1404
g1184
g1067
sg1185
g1221
sg269
g1065
sbsS's3eOSExec.h'
p1405
g239
(g1180
g241
Ntp1406
Rp1407
(dp1408
g1184
g1192
sg1185
g1398
sg269
S'c:/marmalade/6.2/s3e/h/ext/s3eOSExec.h'
p1409
sbsS'IwGxTransformSW.h'
p1410
g239
(g1180
g241
Ntp1411
Rp1412
(dp1413
g1184
g1013
sg1185
g1315
sg269
g1018
sbsS'imgs.group'
p1414
g239
(g1180
g241
Ntp1415
Rp1416
(dp1417
g1184
g813
sg1185
(lp1418
g807
ag862
asg269
g864
sbsS'unistd.h'
p1419
g239
(g1180
g241
Ntp1420
Rp1421
(dp1422
g1184
g1192
sg1185
g1214
sg269
S'c:/marmalade/6.2/s3e/h/std/unistd.h'
p1423
sbsS'iwgxfont.config.txt'
p1424
g239
(g1180
g241
Ntp1425
Rp1426
(dp1427
g1184
g899
sg1185
g1186
sg269
g913
sbsS'gl2platform.h'
p1428
g239
(g1180
g241
Ntp1429
Rp1430
(dp1431
g1184
g1192
sg1185
(lp1432
g1194
aS'GL'
p1433
aS'GLES 2.0'
p1434
asg269
S'c:/marmalade/6.2/s3e/h/GLES2/gl2platform.h'
p1435
sbsS'IwResManagerClass.h'
p1436
g239
(g1180
g241
Ntp1437
Rp1438
(dp1439
g1184
g989
sg1185
(lp1440
g869
ag985
asg269
g992
sbsS'queue'
p1441
g239
(g1180
g241
Ntp1442
Rp1443
(dp1444
g1184
g1192
sg1185
g1193
sg269
S'c:/marmalade/6.2/s3e/h/std/c++/queue'
p1445
sbsS'time_1.h'
p1446
g239
(g1180
g241
Ntp1447
Rp1448
(dp1449
g1184
g1192
sg1185
g1329
sg269
S'c:/marmalade/6.2/s3e/h/std/sys/time.h'
p1450
sbsS'Iw2D.h'
p1451
g239
(g1180
g241
Ntp1452
Rp1453
(dp1454
g1184
g887
sg1185
g1271
sg269
g885
sbsS'IwGeomVec2.h'
p1455
g239
(g1180
g241
Ntp1456
Rp1457
(dp1458
g1184
g921
sg1185
g1202
sg269
g928
sbsS's3eDevice.h'
p1459
g239
(g1180
g241
Ntp1460
Rp1461
(dp1462
g1184
g1192
sg1185
g1208
sg269
S'c:/marmalade/6.2/s3e/h/s3eDevice.h'
p1463
sbsS'resmgr.cpp'
p1464
g239
(g1180
g241
Ntp1465
Rp1466
(dp1467
g1184
g813
sg1185
g1297
sg269
g844
sbsS'malloc.h'
p1468
g239
(g1180
g241
Ntp1469
Rp1470
(dp1471
g1184
g1192
sg1185
g1214
sg269
S'c:/marmalade/6.2/s3e/h/std/malloc.h'
p1472
sbsS'stdarg.h'
p1473
g239
(g1180
g241
Ntp1474
Rp1475
(dp1476
g1184
g1192
sg1185
g1214
sg269
S'c:/marmalade/6.2/s3e/h/std/stdarg.h'
p1477
sbsS'IwGeomCore.h'
p1478
g239
(g1180
g241
Ntp1479
Rp1480
(dp1481
g1184
g921
sg1185
g1202
sg269
g942
sbsS'endian.h'
p1482
g239
(g1180
g241
Ntp1483
Rp1484
(dp1485
g1184
g1192
sg1185
g1214
sg269
S'c:/marmalade/6.2/s3e/h/std/endian.h'
p1486
sbsS'glob.h'
p1487
g239
(g1180
g241
Ntp1488
Rp1489
(dp1490
g1184
g1192
sg1185
g1214
sg269
S'c:/marmalade/6.2/s3e/h/std/glob.h'
p1491
sbsS'fstream'
p1492
g239
(g1180
g241
Ntp1493
Rp1494
(dp1495
g1184
g1192
sg1185
g1193
sg269
S'c:/marmalade/6.2/s3e/h/std/c++/fstream'
p1496
sbsS's3eCamera.h'
p1497
g239
(g1180
g241
Ntp1498
Rp1499
(dp1500
g1184
g1192
sg1185
g1208
sg269
S'c:/marmalade/6.2/s3e/h/s3eCamera.h'
p1501
sbsVjconfig.h
p1502
g239
(g1180
g241
Ntp1503
Rp1504
(dp1505
g1184
g757
sg1185
g1266
sg269
g760
sbsS'memory'
p1506
g239
(g1180
g241
Ntp1507
Rp1508
(dp1509
g1184
g1192
sg1185
g1193
sg269
S'c:/marmalade/6.2/s3e/h/std/c++/memory'
p1510
sbsS'egl.h'
p1511
g239
(g1180
g241
Ntp1512
Rp1513
(dp1514
g1184
g1192
sg1185
(lp1515
g1194
aS'GL'
p1516
aS'EGL'
p1517
asg269
S'c:/marmalade/6.2/s3e/h/EGL/egl.h'
p1518
sbsS'IwClip.inl'
p1519
g239
(g1180
g241
Ntp1520
Rp1521
(dp1522
g1184
g1013
sg1185
g1315
sg269
g1014
sbsS'IwMemManagerDL.h'
p1523
g239
(g1180
g241
Ntp1524
Rp1525
(dp1526
g1184
g1067
sg1185
g1221
sg269
g1103
sbsS'deque'
p1527
g239
(g1180
g241
Ntp1528
Rp1529
(dp1530
g1184
g1192
sg1185
g1193
sg269
S'c:/marmalade/6.2/s3e/h/std/c++/deque'
p1531
sbsS'IwString.h'
p1532
g239
(g1180
g241
Ntp1533
Rp1534
(dp1535
g1184
g1067
sg1185
g1221
sg269
g1117
sbsS'cwchar'
p1536
g239
(g1180
g241
Ntp1537
Rp1538
(dp1539
g1184
g1192
sg1185
g1193
sg269
S'c:/marmalade/6.2/s3e/h/std/c++/cwchar'
p1540
sbsS'iwutil.mkf'
p1541
g239
(g1180
g241
Ntp1542
Rp1543
(dp1544
g1184
g1094
sg1185
g1221
sg269
g1092
sbsS'csignal'
p1545
g239
(g1180
g241
Ntp1546
Rp1547
(dp1548
g1184
g1192
sg1185
g1193
sg269
S'c:/marmalade/6.2/s3e/h/std/c++/csignal'
p1549
sbsS'float.h'
p1550
g239
(g1180
g241
Ntp1551
Rp1552
(dp1553
g1184
g1192
sg1185
g1214
sg269
S'c:/marmalade/6.2/s3e/h/std/float.h'
p1554
sbsS'pthread_alloc'
p1555
g239
(g1180
g241
Ntp1556
Rp1557
(dp1558
g1184
g1192
sg1185
g1193
sg269
S'c:/marmalade/6.2/s3e/h/std/c++/pthread_alloc'
p1559
sbsS'getopt.h'
p1560
g239
(g1180
g241
Ntp1561
Rp1562
(dp1563
g1184
g1192
sg1185
g1214
sg269
S'c:/marmalade/6.2/s3e/h/std/getopt.h'
p1564
sbsS'IwOptimiseARM.h'
p1565
g239
(g1180
g241
Ntp1566
Rp1567
(dp1568
g1184
g1067
sg1185
g1221
sg269
g1088
sbsS'times.h'
p1569
g239
(g1180
g241
Ntp1570
Rp1571
(dp1572
g1184
g1192
sg1185
g1329
sg269
S'c:/marmalade/6.2/s3e/h/std/sys/times.h'
p1573
sbsS'IwGeomFSphere.h'
p1574
g239
(g1180
g241
Ntp1575
Rp1576
(dp1577
g1184
g921
sg1185
g1202
sg269
g961
sbsS'game.h'
p1578
g239
(g1180
g241
Ntp1579
Rp1580
(dp1581
g1184
g813
sg1185
g1297
sg269
g816
sbsS'functional'
p1582
g239
(g1180
g241
Ntp1583
Rp1584
(dp1585
g1184
g1192
sg1185
g1193
sg269
S'c:/marmalade/6.2/s3e/h/std/c++/functional'
p1586
sbsS'IwTypes.h'
p1587
g239
(g1180
g241
Ntp1588
Rp1589
(dp1590
g1184
g1067
sg1185
g1221
sg269
g1157
sbsS'IwGxMetrics.h'
p1591
g239
(g1180
g241
Ntp1592
Rp1593
(dp1594
g1184
g1013
sg1185
g1315
sg269
g1047
sbsS'audio.cpp'
p1595
g239
(g1180
g241
Ntp1596
Rp1597
(dp1598
g1184
g813
sg1185
g1297
sg269
g818
sbsS's3eCompression.h'
p1599
g239
(g1180
g241
Ntp1600
Rp1601
(dp1602
g1184
g1192
sg1185
g1208
sg269
S'c:/marmalade/6.2/s3e/h/s3eCompression.h'
p1603
sbsS'langinfo.h'
p1604
g239
(g1180
g241
Ntp1605
Rp1606
(dp1607
g1184
g1192
sg1185
g1214
sg269
S'c:/marmalade/6.2/s3e/h/std/langinfo.h'
p1608
sbsS's3edebugHeap.h'
p1609
g239
(g1180
g241
Ntp1610
Rp1611
(dp1612
g1184
g1192
sg1185
g1398
sg269
S'c:/marmalade/6.2/s3e/h/ext/s3edebugHeap.h'
p1613
sbsS'AirplayVersion.h'
p1614
g239
(g1180
g241
Ntp1615
Rp1616
(dp1617
g1184
g1192
sg1185
g1208
sg269
S'c:/marmalade/6.2/s3e/h/AirplayVersion.h'
p1618
sbsS'gl2extimg.h'
p1619
g239
(g1180
g241
Ntp1620
Rp1621
(dp1622
g1184
g1192
sg1185
g1432
sg269
S'c:/marmalade/6.2/s3e/h/GLES2/gl2extimg.h'
p1623
sbsS'app.config.txt'
p1624
g239
(g1180
g241
Ntp1625
Rp1626
(dp1627
g1184
(dp1628
sg1185
g4
sg269
S'c:/Users/1106786/Dropbox/Dropbox/PG life/Project Impact/Code/Demos/Demo_3_ResMan_Audio_LoadTile/data/app.config.txt'
p1629
sbsS'IwGeomSqrt.h'
p1630
g239
(g1180
g241
Ntp1631
Rp1632
(dp1633
g1184
g921
sg1185
g1202
sg269
g936
sbsVtiniconv_int.h
p1634
g239
(g1180
g241
Ntp1635
Rp1636
(dp1637
g1184
g804
sg1185
(lp1638
g797
asg269
g805
sbsS'syslog.h'
p1639
g239
(g1180
g241
Ntp1640
Rp1641
(dp1642
g1184
g1192
sg1185
g1214
sg269
S'c:/marmalade/6.2/s3e/h/std/syslog.h'
p1643
sbsS'IwGxFontTypes.h'
p1644
g239
(g1180
g241
Ntp1645
Rp1646
(dp1647
g1184
g899
sg1185
g1186
sg269
g911
sbsS'IwGeomFIntersect.h'
p1648
g239
(g1180
g241
Ntp1649
Rp1650
(dp1651
g1184
g921
sg1185
g1202
sg269
g938
sbsS'hash_map'
p1652
g239
(g1180
g241
Ntp1653
Rp1654
(dp1655
g1184
g1192
sg1185
g1193
sg269
S'c:/marmalade/6.2/s3e/h/std/c++/hash_map'
p1656
sbsS's3e.mkf'
p1657
g239
(g1180
g241
Ntp1658
Rp1659
(dp1660
g1184
(dp1661
sg1185
g1208
sg269
S'c:/marmalade/6.2/s3e/s3e.mkf'
p1662
sbsS's3eOSReadString.h'
p1663
g239
(g1180
g241
Ntp1664
Rp1665
(dp1666
g1184
g1192
sg1185
g1398
sg269
S'c:/marmalade/6.2/s3e/h/ext/s3eOSReadString.h'
p1667
sbsS'map'
p1668
g239
(g1180
g241
Ntp1669
Rp1670
(dp1671
g1184
g1192
sg1185
g1193
sg269
S'c:/marmalade/6.2/s3e/h/std/c++/map'
p1672
sbsS'IwOptimiseSpeed.h'
p1673
g239
(g1180
g241
Ntp1674
Rp1675
(dp1676
g1184
g1067
sg1185
g1221
sg269
g1076
sbsS'msl_string.h'
p1677
g239
(g1180
g241
Ntp1678
Rp1679
(dp1680
g1184
g1192
sg1185
g1193
sg269
S'c:/marmalade/6.2/s3e/h/std/c++/msl_string.h'
p1681
sbsS'select.h'
p1682
g239
(g1180
g241
Ntp1683
Rp1684
(dp1685
g1184
g1192
sg1185
g1329
sg269
S'c:/marmalade/6.2/s3e/h/std/sys/select.h'
p1686
sbsVzlib.mkf
p1687
g239
(g1180
g241
Ntp1688
Rp1689
(dp1690
g1184
g1176
sg1185
(lp1691
g1167
asg269
g1174
sbsS'signal.h'
p1692
g239
(g1180
g241
Ntp1693
Rp1694
(dp1695
g1184
g1192
sg1185
g1214
sg269
S'c:/marmalade/6.2/s3e/h/std/signal.h'
p1696
sbsS'iwgl.config.txt'
p1697
g239
(g1180
g241
Ntp1698
Rp1699
(dp1700
g1184
g875
sg1185
g1291
sg269
g876
sbsVlibpng.mkf
p1701
g239
(g1180
g241
Ntp1702
Rp1703
(dp1704
g1184
g747
sg1185
(lp1705
g743
asg269
g745
sbsS's3eClipboard.h'
p1706
g239
(g1180
g241
Ntp1707
Rp1708
(dp1709
g1184
g1192
sg1185
g1208
sg269
S'c:/marmalade/6.2/s3e/h/s3eClipboard.h'
p1710
sbsS'IwGxFuncTable.h'
p1711
g239
(g1180
g241
Ntp1712
Rp1713
(dp1714
g1184
g1013
sg1185
g1315
sg269
g1011
sbsS'IwResHandlerGROUP.h'
p1715
g239
(g1180
g241
Ntp1716
Rp1717
(dp1718
g1184
g989
sg1185
g1440
sg269
g990
sbsS's3eDebug.h'
p1719
g239
(g1180
g241
Ntp1720
Rp1721
(dp1722
g1184
g1192
sg1185
g1208
sg269
S'c:/marmalade/6.2/s3e/h/s3eDebug.h'
p1723
sbsS'socket.h'
p1724
g239
(g1180
g241
Ntp1725
Rp1726
(dp1727
g1184
g1192
sg1185
g1329
sg269
S'c:/marmalade/6.2/s3e/h/std/sys/socket.h'
p1728
sbsS'glext.h'
p1729
g239
(g1180
g241
Ntp1730
Rp1731
(dp1732
g1184
g1192
sg1185
(lp1733
g1194
aS'GL'
p1734
aS'GLES 1.x'
p1735
asg269
S'c:/marmalade/6.2/s3e/h/GLES/glext.h'
p1736
sbsS'typeinfo.h'
p1737
g239
(g1180
g241
Ntp1738
Rp1739
(dp1740
g1184
g1192
sg1185
g1193
sg269
S'c:/marmalade/6.2/s3e/h/std/c++/typeinfo.h'
p1741
sbsS'typeinfo'
p1742
g239
(g1180
g241
Ntp1743
Rp1744
(dp1745
g1184
g1192
sg1185
g1193
sg269
S'c:/marmalade/6.2/s3e/h/std/c++/typeinfo'
p1746
sbsS'fstream.h'
p1747
g239
(g1180
g241
Ntp1748
Rp1749
(dp1750
g1184
g1192
sg1185
g1193
sg269
S'c:/marmalade/6.2/s3e/h/std/c++/fstream.h'
p1751
sbsS'cjson.mkf'
p1752
g239
(g1180
g241
Ntp1753
Rp1754
(dp1755
g1184
g791
sg1185
(lp1756
g787
asg269
g789
sbsS'iw2d.mkf'
p1757
g239
(g1180
g241
Ntp1758
Rp1759
(dp1760
g1184
g894
sg1185
g1271
sg269
g892
sbsS's3eGL.h'
p1761
g239
(g1180
g241
Ntp1762
Rp1763
(dp1764
g1184
g1192
sg1185
g1208
sg269
S'c:/marmalade/6.2/s3e/h/s3eGL.h'
p1765
sbsS'IwGeomFVec2.h'
p1766
g239
(g1180
g241
Ntp1767
Rp1768
(dp1769
g1184
g921
sg1185
g1202
sg269
g973
sbsS'IwGeomSVec4.h'
p1770
g239
(g1180
g241
Ntp1771
Rp1772
(dp1773
g1184
g921
sg1185
g1202
sg269
g940
sbsS'poll.h'
p1774
g239
(g1180
g241
Ntp1775
Rp1776
(dp1777
g1184
g1192
sg1185
g1214
sg269
S'c:/marmalade/6.2/s3e/h/std/poll.h'
p1778
sbsS'IwMatAnim.h'
p1779
g239
(g1180
g241
Ntp1780
Rp1781
(dp1782
g1184
g1013
sg1185
g1315
sg269
g1057
sbsS'IwGeomFVec4.h'
p1783
g239
(g1180
g241
Ntp1784
Rp1785
(dp1786
g1184
g921
sg1185
g1202
sg269
g926
sbsS'IwGx.h'
p1787
g239
(g1180
g241
Ntp1788
Rp1789
(dp1790
g1184
g1013
sg1185
g1315
sg269
g1051
sbsS'valarray'
p1791
g239
(g1180
g241
Ntp1792
Rp1793
(dp1794
g1184
g1192
sg1185
g1193
sg269
S'c:/marmalade/6.2/s3e/h/std/c++/valarray'
p1795
sbsS'iosfwd'
p1796
g239
(g1180
g241
Ntp1797
Rp1798
(dp1799
g1184
g1192
sg1185
g1193
sg269
S'c:/marmalade/6.2/s3e/h/std/c++/iosfwd'
p1800
sbsS'gl2.h'
p1801
g239
(g1180
g241
Ntp1802
Rp1803
(dp1804
g1184
g1192
sg1185
g1432
sg269
S'c:/marmalade/6.2/s3e/h/GLES2/gl2.h'
p1805
sbsS'IwManagedList.h'
p1806
g239
(g1180
g241
Ntp1807
Rp1808
(dp1809
g1184
g1067
sg1185
g1221
sg269
g1109
sbsS'stdiostream.h'
p1810
g239
(g1180
g241
Ntp1811
Rp1812
(dp1813
g1184
g1192
sg1185
g1193
sg269
S'c:/marmalade/6.2/s3e/h/std/c++/stdiostream.h'
p1814
sbsS'mem.h'
p1815
g239
(g1180
g241
Ntp1816
Rp1817
(dp1818
g1184
g1192
sg1185
g1193
sg269
S'c:/marmalade/6.2/s3e/h/std/c++/mem.h'
p1819
sbsVjerror.h
p1820
g239
(g1180
g241
Ntp1821
Rp1822
(dp1823
g1184
g757
sg1185
g1266
sg269
g764
sbsVzconf.h
p1824
g239
(g1180
g241
Ntp1825
Rp1826
(dp1827
g1184
g1171
sg1185
g1691
sg269
g1169
sbsS's3e.config.txt'
p1828
g239
(g1180
g241
Ntp1829
Rp1830
(dp1831
g1184
g1192
sg1185
g1208
sg269
S'c:/marmalade/6.2/s3e/s3e.config.txt'
p1832
sbsS'numeric'
p1833
g239
(g1180
g241
Ntp1834
Rp1835
(dp1836
g1184
g1192
sg1185
g1193
sg269
S'c:/marmalade/6.2/s3e/h/std/c++/numeric'
p1837
sbsS'utime.h'
p1838
g239
(g1180
g241
Ntp1839
Rp1840
(dp1841
g1184
g1192
sg1185
g1214
sg269
S'c:/marmalade/6.2/s3e/h/std/utime.h'
p1842
sbsVjdhuff.h
p1843
g239
(g1180
g241
Ntp1844
Rp1845
(dp1846
g1184
g757
sg1185
g1266
sg269
g779
sbsS'tiles.h'
p1847
g239
(g1180
g241
Ntp1848
Rp1849
(dp1850
g1184
g813
sg1185
g1297
sg269
g856
sbsS'character.h'
p1851
g239
(g1180
g241
Ntp1852
Rp1853
(dp1854
g1184
g813
sg1185
g1297
sg269
g838
sbsS'IwGxStream.h'
p1855
g239
(g1180
g241
Ntp1856
Rp1857
(dp1858
g1184
g1013
sg1185
g1315
sg269
g1055
sbsS'IwImage.h'
p1859
g239
(g1180
g241
Ntp1860
Rp1861
(dp1862
g1184
g1067
sg1185
g1221
sg269
g1082
sbsS's3eImagePicker.h'
p1863
g239
(g1180
g241
Ntp1864
Rp1865
(dp1866
g1184
g1192
sg1185
g1398
sg269
S'c:/marmalade/6.2/s3e/h/ext/s3eImagePicker.h'
p1867
sbsS'stdlib.h'
p1868
g239
(g1180
g241
Ntp1869
Rp1870
(dp1871
g1184
g1192
sg1185
g1214
sg269
S'c:/marmalade/6.2/s3e/h/std/stdlib.h'
p1872
sbsS'IwCopyingPtr.h'
p1873
g239
(g1180
g241
Ntp1874
Rp1875
(dp1876
g1184
g1067
sg1185
g1221
sg269
g1084
sbsS'iostream'
p1877
g239
(g1180
g241
Ntp1878
Rp1879
(dp1880
g1184
g1192
sg1185
g1193
sg269
S'c:/marmalade/6.2/s3e/h/std/c++/iostream'
p1881
sbsVpng.h
p1882
g239
(g1180
g241
Ntp1883
Rp1884
(dp1885
g1184
g750
sg1185
g1705
sg269
g748
sbsS'stddef.h'
p1886
g239
(g1180
g241
Ntp1887
Rp1888
(dp1889
g1184
g1192
sg1185
g1214
sg269
S'c:/marmalade/6.2/s3e/h/std/stddef.h'
p1890
sbsS'character.cpp'
p1891
g239
(g1180
g241
Ntp1892
Rp1893
(dp1894
g1184
g813
sg1185
g1297
sg269
g846
sbsS'setjmp_win32.h'
p1895
g239
(g1180
g241
Ntp1896
Rp1897
(dp1898
g1184
g1192
sg1185
g1214
sg269
S'c:/marmalade/6.2/s3e/h/std/setjmp_win32.h'
p1899
sbsS'IwGxPrint.h'
p1900
g239
(g1180
g241
Ntp1901
Rp1902
(dp1903
g1184
g1013
sg1185
g1315
sg269
g1040
sbsS'IwGeomSVec2.h'
p1904
g239
(g1180
g241
Ntp1905
Rp1906
(dp1907
g1184
g921
sg1185
g1202
sg269
g965
sbsS'streambuf.h'
p1908
g239
(g1180
g241
Ntp1909
Rp1910
(dp1911
g1184
g1192
sg1185
g1193
sg269
S'c:/marmalade/6.2/s3e/h/std/c++/streambuf.h'
p1912
sbsS'IwGeomFPlane.h'
p1913
g239
(g1180
g241
Ntp1914
Rp1915
(dp1916
g1184
g921
sg1185
g1202
sg269
g948
sbsS'wchar.h'
p1917
g239
(g1180
g241
Ntp1918
Rp1919
(dp1920
g1184
g1192
sg1185
g1214
sg269
S'c:/marmalade/6.2/s3e/h/std/wchar.h'
p1921
sbsS's3eCameraCapture.h'
p1922
g239
(g1180
g241
Ntp1923
Rp1924
(dp1925
g1184
g1192
sg1185
g1398
sg269
S'c:/marmalade/6.2/s3e/h/ext/s3eCameraCapture.h'
p1926
sbsS'eglext.h'
p1927
g239
(g1180
g241
Ntp1928
Rp1929
(dp1930
g1184
g1192
sg1185
g1515
sg269
S'c:/marmalade/6.2/s3e/h/EGL/eglext.h'
p1931
sbsS'IwResHandlerImage.h'
p1932
g239
(g1180
g241
Ntp1933
Rp1934
(dp1935
g1184
g989
sg1185
g1440
sg269
g994
sbsS'strstream.h'
p1936
g239
(g1180
g241
Ntp1937
Rp1938
(dp1939
g1184
g1192
sg1185
g1193
sg269
S'c:/marmalade/6.2/s3e/h/std/c++/strstream.h'
p1940
sbsVtiniconv.h
p1941
g239
(g1180
g241
Ntp1942
Rp1943
(dp1944
g1184
g804
sg1185
g1638
sg269
g802
sbsS'IwGLExt.h'
p1945
g239
(g1180
g241
Ntp1946
Rp1947
(dp1948
g1184
g875
sg1185
g1291
sg269
g873
sbsS'app.icf'
p1949
g239
(g1180
g241
Ntp1950
Rp1951
(dp1952
g1184
(dp1953
sg1185
g4
sg269
S'c:/Users/1106786/Dropbox/Dropbox/PG life/Project Impact/Code/Demos/Demo_3_ResMan_Audio_LoadTile/data/app.icf'
p1954
sbsS'IwClassFactory.h'
p1955
g239
(g1180
g241
Ntp1956
Rp1957
(dp1958
g1184
g1067
sg1185
g1221
sg269
g1139
sbsS'file.h'
p1959
g239
(g1180
g241
Ntp1960
Rp1961
(dp1962
g1184
g1192
sg1185
g1329
sg269
S'c:/marmalade/6.2/s3e/h/std/sys/file.h'
p1963
sbsS'cstring'
p1964
g239
(g1180
g241
Ntp1965
Rp1966
(dp1967
g1184
g1192
sg1185
g1193
sg269
S'c:/marmalade/6.2/s3e/h/std/c++/cstring'
p1968
sbsS'iwutil.config.txt'
p1969
g239
(g1180
g241
Ntp1970
Rp1971
(dp1972
g1184
g1067
sg1185
g1221
sg269
g1072
sbsS's3eSMS.h'
p1973
g239
(g1180
g241
Ntp1974
Rp1975
(dp1976
g1184
g1192
sg1185
g1398
sg269
S'c:/marmalade/6.2/s3e/h/ext/s3eSMS.h'
p1977
sbsS'limits.h'
p1978
g239
(g1180
g241
Ntp1979
Rp1980
(dp1981
g1184
g1192
sg1185
g1214
sg269
S'c:/marmalade/6.2/s3e/h/std/limits.h'
p1982
sbsS'sigcontext.h'
p1983
g239
(g1180
g241
Ntp1984
Rp1985
(dp1986
g1184
g1192
sg1185
g1214
sg269
S'c:/marmalade/6.2/s3e/h/std/sigcontext.h'
p1987
sbsS'cJSON.h'
p1988
g239
(g1180
g241
Ntp1989
Rp1990
(dp1991
g1184
g794
sg1185
g1756
sg269
g792
sbsS'iwgx_public.defines.txt'
p1992
g239
(g1180
g241
Ntp1993
Rp1994
(dp1995
g1184
g1013
sg1185
g1315
sg269
g1020
sbsS'IwMaterial.h'
p1996
g239
(g1180
g241
Ntp1997
Rp1998
(dp1999
g1184
g1013
sg1185
g1315
sg269
g1038
sbsS'cJSON.c'
p2000
g239
(g1180
g241
Ntp2001
Rp2002
(dp2003
g1184
g794
sg1185
g1756
sg269
g795
sbsS'IwGxSurface.h'
p2004
g239
(g1180
g241
Ntp2005
Rp2006
(dp2007
g1184
g1013
sg1185
g1315
sg269
g1049
sbsS's3eSocket.h'
p2008
g239
(g1180
g241
Ntp2009
Rp2010
(dp2011
g1184
g1192
sg1185
g1208
sg269
S'c:/marmalade/6.2/s3e/h/s3eSocket.h'
p2012
sbsS'IwAutoFile.h'
p2013
g239
(g1180
g241
Ntp2014
Rp2015
(dp2016
g1184
g1067
sg1185
g1221
sg269
g1141
sbsS'ipc.h'
p2017
g239
(g1180
g241
Ntp2018
Rp2019
(dp2020
g1184
g1192
sg1185
g1329
sg269
S'c:/marmalade/6.2/s3e/h/std/sys/ipc.h'
p2021
sbsS'poll_1.h'
p2022
g239
(g1180
g241
Ntp2023
Rp2024
(dp2025
g1184
g1192
sg1185
g1329
sg269
S'c:/marmalade/6.2/s3e/h/std/sys/poll.h'
p2026
sbsS's3eThread.h'
p2027
g239
(g1180
g241
Ntp2028
Rp2029
(dp2030
g1184
g1192
sg1185
g1208
sg269
S'c:/marmalade/6.2/s3e/h/s3eThread.h'
p2031
sbsS'ucontext.h'
p2032
g239
(g1180
g241
Ntp2033
Rp2034
(dp2035
g1184
g1192
sg1185
g1214
sg269
S'c:/marmalade/6.2/s3e/h/std/ucontext.h'
p2036
sbsS'time.h'
p2037
g239
(g1180
g241
Ntp2038
Rp2039
(dp2040
g1184
g1192
sg1185
g1214
sg269
S'c:/marmalade/6.2/s3e/h/std/time.h'
p2041
sbsVjchuff.h
p2042
g239
(g1180
g241
Ntp2043
Rp2044
(dp2045
g1184
g757
sg1185
g1266
sg269
g783
sbsS's3eSoundRecord.h'
p2046
g239
(g1180
g241
Ntp2047
Rp2048
(dp2049
g1184
g1192
sg1185
g1208
sg269
S'c:/marmalade/6.2/s3e/h/s3eSoundRecord.h'
p2050
sbsS'IwFibre.h'
p2051
g239
(g1180
g241
Ntp2052
Rp2053
(dp2054
g1184
g1067
sg1185
g1221
sg269
g1165
sbsS's3eVersion.h'
p2055
g239
(g1180
g241
Ntp2056
Rp2057
(dp2058
g1184
g1192
sg1185
g1208
sg269
S'c:/marmalade/6.2/s3e/h/s3eVersion.h'
p2059
sbsS'input.cpp'
p2060
g239
(g1180
g241
Ntp2061
Rp2062
(dp2063
g1184
g813
sg1185
g1297
sg269
g834
sbsS'tileset.cpp'
p2064
g239
(g1180
g241
Ntp2065
Rp2066
(dp2067
g1184
g813
sg1185
g1297
sg269
g822
sbsS'IwGxFontGlyph.h'
p2068
g239
(g1180
g241
Ntp2069
Rp2070
(dp2071
g1184
g899
sg1185
g1186
sg269
g905
sbsS's3eTypes.h'
p2072
g239
(g1180
g241
Ntp2073
Rp2074
(dp2075
g1184
g1192
sg1185
g1208
sg269
S'c:/marmalade/6.2/s3e/h/s3eTypes.h'
p2076
sbsS'signal_2.h'
p2077
g239
(g1180
g241
Ntp2078
Rp2079
(dp2080
g1184
g1192
sg1185
g1193
sg269
S'c:/marmalade/6.2/s3e/h/std/c++/signal.h'
p2081
sbsS'termios.h'
p2082
g239
(g1180
g241
Ntp2083
Rp2084
(dp2085
g1184
g1192
sg1185
g1214
sg269
S'c:/marmalade/6.2/s3e/h/std/termios.h'
p2086
sbsS'slist'
p2087
g239
(g1180
g241
Ntp2088
Rp2089
(dp2090
g1184
g1192
sg1185
g1193
sg269
S'c:/marmalade/6.2/s3e/h/std/c++/slist'
p2091
sbsS'cstdlib'
p2092
g239
(g1180
g241
Ntp2093
Rp2094
(dp2095
g1184
g1192
sg1185
g1193
sg269
S'c:/marmalade/6.2/s3e/h/std/c++/cstdlib'
p2096
sbsS's3eLocation.h'
p2097
g239
(g1180
g241
Ntp2098
Rp2099
(dp2100
g1184
g1192
sg1185
g1208
sg269
S'c:/marmalade/6.2/s3e/h/s3eLocation.h'
p2101
sbsS'IwMemBucketHelpers.h'
p2102
g239
(g1180
g241
Ntp2103
Rp2104
(dp2105
g1184
g1067
sg1185
g1221
sg269
g1137
sbsS's3eHash.h'
p2106
g239
(g1180
g241
Ntp2107
Rp2108
(dp2109
g1184
g1192
sg1185
g1208
sg269
S'c:/marmalade/6.2/s3e/h/s3eHash.h'
p2110
sbsS'IwGeomFMat.h'
p2111
g239
(g1180
g241
Ntp2112
Rp2113
(dp2114
g1184
g921
sg1185
g1202
sg269
g971
sbsS'type_traits.h'
p2115
g239
(g1180
g241
Ntp2116
Rp2117
(dp2118
g1184
g1192
sg1185
g1193
sg269
S'c:/marmalade/6.2/s3e/h/std/c++/type_traits.h'
p2119
sbsS'IwMenu.h'
p2120
g239
(g1180
g241
Ntp2121
Rp2122
(dp2123
g1184
g1067
sg1185
g1221
sg269
g1111
sbsS'IwResHandlerITX.h'
p2124
g239
(g1180
g241
Ntp2125
Rp2126
(dp2127
g1184
g989
sg1185
g1440
sg269
g1007
sbsS'IwArray.h'
p2128
g239
(g1180
g241
Ntp2129
Rp2130
(dp2131
g1184
g1067
sg1185
g1221
sg269
g1113
sbsS'IwUTF8.h'
p2132
g239
(g1180
g241
Ntp2133
Rp2134
(dp2135
g1184
g1067
sg1185
g1221
sg269
g1125
sbsS'math_rvct.h'
p2136
g239
(g1180
g241
Ntp2137
Rp2138
(dp2139
g1184
g1192
sg1185
g1214
sg269
S'c:/marmalade/6.2/s3e/h/std/math_rvct.h'
p2140
sbsS'IwUtil.h'
p2141
g239
(g1180
g241
Ntp2142
Rp2143
(dp2144
g1184
g1067
sg1185
g1221
sg269
g1107
sbsS'IwGeomVec3.h'
p2145
g239
(g1180
g241
Ntp2146
Rp2147
(dp2148
g1184
g921
sg1185
g1202
sg269
g983
sbsS'wctype.h'
p2149
g239
(g1180
g241
Ntp2150
Rp2151
(dp2152
g1184
g1192
sg1185
g1214
sg269
S'c:/marmalade/6.2/s3e/h/std/wctype.h'
p2153
sbsS'pthread.h'
p2154
g239
(g1180
g241
Ntp2155
Rp2156
(dp2157
g1184
g1192
sg1185
g1214
sg269
S'c:/marmalade/6.2/s3e/h/std/pthread.h'
p2158
sbsS'cstddef'
p2159
g239
(g1180
g241
Ntp2160
Rp2161
(dp2162
g1184
g1192
sg1185
g1193
sg269
S'c:/marmalade/6.2/s3e/h/std/c++/cstddef'
p2163
sbsS'assert.h'
p2164
g239
(g1180
g241
Ntp2165
Rp2166
(dp2167
g1184
g1192
sg1185
g1214
sg269
S'c:/marmalade/6.2/s3e/h/std/assert.h'
p2168
sbsS'mman.h'
p2169
g239
(g1180
g241
Ntp2170
Rp2171
(dp2172
g1184
g1192
sg1185
g1329
sg269
S'c:/marmalade/6.2/s3e/h/std/sys/mman.h'
p2173
sbsS'IwRandom.h'
p2174
g239
(g1180
g241
Ntp2175
Rp2176
(dp2177
g1184
g1067
sg1185
g1221
sg269
g1101
sbsS'libgen.h'
p2178
g239
(g1180
g241
Ntp2179
Rp2180
(dp2181
g1184
g1192
sg1185
g1214
sg269
S'c:/marmalade/6.2/s3e/h/std/libgen.h'
p2182
sbsS'utsname.h'
p2183
g239
(g1180
g241
Ntp2184
Rp2185
(dp2186
g1184
g1192
sg1185
g1329
sg269
S'c:/marmalade/6.2/s3e/h/std/sys/utsname.h'
p2187
sbsS'wait.h'
p2188
g239
(g1180
g241
Ntp2189
Rp2190
(dp2191
g1184
g1192
sg1185
g1329
sg269
S'c:/marmalade/6.2/s3e/h/std/sys/wait.h'
p2192
sbsS'tileunit.h'
p2193
g239
(g1180
g241
Ntp2194
Rp2195
(dp2196
g1184
g813
sg1185
g1297
sg269
g860
sbsS'param.h'
p2197
g239
(g1180
g241
Ntp2198
Rp2199
(dp2200
g1184
g1192
sg1185
g1329
sg269
S'c:/marmalade/6.2/s3e/h/std/sys/param.h'
p2201
sbsS'IwDivide.h'
p2202
g239
(g1180
g241
Ntp2203
Rp2204
(dp2205
g1184
g1067
sg1185
g1221
sg269
g1153
sbsS'IwResManager.h'
p2206
g239
(g1180
g241
Ntp2207
Rp2208
(dp2209
g1184
g989
sg1185
g1440
sg269
g1005
sbsS'ostream'
p2210
g239
(g1180
g241
Ntp2211
Rp2212
(dp2213
g1184
g1192
sg1185
g1193
sg269
S'c:/marmalade/6.2/s3e/h/std/c++/ostream'
p2214
sbsS'cwctype'
p2215
g239
(g1180
g241
Ntp2216
Rp2217
(dp2218
g1184
g1192
sg1185
g1193
sg269
S'c:/marmalade/6.2/s3e/h/std/c++/cwctype'
p2219
sbsS's3ePointer.h'
p2220
g239
(g1180
g241
Ntp2221
Rp2222
(dp2223
g1184
g1192
sg1185
g1208
sg269
S'c:/marmalade/6.2/s3e/h/s3ePointer.h'
p2224
sbsS'set'
p2225
g239
(g1180
g241
Ntp2226
Rp2227
(dp2228
g1184
g1192
sg1185
g1193
sg269
S'c:/marmalade/6.2/s3e/h/std/c++/set'
p2229
sbsS'IwGeomSQuat.h'
p2230
g239
(g1180
g241
Ntp2231
Rp2232
(dp2233
g1184
g921
sg1185
g1202
sg269
g952
sbsS'locale'
p2234
g239
(g1180
g241
Ntp2235
Rp2236
(dp2237
g1184
g1192
sg1185
g1193
sg269
S'c:/marmalade/6.2/s3e/h/std/c++/locale'
p2238
sbsS'cstdio'
p2239
g239
(g1180
g241
Ntp2240
Rp2241
(dp2242
g1184
g1192
sg1185
g1193
sg269
S'c:/marmalade/6.2/s3e/h/std/c++/cstdio'
p2243
sbsVcdjpeg.h
p2244
g239
(g1180
g241
Ntp2245
Rp2246
(dp2247
g1184
g757
sg1185
g1266
sg269
g769
sbsS'audio.h'
p2248
g239
(g1180
g241
Ntp2249
Rp2250
(dp2251
g1184
g813
sg1185
g1297
sg269
g840
sbsS'IwList.h'
p2252
g239
(g1180
g241
Ntp2253
Rp2254
(dp2255
g1184
g1067
sg1185
g1221
sg269
g1133
sbsS'inttypes.h'
p2256
g239
(g1180
g241
Ntp2257
Rp2258
(dp2259
g1184
g1192
sg1185
g1214
sg269
S'c:/marmalade/6.2/s3e/h/std/inttypes.h'
p2260
sbsS'dirent.h'
p2261
g239
(g1180
g241
Ntp2262
Rp2263
(dp2264
g1184
g1192
sg1185
g1214
sg269
S'c:/marmalade/6.2/s3e/h/std/dirent.h'
p2265
sbsS'IwFColour.h'
p2266
g239
(g1180
g241
Ntp2267
Rp2268
(dp2269
g1184
g1013
sg1185
g1315
sg269
g1032
sbsVtransupp.h
p2270
g239
(g1180
g241
Ntp2271
Rp2272
(dp2273
g1184
g757
sg1185
g1266
sg269
g781
sbsS'IwMath.h'
p2274
g239
(g1180
g241
Ntp2275
Rp2276
(dp2277
g1184
g1067
sg1185
g1221
sg269
g1090
sbsS'IwGeomQuat.h'
p2278
g239
(g1180
g241
Ntp2279
Rp2280
(dp2281
g1184
g921
sg1185
g1202
sg269
g957
sbsS'glplatform.h'
p2282
g239
(g1180
g241
Ntp2283
Rp2284
(dp2285
g1184
g1192
sg1185
g1733
sg269
S'c:/marmalade/6.2/s3e/h/GLES/glplatform.h'
p2286
sbsS'bitset'
p2287
g239
(g1180
g241
Ntp2288
Rp2289
(dp2290
g1184
g1192
sg1185
g1193
sg269
S'c:/marmalade/6.2/s3e/h/std/c++/bitset'
p2291
sbsS'alloca.h'
p2292
g239
(g1180
g241
Ntp2293
Rp2294
(dp2295
g1184
g1192
sg1185
g1214
sg269
S'c:/marmalade/6.2/s3e/h/std/alloca.h'
p2296
sbsS'IwResHandler.h'
p2297
g239
(g1180
g241
Ntp2298
Rp2299
(dp2300
g1184
g989
sg1185
g1440
sg269
g998
sbsS'IwResHandlerMTL.h'
p2301
g239
(g1180
g241
Ntp2302
Rp2303
(dp2304
g1184
g1013
sg1185
g1315
sg269
g1024
sbsS'IwRuntime.h'
p2305
g239
(g1180
g241
Ntp2306
Rp2307
(dp2308
g1184
g1067
sg1185
g1221
sg269
g1127
sbsS'limits'
p2309
g239
(g1180
g241
Ntp2310
Rp2311
(dp2312
g1184
g1192
sg1185
g1193
sg269
S'c:/marmalade/6.2/s3e/h/std/c++/limits'
p2313
sbsS'IwGeomBBox.h'
p2314
g239
(g1180
g241
Ntp2315
Rp2316
(dp2317
g1184
g921
sg1185
g1202
sg269
g944
sbsS's3eContacts.h'
p2318
g239
(g1180
g241
Ntp2319
Rp2320
(dp2321
g1184
g1192
sg1185
g1208
sg269
S'c:/marmalade/6.2/s3e/h/s3eContacts.h'
p2322
sbsS's3eLicense.h'
p2323
g239
(g1180
g241
Ntp2324
Rp2325
(dp2326
g1184
g1192
sg1185
g1208
sg269
S'c:/marmalade/6.2/s3e/h/s3eLicense.h'
p2327
sbsS'iwgx.config.txt'
p2328
g239
(g1180
g241
Ntp2329
Rp2330
(dp2331
g1184
g1013
sg1185
g1315
sg269
g1026
sbsS'IwTextParser.h'
p2332
g239
(g1180
g241
Ntp2333
Rp2334
(dp2335
g1184
g1067
sg1185
g1221
sg269
g1149
sbsS's3eTimer.h'
p2336
g239
(g1180
g241
Ntp2337
Rp2338
(dp2339
g1184
g1192
sg1185
g1208
sg269
S'c:/marmalade/6.2/s3e/h/s3eTimer.h'
p2340
sbsS'IwGeomVec.h'
p2341
g239
(g1180
g241
Ntp2342
Rp2343
(dp2344
g1184
g921
sg1185
g1202
sg269
g981
sbsS'IwSerialise.h'
p2345
g239
(g1180
g241
Ntp2346
Rp2347
(dp2348
g1184
g1067
sg1185
g1221
sg269
g1078
sbsS'obstacle.cpp'
p2349
g239
(g1180
g241
Ntp2350
Rp2351
(dp2352
g1184
g813
sg1185
g1297
sg269
g820
sbsS'gl2ext.h'
p2353
g239
(g1180
g241
Ntp2354
Rp2355
(dp2356
g1184
g1192
sg1185
g1432
sg269
S'c:/marmalade/6.2/s3e/h/GLES2/gl2ext.h'
p2357
sbsS'IwChar.h'
p2358
g239
(g1180
g241
Ntp2359
Rp2360
(dp2361
g1184
g1067
sg1185
g1221
sg269
g1163
sbsS's3eSound.h'
p2362
g239
(g1180
g241
Ntp2363
Rp2364
(dp2365
g1184
g1192
sg1185
g1208
sg269
S'c:/marmalade/6.2/s3e/h/s3eSound.h'
p2366
sbsS'IwOptimiseThumb.h'
p2367
g239
(g1180
g241
Ntp2368
Rp2369
(dp2370
g1184
g1067
sg1185
g1221
sg269
g1131
sbsS'exception.h'
p2371
g239
(g1180
g241
Ntp2372
Rp2373
(dp2374
g1184
g1192
sg1185
g1193
sg269
S'c:/marmalade/6.2/s3e/h/std/c++/exception.h'
p2375
sbsS'iwgeom.config.txt'
p2376
g239
(g1180
g241
Ntp2377
Rp2378
(dp2379
g1184
g921
sg1185
g1202
sg269
g950
sbsS'iwgx.mkf'
p2380
g239
(g1180
g241
Ntp2381
Rp2382
(dp2383
g1184
g1046
sg1185
g1315
sg269
g1044
sbsS'gl.h'
p2384
g239
(g1180
g241
Ntp2385
Rp2386
(dp2387
g1184
g1192
sg1185
g1733
sg269
S'c:/marmalade/6.2/s3e/h/GLES/gl.h'
p2388
sbsVzlib.h
p2389
g239
(g1180
g241
Ntp2390
Rp2391
(dp2392
g1184
g1171
sg1185
g1691
sg269
g1172
sbsS'iwgl.mkf'
p2393
g239
(g1180
g241
Ntp2394
Rp2395
(dp2396
g1184
g882
sg1185
g1291
sg269
g880
sbsS'IwColour.h'
p2397
g239
(g1180
g241
Ntp2398
Rp2399
(dp2400
g1184
g1013
sg1185
g1315
sg269
g1036
sbsS's3eLibrary.h'
p2401
g239
(g1180
g241
Ntp2402
Rp2403
(dp2404
g1184
g1192
sg1185
g1398
sg269
S'c:/marmalade/6.2/s3e/h/ext/s3eLibrary.h'
p2405
sbsS'types.h'
p2406
g239
(g1180
g241
Ntp2407
Rp2408
(dp2409
g1184
g1192
sg1185
g1329
sg269
S'c:/marmalade/6.2/s3e/h/std/sys/types.h'
p2410
sbsS'ifaddrs.h'
p2411
g239
(g1180
g241
Ntp2412
Rp2413
(dp2414
g1184
g1192
sg1185
g1214
sg269
S'c:/marmalade/6.2/s3e/h/std/ifaddrs.h'
p2415
sbsS'strstream'
p2416
g239
(g1180
g241
Ntp2417
Rp2418
(dp2419
g1184
g1192
sg1185
g1193
sg269
S'c:/marmalade/6.2/s3e/h/std/c++/strstream'
p2420
sbsS'exception'
p2421
g239
(g1180
g241
Ntp2422
Rp2423
(dp2424
g1184
g1192
sg1185
g1193
sg269
S'c:/marmalade/6.2/s3e/h/std/c++/exception'
p2425
sbsS'rlocks.h'
p2426
g239
(g1180
g241
Ntp2427
Rp2428
(dp2429
g1184
g1192
sg1185
g1193
sg269
S'c:/marmalade/6.2/s3e/h/std/c++/rlocks.h'
p2430
sbsS'ioctl.h'
p2431
g239
(g1180
g241
Ntp2432
Rp2433
(dp2434
g1184
g1192
sg1185
g1329
sg269
S'c:/marmalade/6.2/s3e/h/std/sys/ioctl.h'
p2435
sbsS'rope'
p2436
g239
(g1180
g241
Ntp2437
Rp2438
(dp2439
g1184
g1192
sg1185
g1193
sg269
S'c:/marmalade/6.2/s3e/h/std/c++/rope'
p2440
sbsVjinclude.h
p2441
g239
(g1180
g241
Ntp2442
Rp2443
(dp2444
g1184
g757
sg1185
g1266
sg269
g773
sbsS'IwEvent.h'
p2445
g239
(g1180
g241
Ntp2446
Rp2447
(dp2448
g1184
g1067
sg1185
g1221
sg269
g1161
sbsS'IwOptimiseSize.h'
p2449
g239
(g1180
g241
Ntp2450
Rp2451
(dp2452
g1184
g1067
sg1185
g1221
sg269
g1115
sbsS'iwgxfont_public.defines.txt'
p2453
g239
(g1180
g241
Ntp2454
Rp2455
(dp2456
g1184
g899
sg1185
g1186
sg269
g897
sbsS'iconv.h'
p2457
g239
(g1180
g241
Ntp2458
Rp2459
(dp2460
g1184
g1192
sg1185
g1214
sg269
S'c:/marmalade/6.2/s3e/h/std/iconv.h'
p2461
sbsS'sendfile.h'
p2462
g239
(g1180
g241
Ntp2463
Rp2464
(dp2465
g1184
g1192
sg1185
g1329
sg269
S'c:/marmalade/6.2/s3e/h/std/sys/sendfile.h'
p2466
sbsS'IwGeomSphere.h'
p2467
g239
(g1180
g241
Ntp2468
Rp2469
(dp2470
g1184
g921
sg1185
g1202
sg269
g967
sbsVtiniconv.mkf
p2471
g239
(g1180
g241
Ntp2472
Rp2473
(dp2474
g1184
g801
sg1185
g1638
sg269
g799
sbsVjdct.h
p2475
g239
(g1180
g241
Ntp2476
Rp2477
(dp2478
g1184
g757
sg1185
g1266
sg269
g775
sbsS'cctype'
p2479
g239
(g1180
g241
Ntp2480
Rp2481
(dp2482
g1184
g1192
sg1185
g1193
sg269
S'c:/marmalade/6.2/s3e/h/std/c++/cctype'
p2483
sbsS's3eConfig.h'
p2484
g239
(g1180
g241
Ntp2485
Rp2486
(dp2487
g1184
g1192
sg1185
g1208
sg269
S'c:/marmalade/6.2/s3e/h/s3eConfig.h'
p2488
sbsS'IwHashString.h'
p2489
g239
(g1180
g241
Ntp2490
Rp2491
(dp2492
g1184
g1067
sg1185
g1221
sg269
g1155
sbsS'stat.h'
p2493
g239
(g1180
g241
Ntp2494
Rp2495
(dp2496
g1184
g1192
sg1185
g1329
sg269
S'c:/marmalade/6.2/s3e/h/std/sys/stat.h'
p2497
sbsS'byteswap.h'
p2498
g239
(g1180
g241
Ntp2499
Rp2500
(dp2501
g1184
g1192
sg1185
g1214
sg269
S'c:/marmalade/6.2/s3e/h/std/byteswap.h'
p2502
sbsS'iwresmanager.mkf'
p2503
g239
(g1180
g241
Ntp2504
Rp2505
(dp2506
g1184
g1002
sg1185
g1440
sg269
g1000
sbsS'IwUtilInitTerm.h'
p2507
g239
(g1180
g241
Ntp2508
Rp2509
(dp2510
g1184
g1067
sg1185
g1221
sg269
g1086
sbsS'pthread_1.h'
p2511
g239
(g1180
g241
Ntp2512
Rp2513
(dp2514
g1184
g1192
sg1185
g1193
sg269
S'c:/marmalade/6.2/s3e/h/std/c++/pthread.h'
p2515
sbsS'IwMemBucket.h'
p2516
g239
(g1180
g241
Ntp2517
Rp2518
(dp2519
g1184
g1067
sg1185
g1221
sg269
g1123
sbsS'complex'
p2520
g239
(g1180
g241
Ntp2521
Rp2522
(dp2523
g1184
g1192
sg1185
g1193
sg269
S'c:/marmalade/6.2/s3e/h/std/c++/complex'
p2524
sbsS'game.cpp'
p2525
g239
(g1180
g241
Ntp2526
Rp2527
(dp2528
g1184
g813
sg1185
g1297
sg269
g832
sbsS'algorithm'
p2529
g239
(g1180
g241
Ntp2530
Rp2531
(dp2532
g1184
g1192
sg1185
g1193
sg269
S'c:/marmalade/6.2/s3e/h/std/c++/algorithm'
p2533
sbsS's3e.icf'
p2534
g239
(g1180
g241
Ntp2535
Rp2536
(dp2537
g1184
g1192
sg1185
g1208
sg269
S'c:/marmalade/6.2/s3e/s3e.icf'
p2538
sbsS'IwVariableBitField.h'
p2539
g239
(g1180
g241
Ntp2540
Rp2541
(dp2542
g1184
g1067
sg1185
g1221
sg269
g1129
sbsS'sem.h'
p2543
g239
(g1180
g241
Ntp2544
Rp2545
(dp2546
g1184
g1192
sg1185
g1329
sg269
S'c:/marmalade/6.2/s3e/h/std/sys/sem.h'
p2547
sbsS'IwGxFontState.h'
p2548
g239
(g1180
g241
Ntp2549
Rp2550
(dp2551
g1184
g899
sg1185
g1186
sg269
g903
sbsS'stdio.h'
p2552
g239
(g1180
g241
Ntp2553
Rp2554
(dp2555
g1184
g1192
sg1185
g1214
sg269
S'c:/marmalade/6.2/s3e/h/std/stdio.h'
p2556
sbsVjmemsys.h
p2557
g239
(g1180
g241
Ntp2558
Rp2559
(dp2560
g1184
g757
sg1185
g1266
sg269
g755
sbsS'ios'
p2561
g239
(g1180
g241
Ntp2562
Rp2563
(dp2564
g1184
g1192
sg1185
g1193
sg269
S'c:/marmalade/6.2/s3e/h/std/c++/ios'
p2565
sbsS'stack'
p2566
g239
(g1180
g241
Ntp2567
Rp2568
(dp2569
g1184
g1192
sg1185
g1193
sg269
S'c:/marmalade/6.2/s3e/h/std/c++/stack'
p2570
sbsS'new.h'
p2571
g239
(g1180
g241
Ntp2572
Rp2573
(dp2574
g1184
g1192
sg1185
g1193
sg269
S'c:/marmalade/6.2/s3e/h/std/c++/new.h'
p2575
sbsS's3eEMail.h'
p2576
g239
(g1180
g241
Ntp2577
Rp2578
(dp2579
g1184
g1192
sg1185
g1398
sg269
S'c:/marmalade/6.2/s3e/h/ext/s3eEMail.h'
p2580
sbsS's3eVideo.h'
p2581
g239
(g1180
g241
Ntp2582
Rp2583
(dp2584
g1184
g1192
sg1185
g1208
sg269
S'c:/marmalade/6.2/s3e/h/s3eVideo.h'
p2585
sbsS'IwFile.h'
p2586
g239
(g1180
g241
Ntp2587
Rp2588
(dp2589
g1184
g1067
sg1185
g1221
sg269
g1070
sbsS'pwd.h'
p2590
g239
(g1180
g241
Ntp2591
Rp2592
(dp2593
g1184
g1192
sg1185
g1214
sg269
S'c:/marmalade/6.2/s3e/h/std/pwd.h'
p2594
sbsS'IwClip.h'
p2595
g239
(g1180
g241
Ntp2596
Rp2597
(dp2598
g1184
g1013
sg1185
g1315
sg269
g1059
sbsS'iwresmanager.config.txt'
p2599
g239
(g1180
g241
Ntp2600
Rp2601
(dp2602
g1184
g989
sg1185
g1440
sg269
g996
sbsS'IwGxShaderTechnique.h'
p2603
g239
(g1180
g241
Ntp2604
Rp2605
(dp2606
g1184
g1013
sg1185
g1315
sg269
g1053
sbsS'IwCore.h'
p2607
g239
(g1180
g241
Ntp2608
Rp2609
(dp2610
g1184
g1067
sg1185
g1221
sg269
g1074
sbsS'cfloat'
p2611
g239
(g1180
g241
Ntp2612
Rp2613
(dp2614
g1184
g1192
sg1185
g1193
sg269
S'c:/marmalade/6.2/s3e/h/std/c++/cfloat'
p2615
sbsS'IwGeomMat2D.h'
p2616
g239
(g1180
g241
Ntp2617
Rp2618
(dp2619
g1184
g921
sg1185
g1202
sg269
g959
sbsS'IwAllocator.h'
p2620
g239
(g1180
g241
Ntp2621
Rp2622
(dp2623
g1184
g1067
sg1185
g1221
sg269
g1143
sbsS'IwPath.h'
p2624
g239
(g1180
g241
Ntp2625
Rp2626
(dp2627
g1184
g1067
sg1185
g1221
sg269
g1080
sbsS'tiles.cpp'
p2628
g239
(g1180
g241
Ntp2629
Rp2630
(dp2631
g1184
g813
sg1185
g1297
sg269
g858
sbsS'iwgxfont.mkf'
p2632
g239
(g1180
g241
Ntp2633
Rp2634
(dp2635
g1184
g902
sg1185
g1186
sg269
g900
sbsS'IwTexture.h'
p2636
g239
(g1180
g241
Ntp2637
Rp2638
(dp2639
g1184
g1013
sg1185
g1315
sg269
g1030
sbsS's3eAccelerometer.h'
p2640
g239
(g1180
g241
Ntp2641
Rp2642
(dp2643
g1184
g1192
sg1185
g1208
sg269
S'c:/marmalade/6.2/s3e/h/s3eAccelerometer.h'
p2644
sbsS'setjmp.h'
p2645
g239
(g1180
g241
Ntp2646
Rp2647
(dp2648
g1184
g1192
sg1185
g1214
sg269
S'c:/marmalade/6.2/s3e/h/std/setjmp.h'
p2649
sbsS'cstdarg'
p2650
g239
(g1180
g241
Ntp2651
Rp2652
(dp2653
g1184
g1192
sg1185
g1193
sg269
S'c:/marmalade/6.2/s3e/h/std/c++/cstdarg'
p2654
sbsVpngconf.h
p2655
g239
(g1180
g241
Ntp2656
Rp2657
(dp2658
g1184
g750
sg1185
g1705
sg269
g751
sbsS'IwTextParseable.h'
p2659
g239
(g1180
g241
Ntp2660
Rp2661
(dp2662
g1184
g1067
sg1185
g1221
sg269
g1151
sbsS'istream.h'
p2663
g239
(g1180
g241
Ntp2664
Rp2665
(dp2666
g1184
g1192
sg1185
g1193
sg269
S'c:/marmalade/6.2/s3e/h/std/c++/istream.h'
p2667
sbsS'stdint.h'
p2668
g239
(g1180
g241
Ntp2669
Rp2670
(dp2671
g1184
g1192
sg1185
g1214
sg269
S'c:/marmalade/6.2/s3e/h/std/stdint.h'
p2672
sbsS'layer.h'
p2673
g239
(g1180
g241
Ntp2674
Rp2675
(dp2676
g1184
g813
sg1185
g1297
sg269
g811
sbsS'semaphore.h'
p2677
g239
(g1180
g241
Ntp2678
Rp2679
(dp2680
g1184
g1192
sg1185
g1214
sg269
S'c:/marmalade/6.2/s3e/h/std/semaphore.h'
p2681
sbsS'demo_3_resman_audio_loadtile.mkf'
p2682
g239
(g1180
g241
Ntp2683
Rp2684
(dp2685
g1184
g868
sg1185
(lp2686
g807
asg269
g866
sbsS'ctime'
p2687
g239
(g1180
g241
Ntp2688
Rp2689
(dp2690
g1184
g1192
sg1185
g1193
sg269
S'c:/marmalade/6.2/s3e/h/std/c++/ctime'
p2691
sbsS'sstream'
p2692
g239
(g1180
g241
Ntp2693
Rp2694
(dp2695
g1184
g1192
sg1185
g1193
sg269
S'c:/marmalade/6.2/s3e/h/std/c++/sstream'
p2696
sbsS'IwGeomFBBox.h'
p2697
g239
(g1180
g241
Ntp2698
Rp2699
(dp2700
g1184
g921
sg1185
g1202
sg269
g932
sbsS'IwDebugPrim.h'
p2701
g239
(g1180
g241
Ntp2702
Rp2703
(dp2704
g1184
g1013
sg1185
g1315
sg269
g1022
sbsS'IwGxFontContainer.h'
p2705
g239
(g1180
g241
Ntp2706
Rp2707
(dp2708
g1184
g899
sg1185
g1186
sg269
g909
sbsS'obstacle.h'
p2709
g239
(g1180
g241
Ntp2710
Rp2711
(dp2712
g1184
g813
sg1185
g1297
sg269
g850
sbsS'tile.h'
p2713
g239
(g1180
g241
Ntp2714
Rp2715
(dp2716
g1184
g813
sg1185
g1297
sg269
g814
sbsS'IwGeomSVec3.h'
p2717
g239
(g1180
g241
Ntp2718
Rp2719
(dp2720
g1184
g921
sg1185
g1202
sg269
g963
sbsS'tileset.h'
p2721
g239
(g1180
g241
Ntp2722
Rp2723
(dp2724
g1184
g813
sg1185
g1297
sg269
g836
sbsS's3eExt.h'
p2725
g239
(g1180
g241
Ntp2726
Rp2727
(dp2728
g1184
g1192
sg1185
g1208
sg269
S'c:/marmalade/6.2/s3e/h/s3eExt.h'
p2729
sbsS'IwGeomFVec3.h'
p2730
g239
(g1180
g241
Ntp2731
Rp2732
(dp2733
g1184
g921
sg1185
g1202
sg269
g922
sbsS'streambuf'
p2734
g239
(g1180
g241
Ntp2735
Rp2736
(dp2737
g1184
g1192
sg1185
g1193
sg269
S'c:/marmalade/6.2/s3e/h/std/c++/streambuf'
p2738
sbsS's3eMetrics.h'
p2739
g239
(g1180
g241
Ntp2740
Rp2741
(dp2742
g1184
g1192
sg1185
g1398
sg269
S'c:/marmalade/6.2/s3e/h/ext/s3eMetrics.h'
p2743
sbsS'IwGxFont.h'
p2744
g239
(g1180
g241
Ntp2745
Rp2746
(dp2747
g1184
g899
sg1185
g1186
sg269
g915
sbsS's3eSecureStorage.h'
p2748
g239
(g1180
g241
Ntp2749
Rp2750
(dp2751
g1184
g1192
sg1185
g1208
sg269
S'c:/marmalade/6.2/s3e/h/s3eSecureStorage.h'
p2752
sbsS'map.cpp'
p2753
g239
(g1180
g241
Ntp2754
Rp2755
(dp2756
g1184
g813
sg1185
g1297
sg269
g852
sbsS'string.h'
p2757
g239
(g1180
g241
Ntp2758
Rp2759
(dp2760
g1184
g1192
sg1185
g1214
sg269
S'c:/marmalade/6.2/s3e/h/std/string.h'
p2761
sbsS'IwResource.h'
p2762
g239
(g1180
g241
Ntp2763
Rp2764
(dp2765
g1184
g1067
sg1185
g1221
sg269
g1068
sbsVlibjpeg.mkf
p2766
g239
(g1180
g241
Ntp2767
Rp2768
(dp2769
g1184
g768
sg1185
g1266
sg269
g766
sbsS'IwGxDebug.h'
p2770
g239
(g1180
g241
Ntp2771
Rp2772
(dp2773
g1184
g1013
sg1185
g1315
sg269
g1028
sbsS'pthread_types.h'
p2774
g239
(g1180
g241
Ntp2775
Rp2776
(dp2777
g1184
g1192
sg1185
g1214
sg269
S'c:/marmalade/6.2/s3e/h/std/pthread_types.h'
p2778
sbsS'iomanip.h'
p2779
g239
(g1180
g241
Ntp2780
Rp2781
(dp2782
g1184
g1192
sg1185
g1193
sg269
S'c:/marmalade/6.2/s3e/h/std/c++/iomanip.h'
p2783
sbsS'layer.cpp'
p2784
g239
(g1180
g241
Ntp2785
Rp2786
(dp2787
g1184
g813
sg1185
g1297
sg269
g828
sbsS'IwKeymap.h'
p2788
g239
(g1180
g241
Ntp2789
Rp2790
(dp2791
g1184
g1067
sg1185
g1221
sg269
g1121
sbsS'IwDebug.h'
p2792
g239
(g1180
g241
Ntp2793
Rp2794
(dp2795
g1184
g1067
sg1185
g1221
sg269
g1097
sbsS's3eIOSBackgroundAudio.h'
p2796
g239
(g1180
g241
Ntp2797
Rp2798
(dp2799
g1184
g1192
sg1185
g1398
sg269
S'c:/marmalade/6.2/s3e/h/ext/s3eIOSBackgroundAudio.h'
p2800
sbsS'IwGeomMenu.h'
p2801
g239
(g1180
g241
Ntp2802
Rp2803
(dp2804
g1184
g921
sg1185
g1202
sg269
g919
sbsS'IwDivTable.h'
p2805
g239
(g1180
g241
Ntp2806
Rp2807
(dp2808
g1184
g1067
sg1185
g1221
sg269
g1135
sbsS'ctype.h'
p2809
g239
(g1180
g241
Ntp2810
Rp2811
(dp2812
g1184
g1192
sg1185
g1214
sg269
S'c:/marmalade/6.2/s3e/h/std/ctype.h'
p2813
sbsS'IwGeomMat.h'
p2814
g239
(g1180
g241
Ntp2815
Rp2816
(dp2817
g1184
g921
sg1185
g1202
sg269
g975
sbsS'IwResGroup.h'
p2818
g239
(g1180
g241
Ntp2819
Rp2820
(dp2821
g1184
g989
sg1185
g1440
sg269
g1003
sbsS'signal_1.h'
p2822
g239
(g1180
g241
Ntp2823
Rp2824
(dp2825
g1184
g1192
sg1185
g1329
sg269
S'c:/marmalade/6.2/s3e/h/std/sys/signal.h'
p2826
sbsS'main.cpp'
p2827
g239
(g1180
g241
Ntp2828
Rp2829
(dp2830
g1184
g813
sg1185
g1297
sg269
g824
sbsS'shm.h'
p2831
g239
(g1180
g241
Ntp2832
Rp2833
(dp2834
g1184
g1192
sg1185
g1329
sg269
S'c:/marmalade/6.2/s3e/h/std/sys/shm.h'
p2835
sbsVjpegint.h
p2836
g239
(g1180
g241
Ntp2837
Rp2838
(dp2839
g1184
g757
sg1185
g1266
sg269
g758
sbsS'prctl.h'
p2840
g239
(g1180
g241
Ntp2841
Rp2842
(dp2843
g1184
g1192
sg1185
g1329
sg269
S'c:/marmalade/6.2/s3e/h/std/sys/prctl.h'
p2844
sbsS'un.h'
p2845
g239
(g1180
g241
Ntp2846
Rp2847
(dp2848
g1184
g1192
sg1185
g1329
sg269
S'c:/marmalade/6.2/s3e/h/std/sys/un.h'
p2849
sbsS'tile.cpp'
p2850
g239
(g1180
g241
Ntp2851
Rp2852
(dp2853
g1184
g813
sg1185
g1297
sg269
g854
sbsS'utility'
p2854
g239
(g1180
g241
Ntp2855
Rp2856
(dp2857
g1184
g1192
sg1185
g1193
sg269
S'c:/marmalade/6.2/s3e/h/std/c++/utility'
p2858
sbsS'input.h'
p2859
g239
(g1180
g241
Ntp2860
Rp2861
(dp2862
g1184
g813
sg1185
g1297
sg269
g842
sbsS'IwGeomLegacy.h'
p2863
g239
(g1180
g241
Ntp2864
Rp2865
(dp2866
g1184
g921
sg1185
g1202
sg269
g934
sbsS'IwTPage.h'
p2867
g239
(g1180
g241
Ntp2868
Rp2869
(dp2870
g1184
g1013
sg1185
g1315
sg269
g1042
sbsS'IwResSerialise.h'
p2871
g239
(g1180
g241
Ntp2872
Rp2873
(dp2874
g1184
g989
sg1185
g1440
sg269
g987
sbsS's3eCrypto.h'
p2875
g239
(g1180
g241
Ntp2876
Rp2877
(dp2878
g1184
g1192
sg1185
g1208
sg269
S'c:/marmalade/6.2/s3e/h/s3eCrypto.h'
p2879
sbsS's3eKeyboard.h'
p2880
g239
(g1180
g241
Ntp2881
Rp2882
(dp2883
g1184
g1192
sg1185
g1208
sg269
S'c:/marmalade/6.2/s3e/h/s3eKeyboard.h'
p2884
sbsS'fcntl.h'
p2885
g239
(g1180
g241
Ntp2886
Rp2887
(dp2888
g1184
g1192
sg1185
g1214
sg269
S'c:/marmalade/6.2/s3e/h/std/fcntl.h'
p2889
sbsS'memory.h'
p2890
g239
(g1180
g241
Ntp2891
Rp2892
(dp2893
g1184
g1192
sg1185
g1214
sg269
S'c:/marmalade/6.2/s3e/h/std/memory.h'
p2894
sbsS'tileunit.cpp'
p2895
g239
(g1180
g241
Ntp2896
Rp2897
(dp2898
g1184
g813
sg1185
g1297
sg269
g848
sbsS'IwGeomIntersect.h'
p2899
g239
(g1180
g241
Ntp2900
Rp2901
(dp2902
g1184
g921
sg1185
g1202
sg269
g930
sbsS'IwTextParserITX.h'
p2903
g239
(g1180
g241
Ntp2904
Rp2905
(dp2906
g1184
g1067
sg1185
g1221
sg269
g1147
sbsS'egl_1.h'
p2907
g239
(g1180
g241
Ntp2908
Rp2909
(dp2910
g1184
g1192
sg1185
g1733
sg269
S'c:/marmalade/6.2/s3e/h/GLES/egl.h'
p2911
sbsS'ostream.h'
p2912
g239
(g1180
g241
Ntp2913
Rp2914
(dp2915
g1184
g1192
sg1185
g1193
sg269
S'c:/marmalade/6.2/s3e/h/std/c++/ostream.h'
p2916
sbsS'stl_user_config.h'
p2917
g239
(g1180
g241
Ntp2918
Rp2919
(dp2920
g1184
g1192
sg1185
g1193
sg269
S'c:/marmalade/6.2/s3e/h/std/c++/stl_user_config.h'
p2921
sbsS'IwProfileMenu.h'
p2922
g239
(g1180
g241
Ntp2923
Rp2924
(dp2925
g1184
g1067
sg1185
g1221
sg269
g1119
sbsS'MarmaladeVersion.h'
p2926
g239
(g1180
g241
Ntp2927
Rp2928
(dp2929
g1184
g1192
sg1185
g1208
sg269
S'c:/marmalade/6.2/s3e/h/MarmaladeVersion.h'
p2930
sbsS'ios.h'
p2931
g239
(g1180
g241
Ntp2932
Rp2933
(dp2934
g1184
g1192
sg1185
g1193
sg269
S'c:/marmalade/6.2/s3e/h/std/c++/ios.h'
p2935
sbsS'IwImageHelper.h'
p2936
g239
(g1180
g241
Ntp2937
Rp2938
(dp2939
g1184
g1067
sg1185
g1221
sg269
g1145
sbsS'hash_set'
p2940
g239
(g1180
g241
Ntp2941
Rp2942
(dp2943
g1184
g1192
sg1185
g1193
sg269
S'c:/marmalade/6.2/s3e/h/std/c++/hash_set'
p2944
sbsS'IwGeomFQuat.h'
p2945
g239
(g1180
g241
Ntp2946
Rp2947
(dp2948
g1184
g921
sg1185
g1202
sg269
g977
sbsVjmorecfg.h
p2949
g239
(g1180
g241
Ntp2950
Rp2951
(dp2952
g1184
g757
sg1185
g1266
sg269
g785
sbsS'eglplatform.h'
p2953
g239
(g1180
g241
Ntp2954
Rp2955
(dp2956
g1184
g1192
sg1185
g1515
sg269
S'c:/marmalade/6.2/s3e/h/EGL/eglplatform.h'
p2957
sbsS'cmath'
p2958
g239
(g1180
g241
Ntp2959
Rp2960
(dp2961
g1184
g1192
sg1185
g1193
sg269
S'c:/marmalade/6.2/s3e/h/std/c++/cmath'
p2962
sbsS'math_gcc.h'
p2963
g239
(g1180
g241
Ntp2964
Rp2965
(dp2966
g1184
g1192
sg1185
g1214
sg269
S'c:/marmalade/6.2/s3e/h/std/math_gcc.h'
p2967
sbsS's3eMemory.h'
p2968
g239
(g1180
g241
Ntp2969
Rp2970
(dp2971
g1184
g1192
sg1185
g1208
sg269
S'c:/marmalade/6.2/s3e/h/s3eMemory.h'
p2972
sbsS'strings.h'
p2973
g239
(g1180
g241
Ntp2974
Rp2975
(dp2976
g1184
g1192
sg1185
g1214
sg269
S'c:/marmalade/6.2/s3e/h/std/strings.h'
p2977
sbsS's3eFile.h'
p2978
g239
(g1180
g241
Ntp2979
Rp2980
(dp2981
g1184
g1192
sg1185
g1208
sg269
S'c:/marmalade/6.2/s3e/h/s3eFile.h'
p2982
sbsS'IwGxTypes.h'
p2983
g239
(g1180
g241
Ntp2984
Rp2985
(dp2986
g1184
g1013
sg1185
g1315
sg269
g1016
sbsS'cerrno'
p2987
g239
(g1180
g241
Ntp2988
Rp2989
(dp2990
g1184
g1192
sg1185
g1193
sg269
S'c:/marmalade/6.2/s3e/h/std/c++/cerrno'
p2991
sbsS'map.h'
p2992
g239
(g1180
g241
Ntp2993
Rp2994
(dp2995
g1184
g813
sg1185
g1297
sg269
g830
sbsS'resource.h'
p2996
g239
(g1180
g241
Ntp2997
Rp2998
(dp2999
g1184
g1192
sg1185
g1329
sg269
S'c:/marmalade/6.2/s3e/h/std/sys/resource.h'
p3000
sbsS'clocale'
p3001
g239
(g1180
g241
Ntp3002
Rp3003
(dp3004
g1184
g1192
sg1185
g1193
sg269
S'c:/marmalade/6.2/s3e/h/std/c++/clocale'
p3005
sbsS'csetjmp'
p3006
g239
(g1180
g241
Ntp3007
Rp3008
(dp3009
g1184
g1192
sg1185
g1193
sg269
S'c:/marmalade/6.2/s3e/h/std/c++/csetjmp'
p3010
sbsS'netdb.h'
p3011
g239
(g1180
g241
Ntp3012
Rp3013
(dp3014
g1184
g1192
sg1185
g1214
sg269
S'c:/marmalade/6.2/s3e/h/std/netdb.h'
p3015
sbsS's3eAndroidJNI.h'
p3016
g239
(g1180
g241
Ntp3017
Rp3018
(dp3019
g1184
g1192
sg1185
g1398
sg269
S'c:/marmalade/6.2/s3e/h/ext/s3eAndroidJNI.h'
p3020
sbsS'stdexcept'
p3021
g239
(g1180
g241
Ntp3022
Rp3023
(dp3024
g1184
g1192
sg1185
g1193
sg269
S'c:/marmalade/6.2/s3e/h/std/c++/stdexcept'
p3025
sbsS'math.h'
p3026
g239
(g1180
g241
Ntp3027
Rp3028
(dp3029
g1184
g1192
sg1185
g1214
sg269
S'c:/marmalade/6.2/s3e/h/std/math.h'
p3030
sbsS'stdbool.h'
p3031
g239
(g1180
g241
Ntp3032
Rp3033
(dp3034
g1184
g1192
sg1185
g1214
sg269
S'c:/marmalade/6.2/s3e/h/std/stdbool.h'
p3035
sbsS'uio.h'
p3036
g239
(g1180
g241
Ntp3037
Rp3038
(dp3039
g1184
g1192
sg1185
g1329
sg269
S'c:/marmalade/6.2/s3e/h/std/sys/uio.h'
p3040
sbsS'IwUncopyable.h'
p3041
g239
(g1180
g241
Ntp3042
Rp3043
(dp3044
g1184
g1067
sg1185
g1221
sg269
g1095
sbssS'tests'
p3045
(lp3046
sS'project_name'
p3047
g247
sS'root_file'
p3048
g106
sS'current_root'
p3049
S'c:/Users/1106786/Dropbox/Dropbox/PG life/Project Impact/Code/Demos/Demo_3_ResMan_Audio_LoadTile'
p3050
sS'dependencies'
p3051
(lp3052
sS'include_paths'
p3053
(lp3054
Vc:/users/1106786/appdata/roaming/marmalade/packages/6.2.2/libjpeg_6b/h
p3055
aVc:/users/1106786/appdata/roaming/marmalade/packages/6.2.2/zlib_1.2.4/h
p3056
aVc:/users/1106786/appdata/roaming/marmalade/packages/6.2.2/libpng_1.2.34/h
p3057
aS'c:/marmalade/6.2/modules/iwutil/h'
p3058
aS'c:/marmalade/6.2/modules/iwgeom/h'
p3059
aS'c:/marmalade/6.2/modules/iwresmanager/h'
p3060
aS'c:/marmalade/6.2/modules/iwgl/h'
p3061
aS'c:/marmalade/6.2/modules/iwgx/h'
p3062
aVc:/users/1106786/appdata/roaming/marmalade/packages/6.2.2/tiniconv_1.0.1/h
p3063
aS'c:/marmalade/6.2/modules/iwgxfont/h'
p3064
aS'c:/marmalade/6.2/modules/iw2d/h'
p3065
aS'c:/users/1106786/dropbox/dropbox/pg life/project impact/code/demos/demo_3_resman_audio_loadtile/h'
p3066
aS'c:/users/1106786/dropbox/dropbox/pg life/project impact/code/demos/demo_3_resman_audio_loadtile/libs/cjson-for-marmalade'
p3067
aS'c:/marmalade/6.2/s3e/h'
p3068
aS'c:/marmalade/6.2/s3e/h/ext'
p3069
aS'c:/marmalade/6.2/s3e/h/std'
p3070
aS'c:/marmalade/6.2/s3e/h/std/c++'
p3071
aS'c:/marmalade/6.2/s3e/h/ext_legacy'
p3072
aS'c:/marmalade/6.2/s3e/h/legacy'
p3073
asS'weak_frameworks'
p3074
(lp3075
sS'extprojects'
p3076
(dp3077
sg487
(dp3078
g481
(lp3079
(g66
S'.'
p3080
I0
tp3081
asS'default'
p3082
(lp3083
(S'c:/users/1106786/dropbox/dropbox/pg life/project impact/code/demos/demo_3_resman_audio_loadtile/data/splashscreen.jpg'
p3084
S'splashscreen.jpg'
p3085
I0
tp3086
a(S'c:/users/1106786/dropbox/dropbox/pg life/project impact/code/demos/demo_3_resman_audio_loadtile/data/audio.mp3'
p3087
S'audio.mp3'
p3088
I0
tp3089
a(S'c:/users/1106786/dropbox/dropbox/pg life/project impact/code/demos/demo_3_resman_audio_loadtile/data-ram/data-gles1/imgs.group.bin,c:/users/1106786/dropbox/dropbox/pg life/project impact/code/demos/demo_3_resman_audio_loadtile/data/imgs.group.bin'
p3090
S'imgs.group.bin'
p3091
I0
tp3092
asS'artbuild'
p3093
(lp3094
(S'c:/users/1106786/dropbox/dropbox/pg life/project impact/code/demos/demo_3_resman_audio_loadtile/data'
p3095
g3080
I0
tp3096
assS'macro_types'
p3097
(dp3098
g428
I1
sg429
I0
sg430
I0
sg431
I0
sg432
I0
sg433
I0
sg434
I0
sg435
I0
sg437
I0
sg438
I0
sg439
I0
sg440
I0
sg442
I0
sg444
I0
sg445
I0
sg446
I0
sg447
I0
sg448
I1
sg449
I0
sg450
I0
sg451
I0
sg452
I01
sg453
I1
sg454
I0
sg455
I0
sg456
I0
sg457
I0
ssS'commands'
p3099
(lp3100
sg489
(g736
S'VC10'
p3101
S'X86ARM'
p3102
tp3103
sS'subprojectOptions'
p3104
(dp3105
g493
(lp3106
sg495
Nsg496
Nsg497
Nsg498
Nsg499
Nsg500
Nsg501
Nsg502
(lp3107
sg504
Nsg619
Nsg507
Nsg508
Nsg509
Nsg510
Nsg511
Nsg512
Nsg513
Nsg514
Nsg515
Nsg516
(lp3108
sg696
Nsg519
Nsg520
Nsg697
Nsg692
Nsg522
Nsg523
Nsg524
Nsg525
Nsg526
Nsg527
Nsg700
Nsg529
Nsg530
Nsg691
Nsg531
Nsg532
Nsg533
Nsg534
Nsg535
Nsg536
Nsg574
Nsg538
Nsg539
Nsg540
Nsg542
Nsg543
Nsg544
Nsg545
Nsg546
Nsg547
Nsg548
Nsg549
Nsg624
Nsg550
Nsg552
Nsg553
Nsg554
Nsg555
Nsg556
Nsg557
(lp3109
sg559
Nsg560
Nsg561
Nsg562
Nsg563
Nsg564
Nsg565
Nsg629
Nsg567
(lp3110
sg569
Nsg570
Nsg571
Nsg572
Nsg573
Nsg537
Nsg575
Nsg631
Nsg577
Nsg578
Nsg579
Nsg580
Nsg581
Nsg582
(lp3111
sg584
Nsg713
Nsg586
Nsg587
Nsg588
Nsg589
Nsg590
Nsg591
Nsg592
Nsg633
Nsg594
Nsg596
(lp3112
sg598
Nsg599
Nsg714
Nsg601
(lp3113
sg603
Nsg604
Nsg605
Nsg606
Nsg607
Nsg608
Nsg634
Nsg610
Nsg611
Nsg612
Nsg613
Nsg614
(lp3114
sg616
Nsg617
Nsg618
Nsg506
Nsg620
Nsg621
Nsg622
(lp3115
sg505
Nsg625
Nsg626
Nsg627
Nsg628
Nsg566
Nsg576
Nsg632
Nsg593
Nsg609
Nsg635
Nsg636
Nsg682
Nsg639
Nsg640
Nsg641
Nsg642
Nsg643
Nsg722
Nsg645
Nsg646
Nsg647
Nsg648
(lp3116
sg650
Nsg651
Nsg652
Nsg653
Nsg654
Nsg655
Nsg656
(lp3117
sg658
Nsg659
Nsg660
Nsg661
Nsg662
Nsg663
Nsg664
Nsg665
Nsg666
Nsg667
Nsg725
Nsg669
Nsg670
Nsg678
Nsg671
Nsg680
Nsg673
Nsg674
Nsg675
Nsg681
Nsg677
Nsg720
Nsg637
(lp3118
sg679
Nsg672
Nsg676
Nsg728
Nsg684
Nsg685
Nsg686
Nsg719
Nsg687
Nsg688
Nsg689
Nsg690
Nsg541
Nsg528
Nsg693
Nsg694
Nsg695
Nsg518
Nsg521
Nsg698
Nsg699
Nsg630
Nsg701
Nsg702
Nsg703
Nsg704
Nsg705
Nsg706
Nsg707
Nsg708
Nsg709
Nsg710
(lp3119
sg712
Nsg585
Nsg600
Nsg715
Nsg716
Nsg717
Nsg718
Nsg551
Nsg595
Nsg721
Nsg644
Nsg733
Nsg724
Nsg668
Nsg726
Nsg727
Nsg683
Nsg729
Nsg730
Nsg731
Nsg732
Nsg723
Nsg734
NssS'build_libs'
p3120
(dp3121
sS'frameworks'
p3122
(lp3123
sS'environ'
p3124
(dp3125
sS'target_name_debug'
p3126
g247
sS'builders'
p3127
(dp3128
S'.S'
p3129
(dp3130
S'rvct'
p3131
(lp3132
S'.obj'
p3133
aS'echo ARM Assembling(RVCT) ${SOURCE}...'
p3134
aS'c:/marmalade/6.2/s3e\\rvct\\bin\\armasm -o ${TARGET} ${SOURCE}'
p3135
asg348
(lp3136
g3133
aS'echo ARM Assembling(GCC) ${SOURCE}...'
p3137
aS'c:/marmalade/6.2/s3e\\gcc\\bin\\arm-none-eabi-gcc -c -o ${TARGET} ${SOURCE}'
p3138
asS'ppu'
p3139
(lp3140
S'.a'
p3141
aS'echo PPU Assembling(SNC) ${SOURCE}...'
p3142
aS'c:/marmalade/6.2/s3e\\rvct\\bin\\armasm -o ${TARGET} ${SOURCE}'
p3143
assS'.s'
p3144
g3130
sS'.vp'
p3145
(lp3146
NaS'"C:/Marmalade/6.2/s3e/python/python.exe" "c:/marmalade/6.2/modules/iwgx/tools/compile_shaders.py" ${SOURCE}'
p3147
assg491
g0
sbtp3148
.