((dp0
S'arm_dbg_args'
p1
S'-via:"c:\\Users\\1106786\\Dropbox\\Dropbox\\PG life\\Project Impact\\Code\\Demos\\Demo_3_ResMan_Audio_LoadTile\\build_demo_3_resman_audio_loadtile_vc10\\Demo_3_ResMan_Audio_LoadTile_vc10_arm_debug.via" -qemu'
p2
sS'game-icf'
p3
S''
p4
sS'dist'
p5
NsS'module_path_append'
p6
NsS'global_path'
p7
S'c:\\users\\1106786\\dropbox\\dropbox\\pg life\\project impact\\code\\demos'
p8
sS'system_path'
p9
S'c:\\marmalade\\6.2\\s3e\\makefile_builder'
p10
sS'use_prebuilt'
p11
NsS'arm_rel_rtsm_args'
p12
S'-via:"c:\\Users\\1106786\\Dropbox\\Dropbox\\PG life\\Project Impact\\Code\\Demos\\Demo_3_ResMan_Audio_LoadTile\\build_demo_3_resman_audio_loadtile_vc10\\Demo_3_ResMan_Audio_LoadTile_vc10_arm_release.via" -qemu'
p13
sS'amd64'
p14
NsS'line-width'
p15
I80
sS'gcc_dbg_args'
p16
S'-via:"c:\\Users\\1106786\\Dropbox\\Dropbox\\PG life\\Project Impact\\Code\\Demos\\Demo_3_ResMan_Audio_LoadTile\\build_demo_3_resman_audio_loadtile_vc10\\Demo_3_ResMan_Audio_LoadTile_vc10_gcc_debug.via" -qemu'
p17
sS'x86_dbg_exe'
p18
S'c:/marmalade/6.2/s3e\\win32\\s3e_simulator_debug.exe'
p19
sS'disable-runtime-checks'
p20
NsS'release'
p21
NsS'no-make'
p22
NsS'optimise-size'
p23
NsS'output-name-debug'
p24
g4
sS'arm-fpu'
p25
S'vfp'
p26
sS'psp'
p27
NsS'proj_name'
p28
S'Demo_3_ResMan_Audio_LoadTile_vc10'
p29
sS'rvct-version'
p30
S'none'
p31
sS'compiler'
p32
g4
sS'execute'
p33
NsS'compile-static'
p34
NsS'msvc-project'
p35
NsS'buildenv'
p36
g4
sS'debug'
p37
NsS'module_path'
p38
NsS'use-release-std-libs'
p39
NsS'using_perforce'
p40
I00
sS'mips-s3e'
p41
NsS'shared-arm-lib'
p42
NsS'arm-cpu'
p43
g4
sS'compile-thumb'
p44
NsS'no-ide'
p45
NsS'msvc-version'
p46
S'6.0'
p47
sS'arm'
p48
NsS'builddir'
p49
g4
sS'compile-debug-as-release'
p50
I0
sS'brief'
p51
NsS'dll'
p52
NsS'buildenv-toolset'
p53
g4
sS'version'
p54
NsS'ccache'
p55
I0
sS'offline'
p56
NsS'ios-version'
p57
g4
sS'jobs'
p58
I0
sS'linkflags'
p59
NsS'quick'
p60
NsS'gcc_rel_rtsm_args'
p61
S'-via:"c:\\Users\\1106786\\Dropbox\\Dropbox\\PG life\\Project Impact\\Code\\Demos\\Demo_3_ResMan_Audio_LoadTile\\build_demo_3_resman_audio_loadtile_vc10\\Demo_3_ResMan_Audio_LoadTile_vc10_gcc_release.via" -qemu'
p62
sS'done_defaults'
p63
I1
sS'path'
p64
NsS's3e-data-dir'
p65
S'c:/Users/1106786/Dropbox/Dropbox/PG life/Project Impact/Code/Demos/Demo_3_ResMan_Audio_LoadTile\\data'
p66
sS'enable-exceptions'
p67
NsS'osx-dll'
p68
NsS'extension'
p69
g4
sS'no-vc6'
p70
NsS'non-interactive'
p71
NsS'win32-console'
p72
NsS'nds'
p73
NsS'dist-format'
p74
g4
sS's3e-force-arch'
p75
NsS'dump_defines'
p76
NsS'verbose'
p77
I0
sS'psp-minis'
p78
NsS'gcc-version'
p79
g4
sS'x86_dbg_args'
p80
S'-via:"c:\\Users\\1106786\\Dropbox\\Dropbox\\PG life\\Project Impact\\Code\\Demos\\Demo_3_ResMan_Audio_LoadTile\\build_demo_3_resman_audio_loadtile_vc10\\Demo_3_ResMan_Audio_LoadTile_vc10_debug.via"'
p81
sS'arm-debugger'
p82
g4
sS'use_temp_extension'
p83
NsS'log'
p84
NsS'no-strip'
p85
NsS'rebuild'
p86
NsS'win32-simulator-dll'
p87
NsS'strict'
p88
NsS'mips_dbg_args'
p89
S'../../tools/DeployTool/DeployTool.exe --dir "c:\\Users\\1106786\\Dropbox\\Dropbox\\PG life\\Project Impact\\Code\\Demos\\Demo_3_ResMan_Audio_LoadTile\\build_demo_3_resman_audio_loadtile_vc10"'
p90
sS'enable-global-path'
p91
NsS'iphone'
p92
NsS'cflags'
p93
NsS'dist-dir'
p94
g4
sS'jflags'
p95
NsS'distcc'
p96
NsS'external-compiler'
p97
NsS'no-distcc'
p98
NsS'preinclude'
p99
NsS'using_sdk'
p100
I01
sS'nologo'
p101
NsS'warn-level'
p102
I2
sS'mips_dbg_exe'
p103
S'c:\\marmalade\\6.2\\s3e\\makefile_builder\\tool_launcher.exe'
p104
sS'mkb_in'
p105
S'c:/Users/1106786/Dropbox/Dropbox/PG life/Project Impact/Code/Demos/Demo_3_ResMan_Audio_LoadTile/Demo_3_ResMan_Audio_LoadTile.mkb'
p106
sS'arm_dbg_exe'
p107
S'c:/marmalade/6.2/s3e\\bin\\armdebug.exe'
p108
sS'list-targets'
p109
NsS'arm_rel_exe'
p110
g104
sS'arm_rel_args'
p111
g90
sS'makedeps'
p112
NsS'default-buildenv'
p113
S'VC10'
p114
sS'x86_rel_exe'
p115
g19
sS'preprocess-java'
p116
NsS'mips_rel_args'
p117
g90
sS'defines'
p118
NsS'lib'
p119
NsS'global_argv'
p120
(lp121
S'C:\\Marmalade\\6.2\\s3e\\makefile_builder\\mkb.py'
p122
aS'C:\\Users\\1106786\\Dropbox\\Dropbox\\PG life\\Project Impact\\Code\\Demos\\Demo_3_ResMan_Audio_LoadTile\\Demo_3_ResMan_Audio_LoadTile.mkb'
p123
asS'make'
p124
NsS'optimise-speed'
p125
NsS'internal'
p126
NsS'enable-stdinc'
p127
NsS'deploy-only'
p128
NsS'x86'
p129
NsS'deploy'
p130
g4
sS'x86_run_exe'
p131
S'c:/marmalade/6.2/s3e\\win32\\s3e_console.exe'
p132
sS'x86_rel_args'
p133
S'-via:"c:\\Users\\1106786\\Dropbox\\Dropbox\\PG life\\Project Impact\\Code\\Demos\\Demo_3_ResMan_Audio_LoadTile\\build_demo_3_resman_audio_loadtile_vc10\\Demo_3_ResMan_Audio_LoadTile_vc10_release.via"'
p134
sS'gcc_rel_args'
p135
g90
sS'mips'
p136
NsS'incredibuild'
p137
NsS'strict-compile'
p138
NsS'use-auto-subdirs'
p139
NsS'mips_rel_exe'
p140
g104
sS'app-icf'
p141
g4
sS'deployargs'
p142
NsS'mkf_in'
p143
(lp144
S'c:\\marmalade\\6.2\\modules\\iw2d\\iw2d.mkf'
p145
aS'c:\\marmalade\\6.2\\modules\\iwgx\\iwgx.mkf'
p146
aS'c:\\marmalade\\6.2\\modules\\iwgeom\\iwgeom.mkf'
p147
aS'c:\\marmalade\\6.2\\modules\\iwutil\\iwutil.mkf'
p148
aVc:\u005cusers\u005c1106786\u005cappdata\u005croaming\u005cmarmalade\u005cpackages\u005c6.2.2\u005clibjpeg_6b\u005clibjpeg.mkf
p149
aVc:\u005cusers\u005c1106786\u005cappdata\u005croaming\u005cmarmalade\u005cpackages\u005c6.2.2\u005clibpng_1.2.34\u005clibpng.mkf
p150
aVc:\u005cusers\u005c1106786\u005cappdata\u005croaming\u005cmarmalade\u005cpackages\u005c6.2.2\u005czlib_1.2.4\u005czlib.mkf
p151
aS'c:\\marmalade\\6.2\\modules\\iwresmanager\\iwresmanager.mkf'
p152
aS'c:\\marmalade\\6.2\\modules\\iwgl\\iwgl.mkf'
p153
aS'c:\\marmalade\\6.2\\modules\\iwgxfont\\iwgxfont.mkf'
p154
aVc:\u005cusers\u005c1106786\u005cappdata\u005croaming\u005cmarmalade\u005cpackages\u005c6.2.2\u005ctiniconv_1.0.1\u005ctiniconv.mkf
p155
aS'c:\\users\\1106786\\dropbox\\dropbox\\pg life\\project impact\\code\\demos\\demo_3_resman_audio_loadtile\\demo_3_resman_audio_loadtile.mkf'
p156
asS'strict-mkb'
p157
NsS'executeargs'
p158
NsS'clean'
p159
NsS'no-asm'
p160
NsS'output-name'
p161
g4
sS'no-modules'
p162
NsS'find_define'
p163
g4
s(dp164
S'c:\\marmalade\\6.2\\s3e\\makefile_builder\\templates\\xcode_pbxuser.py'
p165
F1365595058.0
sS'c:\\marmalade\\6.2\\s3e\\makefile_builder\\templates'
p166
F1378901971.8745732
sS'c:\\marmalade\\6.2\\s3e\\makefile_builder\\plugins\\null.pyc'
p167
F1365605816.0
sS'c:\\marmalade\\6.2\\s3e\\makefile_builder\\plugins\\XcodeEmitter.pyc'
p168
F1380286836.0994766
sS'c:\\marmalade\\6.2\\s3e\\makefile_builder\\plugins'
p169
F1380286836.2464912
sS'c:\\marmalade\\6.2\\s3e\\makefile_builder\\extensions'
p170
F1378901971.8765736
sS'c:\\marmalade\\6.2\\s3e\\makefile_builder\\templates\\vc6_opt.pyc'
p171
F1365605816.0
sS'c:\\marmalade\\6.2\\s3e\\makefile_builder\\templates\\win32_vcxproj_filters.pyc'
p172
F1365605816.0
sS'c:\\marmalade\\6.2\\s3e\\makefile_builder\\mkb_parser.pyc'
p173
F1365605816.0
sS'c:\\marmalade\\6.2\\s3e\\makefile_builder\\plugins\\xcode4_schememanagement.pyc'
p174
F1380286836.1074774
sS'c:\\marmalade\\6.2\\s3e\\makefile_builder\\plugins\\win32_vc6.pyc'
p175
F1365605816.0
sS'c:\\marmalade\\6.2\\s3e\\makefile_builder\\templates\\template.suo'
p176
F1365595058.0
sS'c:\\marmalade\\6.2\\s3e\\makefile_builder\\plugins\\s3e_xcode.py'
p177
F1365595058.0
sS'c:\\marmalade\\6.2\\s3e\\makefile_builder\\templates\\make.py'
p178
F1365595058.0
sS'c:\\marmalade\\6.2\\s3e\\makefile_builder\\docs\\options.txt'
p179
F1365595058.0
sS'c:\\marmalade\\6.2\\s3e\\makefile_builder\\plugins\\linux_scons.pyc'
p180
F1365605816.0
sS'c:\\marmalade\\6.2\\s3e\\makefile_builder\\templates\\linker_script'
p181
F1365595058.0
sS'c:\\marmalade\\6.2\\s3e\\makefile_builder\\plugins\\s3e_scons.pyc'
p182
F1365605816.0
sS'c:\\marmalade\\6.2\\s3e\\makefile_builder\\templates\\xcode.py'
p183
F1365595058.0
sS'c:\\marmalade\\6.2\\s3e\\makefile_builder\\plugins\\java.pyc'
p184
F1365605816.0
sS'c:\\marmalade\\6.2\\s3e\\makefile_builder\\templates\\win32_dsw.pyc'
p185
F1365605816.0
sS'c:\\marmalade\\6.2\\s3e\\makefile_builder\\docs\\mkb.defines.txt'
p186
F1365595058.0
sS'c:\\marmalade\\6.2\\s3e\\makefile_builder\\docs\\deprecated.defines.txt'
p187
F1365595058.0
sS'c:\\marmalade\\6.2\\s3e\\makefile_builder\\templates\\win32_vcxproj.pyc'
p188
F1365605816.0
sS'c:\\marmalade\\6.2\\s3e\\makefile_builder\\deployment.pyc'
p189
F1365605816.0
sS'c:\\marmalade\\6.2\\s3e\\makefile_builder\\plugins\\s3e_qmake.py'
p190
F1365595058.0
sS'c:\\marmalade\\6.2\\s3e\\makefile_builder\\templates\\win32_sln.pyc'
p191
F1365605816.0
sS'c:\\marmalade\\6.2\\s3e\\makefile_builder\\tool_launcher.exe'
p192
F1365595808.0
sS'c:\\marmalade\\6.2\\s3e\\makefile_builder\\plugins\\Emitter.pyc'
p193
F1365605816.0
sS'c:\\marmalade\\6.2\\s3e\\makefile_builder\\docs\\deprecated.options.txt'
p194
F1365595058.0
sS'c:\\marmalade\\6.2\\s3e\\makefile_builder\\templates\\rvct_linker_script'
p195
F1365595058.0
sS'c:\\marmalade\\6.2\\s3e\\makefile_builder\\plugins\\vc6_utils.pyc'
p196
F1365605816.0
sS'c:\\marmalade\\6.2\\s3e\\makefile_builder\\mkb_main.pyc'
p197
F1365605816.0
sS'c:\\marmalade\\6.2\\s3e\\makefile_builder\\plugins\\iphone.pyc'
p198
F1365605816.0
sS'c:\\marmalade\\6.2\\s3e\\makefile_builder\\plugins\\S3EEmitter.pyc'
p199
F1365605816.0
sS'c:\\marmalade\\6.2\\s3e\\makefile_builder\\plugins\\xcode4_schememanagement.py'
p200
F1365595058.0
sS'c:\\marmalade\\6.2\\s3e\\makefile_builder\\templates\\xcode4_DeployTool.xcscheme'
p201
F1365595058.0
sS'c:\\marmalade\\6.2\\s3e\\makefile_builder\\mkb_util.pyc'
p202
F1365605816.0
sS'c:\\marmalade\\6.2\\s3e\\makefile_builder\\mkb_globals.pyc'
p203
F1365605816.0
sS'c:\\marmalade\\6.2\\s3e\\makefile_builder\\templates\\qmake_user.py'
p204
F1365595058.0
sS'c:\\marmalade\\6.2\\s3e\\makefile_builder\\plugins\\vc7_utils.pyc'
p205
F1365605816.0
sS'c:\\marmalade\\6.2\\s3e\\makefile_builder\\templates\\MainWindow.xib'
p206
F1365595058.0
sS'c:\\marmalade\\6.2\\s3e\\makefile_builder\\plugins\\s3e_make.pyc'
p207
F1365605816.0
sS'c:\\marmalade\\6.2\\s3e\\makefile_builder\\templates\\vc10_user.pyc'
p208
F1365605816.0
sS'c:\\marmalade\\6.2\\s3e\\makefile_builder\\templates\\Info.plist'
p209
F1365595058.0
sS'c:\\marmalade\\6.2\\s3e\\makefile_builder\\plugins\\SConsEmitter.pyc'
p210
F1365605816.0
sS'c:\\marmalade\\6.2\\s3e\\makefile_builder\\docs'
p211
F1378901971.9095769
sS'c:\\marmalade\\6.2\\s3e\\makefile_builder\\mkb_option.pyc'
p212
F1365605816.0
sS'c:\\marmalade\\6.2\\s3e\\makefile_builder\\docs\\parse_options.pyc'
p213
F1365605816.0
sS'c:\\marmalade\\6.2\\s3e\\makefile_builder\\plugins\\XcodeEmitter.py'
p214
F1365595058.0
sS'c:\\marmalade\\6.2\\s3e\\makefile_builder\\mkb_launcher.exe'
p215
F1365595806.0
sS'c:\\marmalade\\6.2\\s3e\\makefile_builder\\templates\\vc8_user.pyc'
p216
F1365605816.0
sS'c:\\marmalade\\6.2\\s3e\\makefile_builder\\templates\\win32_dsp.pyc'
p217
F1365605816.0
sS'c:\\marmalade\\6.2\\s3e\\makefile_builder\\templates\\mips_linker_script'
p218
F1365595058.0
sS'c:\\marmalade\\6.2\\s3e\\makefile_builder\\mkb.py'
p219
F1365595058.0
sS'c:\\marmalade\\6.2\\s3e\\makefile_builder\\plugins\\osx_scons.pyc'
p220
F1365605816.0
sS'c:\\marmalade\\6.2\\s3e\\makefile_builder\\plugins\\deploy.pyc'
p221
F1365605816.0
sS'c:\\marmalade\\6.2\\s3e\\makefile_builder\\plugins\\VisualStudioEmitter.pyc'
p222
F1365605816.0
sS'c:\\marmalade\\6.2\\s3e\\makefile_builder\\plugins\\s3e_qmake.pyc'
p223
F1380286836.202487
sS'c:\\marmalade\\6.2\\s3e\\makefile_builder\\plugins\\s3e_xcode.pyc'
p224
F1380286836.2464912
sS'c:\\marmalade\\6.2\\s3e\\makefile_builder\\docs\\deployment_options.txt'
p225
F1365595058.0
sS'c:\\marmalade\\6.2\\s3e\\makefile_builder\\plugins\\s3e_web.pyc'
p226
F1365605816.0
sS'c:\\marmalade\\6.2\\s3e\\makefile_builder\\templates\\template.opt'
p227
F1365595058.0
sS'c:\\marmalade\\6.2\\s3e\\makefile_builder\\templates\\scons.pyc'
p228
F1365605816.0
sS'c:\\marmalade\\6.2\\s3e\\makefile_builder\\templates\\xcode4.xcscheme'
p229
F1365595058.0
sS'c:\\marmalade\\6.2\\s3e\\makefile_builder\\templates\\vc7_suo.pyc'
p230
F1365605816.0
sS'c:\\marmalade\\6.2\\s3e\\makefile_builder\\plugins\\MakeEmitter.pyc'
p231
F1365605816.0
sS'c:\\marmalade\\6.2\\s3e\\makefile_builder\\templates\\qmake.py'
p232
F1365595058.0
sS'c:\\marmalade\\6.2\\s3e\\makefile_builder\\templates\\win32_vcproj.pyc'
p233
F1365605816.0
sS'c:\\marmalade\\6.2\\s3e\\makefile_builder\\templates\\gdb_start.txt'
p234
F1365595058.0
sS'c:\\marmalade\\6.2\\s3e\\makefile_builder\\plugins\\s3e_vc6.pyc'
p235
F1365605816.0
sS'c:\\marmalade\\6.2\\s3e\\makefile_builder\\plugins\\osx_xcode.pyc'
p236
F1365605816.0
sS'c:\\marmalade\\6.2\\s3e\\makefile_builder\\extensions\\make_dist.py'
p237
F1365595058.0
sccopy_reg
_reconstructor
p238
(cmkb_main
MkbFile
p239
c__builtin__
object
p240
Ntp241
Rp242
(dp243
g5
(lp244
sS'target_name'
p245
S'Demo_3_ResMan_Audio_LoadTile'
p246
sS'current_file'
p247
g106
sS'package_path'
p248
(lp249
VC:\u005cUsers\u005c1106786\u005cAppData\u005cRoaming\u005cMarmalade\u005cpackages\u005c6.2.2\u005clibjpeg_6b
p250
aVC:\u005cUsers\u005c1106786\u005cAppData\u005cRoaming\u005cMarmalade\u005cpackages\u005c6.2.2\u005clibpng_1.2.34
p251
aVC:\u005cUsers\u005c1106786\u005cAppData\u005cRoaming\u005cMarmalade\u005cpackages\u005c6.2.2\u005czlib_1.2.4
p252
aVC:\u005cUsers\u005c1106786\u005cAppData\u005cRoaming\u005cMarmalade\u005cpackages\u005c6.2.2\u005ctiniconv_1.0.1
p253
asS'post_build'
p254
(lp255
(lp256
S'c:/marmalade/6.2/s3e/tools'
p257
aS'C:\\Marmalade\\6.2\\s3e\\python\\python.exe .\\process_map.py "$(TargetPath)"'
p258
aa(S'c:\\marmalade\\6.2\\s3e'
p259
S'"c:\\marmalade\\6.2\\s3e\\bin\\s3e_plink" -l "$(TargetPath)"'
p260
g129
tp261
asS'librarys'
p262
(lp263
g238
(cmkb_main
Library
p264
g240
Ntp265
Rp266
(dp267
S'name'
p268
S'vc6_compat.lib'
p269
sS'expand_name'
p270
I00
sS'include_spec_rvct_objs'
p271
(lp272
sS'include_all_objs'
p273
I00
sS'share_arm'
p274
I00
sS'arch'
p275
S'x86'
p276
sS'nodebug'
p277
I00
sg32
Nsbag238
(g264
g240
Ntp278
Rp279
(dp280
g268
S'jpeg'
p281
sg270
I01
sg271
(lp282
sg273
I00
sg274
Nsg275
Nsg277
I00
sg32
Nsbag238
(g264
g240
Ntp283
Rp284
(dp285
g268
S'z'
p286
sg270
I01
sg271
g282
sg273
I00
sg274
Nsg275
Nsg277
I00
sg32
Nsbag238
(g264
g240
Ntp287
Rp288
(dp289
g268
S'png'
p290
sg270
I01
sg271
g282
sg273
I00
sg274
Nsg275
Nsg277
I00
sg32
Nsbag238
(g264
g240
Ntp291
Rp292
(dp293
g268
S'iwutil'
p294
sg270
I01
sg271
g282
sg273
I00
sg274
I01
sg275
Nsg277
I00
sg32
Nsbag238
(g264
g240
Ntp295
Rp296
(dp297
g268
S'iwgeom'
p298
sg270
I01
sg271
g282
sg273
I00
sg274
I01
sg275
Nsg277
I00
sg32
Nsbag238
(g264
g240
Ntp299
Rp300
(dp301
g268
S'iwresmanager'
p302
sg270
I01
sg271
g282
sg273
I00
sg274
I01
sg275
Nsg277
I00
sg32
Nsbag238
(g264
g240
Ntp303
Rp304
(dp305
g268
S'ATI_Compress_MT_VC7.lib'
p306
sg270
I00
sg271
g282
sg273
I00
sg274
Nsg275
S'x86'
p307
sg277
I00
sg32
Nsbag238
(g264
g240
Ntp308
Rp309
(dp310
g268
S'iwgx'
p311
sg270
I01
sg271
g282
sg273
I00
sg274
I01
sg275
Nsg277
I00
sg32
Nsbag238
(g264
g240
Ntp312
Rp313
(dp314
g268
S'iwgl'
p315
sg270
I01
sg271
g282
sg273
I00
sg274
Nsg275
Nsg277
I00
sg32
Nsbag238
(g264
g240
Ntp316
Rp317
(dp318
g268
S'iwgxfont'
p319
sg270
I01
sg271
g282
sg273
I00
sg274
I01
sg275
Nsg277
I00
sg32
Nsbag238
(g264
g240
Ntp320
Rp321
(dp322
g268
S'tiniconv'
p323
sg270
I01
sg271
g282
sg273
I00
sg274
Nsg275
Nsg277
I00
sg32
Nsbag238
(g264
g240
Ntp324
Rp325
(dp326
g268
S'iw2d'
p327
sg270
I01
sg271
g282
sg273
I00
sg274
I01
sg275
Nsg277
I00
sg32
Nsbag238
(g264
g240
Ntp328
Rp329
(dp330
g268
S's3e_cpp'
p331
sg270
I01
sg271
g272
sg273
I00
sg274
I00
sg275
Nsg277
I00
sg32
Nsbag238
(g264
g240
Ntp332
Rp333
(dp334
g268
S's3e'
p335
sg270
I01
sg271
(lp336
S'iwcrt.o'
p337
asg273
I00
sg274
I00
sg275
Nsg277
I00
sg32
Nsbag238
(g264
g240
Ntp338
Rp339
(dp340
g268
S's3e_api'
p341
sg270
I01
sg271
g272
sg273
I00
sg274
I00
sg275
Nsg277
I1
sg32
Nsbag238
(g264
g240
Ntp342
Rp343
(dp344
g268
S's3e_api'
p345
sg270
I00
sg271
g272
sg273
I00
sg274
I00
sg275
S'arm'
p346
sg277
I00
sg32
S'gcc'
p347
sbag238
(g264
g240
Ntp348
Rp349
(dp350
g268
S'stdc++'
p351
sg270
I00
sg271
g272
sg273
I00
sg274
I00
sg275
S'mips'
p352
sg277
I00
sg32
Nsbag238
(g264
g240
Ntp353
Rp354
(dp355
g268
S'c'
p356
sg270
I00
sg271
g272
sg273
I00
sg274
I00
sg275
S'mips'
p357
sg277
I00
sg32
Nsbag238
(g264
g240
Ntp358
Rp359
(dp360
g268
S'm'
p361
sg270
I00
sg271
g272
sg273
I00
sg274
I00
sg275
S'mips'
p362
sg277
I00
sg32
Nsbag238
(g264
g240
Ntp363
Rp364
(dp365
g268
S'gcc'
p366
sg270
I00
sg271
g272
sg273
I00
sg274
I00
sg275
S'mips'
p367
sg277
I00
sg32
NsbasS'library_paths'
p368
(lp369
g238
(cmkb_main
LibraryPath
p370
g240
Ntp371
Rp372
(dp373
S'expand_path'
p374
I01
sS'add_cpu_variant'
p375
I00
sg268
Vc:/users/1106786/appdata/roaming/marmalade/packages/6.2.2/libjpeg_6b
p376
sbag238
(g370
g240
Ntp377
Rp378
(dp379
g374
I01
sg375
I00
sg268
Vc:/users/1106786/appdata/roaming/marmalade/packages/6.2.2/zlib_1.2.4
p380
sbag238
(g370
g240
Ntp381
Rp382
(dp383
g374
I01
sg375
I00
sg268
Vc:/users/1106786/appdata/roaming/marmalade/packages/6.2.2/libpng_1.2.34
p384
sbag238
(g370
g240
Ntp385
Rp386
(dp387
g374
I01
sg375
I00
sg268
S'c:/marmalade/6.2/modules/iwutil'
p388
sbag238
(g370
g240
Ntp389
Rp390
(dp391
g374
I01
sg375
I00
sg268
S'c:/marmalade/6.2/modules/iwgeom'
p392
sbag238
(g370
g240
Ntp393
Rp394
(dp395
g374
I01
sg375
I00
sg268
S'c:/marmalade/6.2/modules/iwresmanager'
p396
sbag238
(g370
g240
Ntp397
Rp398
(dp399
g374
I00
sg375
I00
sg268
S'c:/marmalade/6.2/modules/iwgx/atitools'
p400
sbag238
(g370
g240
Ntp401
Rp402
(dp403
g374
I01
sg375
I00
sg268
S'c:/marmalade/6.2/modules/iwgx'
p404
sbag238
(g370
g240
Ntp405
Rp406
(dp407
g374
I01
sg375
I00
sg268
S'c:/marmalade/6.2/modules/iwgl'
p408
sbag238
(g370
g240
Ntp409
Rp410
(dp411
g374
I01
sg375
I00
sg268
S'c:/marmalade/6.2/modules/iwgxfont'
p412
sbag238
(g370
g240
Ntp413
Rp414
(dp415
g374
I01
sg375
I00
sg268
Vc:/users/1106786/appdata/roaming/marmalade/packages/6.2.2/tiniconv_1.0.1
p416
sbag238
(g370
g240
Ntp417
Rp418
(dp419
g374
I01
sg375
I00
sg268
S'c:/marmalade/6.2/modules/iw2d'
p420
sbag238
(g370
g240
Ntp421
Rp422
(dp423
g374
I01
sg375
I00
sg268
S'c:/marmalade/6.2/s3e'
p424
sbasS'macros'
p425
(dp426
S'IW_USE_CALLSTACK'
p427
NsS'IW_SDK'
p428
NsS'I3D_PLATFORM_S3E'
p429
NsS'IW_MKF_LIBJPEG'
p430
NsS'I3D_OS_S3E'
p431
NsS'IW_MKF_TINICONV'
p432
NsS'IW_APP_VERSION'
p433
S'"1.0"'
p434
sS'IW_MKF_IWRESMANAGER'
p435
NsS'IW_MKF_IWUTIL'
p436
NsS'IW_MKF_IWGEOM'
p437
NsS'IW_ASSERTION_CHANNEL_2D'
p438
S'1'
p439
sS'IW_APP_NAME'
p440
S'"Demo_3_ResMan_Audio_LoadTile"'
p441
sS'IW_MKF_IWGXFONT'
p442
NsS'IW_PLATFORM_S3E'
p443
NsS'IW_MKF_ZLIB'
p444
NsS'IW_MKF_IWGX'
p445
NsS'IW_MKF_DEMO_3_RESMAN_AUDIO_LOADTILE'
p446
NsS'IW_USE_ASSERTIONS'
p447
NsS'_CRT_SECURE_NO_DEPRECATE'
p448
NsS'IW_MKF_IWGL'
p449
NsS'IW_MKF_LIBPNG'
p450
NsS'IW_DEBUG'
p451
NsS'IW_USE_TRACING'
p452
NsS'S3E_INCLUDE_LEGACY'
p453
NsS'__S3E__'
p454
NsS'IW_MKF_IW2D'
p455
NssS'done_warnings'
p456
(dp457
sS'subprojects'
p458
(dp459
g152
S'iwresmanager'
p460
sg156
S'Demo_3_ResMan_Audio_LoadTile'
p461
sVc:\u005cusers\u005c1106786\u005cappdata\u005croaming\u005cmarmalade\u005cpackages\u005c6.2.2\u005czlib_1.2.4\u005czlib.mkf
p462
S'zlib'
p463
sg148
S'iwutil'
p464
sVc:\u005cusers\u005c1106786\u005cappdata\u005croaming\u005cmarmalade\u005cpackages\u005c6.2.2\u005clibjpeg_6b\u005clibjpeg.mkf
p465
S'libjpeg'
p466
sg147
S'iwgeom'
p467
sg146
S'iwgx'
p468
sVc:\u005cusers\u005c1106786\u005cappdata\u005croaming\u005cmarmalade\u005cpackages\u005c6.2.2\u005clibpng_1.2.34\u005clibpng.mkf
p469
S'libpng'
p470
sg154
S'iwgxfont'
p471
sg153
S'iwgl'
p472
sg145
S'iw2d'
p473
sVc:\u005cusers\u005c1106786\u005cappdata\u005croaming\u005cmarmalade\u005cpackages\u005c6.2.2\u005ctiniconv_1.0.1\u005ctiniconv.mkf
p474
S'tiniconv'
p475
ssS'deployments'
p476
(dp477
S'Default'
p478
g238
(cdeployment
Deployment
p479
g240
Ntp480
Rp481
(dp482
S'got_version'
p483
I0
sS'assets'
p484
g478
sS'mkb'
p485
g242
sS'target'
p486
Nsg275
(lp487
sS'options'
p488
(dp489
S'iphone-link-lib'
p490
(lp491
sS'game-icf'
p492
NsS'iphone-icon-high-res'
p493
NsS'win32-pref-windowposy'
p494
NsS'win32-pref-windowposx'
p495
NsS'bada-appsecret'
p496
NsS'playbook-author'
p497
NsS'winmobile-icon32'
p498
NsS'linux-ext-lib'
p499
(lp500
sS'target-folder'
p501
NsS'iphone-splashscreen-landscape'
p502
NsS'psp-discversion'
p503
NsS'lgtv-use-drm'
p504
NsS'nds-bannertitle-sp'
p505
NsS'symbian-platsecflags'
p506
NsS'psp-producer'
p507
NsS'blackberry-playbook-icon'
p508
NsS'iphone-icon-ipad-search-high-res'
p509
NsS'iphone-provisioning-profile'
p510
NsS'copyright'
p511
NsS'winmobile-png45'
p512
NsS'iphone-link-libdir'
p513
(lp514
sS'symbian-cert'
p515
NsS'nds-bannertitle-hn'
p516
NsS'brew-depends'
p517
NsS'winmobile-png60'
p518
NsS'winmobile-nouninstall'
p519
NsS'android-icon-hdpi'
p520
NsS'iphone-ipad-only'
p521
NsS'iphone-splash-full-orient'
p522
NsS'iphone-bundle-url-name'
p523
NsS'android-aliasname'
p524
NsS'iphone-splash-retina-generate'
p525
NsS'psp-dlgmanual'
p526
NsS'iphone-backgroundmode-audio'
p527
NsS'android-pkgname'
p528
NsS'webos-memory'
p529
NsS'brew-uid'
p530
NsS'android-keypass'
p531
NsS'symbian-locationsupport'
p532
NsS'iphone-signing-host'
p533
NsS'nds-bannertitle-jp'
p534
NsS'name'
p535
NsS'osx-info-plist'
p536
NsS'symbian-icon1-format'
p537
NsS'uiq3-uid'
p538
NsS'psp-dlgcontentid'
p539
NsS'auto-derbh'
p540
NsS'bada-use-partner-privileges'
p541
NsS'nds-bannertitle-it'
p542
NsS'blackberry-authorid'
p543
NsS'nds-publicsavedatasize'
p544
NsS'splashscreen'
p545
NsS'brew-mif'
p546
NsS'symbian-icon2-format'
p547
NsS'long-caption'
p548
NsS'iphone-icon-settings-high-res'
p549
NsS'android-manifest'
p550
NsS'winmobile-icon16'
p551
NsS's3e-compression'
p552
NsS'blackberry-cskpass'
p553
NsS'iphone-link-opts'
p554
(lp555
sS'iphone-region'
p556
NsS'uiq3-icon3-mask'
p557
NsS'winmobile-start-menu-folder'
p558
NsS'brew-clsid'
p559
NsS'brew-encoding'
p560
NsS'symbian-icon1'
p561
NsS'symbian-icon2'
p562
NsS'psp-parentallevel'
p563
NsS'osx-ext-dll'
p564
(lp565
sS'version'
p566
NsS'bada-manifest'
p567
NsS'provider'
p568
NsS'iphone-prerendered-icon'
p569
NsS'iphone-appid'
p570
NsS'playbook-keystore'
p571
NsS'nds-initialcode'
p572
NsS'symbian8-uid'
p573
NsS'symbian-osexecsupport'
p574
NsS'winmobile-icon64'
p575
NsS'iphone-persistent-wifi'
p576
NsS'symbian7-uid'
p577
NsS'winmobile-setup-dll'
p578
NsS'android-external-jars'
p579
(lp580
sS'android-install-location'
p581
NsS'olddeploytoolstyle'
p582
NsS'nds-privatesavedatasize'
p583
NsS'symbian9-uid'
p584
NsS'nds-bannertitle-cn'
p585
NsS'winmobile-trace-file'
p586
NsS'playbook-storepass'
p587
NsS'android-icon-ldpi'
p588
NsS'psp-appversion'
p589
NsS'networking'
p590
NsS'winmobile-install-folder'
p591
NsS'arch'
p592
NsS'android-external-res'
p593
(lp594
sS'manufacturer'
p595
NsS'android-icon-gallery'
p596
NsS'bada-signed'
p597
NsS'android-supports-gl-texture'
p598
(lp599
sS'iphone-apple-wwdr-cert'
p600
NsS'psp-snd0'
p601
NsS'iphone-extra-sections'
p602
NsS'blackberry-keystore'
p603
NsS'iphone-nosign'
p604
NsS'caption'
p605
NsS'winmobile-ampd-part-number'
p606
NsS'iphone-icon-large'
p607
NsS'android-storepass'
p608
NsS'iphone-info-plist'
p609
NsS'win32-icon'
p610
NsS'android-extra-manifest'
p611
(lp612
sS'iphone-icon-ipad-search'
p613
NsS'android-custom-activity'
p614
NsS'version-minor'
p615
NsS'iphone-icon-ipad'
p616
NsS'bada-appid'
p617
NsS'iphone-distribution-key'
p618
NsS'iphone-link-libdirs'
p619
(lp620
sS'psp-copyright'
p621
NsS'symbian-maxheapsize'
p622
NsS'embed-icf'
p623
NsS'psp-titlename'
p624
NsS'symbian-icon1-mask'
p625
NsS'nds-makercode'
p626
NsS'psp-icon1'
p627
NsS'priv-sign-key'
p628
NsS'webos-appinfo'
p629
NsS'symbian-cert-key'
p630
NsS'android-icon'
p631
NsS'webos-appid'
p632
NsS'android-icon-nonstandard'
p633
NsS'android-extra-application-manifest'
p634
(lp635
sS'iphone-icon-settings'
p636
NsS'iphone-distribution-cert'
p637
NsS'osx-icon'
p638
NsS'nds-titlename'
p639
NsS'splashscreen-auto-onblack'
p640
NsS'icon'
p641
NsS'nds-romheadertemplate'
p642
NsS'webos-icon'
p643
NsS'nds-bannertitle-en'
p644
NsS'win32-ext-dll'
p645
(lp646
sS'psp-dlgicon0'
p647
NsS'iphone-development-key'
p648
NsS'psp-discid'
p649
NsS'winmobile-icon48'
p650
NsS'uiq3-icon1-mask'
p651
NsS'playbook-cskpass'
p652
NsS'android-so'
p653
(lp654
sS'itunes-artwork'
p655
NsS'bada-splash'
p656
NsS'version-revision'
p657
NsS'android-icon-mdpi'
p658
NsS'android-keystore'
p659
NsS'uiq3-icon2-format'
p660
NsS'version-string'
p661
NsS'winmobile-png90'
p662
NsS'iphone-icon-ipad-high-res'
p663
NsS'iphone-disable-ipad'
p664
NsS'uiq3-icon1-format'
p665
NsS'iphone-bundle-url-schemes'
p666
NsS'nds-icon'
p667
NsS'iphone-development-cert'
p668
NsS'playbook-authorid'
p669
NsS'android_extra_strings'
p670
NsS'playbook-icon'
p671
NsS'uid'
p672
NsS'iphone-signing-identity'
p673
NsS'brew-icon-medium'
p674
NsS'blackberry-phone-icon'
p675
NsS'iphone-enable-4inch-retina'
p676
NsS'pkguid-as-uid'
p677
NsS'symbian-icon1-mask-black'
p678
NsS'uiq3-icon2'
p679
NsS'pub-sign-key'
p680
NsS'nds-bannertitle-fr'
p681
NsS'win32-pref-windowtitle'
p682
NsS'symbian-disable-ecompxl'
p683
NsS'symbian-soundrecordsupport'
p684
NsS'splashscreen-use-all'
p685
NsS'android-unsigned'
p686
NsS'brew-priviledges'
p687
NsS'brew-icon-small'
p688
NsS'psp-dlgpic2'
p689
NsS'bada-icon'
p690
NsS'psp-dlgpic0'
p691
NsS'lgtv_l9-use-drm'
p692
NsS'psp-pic0'
p693
NsS'psp-pic1'
p694
NsS'iphone-icon'
p695
NsS'psp-icon0'
p696
NsS'blackberry-permissions-access-shared'
p697
NsS'uiq3-icon3-format'
p698
NsS'version-major'
p699
NsS'iphone_bundle_localisations'
p700
NsS'winmobile-icon'
p701
NsS'blackberry-author'
p702
NsS'symbian-keypwd'
p703
NsS'iphone-no-splash'
p704
NsS'playbook-access-shared'
p705
NsS'psp-dlghealthwarning'
p706
NsS'iphone-link-libs'
p707
(lp708
sS'iphone-splash'
p709
NsS'nds-bannertitle-ge'
p710
NsS'android_icon_gallery'
p711
NsS'brew-icon-large'
p712
NsS'iphone-app-fonts'
p713
NsS'symbian-icon2-mask'
p714
NsS'iphone-sign-for-distribution'
p715
NsS'psp-dlgprotectdocument'
p716
NsS'winmobile-cab-compress'
p717
NsS'uiq3-icon3'
p718
NsS'uiq3-icon1'
p719
NsS'symbian-run-on-install'
p720
NsS'assets'
p721
NsS'symbian-key'
p722
NsS'app-icf'
p723
NsS'blackberry-storepass'
p724
NsS'brew-compress-loader'
p725
NsS'uiq3-icon2-mask'
p726
NsS'symbian-icon2-mask-black'
p727
NsS'symbian-icon-svg'
p728
NsS'android-extra-strings'
p729
NsS'iphone-splashscreen-portrait'
p730
NsS'iphone-bundle-localisations'
p731
Nssg268
g478
sbssS'platform'
p732
S'S3E'
p733
sg54
S'1.0'
p734
sS'arcade_platform'
p735
g4
sS'extensions'
p736
(dp737
sS'source_groups_tree'
p738
(dp739
S'(libpng)'
p740
(dp741
Vc:/users/1106786/appdata/roaming/marmalade/packages/6.2.2/libpng_1.2.34/libpng.mkf
p742
(lp743
I1
a(dp744
asVc:/users/1106786/appdata/roaming/marmalade/packages/6.2.2/libpng_1.2.34/h/png.h
p745
(lp746
I1
a(dp747
asVc:/users/1106786/appdata/roaming/marmalade/packages/6.2.2/libpng_1.2.34/h/pngconf.h
p748
(lp749
I1
ag747
assS'(libjpeg)'
p750
(dp751
Vc:/users/1106786/appdata/roaming/marmalade/packages/6.2.2/libjpeg_6b/h/jmemsys.h
p752
(lp753
I1
a(dp754
asVc:/users/1106786/appdata/roaming/marmalade/packages/6.2.2/libjpeg_6b/h/jpegint.h
p755
(lp756
I1
ag754
asVc:/users/1106786/appdata/roaming/marmalade/packages/6.2.2/libjpeg_6b/h/jconfig.h
p757
(lp758
I1
ag754
asVc:/users/1106786/appdata/roaming/marmalade/packages/6.2.2/libjpeg_6b/h/cderror.h
p759
(lp760
I1
ag754
asVc:/users/1106786/appdata/roaming/marmalade/packages/6.2.2/libjpeg_6b/h/jerror.h
p761
(lp762
I1
ag754
asVc:/users/1106786/appdata/roaming/marmalade/packages/6.2.2/libjpeg_6b/libjpeg.mkf
p763
(lp764
I1
a(dp765
asVc:/users/1106786/appdata/roaming/marmalade/packages/6.2.2/libjpeg_6b/h/cdjpeg.h
p766
(lp767
I1
ag754
asVc:/users/1106786/appdata/roaming/marmalade/packages/6.2.2/libjpeg_6b/h/jversion.h
p768
(lp769
I1
ag754
asVc:/users/1106786/appdata/roaming/marmalade/packages/6.2.2/libjpeg_6b/h/jinclude.h
p770
(lp771
I1
ag754
asVc:/users/1106786/appdata/roaming/marmalade/packages/6.2.2/libjpeg_6b/h/jdct.h
p772
(lp773
I1
ag754
asVc:/users/1106786/appdata/roaming/marmalade/packages/6.2.2/libjpeg_6b/h/jpeglib.h
p774
(lp775
I1
ag754
asVc:/users/1106786/appdata/roaming/marmalade/packages/6.2.2/libjpeg_6b/h/jdhuff.h
p776
(lp777
I1
ag754
asVc:/users/1106786/appdata/roaming/marmalade/packages/6.2.2/libjpeg_6b/h/transupp.h
p778
(lp779
I1
ag754
asVc:/users/1106786/appdata/roaming/marmalade/packages/6.2.2/libjpeg_6b/h/jchuff.h
p780
(lp781
I1
ag754
asVc:/users/1106786/appdata/roaming/marmalade/packages/6.2.2/libjpeg_6b/h/jmorecfg.h
p782
(lp783
I1
ag754
assS'(tiniconv)'
p784
(dp785
Vc:/users/1106786/appdata/roaming/marmalade/packages/6.2.2/tiniconv_1.0.1/tiniconv.mkf
p786
(lp787
I1
a(dp788
asVc:/users/1106786/appdata/roaming/marmalade/packages/6.2.2/tiniconv_1.0.1/h/tiniconv.h
p789
(lp790
I1
a(dp791
asVc:/users/1106786/appdata/roaming/marmalade/packages/6.2.2/tiniconv_1.0.1/h/tiniconv_int.h
p792
(lp793
I1
ag791
assS'(Demo_3_ResMan_Audio_LoadTile)'
p794
(dp795
S'src'
p796
(dp797
S'c:/users/1106786/dropbox/dropbox/pg life/project impact/code/demos/demo_3_resman_audio_loadtile/src/input.cpp'
p798
(lp799
I1
a(dp800
asS'c:/users/1106786/dropbox/dropbox/pg life/project impact/code/demos/demo_3_resman_audio_loadtile/src/audio.cpp'
p801
(lp802
I1
ag800
asS'c:/users/1106786/dropbox/dropbox/pg life/project impact/code/demos/demo_3_resman_audio_loadtile/h/obstacle.h'
p803
(lp804
I1
ag800
asS'c:/users/1106786/dropbox/dropbox/pg life/project impact/code/demos/demo_3_resman_audio_loadtile/h/character.h'
p805
(lp806
I1
ag800
asS'c:/users/1106786/dropbox/dropbox/pg life/project impact/code/demos/demo_3_resman_audio_loadtile/src/obstacle.cpp'
p807
(lp808
I1
ag800
asS'c:/users/1106786/dropbox/dropbox/pg life/project impact/code/demos/demo_3_resman_audio_loadtile/h/audio.h'
p809
(lp810
I1
ag800
asS'c:/users/1106786/dropbox/dropbox/pg life/project impact/code/demos/demo_3_resman_audio_loadtile/h/input.h'
p811
(lp812
I1
ag800
asS'c:/users/1106786/dropbox/dropbox/pg life/project impact/code/demos/demo_3_resman_audio_loadtile/src/main.cpp'
p813
(lp814
I1
ag800
asS'c:/users/1106786/dropbox/dropbox/pg life/project impact/code/demos/demo_3_resman_audio_loadtile/src/resmgr.cpp'
p815
(lp816
I1
ag800
asS'c:/users/1106786/dropbox/dropbox/pg life/project impact/code/demos/demo_3_resman_audio_loadtile/src/map.cpp'
p817
(lp818
I1
ag800
asS'c:/users/1106786/dropbox/dropbox/pg life/project impact/code/demos/demo_3_resman_audio_loadtile/src/tile.cpp'
p819
(lp820
I1
ag800
asS'c:/users/1106786/dropbox/dropbox/pg life/project impact/code/demos/demo_3_resman_audio_loadtile/h/tiles.h'
p821
(lp822
I1
ag800
asS'c:/users/1106786/dropbox/dropbox/pg life/project impact/code/demos/demo_3_resman_audio_loadtile/h/resmgr.h'
p823
(lp824
I1
ag800
asS'c:/users/1106786/dropbox/dropbox/pg life/project impact/code/demos/demo_3_resman_audio_loadtile/src/tiles.cpp'
p825
(lp826
I1
ag800
asS'c:/users/1106786/dropbox/dropbox/pg life/project impact/code/demos/demo_3_resman_audio_loadtile/h/tile.h'
p827
(lp828
I1
ag800
asS'c:/users/1106786/dropbox/dropbox/pg life/project impact/code/demos/demo_3_resman_audio_loadtile/h/maze.h'
p829
(lp830
I1
ag800
asS'c:/users/1106786/dropbox/dropbox/pg life/project impact/code/demos/demo_3_resman_audio_loadtile/src/character.cpp'
p831
(lp832
I1
ag800
asS'c:/users/1106786/dropbox/dropbox/pg life/project impact/code/demos/demo_3_resman_audio_loadtile/src/game.cpp'
p833
(lp834
I1
ag800
asS'c:/users/1106786/dropbox/dropbox/pg life/project impact/code/demos/demo_3_resman_audio_loadtile/src/maze.cpp'
p835
(lp836
I1
ag800
asS'c:/users/1106786/dropbox/dropbox/pg life/project impact/code/demos/demo_3_resman_audio_loadtile/h/game.h'
p837
(lp838
I1
ag800
asS'c:/users/1106786/dropbox/dropbox/pg life/project impact/code/demos/demo_3_resman_audio_loadtile/h/map.h'
p839
(lp840
I1
ag800
assS'Data'
p841
(dp842
S'c:/users/1106786/dropbox/dropbox/pg life/project impact/code/demos/demo_3_resman_audio_loadtile/data/imgs.group'
p843
(lp844
I1
ag800
assS'c:/users/1106786/dropbox/dropbox/pg life/project impact/code/demos/demo_3_resman_audio_loadtile/demo_3_resman_audio_loadtile.mkf'
p845
(lp846
I1
a(dp847
assS"'Marmalade Studio'"
p848
(dp849
S'iwgl'
p850
(dp851
S'c:/marmalade/6.2/modules/iwgl/h/IwGLExt.h'
p852
(lp853
I1
a(dp854
asS'c:/marmalade/6.2/modules/iwgl/docs/iwgl.config.txt'
p855
(lp856
I1
ag854
asS'c:/marmalade/6.2/modules/iwgl/h/IwGL.h'
p857
(lp858
I1
ag854
asS'c:/marmalade/6.2/modules/iwgl/iwgl.mkf'
p859
(lp860
I1
a(dp861
assS'iw2d'
p862
(dp863
S'c:/marmalade/6.2/modules/iw2d/h/Iw2D.h'
p864
(lp865
I1
a(dp866
asS'c:/marmalade/6.2/modules/iw2d/docs/iw2d_public.defines.txt'
p867
(lp868
I1
ag866
asS'c:/marmalade/6.2/modules/iw2d/docs/iw2d.config.txt'
p869
(lp870
I1
ag866
asS'c:/marmalade/6.2/modules/iw2d/iw2d.mkf'
p871
(lp872
I1
a(dp873
assS'iwgxfont'
p874
(dp875
S'c:/marmalade/6.2/modules/iwgxfont/docs/iwgxfont_public.defines.txt'
p876
(lp877
I1
a(dp878
asS'c:/marmalade/6.2/modules/iwgxfont/iwgxfont.mkf'
p879
(lp880
I1
a(dp881
asS'c:/marmalade/6.2/modules/iwgxfont/h/IwGxFontState.h'
p882
(lp883
I1
ag878
asS'c:/marmalade/6.2/modules/iwgxfont/h/IwGxFontGlyph.h'
p884
(lp885
I1
ag878
asS'c:/marmalade/6.2/modules/iwgxfont/h/IwGxFontPreparedData.h'
p886
(lp887
I1
ag878
asS'c:/marmalade/6.2/modules/iwgxfont/h/IwGxFontContainer.h'
p888
(lp889
I1
ag878
asS'c:/marmalade/6.2/modules/iwgxfont/h/IwGxFontTypes.h'
p890
(lp891
I1
ag878
asS'c:/marmalade/6.2/modules/iwgxfont/docs/iwgxfont.config.txt'
p892
(lp893
I1
ag878
asS'c:/marmalade/6.2/modules/iwgxfont/h/IwGxFont.h'
p894
(lp895
I1
ag878
assS'iwgeom'
p896
(dp897
S'c:/marmalade/6.2/modules/iwgeom/h/IwGeomMenu.h'
p898
(lp899
I1
a(dp900
asS'c:/marmalade/6.2/modules/iwgeom/h/IwGeomFVec3.h'
p901
(lp902
I1
ag900
asS'c:/marmalade/6.2/modules/iwgeom/h/IwGeom.h'
p903
(lp904
I1
ag900
asS'c:/marmalade/6.2/modules/iwgeom/h/IwGeomFVec4.h'
p905
(lp906
I1
ag900
asS'c:/marmalade/6.2/modules/iwgeom/h/IwGeomVec2.h'
p907
(lp908
I1
ag900
asS'c:/marmalade/6.2/modules/iwgeom/h/IwGeomIntersect.h'
p909
(lp910
I1
ag900
asS'c:/marmalade/6.2/modules/iwgeom/h/IwGeomFBBox.h'
p911
(lp912
I1
ag900
asS'c:/marmalade/6.2/modules/iwgeom/h/IwGeomLegacy.h'
p913
(lp914
I1
ag900
asS'c:/marmalade/6.2/modules/iwgeom/h/IwGeomSqrt.h'
p915
(lp916
I1
ag900
asS'c:/marmalade/6.2/modules/iwgeom/h/IwGeomFIntersect.h'
p917
(lp918
I1
ag900
asS'c:/marmalade/6.2/modules/iwgeom/h/IwGeomSVec4.h'
p919
(lp920
I1
ag900
asS'c:/marmalade/6.2/modules/iwgeom/h/IwGeomCore.h'
p921
(lp922
I1
ag900
asS'c:/marmalade/6.2/modules/iwgeom/h/IwGeomBBox.h'
p923
(lp924
I1
ag900
asS'c:/marmalade/6.2/modules/iwgeom/h/IwGeomVec4.h'
p925
(lp926
I1
ag900
asS'c:/marmalade/6.2/modules/iwgeom/h/IwGeomFPlane.h'
p927
(lp928
I1
ag900
asS'c:/marmalade/6.2/modules/iwgeom/docs/iwgeom.config.txt'
p929
(lp930
I1
ag900
asS'c:/marmalade/6.2/modules/iwgeom/h/IwGeomSQuat.h'
p931
(lp932
I1
ag900
asS'c:/marmalade/6.2/modules/iwgeom/iwgeom.mkf'
p933
(lp934
I1
a(dp935
asS'c:/marmalade/6.2/modules/iwgeom/h/IwGeomQuat.h'
p936
(lp937
I1
ag900
asS'c:/marmalade/6.2/modules/iwgeom/h/IwGeomMat2D.h'
p938
(lp939
I1
ag900
asS'c:/marmalade/6.2/modules/iwgeom/h/IwGeomFSphere.h'
p940
(lp941
I1
ag900
asS'c:/marmalade/6.2/modules/iwgeom/h/IwGeomSVec3.h'
p942
(lp943
I1
ag900
asS'c:/marmalade/6.2/modules/iwgeom/h/IwGeomSVec2.h'
p944
(lp945
I1
ag900
asS'c:/marmalade/6.2/modules/iwgeom/h/IwGeomSphere.h'
p946
(lp947
I1
ag900
asS'c:/marmalade/6.2/modules/iwgeom/h/IwGeomPlane.h'
p948
(lp949
I1
ag900
asS'c:/marmalade/6.2/modules/iwgeom/h/IwGeomFMat.h'
p950
(lp951
I1
ag900
asS'c:/marmalade/6.2/modules/iwgeom/h/IwGeomFVec2.h'
p952
(lp953
I1
ag900
asS'c:/marmalade/6.2/modules/iwgeom/h/IwGeomMat.h'
p954
(lp955
I1
ag900
asS'c:/marmalade/6.2/modules/iwgeom/h/IwGeomFQuat.h'
p956
(lp957
I1
ag900
asS'c:/marmalade/6.2/modules/iwgeom/h/IwGeomFMat2D.h'
p958
(lp959
I1
ag900
asS'c:/marmalade/6.2/modules/iwgeom/h/IwGeomVec.h'
p960
(lp961
I1
ag900
asS'c:/marmalade/6.2/modules/iwgeom/h/IwGeomVec3.h'
p962
(lp963
I1
ag900
assS'iwresmanager'
p964
(dp965
S'c:/marmalade/6.2/modules/iwresmanager/h/IwResSerialise.h'
p966
(lp967
I1
a(dp968
asS'c:/marmalade/6.2/modules/iwresmanager/h/IwResHandlerGROUP.h'
p969
(lp970
I1
ag968
asS'c:/marmalade/6.2/modules/iwresmanager/h/IwResManagerClass.h'
p971
(lp972
I1
ag968
asS'c:/marmalade/6.2/modules/iwresmanager/h/IwResHandlerImage.h'
p973
(lp974
I1
ag968
asS'c:/marmalade/6.2/modules/iwresmanager/docs/iwresmanager.config.txt'
p975
(lp976
I1
ag968
asS'c:/marmalade/6.2/modules/iwresmanager/h/IwResHandler.h'
p977
(lp978
I1
ag968
asS'c:/marmalade/6.2/modules/iwresmanager/iwresmanager.mkf'
p979
(lp980
I1
a(dp981
asS'c:/marmalade/6.2/modules/iwresmanager/h/IwResGroup.h'
p982
(lp983
I1
ag968
asS'c:/marmalade/6.2/modules/iwresmanager/h/IwResManager.h'
p984
(lp985
I1
ag968
asS'c:/marmalade/6.2/modules/iwresmanager/h/IwResHandlerITX.h'
p986
(lp987
I1
ag968
assS'iwgx'
p988
(dp989
S'c:/marmalade/6.2/modules/iwgx/h/IwGxFuncTable.h'
p990
(lp991
I1
a(dp992
asS'c:/marmalade/6.2/modules/iwgx/h/IwClip.inl'
p993
(lp994
I1
ag992
asS'c:/marmalade/6.2/modules/iwgx/h/IwGxTypes.h'
p995
(lp996
I1
ag992
asS'c:/marmalade/6.2/modules/iwgx/h/IwGxTransformSW.h'
p997
(lp998
I1
ag992
asS'c:/marmalade/6.2/modules/iwgx/docs/iwgx_public.defines.txt'
p999
(lp1000
I1
ag992
asS'c:/marmalade/6.2/modules/iwgx/h/IwDebugPrim.h'
p1001
(lp1002
I1
ag992
asS'c:/marmalade/6.2/modules/iwgx/h/IwResHandlerMTL.h'
p1003
(lp1004
I1
ag992
asS'c:/marmalade/6.2/modules/iwgx/docs/iwgx.config.txt'
p1005
(lp1006
I1
ag992
asS'c:/marmalade/6.2/modules/iwgx/h/IwGxDebug.h'
p1007
(lp1008
I1
ag992
asS'c:/marmalade/6.2/modules/iwgx/h/IwTexture.h'
p1009
(lp1010
I1
ag992
asS'c:/marmalade/6.2/modules/iwgx/h/IwFColour.h'
p1011
(lp1012
I1
ag992
asS'c:/marmalade/6.2/modules/iwgx/h/IwGxError.h'
p1013
(lp1014
I1
ag992
asS'c:/marmalade/6.2/modules/iwgx/h/IwColour.h'
p1015
(lp1016
I1
ag992
asS'c:/marmalade/6.2/modules/iwgx/h/IwMaterial.h'
p1017
(lp1018
I1
ag992
asS'c:/marmalade/6.2/modules/iwgx/h/IwGxPrint.h'
p1019
(lp1020
I1
ag992
asS'c:/marmalade/6.2/modules/iwgx/h/IwTPage.h'
p1021
(lp1022
I1
ag992
asS'c:/marmalade/6.2/modules/iwgx/iwgx.mkf'
p1023
(lp1024
I1
a(dp1025
asS'c:/marmalade/6.2/modules/iwgx/h/IwGxMetrics.h'
p1026
(lp1027
I1
ag992
asS'c:/marmalade/6.2/modules/iwgx/h/IwGxSurface.h'
p1028
(lp1029
I1
ag992
asS'c:/marmalade/6.2/modules/iwgx/h/IwGx.h'
p1030
(lp1031
I1
ag992
asS'c:/marmalade/6.2/modules/iwgx/h/IwGxShaderTechnique.h'
p1032
(lp1033
I1
ag992
asS'c:/marmalade/6.2/modules/iwgx/h/IwGxStream.h'
p1034
(lp1035
I1
ag992
asS'c:/marmalade/6.2/modules/iwgx/h/IwMatAnim.h'
p1036
(lp1037
I1
ag992
asS'c:/marmalade/6.2/modules/iwgx/h/IwClip.h'
p1038
(lp1039
I1
ag992
asS'c:/marmalade/6.2/modules/iwgx/h/IwGxState.h'
p1040
(lp1041
I1
ag992
assS'iwutil'
p1042
(dp1043
S'c:/marmalade/6.2/modules/iwutil/h/IwBuffer.h'
p1044
(lp1045
I1
a(dp1046
asS'c:/marmalade/6.2/modules/iwutil/h/IwResource.h'
p1047
(lp1048
I1
ag1046
asS'c:/marmalade/6.2/modules/iwutil/h/IwFile.h'
p1049
(lp1050
I1
ag1046
asS'c:/marmalade/6.2/modules/iwutil/docs/iwutil.config.txt'
p1051
(lp1052
I1
ag1046
asS'c:/marmalade/6.2/modules/iwutil/h/IwCore.h'
p1053
(lp1054
I1
ag1046
asS'c:/marmalade/6.2/modules/iwutil/h/IwOptimiseSpeed.h'
p1055
(lp1056
I1
ag1046
asS'c:/marmalade/6.2/modules/iwutil/h/IwSerialise.h'
p1057
(lp1058
I1
ag1046
asS'c:/marmalade/6.2/modules/iwutil/h/IwPath.h'
p1059
(lp1060
I1
ag1046
asS'c:/marmalade/6.2/modules/iwutil/h/IwImage.h'
p1061
(lp1062
I1
ag1046
asS'c:/marmalade/6.2/modules/iwutil/h/IwCopyingPtr.h'
p1063
(lp1064
I1
ag1046
asS'c:/marmalade/6.2/modules/iwutil/h/IwUtilInitTerm.h'
p1065
(lp1066
I1
ag1046
asS'c:/marmalade/6.2/modules/iwutil/h/IwOptimiseARM.h'
p1067
(lp1068
I1
ag1046
asS'c:/marmalade/6.2/modules/iwutil/h/IwMath.h'
p1069
(lp1070
I1
ag1046
asS'c:/marmalade/6.2/modules/iwutil/iwutil.mkf'
p1071
(lp1072
I1
a(dp1073
asS'c:/marmalade/6.2/modules/iwutil/h/IwUncopyable.h'
p1074
(lp1075
I1
ag1046
asS'c:/marmalade/6.2/modules/iwutil/h/IwDebug.h'
p1076
(lp1077
I1
ag1046
asS'c:/marmalade/6.2/modules/iwutil/h/IwSingleton.h'
p1078
(lp1079
I1
ag1046
asS'c:/marmalade/6.2/modules/iwutil/h/IwRandom.h'
p1080
(lp1081
I1
ag1046
asS'c:/marmalade/6.2/modules/iwutil/h/IwMemManagerDL.h'
p1082
(lp1083
I1
ag1046
asS'c:/marmalade/6.2/modules/iwutil/h/IwMemory.h'
p1084
(lp1085
I1
ag1046
asS'c:/marmalade/6.2/modules/iwutil/h/IwUtil.h'
p1086
(lp1087
I1
ag1046
asS'c:/marmalade/6.2/modules/iwutil/h/IwManagedList.h'
p1088
(lp1089
I1
ag1046
asS'c:/marmalade/6.2/modules/iwutil/h/IwMenu.h'
p1090
(lp1091
I1
ag1046
asS'c:/marmalade/6.2/modules/iwutil/h/IwArray.h'
p1092
(lp1093
I1
ag1046
asS'c:/marmalade/6.2/modules/iwutil/h/IwOptimiseSize.h'
p1094
(lp1095
I1
ag1046
asS'c:/marmalade/6.2/modules/iwutil/h/IwString.h'
p1096
(lp1097
I1
ag1046
asS'c:/marmalade/6.2/modules/iwutil/h/IwProfileMenu.h'
p1098
(lp1099
I1
ag1046
asS'c:/marmalade/6.2/modules/iwutil/h/IwKeymap.h'
p1100
(lp1101
I1
ag1046
asS'c:/marmalade/6.2/modules/iwutil/h/IwMemBucket.h'
p1102
(lp1103
I1
ag1046
asS'c:/marmalade/6.2/modules/iwutil/h/IwUTF8.h'
p1104
(lp1105
I1
ag1046
asS'c:/marmalade/6.2/modules/iwutil/h/IwRuntime.h'
p1106
(lp1107
I1
ag1046
asS'c:/marmalade/6.2/modules/iwutil/h/IwVariableBitField.h'
p1108
(lp1109
I1
ag1046
asS'c:/marmalade/6.2/modules/iwutil/h/IwOptimiseThumb.h'
p1110
(lp1111
I1
ag1046
asS'c:/marmalade/6.2/modules/iwutil/h/IwList.h'
p1112
(lp1113
I1
ag1046
asS'c:/marmalade/6.2/modules/iwutil/h/IwDivTable.h'
p1114
(lp1115
I1
ag1046
asS'c:/marmalade/6.2/modules/iwutil/h/IwMemBucketHelpers.h'
p1116
(lp1117
I1
ag1046
asS'c:/marmalade/6.2/modules/iwutil/h/IwClassFactory.h'
p1118
(lp1119
I1
ag1046
asS'c:/marmalade/6.2/modules/iwutil/h/IwAutoFile.h'
p1120
(lp1121
I1
ag1046
asS'c:/marmalade/6.2/modules/iwutil/h/IwAllocator.h'
p1122
(lp1123
I1
ag1046
asS'c:/marmalade/6.2/modules/iwutil/h/IwImageHelper.h'
p1124
(lp1125
I1
ag1046
asS'c:/marmalade/6.2/modules/iwutil/h/IwTextParserITX.h'
p1126
(lp1127
I1
ag1046
asS'c:/marmalade/6.2/modules/iwutil/h/IwTextParser.h'
p1128
(lp1129
I1
ag1046
asS'c:/marmalade/6.2/modules/iwutil/h/IwTextParseable.h'
p1130
(lp1131
I1
ag1046
asS'c:/marmalade/6.2/modules/iwutil/h/IwDivide.h'
p1132
(lp1133
I1
ag1046
asS'c:/marmalade/6.2/modules/iwutil/h/IwHashString.h'
p1134
(lp1135
I1
ag1046
asS'c:/marmalade/6.2/modules/iwutil/h/IwTypes.h'
p1136
(lp1137
I1
ag1046
asS'c:/marmalade/6.2/modules/iwutil/h/IwManaged.h'
p1138
(lp1139
I1
ag1046
asS'c:/marmalade/6.2/modules/iwutil/h/IwEvent.h'
p1140
(lp1141
I1
ag1046
asS'c:/marmalade/6.2/modules/iwutil/h/IwChar.h'
p1142
(lp1143
I1
ag1046
asS'c:/marmalade/6.2/modules/iwutil/h/IwFibre.h'
p1144
(lp1145
I1
ag1046
asssS'(zlib)'
p1146
(dp1147
Vc:/users/1106786/appdata/roaming/marmalade/packages/6.2.2/zlib_1.2.4/h/zconf.h
p1148
(lp1149
I1
a(dp1150
asVc:/users/1106786/appdata/roaming/marmalade/packages/6.2.2/zlib_1.2.4/h/zlib.h
p1151
(lp1152
I1
ag1150
asVc:/users/1106786/appdata/roaming/marmalade/packages/6.2.2/zlib_1.2.4/zlib.mkf
p1153
(lp1154
I1
a(dp1155
asssS'files'
p1156
(dp1157
S'IwGxFontPreparedData.h'
p1158
g238
(cmkb_main
File
p1159
g240
Ntp1160
Rp1161
(dp1162
S'flags'
p1163
g878
sS'group'
p1164
(lp1165
S"'Marmalade Studio'"
p1166
ag874
asg268
g886
sbsS'iterator'
p1167
g238
(g1159
g240
Ntp1168
Rp1169
(dp1170
g1163
(dp1171
sg1164
(lp1172
S"'Marmalade System (S3E)'"
p1173
aS'stdc headers'
p1174
aS'c++'
p1175
asg268
S'c:/marmalade/6.2/s3e/h/std/c++/iterator'
p1176
sbsS'IwGeomPlane.h'
p1177
g238
(g1159
g240
Ntp1178
Rp1179
(dp1180
g1163
g900
sg1164
(lp1181
S"'Marmalade Studio'"
p1182
ag896
asg268
g948
sbsS's3e.h'
p1183
g238
(g1159
g240
Ntp1184
Rp1185
(dp1186
g1163
g1171
sg1164
(lp1187
g1173
asg268
S'c:/marmalade/6.2/s3e/h/s3e.h'
p1188
sbsS'errno.h'
p1189
g238
(g1159
g240
Ntp1190
Rp1191
(dp1192
g1163
g1171
sg1164
(lp1193
g1173
aS'stdc headers'
p1194
asg268
S'c:/marmalade/6.2/s3e/h/std/errno.h'
p1195
sbsS'IwSingleton.h'
p1196
g238
(g1159
g240
Ntp1197
Rp1198
(dp1199
g1163
g1046
sg1164
(lp1200
S"'Marmalade Studio'"
p1201
ag1042
asg268
g1078
sbsS'dlfcn.h'
p1202
g238
(g1159
g240
Ntp1203
Rp1204
(dp1205
g1163
g1171
sg1164
g1193
sg268
S'c:/marmalade/6.2/s3e/h/std/dlfcn.h'
p1206
sbsS'stdio_streambuf'
p1207
g238
(g1159
g240
Ntp1208
Rp1209
(dp1210
g1163
g1171
sg1164
g1172
sg268
S'c:/marmalade/6.2/s3e/h/std/c++/stdio_streambuf'
p1211
sbsS'sched.h'
p1212
g238
(g1159
g240
Ntp1213
Rp1214
(dp1215
g1163
g1171
sg1164
g1193
sg268
S'c:/marmalade/6.2/s3e/h/std/sched.h'
p1216
sbsS'IwGeomFMat2D.h'
p1217
g238
(g1159
g240
Ntp1218
Rp1219
(dp1220
g1163
g900
sg1164
g1181
sg268
g958
sbsS's3eExt.h'
p1221
g238
(g1159
g240
Ntp1222
Rp1223
(dp1224
g1163
g1171
sg1164
g1187
sg268
S'c:/marmalade/6.2/s3e/h/s3eExt.h'
p1225
sbsS'grp.h'
p1226
g238
(g1159
g240
Ntp1227
Rp1228
(dp1229
g1163
g1171
sg1164
g1193
sg268
S'c:/marmalade/6.2/s3e/h/std/grp.h'
p1230
sbsS'list'
p1231
g238
(g1159
g240
Ntp1232
Rp1233
(dp1234
g1163
g1171
sg1164
g1172
sg268
S'c:/marmalade/6.2/s3e/h/std/c++/list'
p1235
sbsS'istream'
p1236
g238
(g1159
g240
Ntp1237
Rp1238
(dp1239
g1163
g1171
sg1164
g1172
sg268
S'c:/marmalade/6.2/s3e/h/std/c++/istream'
p1240
sbsVjpeglib.h
p1241
g238
(g1159
g240
Ntp1242
Rp1243
(dp1244
g1163
g754
sg1164
(lp1245
g750
asg268
g774
sbsS'iw2d_public.defines.txt'
p1246
g238
(g1159
g240
Ntp1247
Rp1248
(dp1249
g1163
g866
sg1164
(lp1250
S"'Marmalade Studio'"
p1251
ag862
asg268
g867
sbsS'iostream.h'
p1252
g238
(g1159
g240
Ntp1253
Rp1254
(dp1255
g1163
g1171
sg1164
g1172
sg268
S'c:/marmalade/6.2/s3e/h/std/c++/iostream.h'
p1256
sbsS'string'
p1257
g238
(g1159
g240
Ntp1258
Rp1259
(dp1260
g1163
g1171
sg1164
g1172
sg268
S'c:/marmalade/6.2/s3e/h/std/c++/string'
p1261
sbsS'IwMemory.h'
p1262
g238
(g1159
g240
Ntp1263
Rp1264
(dp1265
g1163
g1046
sg1164
g1200
sg268
g1084
sbsS'IwGL.h'
p1266
g238
(g1159
g240
Ntp1267
Rp1268
(dp1269
g1163
g854
sg1164
(lp1270
S"'Marmalade Studio'"
p1271
ag850
asg268
g857
sbsS'resmgr.h'
p1272
g238
(g1159
g240
Ntp1273
Rp1274
(dp1275
g1163
g800
sg1164
(lp1276
g794
ag796
asg268
g823
sbsS'iw2d.config.txt'
p1277
g238
(g1159
g240
Ntp1278
Rp1279
(dp1280
g1163
g866
sg1164
g1250
sg268
g869
sbsS'iomanip'
p1281
g238
(g1159
g240
Ntp1282
Rp1283
(dp1284
g1163
g1171
sg1164
g1172
sg268
S'c:/marmalade/6.2/s3e/h/std/c++/iomanip'
p1285
sbsS'iwgeom.mkf'
p1286
g238
(g1159
g240
Ntp1287
Rp1288
(dp1289
g1163
g935
sg1164
g1181
sg268
g933
sbsS'IwGxError.h'
p1290
g238
(g1159
g240
Ntp1291
Rp1292
(dp1293
g1163
g992
sg1164
(lp1294
S"'Marmalade Studio'"
p1295
ag988
asg268
g1013
sbsS'IwGeom.h'
p1296
g238
(g1159
g240
Ntp1297
Rp1298
(dp1299
g1163
g900
sg1164
g1181
sg268
g903
sbsS'IwGeomVec4.h'
p1300
g238
(g1159
g240
Ntp1301
Rp1302
(dp1303
g1163
g900
sg1164
g1181
sg268
g925
sbsS'dir.h'
p1304
g238
(g1159
g240
Ntp1305
Rp1306
(dp1307
g1163
g1171
sg1164
(lp1308
g1173
aS'stdc headers'
p1309
aS'sys'
p1310
asg268
S'c:/marmalade/6.2/s3e/h/std/sys/dir.h'
p1311
sbsS'locale.h'
p1312
g238
(g1159
g240
Ntp1313
Rp1314
(dp1315
g1163
g1171
sg1164
g1193
sg268
S'c:/marmalade/6.2/s3e/h/std/locale.h'
p1316
sbsS'vector'
p1317
g238
(g1159
g240
Ntp1318
Rp1319
(dp1320
g1163
g1171
sg1164
g1172
sg268
S'c:/marmalade/6.2/s3e/h/std/c++/vector'
p1321
sbsS'IwManaged.h'
p1322
g238
(g1159
g240
Ntp1323
Rp1324
(dp1325
g1163
g1046
sg1164
g1200
sg268
g1138
sbsS's3eCompass.h'
p1326
g238
(g1159
g240
Ntp1327
Rp1328
(dp1329
g1163
g1171
sg1164
g1187
sg268
S'c:/marmalade/6.2/s3e/h/s3eCompass.h'
p1330
sbsVcderror.h
p1331
g238
(g1159
g240
Ntp1332
Rp1333
(dp1334
g1163
g754
sg1164
g1245
sg268
g759
sbsS'climits'
p1335
g238
(g1159
g240
Ntp1336
Rp1337
(dp1338
g1163
g1171
sg1164
g1172
sg268
S'c:/marmalade/6.2/s3e/h/std/c++/climits'
p1339
sbsS's3eVibra.h'
p1340
g238
(g1159
g240
Ntp1341
Rp1342
(dp1343
g1163
g1171
sg1164
g1187
sg268
S'c:/marmalade/6.2/s3e/h/s3eVibra.h'
p1344
sbsVjversion.h
p1345
g238
(g1159
g240
Ntp1346
Rp1347
(dp1348
g1163
g754
sg1164
g1245
sg268
g768
sbsS'fnmatch.h'
p1349
g238
(g1159
g240
Ntp1350
Rp1351
(dp1352
g1163
g1171
sg1164
g1193
sg268
S'c:/marmalade/6.2/s3e/h/std/fnmatch.h'
p1353
sbsS'IwGxState.h'
p1354
g238
(g1159
g240
Ntp1355
Rp1356
(dp1357
g1163
g992
sg1164
g1294
sg268
g1040
sbsS's3eAudio.h'
p1358
g238
(g1159
g240
Ntp1359
Rp1360
(dp1361
g1163
g1171
sg1164
g1187
sg268
S'c:/marmalade/6.2/s3e/h/s3eAudio.h'
p1362
sbsS's3eSurface.h'
p1363
g238
(g1159
g240
Ntp1364
Rp1365
(dp1366
g1163
g1171
sg1164
g1187
sg268
S'c:/marmalade/6.2/s3e/h/s3eSurface.h'
p1367
sbsS'new'
p1368
g238
(g1159
g240
Ntp1369
Rp1370
(dp1371
g1163
g1171
sg1164
g1172
sg268
S'c:/marmalade/6.2/s3e/h/std/c++/new'
p1372
sbsS's3eWindow.h'
p1373
g238
(g1159
g240
Ntp1374
Rp1375
(dp1376
g1163
g1171
sg1164
(lp1377
g1173
aS'Extensions'
p1378
asg268
S'c:/marmalade/6.2/s3e/h/ext/s3eWindow.h'
p1379
sbsS'IwBuffer.h'
p1380
g238
(g1159
g240
Ntp1381
Rp1382
(dp1383
g1163
g1046
sg1164
g1200
sg268
g1044
sbsS's3eOSExec.h'
p1384
g238
(g1159
g240
Ntp1385
Rp1386
(dp1387
g1163
g1171
sg1164
g1377
sg268
S'c:/marmalade/6.2/s3e/h/ext/s3eOSExec.h'
p1388
sbsS'IwGxTransformSW.h'
p1389
g238
(g1159
g240
Ntp1390
Rp1391
(dp1392
g1163
g992
sg1164
g1294
sg268
g997
sbsS'maze.cpp'
p1393
g238
(g1159
g240
Ntp1394
Rp1395
(dp1396
g1163
g800
sg1164
g1276
sg268
g835
sbsS'imgs.group'
p1397
g238
(g1159
g240
Ntp1398
Rp1399
(dp1400
g1163
g800
sg1164
(lp1401
g794
ag841
asg268
g843
sbsS'unistd.h'
p1402
g238
(g1159
g240
Ntp1403
Rp1404
(dp1405
g1163
g1171
sg1164
g1193
sg268
S'c:/marmalade/6.2/s3e/h/std/unistd.h'
p1406
sbsS'iwgxfont.config.txt'
p1407
g238
(g1159
g240
Ntp1408
Rp1409
(dp1410
g1163
g878
sg1164
g1165
sg268
g892
sbsS'gl2platform.h'
p1411
g238
(g1159
g240
Ntp1412
Rp1413
(dp1414
g1163
g1171
sg1164
(lp1415
g1173
aS'GL'
p1416
aS'GLES 2.0'
p1417
asg268
S'c:/marmalade/6.2/s3e/h/GLES2/gl2platform.h'
p1418
sbsS'IwResManagerClass.h'
p1419
g238
(g1159
g240
Ntp1420
Rp1421
(dp1422
g1163
g968
sg1164
(lp1423
g848
ag964
asg268
g971
sbsS'queue'
p1424
g238
(g1159
g240
Ntp1425
Rp1426
(dp1427
g1163
g1171
sg1164
g1172
sg268
S'c:/marmalade/6.2/s3e/h/std/c++/queue'
p1428
sbsS'time_1.h'
p1429
g238
(g1159
g240
Ntp1430
Rp1431
(dp1432
g1163
g1171
sg1164
g1308
sg268
S'c:/marmalade/6.2/s3e/h/std/sys/time.h'
p1433
sbsS'Iw2D.h'
p1434
g238
(g1159
g240
Ntp1435
Rp1436
(dp1437
g1163
g866
sg1164
g1250
sg268
g864
sbsS'IwGeomVec2.h'
p1438
g238
(g1159
g240
Ntp1439
Rp1440
(dp1441
g1163
g900
sg1164
g1181
sg268
g907
sbsS's3eDevice.h'
p1442
g238
(g1159
g240
Ntp1443
Rp1444
(dp1445
g1163
g1171
sg1164
g1187
sg268
S'c:/marmalade/6.2/s3e/h/s3eDevice.h'
p1446
sbsS'resmgr.cpp'
p1447
g238
(g1159
g240
Ntp1448
Rp1449
(dp1450
g1163
g800
sg1164
g1276
sg268
g815
sbsS'malloc.h'
p1451
g238
(g1159
g240
Ntp1452
Rp1453
(dp1454
g1163
g1171
sg1164
g1193
sg268
S'c:/marmalade/6.2/s3e/h/std/malloc.h'
p1455
sbsS'stdarg.h'
p1456
g238
(g1159
g240
Ntp1457
Rp1458
(dp1459
g1163
g1171
sg1164
g1193
sg268
S'c:/marmalade/6.2/s3e/h/std/stdarg.h'
p1460
sbsS'IwGeomCore.h'
p1461
g238
(g1159
g240
Ntp1462
Rp1463
(dp1464
g1163
g900
sg1164
g1181
sg268
g921
sbsS'endian.h'
p1465
g238
(g1159
g240
Ntp1466
Rp1467
(dp1468
g1163
g1171
sg1164
g1193
sg268
S'c:/marmalade/6.2/s3e/h/std/endian.h'
p1469
sbsS'glob.h'
p1470
g238
(g1159
g240
Ntp1471
Rp1472
(dp1473
g1163
g1171
sg1164
g1193
sg268
S'c:/marmalade/6.2/s3e/h/std/glob.h'
p1474
sbsS'fstream'
p1475
g238
(g1159
g240
Ntp1476
Rp1477
(dp1478
g1163
g1171
sg1164
g1172
sg268
S'c:/marmalade/6.2/s3e/h/std/c++/fstream'
p1479
sbsS's3eCamera.h'
p1480
g238
(g1159
g240
Ntp1481
Rp1482
(dp1483
g1163
g1171
sg1164
g1187
sg268
S'c:/marmalade/6.2/s3e/h/s3eCamera.h'
p1484
sbsVjconfig.h
p1485
g238
(g1159
g240
Ntp1486
Rp1487
(dp1488
g1163
g754
sg1164
g1245
sg268
g757
sbsS'memory'
p1489
g238
(g1159
g240
Ntp1490
Rp1491
(dp1492
g1163
g1171
sg1164
g1172
sg268
S'c:/marmalade/6.2/s3e/h/std/c++/memory'
p1493
sbsS'egl.h'
p1494
g238
(g1159
g240
Ntp1495
Rp1496
(dp1497
g1163
g1171
sg1164
(lp1498
g1173
aS'GL'
p1499
aS'EGL'
p1500
asg268
S'c:/marmalade/6.2/s3e/h/EGL/egl.h'
p1501
sbsS'IwClip.inl'
p1502
g238
(g1159
g240
Ntp1503
Rp1504
(dp1505
g1163
g992
sg1164
g1294
sg268
g993
sbsS'IwMemManagerDL.h'
p1506
g238
(g1159
g240
Ntp1507
Rp1508
(dp1509
g1163
g1046
sg1164
g1200
sg268
g1082
sbsS'deque'
p1510
g238
(g1159
g240
Ntp1511
Rp1512
(dp1513
g1163
g1171
sg1164
g1172
sg268
S'c:/marmalade/6.2/s3e/h/std/c++/deque'
p1514
sbsS'IwString.h'
p1515
g238
(g1159
g240
Ntp1516
Rp1517
(dp1518
g1163
g1046
sg1164
g1200
sg268
g1096
sbsS'cwchar'
p1519
g238
(g1159
g240
Ntp1520
Rp1521
(dp1522
g1163
g1171
sg1164
g1172
sg268
S'c:/marmalade/6.2/s3e/h/std/c++/cwchar'
p1523
sbsS'iwutil.mkf'
p1524
g238
(g1159
g240
Ntp1525
Rp1526
(dp1527
g1163
g1073
sg1164
g1200
sg268
g1071
sbsS'csignal'
p1528
g238
(g1159
g240
Ntp1529
Rp1530
(dp1531
g1163
g1171
sg1164
g1172
sg268
S'c:/marmalade/6.2/s3e/h/std/c++/csignal'
p1532
sbsS'float.h'
p1533
g238
(g1159
g240
Ntp1534
Rp1535
(dp1536
g1163
g1171
sg1164
g1193
sg268
S'c:/marmalade/6.2/s3e/h/std/float.h'
p1537
sbsS'pthread_alloc'
p1538
g238
(g1159
g240
Ntp1539
Rp1540
(dp1541
g1163
g1171
sg1164
g1172
sg268
S'c:/marmalade/6.2/s3e/h/std/c++/pthread_alloc'
p1542
sbsS'getopt.h'
p1543
g238
(g1159
g240
Ntp1544
Rp1545
(dp1546
g1163
g1171
sg1164
g1193
sg268
S'c:/marmalade/6.2/s3e/h/std/getopt.h'
p1547
sbsS'IwOptimiseARM.h'
p1548
g238
(g1159
g240
Ntp1549
Rp1550
(dp1551
g1163
g1046
sg1164
g1200
sg268
g1067
sbsS'times.h'
p1552
g238
(g1159
g240
Ntp1553
Rp1554
(dp1555
g1163
g1171
sg1164
g1308
sg268
S'c:/marmalade/6.2/s3e/h/std/sys/times.h'
p1556
sbsS'IwGeomFSphere.h'
p1557
g238
(g1159
g240
Ntp1558
Rp1559
(dp1560
g1163
g900
sg1164
g1181
sg268
g940
sbsS'game.h'
p1561
g238
(g1159
g240
Ntp1562
Rp1563
(dp1564
g1163
g800
sg1164
g1276
sg268
g837
sbsS'functional'
p1565
g238
(g1159
g240
Ntp1566
Rp1567
(dp1568
g1163
g1171
sg1164
g1172
sg268
S'c:/marmalade/6.2/s3e/h/std/c++/functional'
p1569
sbsS'IwTypes.h'
p1570
g238
(g1159
g240
Ntp1571
Rp1572
(dp1573
g1163
g1046
sg1164
g1200
sg268
g1136
sbsS'IwGxMetrics.h'
p1574
g238
(g1159
g240
Ntp1575
Rp1576
(dp1577
g1163
g992
sg1164
g1294
sg268
g1026
sbsS'audio.cpp'
p1578
g238
(g1159
g240
Ntp1579
Rp1580
(dp1581
g1163
g800
sg1164
g1276
sg268
g801
sbsS's3eCompression.h'
p1582
g238
(g1159
g240
Ntp1583
Rp1584
(dp1585
g1163
g1171
sg1164
g1187
sg268
S'c:/marmalade/6.2/s3e/h/s3eCompression.h'
p1586
sbsS'langinfo.h'
p1587
g238
(g1159
g240
Ntp1588
Rp1589
(dp1590
g1163
g1171
sg1164
g1193
sg268
S'c:/marmalade/6.2/s3e/h/std/langinfo.h'
p1591
sbsS's3edebugHeap.h'
p1592
g238
(g1159
g240
Ntp1593
Rp1594
(dp1595
g1163
g1171
sg1164
g1377
sg268
S'c:/marmalade/6.2/s3e/h/ext/s3edebugHeap.h'
p1596
sbsS'AirplayVersion.h'
p1597
g238
(g1159
g240
Ntp1598
Rp1599
(dp1600
g1163
g1171
sg1164
g1187
sg268
S'c:/marmalade/6.2/s3e/h/AirplayVersion.h'
p1601
sbsS'gl2extimg.h'
p1602
g238
(g1159
g240
Ntp1603
Rp1604
(dp1605
g1163
g1171
sg1164
g1415
sg268
S'c:/marmalade/6.2/s3e/h/GLES2/gl2extimg.h'
p1606
sbsS'app.config.txt'
p1607
g238
(g1159
g240
Ntp1608
Rp1609
(dp1610
g1163
(dp1611
sg1164
g4
sg268
S'c:/Users/1106786/Dropbox/Dropbox/PG life/Project Impact/Code/Demos/Demo_3_ResMan_Audio_LoadTile/data/app.config.txt'
p1612
sbsS'IwGeomSqrt.h'
p1613
g238
(g1159
g240
Ntp1614
Rp1615
(dp1616
g1163
g900
sg1164
g1181
sg268
g915
sbsVtiniconv_int.h
p1617
g238
(g1159
g240
Ntp1618
Rp1619
(dp1620
g1163
g791
sg1164
(lp1621
g784
asg268
g792
sbsS'syslog.h'
p1622
g238
(g1159
g240
Ntp1623
Rp1624
(dp1625
g1163
g1171
sg1164
g1193
sg268
S'c:/marmalade/6.2/s3e/h/std/syslog.h'
p1626
sbsS'IwGxFontTypes.h'
p1627
g238
(g1159
g240
Ntp1628
Rp1629
(dp1630
g1163
g878
sg1164
g1165
sg268
g890
sbsS'IwGeomFIntersect.h'
p1631
g238
(g1159
g240
Ntp1632
Rp1633
(dp1634
g1163
g900
sg1164
g1181
sg268
g917
sbsS'hash_map'
p1635
g238
(g1159
g240
Ntp1636
Rp1637
(dp1638
g1163
g1171
sg1164
g1172
sg268
S'c:/marmalade/6.2/s3e/h/std/c++/hash_map'
p1639
sbsS's3e.mkf'
p1640
g238
(g1159
g240
Ntp1641
Rp1642
(dp1643
g1163
(dp1644
sg1164
g1187
sg268
S'c:/marmalade/6.2/s3e/s3e.mkf'
p1645
sbsS's3eOSReadString.h'
p1646
g238
(g1159
g240
Ntp1647
Rp1648
(dp1649
g1163
g1171
sg1164
g1377
sg268
S'c:/marmalade/6.2/s3e/h/ext/s3eOSReadString.h'
p1650
sbsS'map'
p1651
g238
(g1159
g240
Ntp1652
Rp1653
(dp1654
g1163
g1171
sg1164
g1172
sg268
S'c:/marmalade/6.2/s3e/h/std/c++/map'
p1655
sbsS'IwOptimiseSpeed.h'
p1656
g238
(g1159
g240
Ntp1657
Rp1658
(dp1659
g1163
g1046
sg1164
g1200
sg268
g1055
sbsS'msl_string.h'
p1660
g238
(g1159
g240
Ntp1661
Rp1662
(dp1663
g1163
g1171
sg1164
g1172
sg268
S'c:/marmalade/6.2/s3e/h/std/c++/msl_string.h'
p1664
sbsS'select.h'
p1665
g238
(g1159
g240
Ntp1666
Rp1667
(dp1668
g1163
g1171
sg1164
g1308
sg268
S'c:/marmalade/6.2/s3e/h/std/sys/select.h'
p1669
sbsVzlib.mkf
p1670
g238
(g1159
g240
Ntp1671
Rp1672
(dp1673
g1163
g1155
sg1164
(lp1674
g1146
asg268
g1153
sbsS'signal.h'
p1675
g238
(g1159
g240
Ntp1676
Rp1677
(dp1678
g1163
g1171
sg1164
g1193
sg268
S'c:/marmalade/6.2/s3e/h/std/signal.h'
p1679
sbsS'iwgl.config.txt'
p1680
g238
(g1159
g240
Ntp1681
Rp1682
(dp1683
g1163
g854
sg1164
g1270
sg268
g855
sbsVlibpng.mkf
p1684
g238
(g1159
g240
Ntp1685
Rp1686
(dp1687
g1163
g744
sg1164
(lp1688
g740
asg268
g742
sbsS's3eClipboard.h'
p1689
g238
(g1159
g240
Ntp1690
Rp1691
(dp1692
g1163
g1171
sg1164
g1187
sg268
S'c:/marmalade/6.2/s3e/h/s3eClipboard.h'
p1693
sbsS'IwGxFuncTable.h'
p1694
g238
(g1159
g240
Ntp1695
Rp1696
(dp1697
g1163
g992
sg1164
g1294
sg268
g990
sbsS'IwResHandlerGROUP.h'
p1698
g238
(g1159
g240
Ntp1699
Rp1700
(dp1701
g1163
g968
sg1164
g1423
sg268
g969
sbsS's3eDebug.h'
p1702
g238
(g1159
g240
Ntp1703
Rp1704
(dp1705
g1163
g1171
sg1164
g1187
sg268
S'c:/marmalade/6.2/s3e/h/s3eDebug.h'
p1706
sbsS'socket.h'
p1707
g238
(g1159
g240
Ntp1708
Rp1709
(dp1710
g1163
g1171
sg1164
g1308
sg268
S'c:/marmalade/6.2/s3e/h/std/sys/socket.h'
p1711
sbsS'glext.h'
p1712
g238
(g1159
g240
Ntp1713
Rp1714
(dp1715
g1163
g1171
sg1164
(lp1716
g1173
aS'GL'
p1717
aS'GLES 1.x'
p1718
asg268
S'c:/marmalade/6.2/s3e/h/GLES/glext.h'
p1719
sbsS'typeinfo.h'
p1720
g238
(g1159
g240
Ntp1721
Rp1722
(dp1723
g1163
g1171
sg1164
g1172
sg268
S'c:/marmalade/6.2/s3e/h/std/c++/typeinfo.h'
p1724
sbsS'typeinfo'
p1725
g238
(g1159
g240
Ntp1726
Rp1727
(dp1728
g1163
g1171
sg1164
g1172
sg268
S'c:/marmalade/6.2/s3e/h/std/c++/typeinfo'
p1729
sbsS'fstream.h'
p1730
g238
(g1159
g240
Ntp1731
Rp1732
(dp1733
g1163
g1171
sg1164
g1172
sg268
S'c:/marmalade/6.2/s3e/h/std/c++/fstream.h'
p1734
sbsS's3ePointer.h'
p1735
g238
(g1159
g240
Ntp1736
Rp1737
(dp1738
g1163
g1171
sg1164
g1187
sg268
S'c:/marmalade/6.2/s3e/h/s3ePointer.h'
p1739
sbsS'iw2d.mkf'
p1740
g238
(g1159
g240
Ntp1741
Rp1742
(dp1743
g1163
g873
sg1164
g1250
sg268
g871
sbsS's3eGL.h'
p1744
g238
(g1159
g240
Ntp1745
Rp1746
(dp1747
g1163
g1171
sg1164
g1187
sg268
S'c:/marmalade/6.2/s3e/h/s3eGL.h'
p1748
sbsS'IwGeomFVec2.h'
p1749
g238
(g1159
g240
Ntp1750
Rp1751
(dp1752
g1163
g900
sg1164
g1181
sg268
g952
sbsS'IwGeomSVec4.h'
p1753
g238
(g1159
g240
Ntp1754
Rp1755
(dp1756
g1163
g900
sg1164
g1181
sg268
g919
sbsS'poll.h'
p1757
g238
(g1159
g240
Ntp1758
Rp1759
(dp1760
g1163
g1171
sg1164
g1193
sg268
S'c:/marmalade/6.2/s3e/h/std/poll.h'
p1761
sbsS'IwMatAnim.h'
p1762
g238
(g1159
g240
Ntp1763
Rp1764
(dp1765
g1163
g992
sg1164
g1294
sg268
g1036
sbsS'IwGeomFVec4.h'
p1766
g238
(g1159
g240
Ntp1767
Rp1768
(dp1769
g1163
g900
sg1164
g1181
sg268
g905
sbsS'IwGx.h'
p1770
g238
(g1159
g240
Ntp1771
Rp1772
(dp1773
g1163
g992
sg1164
g1294
sg268
g1030
sbsS'valarray'
p1774
g238
(g1159
g240
Ntp1775
Rp1776
(dp1777
g1163
g1171
sg1164
g1172
sg268
S'c:/marmalade/6.2/s3e/h/std/c++/valarray'
p1778
sbsS'iosfwd'
p1779
g238
(g1159
g240
Ntp1780
Rp1781
(dp1782
g1163
g1171
sg1164
g1172
sg268
S'c:/marmalade/6.2/s3e/h/std/c++/iosfwd'
p1783
sbsS'gl2.h'
p1784
g238
(g1159
g240
Ntp1785
Rp1786
(dp1787
g1163
g1171
sg1164
g1415
sg268
S'c:/marmalade/6.2/s3e/h/GLES2/gl2.h'
p1788
sbsS'IwManagedList.h'
p1789
g238
(g1159
g240
Ntp1790
Rp1791
(dp1792
g1163
g1046
sg1164
g1200
sg268
g1088
sbsS'stdiostream.h'
p1793
g238
(g1159
g240
Ntp1794
Rp1795
(dp1796
g1163
g1171
sg1164
g1172
sg268
S'c:/marmalade/6.2/s3e/h/std/c++/stdiostream.h'
p1797
sbsS'mem.h'
p1798
g238
(g1159
g240
Ntp1799
Rp1800
(dp1801
g1163
g1171
sg1164
g1172
sg268
S'c:/marmalade/6.2/s3e/h/std/c++/mem.h'
p1802
sbsVjerror.h
p1803
g238
(g1159
g240
Ntp1804
Rp1805
(dp1806
g1163
g754
sg1164
g1245
sg268
g761
sbsVzconf.h
p1807
g238
(g1159
g240
Ntp1808
Rp1809
(dp1810
g1163
g1150
sg1164
g1674
sg268
g1148
sbsS's3e.config.txt'
p1811
g238
(g1159
g240
Ntp1812
Rp1813
(dp1814
g1163
g1171
sg1164
g1187
sg268
S'c:/marmalade/6.2/s3e/s3e.config.txt'
p1815
sbsS'numeric'
p1816
g238
(g1159
g240
Ntp1817
Rp1818
(dp1819
g1163
g1171
sg1164
g1172
sg268
S'c:/marmalade/6.2/s3e/h/std/c++/numeric'
p1820
sbsS'utime.h'
p1821
g238
(g1159
g240
Ntp1822
Rp1823
(dp1824
g1163
g1171
sg1164
g1193
sg268
S'c:/marmalade/6.2/s3e/h/std/utime.h'
p1825
sbsVjdhuff.h
p1826
g238
(g1159
g240
Ntp1827
Rp1828
(dp1829
g1163
g754
sg1164
g1245
sg268
g776
sbsS'tiles.h'
p1830
g238
(g1159
g240
Ntp1831
Rp1832
(dp1833
g1163
g800
sg1164
g1276
sg268
g821
sbsS'character.h'
p1834
g238
(g1159
g240
Ntp1835
Rp1836
(dp1837
g1163
g800
sg1164
g1276
sg268
g805
sbsS'IwGxStream.h'
p1838
g238
(g1159
g240
Ntp1839
Rp1840
(dp1841
g1163
g992
sg1164
g1294
sg268
g1034
sbsS'IwImage.h'
p1842
g238
(g1159
g240
Ntp1843
Rp1844
(dp1845
g1163
g1046
sg1164
g1200
sg268
g1061
sbsS's3eImagePicker.h'
p1846
g238
(g1159
g240
Ntp1847
Rp1848
(dp1849
g1163
g1171
sg1164
g1377
sg268
S'c:/marmalade/6.2/s3e/h/ext/s3eImagePicker.h'
p1850
sbsS'IwTextParserITX.h'
p1851
g238
(g1159
g240
Ntp1852
Rp1853
(dp1854
g1163
g1046
sg1164
g1200
sg268
g1126
sbsS'stdlib.h'
p1855
g238
(g1159
g240
Ntp1856
Rp1857
(dp1858
g1163
g1171
sg1164
g1193
sg268
S'c:/marmalade/6.2/s3e/h/std/stdlib.h'
p1859
sbsS'IwCopyingPtr.h'
p1860
g238
(g1159
g240
Ntp1861
Rp1862
(dp1863
g1163
g1046
sg1164
g1200
sg268
g1063
sbsS'iostream'
p1864
g238
(g1159
g240
Ntp1865
Rp1866
(dp1867
g1163
g1171
sg1164
g1172
sg268
S'c:/marmalade/6.2/s3e/h/std/c++/iostream'
p1868
sbsVpng.h
p1869
g238
(g1159
g240
Ntp1870
Rp1871
(dp1872
g1163
g747
sg1164
g1688
sg268
g745
sbsS'stddef.h'
p1873
g238
(g1159
g240
Ntp1874
Rp1875
(dp1876
g1163
g1171
sg1164
g1193
sg268
S'c:/marmalade/6.2/s3e/h/std/stddef.h'
p1877
sbsS'character.cpp'
p1878
g238
(g1159
g240
Ntp1879
Rp1880
(dp1881
g1163
g800
sg1164
g1276
sg268
g831
sbsS'setjmp_win32.h'
p1882
g238
(g1159
g240
Ntp1883
Rp1884
(dp1885
g1163
g1171
sg1164
g1193
sg268
S'c:/marmalade/6.2/s3e/h/std/setjmp_win32.h'
p1886
sbsS'IwGxPrint.h'
p1887
g238
(g1159
g240
Ntp1888
Rp1889
(dp1890
g1163
g992
sg1164
g1294
sg268
g1019
sbsS'IwGeomSVec2.h'
p1891
g238
(g1159
g240
Ntp1892
Rp1893
(dp1894
g1163
g900
sg1164
g1181
sg268
g944
sbsS'streambuf.h'
p1895
g238
(g1159
g240
Ntp1896
Rp1897
(dp1898
g1163
g1171
sg1164
g1172
sg268
S'c:/marmalade/6.2/s3e/h/std/c++/streambuf.h'
p1899
sbsS'IwGeomFPlane.h'
p1900
g238
(g1159
g240
Ntp1901
Rp1902
(dp1903
g1163
g900
sg1164
g1181
sg268
g927
sbsS'wchar.h'
p1904
g238
(g1159
g240
Ntp1905
Rp1906
(dp1907
g1163
g1171
sg1164
g1193
sg268
S'c:/marmalade/6.2/s3e/h/std/wchar.h'
p1908
sbsS's3eCameraCapture.h'
p1909
g238
(g1159
g240
Ntp1910
Rp1911
(dp1912
g1163
g1171
sg1164
g1377
sg268
S'c:/marmalade/6.2/s3e/h/ext/s3eCameraCapture.h'
p1913
sbsS'eglext.h'
p1914
g238
(g1159
g240
Ntp1915
Rp1916
(dp1917
g1163
g1171
sg1164
g1498
sg268
S'c:/marmalade/6.2/s3e/h/EGL/eglext.h'
p1918
sbsS'IwResHandlerImage.h'
p1919
g238
(g1159
g240
Ntp1920
Rp1921
(dp1922
g1163
g968
sg1164
g1423
sg268
g973
sbsS'strstream.h'
p1923
g238
(g1159
g240
Ntp1924
Rp1925
(dp1926
g1163
g1171
sg1164
g1172
sg268
S'c:/marmalade/6.2/s3e/h/std/c++/strstream.h'
p1927
sbsVtiniconv.h
p1928
g238
(g1159
g240
Ntp1929
Rp1930
(dp1931
g1163
g791
sg1164
g1621
sg268
g789
sbsS'IwGLExt.h'
p1932
g238
(g1159
g240
Ntp1933
Rp1934
(dp1935
g1163
g854
sg1164
g1270
sg268
g852
sbsS'app.icf'
p1936
g238
(g1159
g240
Ntp1937
Rp1938
(dp1939
g1163
(dp1940
sg1164
g4
sg268
S'c:/Users/1106786/Dropbox/Dropbox/PG life/Project Impact/Code/Demos/Demo_3_ResMan_Audio_LoadTile/data/app.icf'
p1941
sbsS'IwClassFactory.h'
p1942
g238
(g1159
g240
Ntp1943
Rp1944
(dp1945
g1163
g1046
sg1164
g1200
sg268
g1118
sbsS'file.h'
p1946
g238
(g1159
g240
Ntp1947
Rp1948
(dp1949
g1163
g1171
sg1164
g1308
sg268
S'c:/marmalade/6.2/s3e/h/std/sys/file.h'
p1950
sbsS'cstring'
p1951
g238
(g1159
g240
Ntp1952
Rp1953
(dp1954
g1163
g1171
sg1164
g1172
sg268
S'c:/marmalade/6.2/s3e/h/std/c++/cstring'
p1955
sbsS'iwutil.config.txt'
p1956
g238
(g1159
g240
Ntp1957
Rp1958
(dp1959
g1163
g1046
sg1164
g1200
sg268
g1051
sbsS's3eSMS.h'
p1960
g238
(g1159
g240
Ntp1961
Rp1962
(dp1963
g1163
g1171
sg1164
g1377
sg268
S'c:/marmalade/6.2/s3e/h/ext/s3eSMS.h'
p1964
sbsS'limits.h'
p1965
g238
(g1159
g240
Ntp1966
Rp1967
(dp1968
g1163
g1171
sg1164
g1193
sg268
S'c:/marmalade/6.2/s3e/h/std/limits.h'
p1969
sbsS'sigcontext.h'
p1970
g238
(g1159
g240
Ntp1971
Rp1972
(dp1973
g1163
g1171
sg1164
g1193
sg268
S'c:/marmalade/6.2/s3e/h/std/sigcontext.h'
p1974
sbsS'iwgx_public.defines.txt'
p1975
g238
(g1159
g240
Ntp1976
Rp1977
(dp1978
g1163
g992
sg1164
g1294
sg268
g999
sbsS'IwMaterial.h'
p1979
g238
(g1159
g240
Ntp1980
Rp1981
(dp1982
g1163
g992
sg1164
g1294
sg268
g1017
sbsS'IwGxSurface.h'
p1983
g238
(g1159
g240
Ntp1984
Rp1985
(dp1986
g1163
g992
sg1164
g1294
sg268
g1028
sbsS's3eSocket.h'
p1987
g238
(g1159
g240
Ntp1988
Rp1989
(dp1990
g1163
g1171
sg1164
g1187
sg268
S'c:/marmalade/6.2/s3e/h/s3eSocket.h'
p1991
sbsS'IwAutoFile.h'
p1992
g238
(g1159
g240
Ntp1993
Rp1994
(dp1995
g1163
g1046
sg1164
g1200
sg268
g1120
sbsS'ipc.h'
p1996
g238
(g1159
g240
Ntp1997
Rp1998
(dp1999
g1163
g1171
sg1164
g1308
sg268
S'c:/marmalade/6.2/s3e/h/std/sys/ipc.h'
p2000
sbsS'poll_1.h'
p2001
g238
(g1159
g240
Ntp2002
Rp2003
(dp2004
g1163
g1171
sg1164
g1308
sg268
S'c:/marmalade/6.2/s3e/h/std/sys/poll.h'
p2005
sbsS's3eThread.h'
p2006
g238
(g1159
g240
Ntp2007
Rp2008
(dp2009
g1163
g1171
sg1164
g1187
sg268
S'c:/marmalade/6.2/s3e/h/s3eThread.h'
p2010
sbsS'ucontext.h'
p2011
g238
(g1159
g240
Ntp2012
Rp2013
(dp2014
g1163
g1171
sg1164
g1193
sg268
S'c:/marmalade/6.2/s3e/h/std/ucontext.h'
p2015
sbsS'time.h'
p2016
g238
(g1159
g240
Ntp2017
Rp2018
(dp2019
g1163
g1171
sg1164
g1193
sg268
S'c:/marmalade/6.2/s3e/h/std/time.h'
p2020
sbsVjchuff.h
p2021
g238
(g1159
g240
Ntp2022
Rp2023
(dp2024
g1163
g754
sg1164
g1245
sg268
g780
sbsS's3eSoundRecord.h'
p2025
g238
(g1159
g240
Ntp2026
Rp2027
(dp2028
g1163
g1171
sg1164
g1187
sg268
S'c:/marmalade/6.2/s3e/h/s3eSoundRecord.h'
p2029
sbsS'IwFibre.h'
p2030
g238
(g1159
g240
Ntp2031
Rp2032
(dp2033
g1163
g1046
sg1164
g1200
sg268
g1144
sbsS's3eVersion.h'
p2034
g238
(g1159
g240
Ntp2035
Rp2036
(dp2037
g1163
g1171
sg1164
g1187
sg268
S'c:/marmalade/6.2/s3e/h/s3eVersion.h'
p2038
sbsS'input.cpp'
p2039
g238
(g1159
g240
Ntp2040
Rp2041
(dp2042
g1163
g800
sg1164
g1276
sg268
g798
sbsS'IwGxFontGlyph.h'
p2043
g238
(g1159
g240
Ntp2044
Rp2045
(dp2046
g1163
g878
sg1164
g1165
sg268
g884
sbsS's3eTypes.h'
p2047
g238
(g1159
g240
Ntp2048
Rp2049
(dp2050
g1163
g1171
sg1164
g1187
sg268
S'c:/marmalade/6.2/s3e/h/s3eTypes.h'
p2051
sbsS'signal_2.h'
p2052
g238
(g1159
g240
Ntp2053
Rp2054
(dp2055
g1163
g1171
sg1164
g1172
sg268
S'c:/marmalade/6.2/s3e/h/std/c++/signal.h'
p2056
sbsS'termios.h'
p2057
g238
(g1159
g240
Ntp2058
Rp2059
(dp2060
g1163
g1171
sg1164
g1193
sg268
S'c:/marmalade/6.2/s3e/h/std/termios.h'
p2061
sbsS'slist'
p2062
g238
(g1159
g240
Ntp2063
Rp2064
(dp2065
g1163
g1171
sg1164
g1172
sg268
S'c:/marmalade/6.2/s3e/h/std/c++/slist'
p2066
sbsS'cstdlib'
p2067
g238
(g1159
g240
Ntp2068
Rp2069
(dp2070
g1163
g1171
sg1164
g1172
sg268
S'c:/marmalade/6.2/s3e/h/std/c++/cstdlib'
p2071
sbsS's3eLocation.h'
p2072
g238
(g1159
g240
Ntp2073
Rp2074
(dp2075
g1163
g1171
sg1164
g1187
sg268
S'c:/marmalade/6.2/s3e/h/s3eLocation.h'
p2076
sbsS'IwMemBucketHelpers.h'
p2077
g238
(g1159
g240
Ntp2078
Rp2079
(dp2080
g1163
g1046
sg1164
g1200
sg268
g1116
sbsS's3eHash.h'
p2081
g238
(g1159
g240
Ntp2082
Rp2083
(dp2084
g1163
g1171
sg1164
g1187
sg268
S'c:/marmalade/6.2/s3e/h/s3eHash.h'
p2085
sbsS'IwGeomFMat.h'
p2086
g238
(g1159
g240
Ntp2087
Rp2088
(dp2089
g1163
g900
sg1164
g1181
sg268
g950
sbsS'type_traits.h'
p2090
g238
(g1159
g240
Ntp2091
Rp2092
(dp2093
g1163
g1171
sg1164
g1172
sg268
S'c:/marmalade/6.2/s3e/h/std/c++/type_traits.h'
p2094
sbsS'IwMenu.h'
p2095
g238
(g1159
g240
Ntp2096
Rp2097
(dp2098
g1163
g1046
sg1164
g1200
sg268
g1090
sbsS'IwResHandlerITX.h'
p2099
g238
(g1159
g240
Ntp2100
Rp2101
(dp2102
g1163
g968
sg1164
g1423
sg268
g986
sbsS'IwArray.h'
p2103
g238
(g1159
g240
Ntp2104
Rp2105
(dp2106
g1163
g1046
sg1164
g1200
sg268
g1092
sbsS'IwUTF8.h'
p2107
g238
(g1159
g240
Ntp2108
Rp2109
(dp2110
g1163
g1046
sg1164
g1200
sg268
g1104
sbsS'math_rvct.h'
p2111
g238
(g1159
g240
Ntp2112
Rp2113
(dp2114
g1163
g1171
sg1164
g1193
sg268
S'c:/marmalade/6.2/s3e/h/std/math_rvct.h'
p2115
sbsS'IwUtil.h'
p2116
g238
(g1159
g240
Ntp2117
Rp2118
(dp2119
g1163
g1046
sg1164
g1200
sg268
g1086
sbsS'IwGeomVec3.h'
p2120
g238
(g1159
g240
Ntp2121
Rp2122
(dp2123
g1163
g900
sg1164
g1181
sg268
g962
sbsS'wctype.h'
p2124
g238
(g1159
g240
Ntp2125
Rp2126
(dp2127
g1163
g1171
sg1164
g1193
sg268
S'c:/marmalade/6.2/s3e/h/std/wctype.h'
p2128
sbsS'cstddef'
p2129
g238
(g1159
g240
Ntp2130
Rp2131
(dp2132
g1163
g1171
sg1164
g1172
sg268
S'c:/marmalade/6.2/s3e/h/std/c++/cstddef'
p2133
sbsS'assert.h'
p2134
g238
(g1159
g240
Ntp2135
Rp2136
(dp2137
g1163
g1171
sg1164
g1193
sg268
S'c:/marmalade/6.2/s3e/h/std/assert.h'
p2138
sbsS'mman.h'
p2139
g238
(g1159
g240
Ntp2140
Rp2141
(dp2142
g1163
g1171
sg1164
g1308
sg268
S'c:/marmalade/6.2/s3e/h/std/sys/mman.h'
p2143
sbsS'IwRandom.h'
p2144
g238
(g1159
g240
Ntp2145
Rp2146
(dp2147
g1163
g1046
sg1164
g1200
sg268
g1080
sbsS'libgen.h'
p2148
g238
(g1159
g240
Ntp2149
Rp2150
(dp2151
g1163
g1171
sg1164
g1193
sg268
S'c:/marmalade/6.2/s3e/h/std/libgen.h'
p2152
sbsS'utsname.h'
p2153
g238
(g1159
g240
Ntp2154
Rp2155
(dp2156
g1163
g1171
sg1164
g1308
sg268
S'c:/marmalade/6.2/s3e/h/std/sys/utsname.h'
p2157
sbsS'wait.h'
p2158
g238
(g1159
g240
Ntp2159
Rp2160
(dp2161
g1163
g1171
sg1164
g1308
sg268
S'c:/marmalade/6.2/s3e/h/std/sys/wait.h'
p2162
sbsS'param.h'
p2163
g238
(g1159
g240
Ntp2164
Rp2165
(dp2166
g1163
g1171
sg1164
g1308
sg268
S'c:/marmalade/6.2/s3e/h/std/sys/param.h'
p2167
sbsS'IwDivide.h'
p2168
g238
(g1159
g240
Ntp2169
Rp2170
(dp2171
g1163
g1046
sg1164
g1200
sg268
g1132
sbsS'IwResManager.h'
p2172
g238
(g1159
g240
Ntp2173
Rp2174
(dp2175
g1163
g968
sg1164
g1423
sg268
g984
sbsS'ostream'
p2176
g238
(g1159
g240
Ntp2177
Rp2178
(dp2179
g1163
g1171
sg1164
g1172
sg268
S'c:/marmalade/6.2/s3e/h/std/c++/ostream'
p2180
sbsS'cwctype'
p2181
g238
(g1159
g240
Ntp2182
Rp2183
(dp2184
g1163
g1171
sg1164
g1172
sg268
S'c:/marmalade/6.2/s3e/h/std/c++/cwctype'
p2185
sbsS'set'
p2186
g238
(g1159
g240
Ntp2187
Rp2188
(dp2189
g1163
g1171
sg1164
g1172
sg268
S'c:/marmalade/6.2/s3e/h/std/c++/set'
p2190
sbsS'IwGeomSQuat.h'
p2191
g238
(g1159
g240
Ntp2192
Rp2193
(dp2194
g1163
g900
sg1164
g1181
sg268
g931
sbsS'locale'
p2195
g238
(g1159
g240
Ntp2196
Rp2197
(dp2198
g1163
g1171
sg1164
g1172
sg268
S'c:/marmalade/6.2/s3e/h/std/c++/locale'
p2199
sbsS'cstdio'
p2200
g238
(g1159
g240
Ntp2201
Rp2202
(dp2203
g1163
g1171
sg1164
g1172
sg268
S'c:/marmalade/6.2/s3e/h/std/c++/cstdio'
p2204
sbsVcdjpeg.h
p2205
g238
(g1159
g240
Ntp2206
Rp2207
(dp2208
g1163
g754
sg1164
g1245
sg268
g766
sbsS'audio.h'
p2209
g238
(g1159
g240
Ntp2210
Rp2211
(dp2212
g1163
g800
sg1164
g1276
sg268
g809
sbsS'IwList.h'
p2213
g238
(g1159
g240
Ntp2214
Rp2215
(dp2216
g1163
g1046
sg1164
g1200
sg268
g1112
sbsS'inttypes.h'
p2217
g238
(g1159
g240
Ntp2218
Rp2219
(dp2220
g1163
g1171
sg1164
g1193
sg268
S'c:/marmalade/6.2/s3e/h/std/inttypes.h'
p2221
sbsS'maze.h'
p2222
g238
(g1159
g240
Ntp2223
Rp2224
(dp2225
g1163
g800
sg1164
g1276
sg268
g829
sbsS'dirent.h'
p2226
g238
(g1159
g240
Ntp2227
Rp2228
(dp2229
g1163
g1171
sg1164
g1193
sg268
S'c:/marmalade/6.2/s3e/h/std/dirent.h'
p2230
sbsS'IwFColour.h'
p2231
g238
(g1159
g240
Ntp2232
Rp2233
(dp2234
g1163
g992
sg1164
g1294
sg268
g1011
sbsVtransupp.h
p2235
g238
(g1159
g240
Ntp2236
Rp2237
(dp2238
g1163
g754
sg1164
g1245
sg268
g778
sbsS'IwMath.h'
p2239
g238
(g1159
g240
Ntp2240
Rp2241
(dp2242
g1163
g1046
sg1164
g1200
sg268
g1069
sbsS'IwGeomQuat.h'
p2243
g238
(g1159
g240
Ntp2244
Rp2245
(dp2246
g1163
g900
sg1164
g1181
sg268
g936
sbsS'glplatform.h'
p2247
g238
(g1159
g240
Ntp2248
Rp2249
(dp2250
g1163
g1171
sg1164
g1716
sg268
S'c:/marmalade/6.2/s3e/h/GLES/glplatform.h'
p2251
sbsS'bitset'
p2252
g238
(g1159
g240
Ntp2253
Rp2254
(dp2255
g1163
g1171
sg1164
g1172
sg268
S'c:/marmalade/6.2/s3e/h/std/c++/bitset'
p2256
sbsS'alloca.h'
p2257
g238
(g1159
g240
Ntp2258
Rp2259
(dp2260
g1163
g1171
sg1164
g1193
sg268
S'c:/marmalade/6.2/s3e/h/std/alloca.h'
p2261
sbsS'IwResHandler.h'
p2262
g238
(g1159
g240
Ntp2263
Rp2264
(dp2265
g1163
g968
sg1164
g1423
sg268
g977
sbsS'IwResHandlerMTL.h'
p2266
g238
(g1159
g240
Ntp2267
Rp2268
(dp2269
g1163
g992
sg1164
g1294
sg268
g1003
sbsS'IwRuntime.h'
p2270
g238
(g1159
g240
Ntp2271
Rp2272
(dp2273
g1163
g1046
sg1164
g1200
sg268
g1106
sbsS'limits'
p2274
g238
(g1159
g240
Ntp2275
Rp2276
(dp2277
g1163
g1171
sg1164
g1172
sg268
S'c:/marmalade/6.2/s3e/h/std/c++/limits'
p2278
sbsS'IwGeomBBox.h'
p2279
g238
(g1159
g240
Ntp2280
Rp2281
(dp2282
g1163
g900
sg1164
g1181
sg268
g923
sbsS's3eContacts.h'
p2283
g238
(g1159
g240
Ntp2284
Rp2285
(dp2286
g1163
g1171
sg1164
g1187
sg268
S'c:/marmalade/6.2/s3e/h/s3eContacts.h'
p2287
sbsS's3eLicense.h'
p2288
g238
(g1159
g240
Ntp2289
Rp2290
(dp2291
g1163
g1171
sg1164
g1187
sg268
S'c:/marmalade/6.2/s3e/h/s3eLicense.h'
p2292
sbsS'iwgx.config.txt'
p2293
g238
(g1159
g240
Ntp2294
Rp2295
(dp2296
g1163
g992
sg1164
g1294
sg268
g1005
sbsS'IwTextParser.h'
p2297
g238
(g1159
g240
Ntp2298
Rp2299
(dp2300
g1163
g1046
sg1164
g1200
sg268
g1128
sbsS's3eTimer.h'
p2301
g238
(g1159
g240
Ntp2302
Rp2303
(dp2304
g1163
g1171
sg1164
g1187
sg268
S'c:/marmalade/6.2/s3e/h/s3eTimer.h'
p2305
sbsS'IwGeomVec.h'
p2306
g238
(g1159
g240
Ntp2307
Rp2308
(dp2309
g1163
g900
sg1164
g1181
sg268
g960
sbsS'IwSerialise.h'
p2310
g238
(g1159
g240
Ntp2311
Rp2312
(dp2313
g1163
g1046
sg1164
g1200
sg268
g1057
sbsS'obstacle.cpp'
p2314
g238
(g1159
g240
Ntp2315
Rp2316
(dp2317
g1163
g800
sg1164
g1276
sg268
g807
sbsS'gl2ext.h'
p2318
g238
(g1159
g240
Ntp2319
Rp2320
(dp2321
g1163
g1171
sg1164
g1415
sg268
S'c:/marmalade/6.2/s3e/h/GLES2/gl2ext.h'
p2322
sbsS'IwChar.h'
p2323
g238
(g1159
g240
Ntp2324
Rp2325
(dp2326
g1163
g1046
sg1164
g1200
sg268
g1142
sbsS's3eSound.h'
p2327
g238
(g1159
g240
Ntp2328
Rp2329
(dp2330
g1163
g1171
sg1164
g1187
sg268
S'c:/marmalade/6.2/s3e/h/s3eSound.h'
p2331
sbsS'IwOptimiseThumb.h'
p2332
g238
(g1159
g240
Ntp2333
Rp2334
(dp2335
g1163
g1046
sg1164
g1200
sg268
g1110
sbsS'exception.h'
p2336
g238
(g1159
g240
Ntp2337
Rp2338
(dp2339
g1163
g1171
sg1164
g1172
sg268
S'c:/marmalade/6.2/s3e/h/std/c++/exception.h'
p2340
sbsS'iwgeom.config.txt'
p2341
g238
(g1159
g240
Ntp2342
Rp2343
(dp2344
g1163
g900
sg1164
g1181
sg268
g929
sbsS'iwgx.mkf'
p2345
g238
(g1159
g240
Ntp2346
Rp2347
(dp2348
g1163
g1025
sg1164
g1294
sg268
g1023
sbsS'gl.h'
p2349
g238
(g1159
g240
Ntp2350
Rp2351
(dp2352
g1163
g1171
sg1164
g1716
sg268
S'c:/marmalade/6.2/s3e/h/GLES/gl.h'
p2353
sbsVzlib.h
p2354
g238
(g1159
g240
Ntp2355
Rp2356
(dp2357
g1163
g1150
sg1164
g1674
sg268
g1151
sbsS'iwgl.mkf'
p2358
g238
(g1159
g240
Ntp2359
Rp2360
(dp2361
g1163
g861
sg1164
g1270
sg268
g859
sbsS'IwColour.h'
p2362
g238
(g1159
g240
Ntp2363
Rp2364
(dp2365
g1163
g992
sg1164
g1294
sg268
g1015
sbsS's3eLibrary.h'
p2366
g238
(g1159
g240
Ntp2367
Rp2368
(dp2369
g1163
g1171
sg1164
g1377
sg268
S'c:/marmalade/6.2/s3e/h/ext/s3eLibrary.h'
p2370
sbsS'types.h'
p2371
g238
(g1159
g240
Ntp2372
Rp2373
(dp2374
g1163
g1171
sg1164
g1308
sg268
S'c:/marmalade/6.2/s3e/h/std/sys/types.h'
p2375
sbsS'ifaddrs.h'
p2376
g238
(g1159
g240
Ntp2377
Rp2378
(dp2379
g1163
g1171
sg1164
g1193
sg268
S'c:/marmalade/6.2/s3e/h/std/ifaddrs.h'
p2380
sbsS'strstream'
p2381
g238
(g1159
g240
Ntp2382
Rp2383
(dp2384
g1163
g1171
sg1164
g1172
sg268
S'c:/marmalade/6.2/s3e/h/std/c++/strstream'
p2385
sbsS'exception'
p2386
g238
(g1159
g240
Ntp2387
Rp2388
(dp2389
g1163
g1171
sg1164
g1172
sg268
S'c:/marmalade/6.2/s3e/h/std/c++/exception'
p2390
sbsS'rlocks.h'
p2391
g238
(g1159
g240
Ntp2392
Rp2393
(dp2394
g1163
g1171
sg1164
g1172
sg268
S'c:/marmalade/6.2/s3e/h/std/c++/rlocks.h'
p2395
sbsS'ioctl.h'
p2396
g238
(g1159
g240
Ntp2397
Rp2398
(dp2399
g1163
g1171
sg1164
g1308
sg268
S'c:/marmalade/6.2/s3e/h/std/sys/ioctl.h'
p2400
sbsS'rope'
p2401
g238
(g1159
g240
Ntp2402
Rp2403
(dp2404
g1163
g1171
sg1164
g1172
sg268
S'c:/marmalade/6.2/s3e/h/std/c++/rope'
p2405
sbsVjinclude.h
p2406
g238
(g1159
g240
Ntp2407
Rp2408
(dp2409
g1163
g754
sg1164
g1245
sg268
g770
sbsS'IwEvent.h'
p2410
g238
(g1159
g240
Ntp2411
Rp2412
(dp2413
g1163
g1046
sg1164
g1200
sg268
g1140
sbsS'IwOptimiseSize.h'
p2414
g238
(g1159
g240
Ntp2415
Rp2416
(dp2417
g1163
g1046
sg1164
g1200
sg268
g1094
sbsS'iwgxfont_public.defines.txt'
p2418
g238
(g1159
g240
Ntp2419
Rp2420
(dp2421
g1163
g878
sg1164
g1165
sg268
g876
sbsS'iconv.h'
p2422
g238
(g1159
g240
Ntp2423
Rp2424
(dp2425
g1163
g1171
sg1164
g1193
sg268
S'c:/marmalade/6.2/s3e/h/std/iconv.h'
p2426
sbsS'sendfile.h'
p2427
g238
(g1159
g240
Ntp2428
Rp2429
(dp2430
g1163
g1171
sg1164
g1308
sg268
S'c:/marmalade/6.2/s3e/h/std/sys/sendfile.h'
p2431
sbsS'IwGeomSphere.h'
p2432
g238
(g1159
g240
Ntp2433
Rp2434
(dp2435
g1163
g900
sg1164
g1181
sg268
g946
sbsVtiniconv.mkf
p2436
g238
(g1159
g240
Ntp2437
Rp2438
(dp2439
g1163
g788
sg1164
g1621
sg268
g786
sbsVjdct.h
p2440
g238
(g1159
g240
Ntp2441
Rp2442
(dp2443
g1163
g754
sg1164
g1245
sg268
g772
sbsS'cctype'
p2444
g238
(g1159
g240
Ntp2445
Rp2446
(dp2447
g1163
g1171
sg1164
g1172
sg268
S'c:/marmalade/6.2/s3e/h/std/c++/cctype'
p2448
sbsS's3eConfig.h'
p2449
g238
(g1159
g240
Ntp2450
Rp2451
(dp2452
g1163
g1171
sg1164
g1187
sg268
S'c:/marmalade/6.2/s3e/h/s3eConfig.h'
p2453
sbsS'IwHashString.h'
p2454
g238
(g1159
g240
Ntp2455
Rp2456
(dp2457
g1163
g1046
sg1164
g1200
sg268
g1134
sbsS'stat.h'
p2458
g238
(g1159
g240
Ntp2459
Rp2460
(dp2461
g1163
g1171
sg1164
g1308
sg268
S'c:/marmalade/6.2/s3e/h/std/sys/stat.h'
p2462
sbsS'byteswap.h'
p2463
g238
(g1159
g240
Ntp2464
Rp2465
(dp2466
g1163
g1171
sg1164
g1193
sg268
S'c:/marmalade/6.2/s3e/h/std/byteswap.h'
p2467
sbsS'iwresmanager.mkf'
p2468
g238
(g1159
g240
Ntp2469
Rp2470
(dp2471
g1163
g981
sg1164
g1423
sg268
g979
sbsS'IwUtilInitTerm.h'
p2472
g238
(g1159
g240
Ntp2473
Rp2474
(dp2475
g1163
g1046
sg1164
g1200
sg268
g1065
sbsS'pthread_1.h'
p2476
g238
(g1159
g240
Ntp2477
Rp2478
(dp2479
g1163
g1171
sg1164
g1172
sg268
S'c:/marmalade/6.2/s3e/h/std/c++/pthread.h'
p2480
sbsS'IwMemBucket.h'
p2481
g238
(g1159
g240
Ntp2482
Rp2483
(dp2484
g1163
g1046
sg1164
g1200
sg268
g1102
sbsS'complex'
p2485
g238
(g1159
g240
Ntp2486
Rp2487
(dp2488
g1163
g1171
sg1164
g1172
sg268
S'c:/marmalade/6.2/s3e/h/std/c++/complex'
p2489
sbsS'game.cpp'
p2490
g238
(g1159
g240
Ntp2491
Rp2492
(dp2493
g1163
g800
sg1164
g1276
sg268
g833
sbsS's3e.icf'
p2494
g238
(g1159
g240
Ntp2495
Rp2496
(dp2497
g1163
g1171
sg1164
g1187
sg268
S'c:/marmalade/6.2/s3e/s3e.icf'
p2498
sbsS'IwVariableBitField.h'
p2499
g238
(g1159
g240
Ntp2500
Rp2501
(dp2502
g1163
g1046
sg1164
g1200
sg268
g1108
sbsS'sem.h'
p2503
g238
(g1159
g240
Ntp2504
Rp2505
(dp2506
g1163
g1171
sg1164
g1308
sg268
S'c:/marmalade/6.2/s3e/h/std/sys/sem.h'
p2507
sbsS'IwGxFontState.h'
p2508
g238
(g1159
g240
Ntp2509
Rp2510
(dp2511
g1163
g878
sg1164
g1165
sg268
g882
sbsS'stdio.h'
p2512
g238
(g1159
g240
Ntp2513
Rp2514
(dp2515
g1163
g1171
sg1164
g1193
sg268
S'c:/marmalade/6.2/s3e/h/std/stdio.h'
p2516
sbsVjmemsys.h
p2517
g238
(g1159
g240
Ntp2518
Rp2519
(dp2520
g1163
g754
sg1164
g1245
sg268
g752
sbsS'ios'
p2521
g238
(g1159
g240
Ntp2522
Rp2523
(dp2524
g1163
g1171
sg1164
g1172
sg268
S'c:/marmalade/6.2/s3e/h/std/c++/ios'
p2525
sbsS'stack'
p2526
g238
(g1159
g240
Ntp2527
Rp2528
(dp2529
g1163
g1171
sg1164
g1172
sg268
S'c:/marmalade/6.2/s3e/h/std/c++/stack'
p2530
sbsS'new.h'
p2531
g238
(g1159
g240
Ntp2532
Rp2533
(dp2534
g1163
g1171
sg1164
g1172
sg268
S'c:/marmalade/6.2/s3e/h/std/c++/new.h'
p2535
sbsS's3eEMail.h'
p2536
g238
(g1159
g240
Ntp2537
Rp2538
(dp2539
g1163
g1171
sg1164
g1377
sg268
S'c:/marmalade/6.2/s3e/h/ext/s3eEMail.h'
p2540
sbsS's3eVideo.h'
p2541
g238
(g1159
g240
Ntp2542
Rp2543
(dp2544
g1163
g1171
sg1164
g1187
sg268
S'c:/marmalade/6.2/s3e/h/s3eVideo.h'
p2545
sbsS'IwFile.h'
p2546
g238
(g1159
g240
Ntp2547
Rp2548
(dp2549
g1163
g1046
sg1164
g1200
sg268
g1049
sbsS'pwd.h'
p2550
g238
(g1159
g240
Ntp2551
Rp2552
(dp2553
g1163
g1171
sg1164
g1193
sg268
S'c:/marmalade/6.2/s3e/h/std/pwd.h'
p2554
sbsS'IwClip.h'
p2555
g238
(g1159
g240
Ntp2556
Rp2557
(dp2558
g1163
g992
sg1164
g1294
sg268
g1038
sbsS'iwresmanager.config.txt'
p2559
g238
(g1159
g240
Ntp2560
Rp2561
(dp2562
g1163
g968
sg1164
g1423
sg268
g975
sbsS'IwGxShaderTechnique.h'
p2563
g238
(g1159
g240
Ntp2564
Rp2565
(dp2566
g1163
g992
sg1164
g1294
sg268
g1032
sbsS'IwCore.h'
p2567
g238
(g1159
g240
Ntp2568
Rp2569
(dp2570
g1163
g1046
sg1164
g1200
sg268
g1053
sbsS'cfloat'
p2571
g238
(g1159
g240
Ntp2572
Rp2573
(dp2574
g1163
g1171
sg1164
g1172
sg268
S'c:/marmalade/6.2/s3e/h/std/c++/cfloat'
p2575
sbsS'IwGeomMat2D.h'
p2576
g238
(g1159
g240
Ntp2577
Rp2578
(dp2579
g1163
g900
sg1164
g1181
sg268
g938
sbsS'IwAllocator.h'
p2580
g238
(g1159
g240
Ntp2581
Rp2582
(dp2583
g1163
g1046
sg1164
g1200
sg268
g1122
sbsS'IwPath.h'
p2584
g238
(g1159
g240
Ntp2585
Rp2586
(dp2587
g1163
g1046
sg1164
g1200
sg268
g1059
sbsS'tiles.cpp'
p2588
g238
(g1159
g240
Ntp2589
Rp2590
(dp2591
g1163
g800
sg1164
g1276
sg268
g825
sbsS'iwgxfont.mkf'
p2592
g238
(g1159
g240
Ntp2593
Rp2594
(dp2595
g1163
g881
sg1164
g1165
sg268
g879
sbsS'IwTexture.h'
p2596
g238
(g1159
g240
Ntp2597
Rp2598
(dp2599
g1163
g992
sg1164
g1294
sg268
g1009
sbsS's3eAccelerometer.h'
p2600
g238
(g1159
g240
Ntp2601
Rp2602
(dp2603
g1163
g1171
sg1164
g1187
sg268
S'c:/marmalade/6.2/s3e/h/s3eAccelerometer.h'
p2604
sbsS'setjmp.h'
p2605
g238
(g1159
g240
Ntp2606
Rp2607
(dp2608
g1163
g1171
sg1164
g1193
sg268
S'c:/marmalade/6.2/s3e/h/std/setjmp.h'
p2609
sbsS'cstdarg'
p2610
g238
(g1159
g240
Ntp2611
Rp2612
(dp2613
g1163
g1171
sg1164
g1172
sg268
S'c:/marmalade/6.2/s3e/h/std/c++/cstdarg'
p2614
sbsVpngconf.h
p2615
g238
(g1159
g240
Ntp2616
Rp2617
(dp2618
g1163
g747
sg1164
g1688
sg268
g748
sbsS'IwTextParseable.h'
p2619
g238
(g1159
g240
Ntp2620
Rp2621
(dp2622
g1163
g1046
sg1164
g1200
sg268
g1130
sbsS'istream.h'
p2623
g238
(g1159
g240
Ntp2624
Rp2625
(dp2626
g1163
g1171
sg1164
g1172
sg268
S'c:/marmalade/6.2/s3e/h/std/c++/istream.h'
p2627
sbsS'stdint.h'
p2628
g238
(g1159
g240
Ntp2629
Rp2630
(dp2631
g1163
g1171
sg1164
g1193
sg268
S'c:/marmalade/6.2/s3e/h/std/stdint.h'
p2632
sbsS'semaphore.h'
p2633
g238
(g1159
g240
Ntp2634
Rp2635
(dp2636
g1163
g1171
sg1164
g1193
sg268
S'c:/marmalade/6.2/s3e/h/std/semaphore.h'
p2637
sbsS'demo_3_resman_audio_loadtile.mkf'
p2638
g238
(g1159
g240
Ntp2639
Rp2640
(dp2641
g1163
g847
sg1164
(lp2642
g794
asg268
g845
sbsS'ctime'
p2643
g238
(g1159
g240
Ntp2644
Rp2645
(dp2646
g1163
g1171
sg1164
g1172
sg268
S'c:/marmalade/6.2/s3e/h/std/c++/ctime'
p2647
sbsS'sstream'
p2648
g238
(g1159
g240
Ntp2649
Rp2650
(dp2651
g1163
g1171
sg1164
g1172
sg268
S'c:/marmalade/6.2/s3e/h/std/c++/sstream'
p2652
sbsS'IwGeomFBBox.h'
p2653
g238
(g1159
g240
Ntp2654
Rp2655
(dp2656
g1163
g900
sg1164
g1181
sg268
g911
sbsS'IwDebugPrim.h'
p2657
g238
(g1159
g240
Ntp2658
Rp2659
(dp2660
g1163
g992
sg1164
g1294
sg268
g1001
sbsS'IwGxFontContainer.h'
p2661
g238
(g1159
g240
Ntp2662
Rp2663
(dp2664
g1163
g878
sg1164
g1165
sg268
g888
sbsS'obstacle.h'
p2665
g238
(g1159
g240
Ntp2666
Rp2667
(dp2668
g1163
g800
sg1164
g1276
sg268
g803
sbsS'tile.h'
p2669
g238
(g1159
g240
Ntp2670
Rp2671
(dp2672
g1163
g800
sg1164
g1276
sg268
g827
sbsS'IwGeomSVec3.h'
p2673
g238
(g1159
g240
Ntp2674
Rp2675
(dp2676
g1163
g900
sg1164
g1181
sg268
g942
sbsS'cassert'
p2677
g238
(g1159
g240
Ntp2678
Rp2679
(dp2680
g1163
g1171
sg1164
g1172
sg268
S'c:/marmalade/6.2/s3e/h/std/c++/cassert'
p2681
sbsS'IwGeomFVec3.h'
p2682
g238
(g1159
g240
Ntp2683
Rp2684
(dp2685
g1163
g900
sg1164
g1181
sg268
g901
sbsS'streambuf'
p2686
g238
(g1159
g240
Ntp2687
Rp2688
(dp2689
g1163
g1171
sg1164
g1172
sg268
S'c:/marmalade/6.2/s3e/h/std/c++/streambuf'
p2690
sbsS's3eMetrics.h'
p2691
g238
(g1159
g240
Ntp2692
Rp2693
(dp2694
g1163
g1171
sg1164
g1377
sg268
S'c:/marmalade/6.2/s3e/h/ext/s3eMetrics.h'
p2695
sbsS'IwGxFont.h'
p2696
g238
(g1159
g240
Ntp2697
Rp2698
(dp2699
g1163
g878
sg1164
g1165
sg268
g894
sbsS's3eSecureStorage.h'
p2700
g238
(g1159
g240
Ntp2701
Rp2702
(dp2703
g1163
g1171
sg1164
g1187
sg268
S'c:/marmalade/6.2/s3e/h/s3eSecureStorage.h'
p2704
sbsS'map.cpp'
p2705
g238
(g1159
g240
Ntp2706
Rp2707
(dp2708
g1163
g800
sg1164
g1276
sg268
g817
sbsS'string.h'
p2709
g238
(g1159
g240
Ntp2710
Rp2711
(dp2712
g1163
g1171
sg1164
g1193
sg268
S'c:/marmalade/6.2/s3e/h/std/string.h'
p2713
sbsS'IwResource.h'
p2714
g238
(g1159
g240
Ntp2715
Rp2716
(dp2717
g1163
g1046
sg1164
g1200
sg268
g1047
sbsVlibjpeg.mkf
p2718
g238
(g1159
g240
Ntp2719
Rp2720
(dp2721
g1163
g765
sg1164
g1245
sg268
g763
sbsS'IwGxDebug.h'
p2722
g238
(g1159
g240
Ntp2723
Rp2724
(dp2725
g1163
g992
sg1164
g1294
sg268
g1007
sbsS'pthread_types.h'
p2726
g238
(g1159
g240
Ntp2727
Rp2728
(dp2729
g1163
g1171
sg1164
g1193
sg268
S'c:/marmalade/6.2/s3e/h/std/pthread_types.h'
p2730
sbsS'iomanip.h'
p2731
g238
(g1159
g240
Ntp2732
Rp2733
(dp2734
g1163
g1171
sg1164
g1172
sg268
S'c:/marmalade/6.2/s3e/h/std/c++/iomanip.h'
p2735
sbsS'IwKeymap.h'
p2736
g238
(g1159
g240
Ntp2737
Rp2738
(dp2739
g1163
g1046
sg1164
g1200
sg268
g1100
sbsS'IwDebug.h'
p2740
g238
(g1159
g240
Ntp2741
Rp2742
(dp2743
g1163
g1046
sg1164
g1200
sg268
g1076
sbsS's3eIOSBackgroundAudio.h'
p2744
g238
(g1159
g240
Ntp2745
Rp2746
(dp2747
g1163
g1171
sg1164
g1377
sg268
S'c:/marmalade/6.2/s3e/h/ext/s3eIOSBackgroundAudio.h'
p2748
sbsS'IwGeomMenu.h'
p2749
g238
(g1159
g240
Ntp2750
Rp2751
(dp2752
g1163
g900
sg1164
g1181
sg268
g898
sbsS'IwDivTable.h'
p2753
g238
(g1159
g240
Ntp2754
Rp2755
(dp2756
g1163
g1046
sg1164
g1200
sg268
g1114
sbsS'ctype.h'
p2757
g238
(g1159
g240
Ntp2758
Rp2759
(dp2760
g1163
g1171
sg1164
g1193
sg268
S'c:/marmalade/6.2/s3e/h/std/ctype.h'
p2761
sbsS'IwGeomMat.h'
p2762
g238
(g1159
g240
Ntp2763
Rp2764
(dp2765
g1163
g900
sg1164
g1181
sg268
g954
sbsS'IwResGroup.h'
p2766
g238
(g1159
g240
Ntp2767
Rp2768
(dp2769
g1163
g968
sg1164
g1423
sg268
g982
sbsS'signal_1.h'
p2770
g238
(g1159
g240
Ntp2771
Rp2772
(dp2773
g1163
g1171
sg1164
g1308
sg268
S'c:/marmalade/6.2/s3e/h/std/sys/signal.h'
p2774
sbsS'main.cpp'
p2775
g238
(g1159
g240
Ntp2776
Rp2777
(dp2778
g1163
g800
sg1164
g1276
sg268
g813
sbsS'shm.h'
p2779
g238
(g1159
g240
Ntp2780
Rp2781
(dp2782
g1163
g1171
sg1164
g1308
sg268
S'c:/marmalade/6.2/s3e/h/std/sys/shm.h'
p2783
sbsVjpegint.h
p2784
g238
(g1159
g240
Ntp2785
Rp2786
(dp2787
g1163
g754
sg1164
g1245
sg268
g755
sbsS'prctl.h'
p2788
g238
(g1159
g240
Ntp2789
Rp2790
(dp2791
g1163
g1171
sg1164
g1308
sg268
S'c:/marmalade/6.2/s3e/h/std/sys/prctl.h'
p2792
sbsS'un.h'
p2793
g238
(g1159
g240
Ntp2794
Rp2795
(dp2796
g1163
g1171
sg1164
g1308
sg268
S'c:/marmalade/6.2/s3e/h/std/sys/un.h'
p2797
sbsS'tile.cpp'
p2798
g238
(g1159
g240
Ntp2799
Rp2800
(dp2801
g1163
g800
sg1164
g1276
sg268
g819
sbsS'utility'
p2802
g238
(g1159
g240
Ntp2803
Rp2804
(dp2805
g1163
g1171
sg1164
g1172
sg268
S'c:/marmalade/6.2/s3e/h/std/c++/utility'
p2806
sbsS'input.h'
p2807
g238
(g1159
g240
Ntp2808
Rp2809
(dp2810
g1163
g800
sg1164
g1276
sg268
g811
sbsS'IwGeomLegacy.h'
p2811
g238
(g1159
g240
Ntp2812
Rp2813
(dp2814
g1163
g900
sg1164
g1181
sg268
g913
sbsS'IwTPage.h'
p2815
g238
(g1159
g240
Ntp2816
Rp2817
(dp2818
g1163
g992
sg1164
g1294
sg268
g1021
sbsS'IwResSerialise.h'
p2819
g238
(g1159
g240
Ntp2820
Rp2821
(dp2822
g1163
g968
sg1164
g1423
sg268
g966
sbsS's3eCrypto.h'
p2823
g238
(g1159
g240
Ntp2824
Rp2825
(dp2826
g1163
g1171
sg1164
g1187
sg268
S'c:/marmalade/6.2/s3e/h/s3eCrypto.h'
p2827
sbsS's3eKeyboard.h'
p2828
g238
(g1159
g240
Ntp2829
Rp2830
(dp2831
g1163
g1171
sg1164
g1187
sg268
S'c:/marmalade/6.2/s3e/h/s3eKeyboard.h'
p2832
sbsS'fcntl.h'
p2833
g238
(g1159
g240
Ntp2834
Rp2835
(dp2836
g1163
g1171
sg1164
g1193
sg268
S'c:/marmalade/6.2/s3e/h/std/fcntl.h'
p2837
sbsS'memory.h'
p2838
g238
(g1159
g240
Ntp2839
Rp2840
(dp2841
g1163
g1171
sg1164
g1193
sg268
S'c:/marmalade/6.2/s3e/h/std/memory.h'
p2842
sbsS'pthread.h'
p2843
g238
(g1159
g240
Ntp2844
Rp2845
(dp2846
g1163
g1171
sg1164
g1193
sg268
S'c:/marmalade/6.2/s3e/h/std/pthread.h'
p2847
sbsS'IwGeomIntersect.h'
p2848
g238
(g1159
g240
Ntp2849
Rp2850
(dp2851
g1163
g900
sg1164
g1181
sg268
g909
sbsS'algorithm'
p2852
g238
(g1159
g240
Ntp2853
Rp2854
(dp2855
g1163
g1171
sg1164
g1172
sg268
S'c:/marmalade/6.2/s3e/h/std/c++/algorithm'
p2856
sbsS'egl_1.h'
p2857
g238
(g1159
g240
Ntp2858
Rp2859
(dp2860
g1163
g1171
sg1164
g1716
sg268
S'c:/marmalade/6.2/s3e/h/GLES/egl.h'
p2861
sbsS'ostream.h'
p2862
g238
(g1159
g240
Ntp2863
Rp2864
(dp2865
g1163
g1171
sg1164
g1172
sg268
S'c:/marmalade/6.2/s3e/h/std/c++/ostream.h'
p2866
sbsS'stl_user_config.h'
p2867
g238
(g1159
g240
Ntp2868
Rp2869
(dp2870
g1163
g1171
sg1164
g1172
sg268
S'c:/marmalade/6.2/s3e/h/std/c++/stl_user_config.h'
p2871
sbsS'IwProfileMenu.h'
p2872
g238
(g1159
g240
Ntp2873
Rp2874
(dp2875
g1163
g1046
sg1164
g1200
sg268
g1098
sbsS'MarmaladeVersion.h'
p2876
g238
(g1159
g240
Ntp2877
Rp2878
(dp2879
g1163
g1171
sg1164
g1187
sg268
S'c:/marmalade/6.2/s3e/h/MarmaladeVersion.h'
p2880
sbsS'ios.h'
p2881
g238
(g1159
g240
Ntp2882
Rp2883
(dp2884
g1163
g1171
sg1164
g1172
sg268
S'c:/marmalade/6.2/s3e/h/std/c++/ios.h'
p2885
sbsS'IwImageHelper.h'
p2886
g238
(g1159
g240
Ntp2887
Rp2888
(dp2889
g1163
g1046
sg1164
g1200
sg268
g1124
sbsS'hash_set'
p2890
g238
(g1159
g240
Ntp2891
Rp2892
(dp2893
g1163
g1171
sg1164
g1172
sg268
S'c:/marmalade/6.2/s3e/h/std/c++/hash_set'
p2894
sbsS'IwGeomFQuat.h'
p2895
g238
(g1159
g240
Ntp2896
Rp2897
(dp2898
g1163
g900
sg1164
g1181
sg268
g956
sbsVjmorecfg.h
p2899
g238
(g1159
g240
Ntp2900
Rp2901
(dp2902
g1163
g754
sg1164
g1245
sg268
g782
sbsS'eglplatform.h'
p2903
g238
(g1159
g240
Ntp2904
Rp2905
(dp2906
g1163
g1171
sg1164
g1498
sg268
S'c:/marmalade/6.2/s3e/h/EGL/eglplatform.h'
p2907
sbsS'cmath'
p2908
g238
(g1159
g240
Ntp2909
Rp2910
(dp2911
g1163
g1171
sg1164
g1172
sg268
S'c:/marmalade/6.2/s3e/h/std/c++/cmath'
p2912
sbsS'math_gcc.h'
p2913
g238
(g1159
g240
Ntp2914
Rp2915
(dp2916
g1163
g1171
sg1164
g1193
sg268
S'c:/marmalade/6.2/s3e/h/std/math_gcc.h'
p2917
sbsS's3eMemory.h'
p2918
g238
(g1159
g240
Ntp2919
Rp2920
(dp2921
g1163
g1171
sg1164
g1187
sg268
S'c:/marmalade/6.2/s3e/h/s3eMemory.h'
p2922
sbsS'strings.h'
p2923
g238
(g1159
g240
Ntp2924
Rp2925
(dp2926
g1163
g1171
sg1164
g1193
sg268
S'c:/marmalade/6.2/s3e/h/std/strings.h'
p2927
sbsS's3eFile.h'
p2928
g238
(g1159
g240
Ntp2929
Rp2930
(dp2931
g1163
g1171
sg1164
g1187
sg268
S'c:/marmalade/6.2/s3e/h/s3eFile.h'
p2932
sbsS'IwGxTypes.h'
p2933
g238
(g1159
g240
Ntp2934
Rp2935
(dp2936
g1163
g992
sg1164
g1294
sg268
g995
sbsS'cerrno'
p2937
g238
(g1159
g240
Ntp2938
Rp2939
(dp2940
g1163
g1171
sg1164
g1172
sg268
S'c:/marmalade/6.2/s3e/h/std/c++/cerrno'
p2941
sbsS'map.h'
p2942
g238
(g1159
g240
Ntp2943
Rp2944
(dp2945
g1163
g800
sg1164
g1276
sg268
g839
sbsS'resource.h'
p2946
g238
(g1159
g240
Ntp2947
Rp2948
(dp2949
g1163
g1171
sg1164
g1308
sg268
S'c:/marmalade/6.2/s3e/h/std/sys/resource.h'
p2950
sbsS'clocale'
p2951
g238
(g1159
g240
Ntp2952
Rp2953
(dp2954
g1163
g1171
sg1164
g1172
sg268
S'c:/marmalade/6.2/s3e/h/std/c++/clocale'
p2955
sbsS'csetjmp'
p2956
g238
(g1159
g240
Ntp2957
Rp2958
(dp2959
g1163
g1171
sg1164
g1172
sg268
S'c:/marmalade/6.2/s3e/h/std/c++/csetjmp'
p2960
sbsS'netdb.h'
p2961
g238
(g1159
g240
Ntp2962
Rp2963
(dp2964
g1163
g1171
sg1164
g1193
sg268
S'c:/marmalade/6.2/s3e/h/std/netdb.h'
p2965
sbsS's3eAndroidJNI.h'
p2966
g238
(g1159
g240
Ntp2967
Rp2968
(dp2969
g1163
g1171
sg1164
g1377
sg268
S'c:/marmalade/6.2/s3e/h/ext/s3eAndroidJNI.h'
p2970
sbsS'stdexcept'
p2971
g238
(g1159
g240
Ntp2972
Rp2973
(dp2974
g1163
g1171
sg1164
g1172
sg268
S'c:/marmalade/6.2/s3e/h/std/c++/stdexcept'
p2975
sbsS'math.h'
p2976
g238
(g1159
g240
Ntp2977
Rp2978
(dp2979
g1163
g1171
sg1164
g1193
sg268
S'c:/marmalade/6.2/s3e/h/std/math.h'
p2980
sbsS'stdbool.h'
p2981
g238
(g1159
g240
Ntp2982
Rp2983
(dp2984
g1163
g1171
sg1164
g1193
sg268
S'c:/marmalade/6.2/s3e/h/std/stdbool.h'
p2985
sbsS'uio.h'
p2986
g238
(g1159
g240
Ntp2987
Rp2988
(dp2989
g1163
g1171
sg1164
g1308
sg268
S'c:/marmalade/6.2/s3e/h/std/sys/uio.h'
p2990
sbsS'IwUncopyable.h'
p2991
g238
(g1159
g240
Ntp2992
Rp2993
(dp2994
g1163
g1046
sg1164
g1200
sg268
g1074
sbssS'tests'
p2995
(lp2996
sS'project_name'
p2997
g246
sS'root_file'
p2998
g106
sS'current_root'
p2999
S'c:/Users/1106786/Dropbox/Dropbox/PG life/Project Impact/Code/Demos/Demo_3_ResMan_Audio_LoadTile'
p3000
sS'dependencies'
p3001
(lp3002
sS'include_paths'
p3003
(lp3004
Vc:/users/1106786/appdata/roaming/marmalade/packages/6.2.2/libjpeg_6b/h
p3005
aVc:/users/1106786/appdata/roaming/marmalade/packages/6.2.2/zlib_1.2.4/h
p3006
aVc:/users/1106786/appdata/roaming/marmalade/packages/6.2.2/libpng_1.2.34/h
p3007
aS'c:/marmalade/6.2/modules/iwutil/h'
p3008
aS'c:/marmalade/6.2/modules/iwgeom/h'
p3009
aS'c:/marmalade/6.2/modules/iwresmanager/h'
p3010
aS'c:/marmalade/6.2/modules/iwgl/h'
p3011
aS'c:/marmalade/6.2/modules/iwgx/h'
p3012
aVc:/users/1106786/appdata/roaming/marmalade/packages/6.2.2/tiniconv_1.0.1/h
p3013
aS'c:/marmalade/6.2/modules/iwgxfont/h'
p3014
aS'c:/marmalade/6.2/modules/iw2d/h'
p3015
aS'c:/users/1106786/dropbox/dropbox/pg life/project impact/code/demos/demo_3_resman_audio_loadtile/h'
p3016
aS'c:/marmalade/6.2/s3e/h'
p3017
aS'c:/marmalade/6.2/s3e/h/ext'
p3018
aS'c:/marmalade/6.2/s3e/h/std'
p3019
aS'c:/marmalade/6.2/s3e/h/std/c++'
p3020
aS'c:/marmalade/6.2/s3e/h/ext_legacy'
p3021
aS'c:/marmalade/6.2/s3e/h/legacy'
p3022
asS'weak_frameworks'
p3023
(lp3024
sS'extprojects'
p3025
(dp3026
sg484
(dp3027
g478
(lp3028
(g66
S'.'
p3029
I0
tp3030
asS'default'
p3031
(lp3032
(S'c:/users/1106786/dropbox/dropbox/pg life/project impact/code/demos/demo_3_resman_audio_loadtile/data/splashscreen.jpg'
p3033
S'splashscreen.jpg'
p3034
I0
tp3035
a(S'c:/users/1106786/dropbox/dropbox/pg life/project impact/code/demos/demo_3_resman_audio_loadtile/data/audio.mp3'
p3036
S'audio.mp3'
p3037
I0
tp3038
a(S'c:/users/1106786/dropbox/dropbox/pg life/project impact/code/demos/demo_3_resman_audio_loadtile/data-ram/data-gles1/imgs.group.bin,c:/users/1106786/dropbox/dropbox/pg life/project impact/code/demos/demo_3_resman_audio_loadtile/data/imgs.group.bin'
p3039
S'imgs.group.bin'
p3040
I0
tp3041
asS'artbuild'
p3042
(lp3043
(S'c:/users/1106786/dropbox/dropbox/pg life/project impact/code/demos/demo_3_resman_audio_loadtile/data'
p3044
g3029
I0
tp3045
assS'macro_types'
p3046
(dp3047
g427
I1
sg428
I0
sg429
I0
sg430
I0
sg431
I0
sg432
I0
sg433
I0
sg435
I0
sg436
I0
sg437
I0
sg438
I0
sg440
I0
sg442
I0
sg443
I0
sg444
I0
sg445
I0
sg446
I0
sg447
I1
sg448
I0
sg449
I0
sg450
I0
sg451
I01
sg452
I1
sg453
I0
sg454
I0
sg455
I0
ssS'commands'
p3048
(lp3049
sg486
(g733
S'VC10'
p3050
S'X86ARM'
p3051
tp3052
sS'subprojectOptions'
p3053
(dp3054
g490
(lp3055
sg492
Nsg493
Nsg494
Nsg495
Nsg496
Nsg497
Nsg498
Nsg499
(lp3056
sg501
Nsg616
Nsg504
Nsg505
Nsg506
Nsg507
Nsg508
Nsg509
Nsg510
Nsg511
Nsg512
Nsg513
(lp3057
sg693
Nsg516
Nsg517
Nsg694
Nsg689
Nsg519
Nsg520
Nsg521
Nsg522
Nsg523
Nsg524
Nsg697
Nsg526
Nsg527
Nsg688
Nsg528
Nsg529
Nsg530
Nsg531
Nsg532
Nsg533
Nsg571
Nsg535
Nsg536
Nsg537
Nsg539
Nsg540
Nsg541
Nsg542
Nsg543
Nsg544
Nsg545
Nsg546
Nsg621
Nsg547
Nsg549
Nsg550
Nsg551
Nsg552
Nsg553
Nsg554
(lp3058
sg556
Nsg557
Nsg558
Nsg559
Nsg560
Nsg561
Nsg562
Nsg626
Nsg564
(lp3059
sg566
Nsg567
Nsg568
Nsg569
Nsg570
Nsg534
Nsg572
Nsg628
Nsg574
Nsg575
Nsg576
Nsg577
Nsg578
Nsg579
(lp3060
sg581
Nsg710
Nsg583
Nsg584
Nsg585
Nsg586
Nsg587
Nsg588
Nsg589
Nsg630
Nsg591
Nsg593
(lp3061
sg595
Nsg596
Nsg711
Nsg598
(lp3062
sg600
Nsg601
Nsg602
Nsg603
Nsg604
Nsg605
Nsg631
Nsg607
Nsg608
Nsg609
Nsg610
Nsg611
(lp3063
sg613
Nsg614
Nsg615
Nsg503
Nsg617
Nsg618
Nsg619
(lp3064
sg502
Nsg622
Nsg623
Nsg624
Nsg625
Nsg563
Nsg573
Nsg629
Nsg590
Nsg606
Nsg632
Nsg633
Nsg679
Nsg636
Nsg637
Nsg638
Nsg639
Nsg640
Nsg719
Nsg642
Nsg643
Nsg644
Nsg645
(lp3065
sg647
Nsg648
Nsg649
Nsg650
Nsg651
Nsg652
Nsg653
(lp3066
sg655
Nsg656
Nsg657
Nsg658
Nsg659
Nsg660
Nsg661
Nsg662
Nsg663
Nsg664
Nsg722
Nsg666
Nsg667
Nsg675
Nsg668
Nsg677
Nsg670
Nsg671
Nsg672
Nsg678
Nsg674
Nsg717
Nsg634
(lp3067
sg676
Nsg669
Nsg673
Nsg725
Nsg681
Nsg682
Nsg683
Nsg716
Nsg684
Nsg685
Nsg686
Nsg687
Nsg538
Nsg525
Nsg690
Nsg691
Nsg692
Nsg515
Nsg518
Nsg695
Nsg696
Nsg627
Nsg698
Nsg699
Nsg700
Nsg701
Nsg702
Nsg703
Nsg704
Nsg705
Nsg706
Nsg707
(lp3068
sg709
Nsg582
Nsg597
Nsg712
Nsg713
Nsg714
Nsg715
Nsg548
Nsg592
Nsg718
Nsg641
Nsg730
Nsg721
Nsg665
Nsg723
Nsg724
Nsg680
Nsg726
Nsg727
Nsg728
Nsg729
Nsg720
Nsg731
NssS'build_libs'
p3069
(dp3070
sS'frameworks'
p3071
(lp3072
sS'environ'
p3073
(dp3074
sS'target_name_debug'
p3075
g246
sS'builders'
p3076
(dp3077
S'.S'
p3078
(dp3079
S'rvct'
p3080
(lp3081
S'.obj'
p3082
aS'echo ARM Assembling(RVCT) ${SOURCE}...'
p3083
aS'c:/marmalade/6.2/s3e\\rvct\\bin\\armasm -o ${TARGET} ${SOURCE}'
p3084
asg347
(lp3085
g3082
aS'echo ARM Assembling(GCC) ${SOURCE}...'
p3086
aS'c:/marmalade/6.2/s3e\\gcc\\bin\\arm-none-eabi-gcc -c -o ${TARGET} ${SOURCE}'
p3087
asS'ppu'
p3088
(lp3089
S'.a'
p3090
aS'echo PPU Assembling(SNC) ${SOURCE}...'
p3091
aS'c:/marmalade/6.2/s3e\\rvct\\bin\\armasm -o ${TARGET} ${SOURCE}'
p3092
assS'.s'
p3093
g3079
sS'.vp'
p3094
(lp3095
NaS'"C:/Marmalade/6.2/s3e/python/python.exe" "c:/marmalade/6.2/modules/iwgx/tools/compile_shaders.py" ${SOURCE}'
p3096
assg488
g0
sbtp3097
.