	.arch armv5te
	.eabi_attribute 27, 3
	.fpu vfp
	.eabi_attribute 20, 1
	.eabi_attribute 21, 1
	.eabi_attribute 23, 3
	.eabi_attribute 24, 1
	.eabi_attribute 25, 1
	.eabi_attribute 26, 2
	.eabi_attribute 30, 6
	.eabi_attribute 18, 2
	.file	"panel.cpp"
	.text
.Ltext0:
	.cfi_sections	.debug_frame
	.section	.text._ZL11IwDebugExitv,"ax",%progbits
	.align	2
	.type	_ZL11IwDebugExitv, %function
_ZL11IwDebugExitv:
.LFB0:
	.file 1 "c:/marmalade/6.2/modules/iwutil/h/IwDebug.h"
	.loc 1 354 0
	.cfi_startproc
	@ args = 0, pretend = 0, frame = 0
	@ frame_needed = 0, uses_anonymous_args = 0
	stmfd	sp!, {r3, lr}
.LCFI0:
	.cfi_def_cfa_offset 8
	.loc 1 355 0
	.cfi_offset 14, -4
	.cfi_offset 3, -8
	bl	abort
	.cfi_endproc
.LFE0:
	.size	_ZL11IwDebugExitv, .-_ZL11IwDebugExitv
	.section	.text._ZN8CIwSVec2C1Ess,"axG",%progbits,_ZN8CIwSVec2C1Ess,comdat
	.align	2
	.weak	_ZN8CIwSVec2C1Ess
	.hidden	_ZN8CIwSVec2C1Ess
	.type	_ZN8CIwSVec2C1Ess, %function
_ZN8CIwSVec2C1Ess:
.LFB131:
	.file 2 "c:/marmalade/6.2/modules/iwgeom/h/IwGeomSVec2.h"
	.loc 2 72 0
	.cfi_startproc
	@ args = 0, pretend = 0, frame = 8
	@ frame_needed = 0, uses_anonymous_args = 0
	@ link register save eliminated.
	sub	sp, sp, #8
.LCFI1:
	.cfi_def_cfa_offset 8
	str	r0, [sp, #4]
	mov	r3, r2
	strh	r1, [sp, #2]	@ movhi
	strh	r3, [sp, #0]	@ movhi
	.loc 2 72 0
	ldr	r3, [sp, #4]
	ldrh	r2, [sp, #2]	@ movhi
	strh	r2, [r3, #0]	@ movhi
	ldr	r3, [sp, #4]
	ldrh	r2, [sp, #0]	@ movhi
	strh	r2, [r3, #2]	@ movhi
	ldr	r3, [sp, #4]
	mov	r0, r3
	add	sp, sp, #8
	bx	lr
	.cfi_endproc
.LFE131:
	.size	_ZN8CIwSVec2C1Ess, .-_ZN8CIwSVec2C1Ess
	.section	.text._ZN8CIwSVec2aSERKS_,"axG",%progbits,_ZN8CIwSVec2aSERKS_,comdat
	.align	2
	.weak	_ZN8CIwSVec2aSERKS_
	.hidden	_ZN8CIwSVec2aSERKS_
	.type	_ZN8CIwSVec2aSERKS_, %function
_ZN8CIwSVec2aSERKS_:
.LFB134:
	.loc 2 359 0
	.cfi_startproc
	@ args = 0, pretend = 0, frame = 8
	@ frame_needed = 0, uses_anonymous_args = 0
	@ link register save eliminated.
	sub	sp, sp, #8
.LCFI2:
	.cfi_def_cfa_offset 8
	str	r0, [sp, #4]
	str	r1, [sp, #0]
	.loc 2 360 0
	ldr	r3, [sp, #0]
	ldrh	r2, [r3, #0]
	ldr	r3, [sp, #4]
	strh	r2, [r3, #0]	@ movhi
	.loc 2 361 0
	ldr	r3, [sp, #0]
	ldrh	r2, [r3, #2]
	ldr	r3, [sp, #4]
	strh	r2, [r3, #2]	@ movhi
	.loc 2 362 0
	ldr	r3, [sp, #4]
	.loc 2 363 0
	mov	r0, r3
	add	sp, sp, #8
	bx	lr
	.cfi_endproc
.LFE134:
	.size	_ZN8CIwSVec2aSERKS_, .-_ZN8CIwSVec2aSERKS_
	.section	.text._ZnwjPv,"axG",%progbits,_ZnwjPv,comdat
	.align	2
	.weak	_ZnwjPv
	.hidden	_ZnwjPv
	.type	_ZnwjPv, %function
_ZnwjPv:
.LFB993:
	.file 3 "c:/marmalade/6.2/s3e/h/std/c++/new.h"
	.loc 3 52 0
	.cfi_startproc
	@ args = 0, pretend = 0, frame = 8
	@ frame_needed = 0, uses_anonymous_args = 0
	@ link register save eliminated.
	sub	sp, sp, #8
.LCFI3:
	.cfi_def_cfa_offset 8
	str	r0, [sp, #4]
	str	r1, [sp, #0]
	.loc 3 52 0
	ldr	r3, [sp, #0]
	mov	r0, r3
	add	sp, sp, #8
	bx	lr
	.cfi_endproc
.LFE993:
	.size	_ZnwjPv, .-_ZnwjPv
	.section	.rodata
	.align	2
.LC0:
	.ascii	"\000"
	.section	.text._ZN5Panel4LoadEv,"ax",%progbits
	.align	2
	.global	_ZN5Panel4LoadEv
	.hidden	_ZN5Panel4LoadEv
	.type	_ZN5Panel4LoadEv, %function
_ZN5Panel4LoadEv:
.LFB2061:
	.file 4 "c:/users/1106786/dropbox/dropbox/pg life/project impact/code/demos/demo_7_indicator/src/panel.cpp"
	.loc 4 4 0
	.cfi_startproc
	@ args = 0, pretend = 0, frame = 8
	@ frame_needed = 0, uses_anonymous_args = 0
	@ link register save eliminated.
	sub	sp, sp, #8
.LCFI4:
	.cfi_def_cfa_offset 8
	str	r0, [sp, #4]
	.loc 4 5 0
	ldr	r3, [sp, #4]
	mov	r2, #0
	strb	r2, [r3, #16]
	.loc 4 6 0
	ldr	r3, [sp, #4]
	mov	r2, #0
	strb	r2, [r3, #17]
	.loc 4 7 0
	ldr	r3, [sp, #4]
	ldr	r2, .L12
	str	r2, [r3, #36]
	.loc 4 8 0
	add	sp, sp, #8
	bx	lr
.L13:
	.align	2
.L12:
	.word	.LC0
	.cfi_endproc
.LFE2061:
	.size	_ZN5Panel4LoadEv, .-_ZN5Panel4LoadEv
	.section	.text._ZN5Panel4LoadEPc8CIwSVec2,"ax",%progbits
	.align	2
	.global	_ZN5Panel4LoadEPc8CIwSVec2
	.hidden	_ZN5Panel4LoadEPc8CIwSVec2
	.type	_ZN5Panel4LoadEPc8CIwSVec2, %function
_ZN5Panel4LoadEPc8CIwSVec2:
.LFB2062:
	.loc 4 10 0
	.cfi_startproc
	@ args = 0, pretend = 0, frame = 24
	@ frame_needed = 0, uses_anonymous_args = 0
	stmfd	sp!, {r4, r5, r6, lr}
.LCFI5:
	.cfi_def_cfa_offset 16
	sub	sp, sp, #24
.LCFI6:
	.cfi_def_cfa_offset 40
	str	r0, [sp, #12]
	str	r1, [sp, #8]
	str	r2, [sp, #4]
	.loc 4 11 0
	ldr	r3, [sp, #12]
	add	r4, r3, #20
	.cfi_offset 14, -4
	.cfi_offset 6, -8
	.cfi_offset 5, -12
	.cfi_offset 4, -16
	ldr	r0, [sp, #8]
	bl	_Z23Iw2DCreateImageResourcePKc
	mov	r3, r0
	str	r3, [sp, #16]
	add	r3, sp, #16
	mov	r0, r4
	mov	r1, r3
	bl	_ZN8CIwArrayIP10CIw2DImage12CIwAllocatorIS1_15CIwMallocRouterIS1_EE17ReallocateDefaultIS1_S5_EE6appendERKS1_
	.loc 4 12 0
	ldr	r3, [sp, #12]
	add	r2, r3, #40
	add	r3, sp, #4
	mov	r0, r2
	mov	r1, r3
	bl	_ZN8CIwSVec2aSERKS_
	.loc 4 13 0
	ldr	r3, [sp, #12]
	add	r4, r3, #44
	ldr	r3, [sp, #12]
	add	r5, r3, #20
	ldr	r3, [sp, #12]
	add	r3, r3, #20
	mov	r0, r3
	bl	_ZNK8CIwArrayIP10CIw2DImage12CIwAllocatorIS1_15CIwMallocRouterIS1_EE17ReallocateDefaultIS1_S5_EE4sizeEv
	mov	r3, r0
	sub	r3, r3, #1
	mov	r0, r5
	mov	r1, r3
	bl	_ZNK8CIwArrayIP10CIw2DImage12CIwAllocatorIS1_15CIwMallocRouterIS1_EE17ReallocateDefaultIS1_S5_EEixEi
	mov	r3, r0
	ldr	r3, [r3, #0]
	ldr	r2, [r3, #0]
	ldr	r2, [r2, #0]
	mov	r0, r3
	blx	r2
	mov	r3, r0
	mov	r3, r3, asl #16
	mov	r5, r3, lsr #16
	ldr	r3, [sp, #12]
	add	r6, r3, #20
	ldr	r3, [sp, #12]
	add	r3, r3, #20
	mov	r0, r3
	bl	_ZNK8CIwArrayIP10CIw2DImage12CIwAllocatorIS1_15CIwMallocRouterIS1_EE17ReallocateDefaultIS1_S5_EE4sizeEv
	mov	r3, r0
	sub	r3, r3, #1
	mov	r0, r6
	mov	r1, r3
	bl	_ZNK8CIwArrayIP10CIw2DImage12CIwAllocatorIS1_15CIwMallocRouterIS1_EE17ReallocateDefaultIS1_S5_EEixEi
	mov	r3, r0
	ldr	r3, [r3, #0]
	ldr	r2, [r3, #0]
	add	r2, r2, #4
	ldr	r2, [r2, #0]
	mov	r0, r3
	blx	r2
	mov	r3, r0
	mov	r3, r3, asl #16
	mov	r3, r3, lsr #16
	add	r1, sp, #20
	mov	r2, r5, asl #16
	mov	r2, r2, asr #16
	mov	r3, r3, asl #16
	mov	r3, r3, asr #16
	mov	r0, r1
	mov	r1, r2
	mov	r2, r3
	bl	_ZN8CIwSVec2C1Ess
	add	r3, sp, #20
	mov	r0, r4
	mov	r1, r3
	bl	_ZN8CIwSVec2aSERKS_
	.loc 4 14 0
	ldr	r3, [sp, #12]
	mov	r2, #0
	strb	r2, [r3, #16]
	.loc 4 15 0
	ldr	r3, [sp, #12]
	mov	r2, #0
	strb	r2, [r3, #17]
	.loc 4 16 0
	ldr	r3, [sp, #12]
	ldr	r2, .L16
	str	r2, [r3, #36]
	.loc 4 17 0
	add	sp, sp, #24
	ldmfd	sp!, {r4, r5, r6, pc}
.L17:
	.align	2
.L16:
	.word	.LC0
	.cfi_endproc
.LFE2062:
	.size	_ZN5Panel4LoadEPc8CIwSVec2, .-_ZN5Panel4LoadEPc8CIwSVec2
	.section	.text._ZN5Panel5SetBGE8CIwSVec2S0_j,"ax",%progbits
	.align	2
	.global	_ZN5Panel5SetBGE8CIwSVec2S0_j
	.hidden	_ZN5Panel5SetBGE8CIwSVec2S0_j
	.type	_ZN5Panel5SetBGE8CIwSVec2S0_j, %function
_ZN5Panel5SetBGE8CIwSVec2S0_j:
.LFB2063:
	.loc 4 19 0
	.cfi_startproc
	@ args = 0, pretend = 0, frame = 16
	@ frame_needed = 0, uses_anonymous_args = 0
	str	lr, [sp, #-4]!
.LCFI7:
	.cfi_def_cfa_offset 4
	sub	sp, sp, #20
.LCFI8:
	.cfi_def_cfa_offset 24
	str	r0, [sp, #12]
	str	r1, [sp, #8]
	str	r2, [sp, #4]
	str	r3, [sp, #0]
	.loc 4 20 0
	ldr	r3, [sp, #12]
	add	r2, r3, #40
	add	r3, sp, #8
	mov	r0, r2
	mov	r1, r3
	.cfi_offset 14, -4
	bl	_ZN8CIwSVec2aSERKS_
	.loc 4 21 0
	ldr	r3, [sp, #12]
	add	r2, r3, #44
	add	r3, sp, #4
	mov	r0, r2
	mov	r1, r3
	bl	_ZN8CIwSVec2aSERKS_
	.loc 4 22 0
	ldr	r3, [sp, #12]
	ldr	r2, [sp, #0]
	str	r2, [r3, #60]
	.loc 4 23 0
	add	sp, sp, #20
	ldmfd	sp!, {pc}
	.cfi_endproc
.LFE2063:
	.size	_ZN5Panel5SetBGE8CIwSVec2S0_j, .-_ZN5Panel5SetBGE8CIwSVec2S0_j
	.section	.text._ZN5Panel10SetVisibleEb,"ax",%progbits
	.align	2
	.global	_ZN5Panel10SetVisibleEb
	.hidden	_ZN5Panel10SetVisibleEb
	.type	_ZN5Panel10SetVisibleEb, %function
_ZN5Panel10SetVisibleEb:
.LFB2064:
	.loc 4 25 0
	.cfi_startproc
	@ args = 0, pretend = 0, frame = 16
	@ frame_needed = 0, uses_anonymous_args = 0
	str	lr, [sp, #-4]!
.LCFI9:
	.cfi_def_cfa_offset 4
	sub	sp, sp, #20
.LCFI10:
	.cfi_def_cfa_offset 24
	str	r0, [sp, #4]
	mov	r3, r1
	strb	r3, [sp, #3]
.LBB2:
	.loc 4 26 0
	ldr	r3, [sp, #4]
	ldrb	r2, [sp, #3]
	strb	r2, [r3, #17]
.LBB3:
	.loc 4 27 0
	ldr	r3, [sp, #4]
	mov	r0, r3
	.cfi_offset 14, -4
	bl	_ZNK8CIwArrayIP6Button12CIwAllocatorIS1_15CIwMallocRouterIS1_EE17ReallocateDefaultIS1_S5_EE4sizeEv
	mov	r3, r0
	sub	r3, r3, #1
	str	r3, [sp, #12]
	b	.L21
.L22:
	.loc 4 28 0
	ldr	r3, [sp, #4]
	mov	r0, r3
	ldr	r1, [sp, #12]
	bl	_ZNK8CIwArrayIP6Button12CIwAllocatorIS1_15CIwMallocRouterIS1_EE17ReallocateDefaultIS1_S5_EEixEi
	mov	r3, r0
	ldr	r3, [r3, #0]
	ldr	r2, [sp, #4]
	ldrb	r2, [r2, #17]	@ zero_extendqisi2
	strb	r2, [r3, #0]
	.loc 4 27 0
	ldr	r3, [sp, #12]
	sub	r3, r3, #1
	str	r3, [sp, #12]
.L21:
	ldr	r3, [sp, #12]
	cmn	r3, #1
	moveq	r3, #0
	movne	r3, #1
	and	r3, r3, #255
	cmp	r3, #0
	bne	.L22
.LBE3:
.LBE2:
	.loc 4 29 0
	add	sp, sp, #20
	ldmfd	sp!, {pc}
	.cfi_endproc
.LFE2064:
	.size	_ZN5Panel10SetVisibleEb, .-_ZN5Panel10SetVisibleEb
	.section	.text._ZN5Panel7SetTextEPc,"ax",%progbits
	.align	2
	.global	_ZN5Panel7SetTextEPc
	.hidden	_ZN5Panel7SetTextEPc
	.type	_ZN5Panel7SetTextEPc, %function
_ZN5Panel7SetTextEPc:
.LFB2065:
	.loc 4 31 0
	.cfi_startproc
	@ args = 0, pretend = 0, frame = 8
	@ frame_needed = 0, uses_anonymous_args = 0
	@ link register save eliminated.
	sub	sp, sp, #8
.LCFI11:
	.cfi_def_cfa_offset 8
	str	r0, [sp, #4]
	str	r1, [sp, #0]
	.loc 4 32 0
	ldr	r3, [sp, #4]
	ldr	r2, [sp, #0]
	str	r2, [r3, #36]
	.loc 4 33 0
	add	sp, sp, #8
	bx	lr
	.cfi_endproc
.LFE2065:
	.size	_ZN5Panel7SetTextEPc, .-_ZN5Panel7SetTextEPc
	.section	.text._ZN5Panel7SetTextEPc8CIwSVec2ij,"ax",%progbits
	.align	2
	.global	_ZN5Panel7SetTextEPc8CIwSVec2ij
	.hidden	_ZN5Panel7SetTextEPc8CIwSVec2ij
	.type	_ZN5Panel7SetTextEPc8CIwSVec2ij, %function
_ZN5Panel7SetTextEPc8CIwSVec2ij:
.LFB2066:
	.loc 4 35 0
	.cfi_startproc
	@ args = 4, pretend = 0, frame = 16
	@ frame_needed = 0, uses_anonymous_args = 0
	str	lr, [sp, #-4]!
.LCFI12:
	.cfi_def_cfa_offset 4
	sub	sp, sp, #20
.LCFI13:
	.cfi_def_cfa_offset 24
	str	r0, [sp, #12]
	str	r1, [sp, #8]
	str	r2, [sp, #4]
	str	r3, [sp, #0]
	.loc 4 36 0
	ldr	r3, [sp, #24]
	and	r2, r3, #255
	ldr	r3, [sp, #12]
	strb	r2, [r3, #56]
	.loc 4 37 0
	ldr	r3, [sp, #24]
	and	r3, r3, #65280
	mov	r3, r3, lsr #8
	and	r2, r3, #255
	ldr	r3, [sp, #12]
	strb	r2, [r3, #57]
	.loc 4 38 0
	ldr	r3, [sp, #24]
	and	r3, r3, #16711680
	mov	r3, r3, lsr #16
	and	r2, r3, #255
	ldr	r3, [sp, #12]
	strb	r2, [r3, #58]
	.loc 4 39 0
	ldr	r3, [sp, #24]
	mov	r3, r3, lsr #24
	and	r2, r3, #255
	ldr	r3, [sp, #12]
	strb	r2, [r3, #59]
	.loc 4 40 0
	ldr	r3, [sp, #12]
	ldr	r2, [sp, #8]
	str	r2, [r3, #36]
	.loc 4 41 0
	ldr	r3, [sp, #12]
	add	r2, r3, #48
	add	r3, sp, #4
	mov	r0, r2
	mov	r1, r3
	.cfi_offset 14, -4
	bl	_ZN8CIwSVec2aSERKS_
	.loc 4 42 0
	ldr	r3, [sp, #12]
	ldr	r2, [sp, #0]
	str	r2, [r3, #52]
	.loc 4 43 0
	add	sp, sp, #20
	ldmfd	sp!, {pc}
	.cfi_endproc
.LFE2066:
	.size	_ZN5Panel7SetTextEPc8CIwSVec2ij, .-_ZN5Panel7SetTextEPc8CIwSVec2ij
	.section	.text._ZN5Panel6RenderEv,"ax",%progbits
	.align	2
	.global	_ZN5Panel6RenderEv
	.hidden	_ZN5Panel6RenderEv
	.type	_ZN5Panel6RenderEv, %function
_ZN5Panel6RenderEv:
.LFB2067:
	.loc 4 45 0
	.cfi_startproc
	@ args = 0, pretend = 0, frame = 16
	@ frame_needed = 0, uses_anonymous_args = 0
	stmfd	sp!, {r4, lr}
.LCFI14:
	.cfi_def_cfa_offset 8
	sub	sp, sp, #16
.LCFI15:
	.cfi_def_cfa_offset 24
	str	r0, [sp, #4]
.LBB4:
	.loc 4 46 0
	ldr	r3, [sp, #4]
	ldrb	r3, [r3, #17]	@ zero_extendqisi2
	cmp	r3, #0
	beq	.L35
	.cfi_offset 14, -4
	.cfi_offset 4, -8
	.loc 4 47 0
	ldr	r3, [sp, #4]
	add	r3, r3, #20
	mov	r0, r3
	bl	_ZNK8CIwArrayIP10CIw2DImage12CIwAllocatorIS1_15CIwMallocRouterIS1_EE17ReallocateDefaultIS1_S5_EE4sizeEv
	mov	r3, r0
	cmp	r3, #0
	moveq	r3, #0
	movne	r3, #1
	and	r3, r3, #255
	cmp	r3, #0
	beq	.L30
	.loc 4 49 0
	ldr	r3, [sp, #4]
	add	r4, r3, #20
	ldr	r3, [sp, #4]
	add	r3, r3, #20
	mov	r0, r3
	bl	_ZNK8CIwArrayIP10CIw2DImage12CIwAllocatorIS1_15CIwMallocRouterIS1_EE17ReallocateDefaultIS1_S5_EE4sizeEv
	mov	r3, r0
	sub	r3, r3, #1
	mov	r0, r4
	mov	r1, r3
	bl	_ZNK8CIwArrayIP10CIw2DImage12CIwAllocatorIS1_15CIwMallocRouterIS1_EE17ReallocateDefaultIS1_S5_EEixEi
	mov	r3, r0
	ldr	r2, [r3, #0]
	ldr	r3, [sp, #4]
	mov	r0, r2
	ldr	r1, [r3, #40]
	bl	_Z13Iw2DDrawImageP10CIw2DImage8CIwSVec2
	b	.L31
.L30:
	.loc 4 53 0
	ldr	r3, [sp, #4]
	ldr	r3, [r3, #60]
	mov	r0, r3
	bl	_Z13Iw2DSetColourj
	.loc 4 54 0
	ldr	r2, [sp, #4]
	ldr	r3, [sp, #4]
	ldr	r0, [r2, #40]
	ldr	r1, [r3, #44]
	bl	_Z12Iw2DFillRect8CIwSVec2S_
	.loc 4 55 0
	mvn	r0, #0
	bl	_Z13Iw2DSetColourj
.L31:
	.loc 4 57 0
	ldr	r3, [sp, #4]
	ldr	r2, [r3, #36]
	ldr	r3, .L36
	cmp	r2, r3
	beq	.L32
	.loc 4 59 0
	ldr	r3, [sp, #4]
	ldrb	r1, [r3, #59]	@ zero_extendqisi2
	ldr	r3, [sp, #4]
	ldrb	r2, [r3, #58]	@ zero_extendqisi2
	ldr	r3, [sp, #4]
	ldrb	r3, [r3, #57]	@ zero_extendqisi2
	mov	r0, r1
	mov	r1, r2
	mov	r2, r3
	bl	_Z18IwGxPrintSetColourhhh
	.loc 4 60 0
	ldr	r3, [sp, #4]
	ldr	r3, [r3, #52]
	mov	r0, r3
	bl	_Z17IwGxPrintSetScalei
	.loc 4 61 0
	ldr	r3, [sp, #4]
	ldrh	r3, [r3, #48]
	mov	r3, r3, asl #16
	mov	r1, r3, asr #16
	ldr	r3, [sp, #4]
	ldrh	r3, [r3, #50]
	mov	r3, r3, asl #16
	mov	r2, r3, asr #16
	ldr	r3, [sp, #4]
	ldr	r3, [r3, #36]
	mov	r0, r1
	mov	r1, r2
	mov	r2, r3
	mov	r3, #1
	bl	_Z15IwGxPrintStringiiPKcb
.L32:
.LBB5:
	.loc 4 63 0
	ldr	r3, [sp, #4]
	mov	r0, r3
	bl	_ZNK8CIwArrayIP6Button12CIwAllocatorIS1_15CIwMallocRouterIS1_EE17ReallocateDefaultIS1_S5_EE4sizeEv
	mov	r3, r0
	sub	r3, r3, #1
	str	r3, [sp, #12]
	b	.L33
.L34:
	.loc 4 64 0
	ldr	r3, [sp, #4]
	mov	r0, r3
	ldr	r1, [sp, #12]
	bl	_ZNK8CIwArrayIP6Button12CIwAllocatorIS1_15CIwMallocRouterIS1_EE17ReallocateDefaultIS1_S5_EEixEi
	mov	r3, r0
	ldr	r3, [r3, #0]
	mov	r0, r3
	bl	_ZN6Button6RenderEv
	.loc 4 63 0
	ldr	r3, [sp, #12]
	sub	r3, r3, #1
	str	r3, [sp, #12]
.L33:
	ldr	r3, [sp, #12]
	cmn	r3, #1
	moveq	r3, #0
	movne	r3, #1
	and	r3, r3, #255
	cmp	r3, #0
	bne	.L34
.L35:
.LBE5:
.LBE4:
	.loc 4 66 0
	add	sp, sp, #16
	ldmfd	sp!, {r4, pc}
.L37:
	.align	2
.L36:
	.word	.LC0
	.cfi_endproc
.LFE2067:
	.size	_ZN5Panel6RenderEv, .-_ZN5Panel6RenderEv
	.section	.text._ZN5Panel9IsTouchedEv,"ax",%progbits
	.align	2
	.global	_ZN5Panel9IsTouchedEv
	.hidden	_ZN5Panel9IsTouchedEv
	.type	_ZN5Panel9IsTouchedEv, %function
_ZN5Panel9IsTouchedEv:
.LFB2068:
	.loc 4 68 0
	.cfi_startproc
	@ args = 0, pretend = 0, frame = 16
	@ frame_needed = 0, uses_anonymous_args = 0
	str	lr, [sp, #-4]!
.LCFI16:
	.cfi_def_cfa_offset 4
	sub	sp, sp, #20
.LCFI17:
	.cfi_def_cfa_offset 24
	str	r0, [sp, #4]
.LBB6:
	.loc 4 69 0
	ldr	r3, [sp, #4]
	ldrb	r3, [r3, #17]	@ zero_extendqisi2
	cmp	r3, #0
	beq	.L39
	.cfi_offset 14, -4
.LBB7:
	.loc 4 70 0
	ldr	r3, [sp, #4]
	mov	r0, r3
	bl	_ZNK8CIwArrayIP6Button12CIwAllocatorIS1_15CIwMallocRouterIS1_EE17ReallocateDefaultIS1_S5_EE4sizeEv
	mov	r3, r0
	sub	r3, r3, #1
	str	r3, [sp, #12]
	b	.L40
.L43:
	.loc 4 71 0
	ldr	r3, [sp, #4]
	mov	r0, r3
	ldr	r1, [sp, #12]
	bl	_ZNK8CIwArrayIP6Button12CIwAllocatorIS1_15CIwMallocRouterIS1_EE17ReallocateDefaultIS1_S5_EEixEi
	mov	r3, r0
	ldr	r3, [r3, #0]
	mov	r0, r3
	bl	_ZN6Button9IsTouchedEv
	mov	r3, r0
	cmp	r3, #0
	beq	.L41
	.loc 4 74 0
	ldr	r3, [sp, #4]
	mov	r0, r3
	ldr	r1, [sp, #12]
	bl	_ZNK8CIwArrayIP6Button12CIwAllocatorIS1_15CIwMallocRouterIS1_EE17ReallocateDefaultIS1_S5_EEixEi
	mov	r3, r0
	ldr	r3, [r3, #0]
	ldr	r3, [r3, #52]
	b	.L42
.L41:
	.loc 4 70 0
	ldr	r3, [sp, #12]
	sub	r3, r3, #1
	str	r3, [sp, #12]
.L40:
	ldr	r3, [sp, #12]
	cmn	r3, #1
	moveq	r3, #0
	movne	r3, #1
	and	r3, r3, #255
	cmp	r3, #0
	bne	.L43
.L39:
.LBE7:
	.loc 4 76 0
	mvn	r3, #0
.L42:
.LBE6:
	.loc 4 77 0
	mov	r0, r3
	add	sp, sp, #20
	ldmfd	sp!, {pc}
	.cfi_endproc
.LFE2068:
	.size	_ZN5Panel9IsTouchedEv, .-_ZN5Panel9IsTouchedEv
	.section	.text._ZN8CIwArrayIP10CIw2DImage12CIwAllocatorIS1_15CIwMallocRouterIS1_EE17ReallocateDefaultIS1_S5_EE6appendERKS1_,"axG",%progbits,_ZN8CIwArrayIP10CIw2DImage12CIwAllocatorIS1_15CIwMallocRouterIS1_EE17ReallocateDefaultIS1_S5_EE6appendERKS1_,comdat
	.align	2
	.weak	_ZN8CIwArrayIP10CIw2DImage12CIwAllocatorIS1_15CIwMallocRouterIS1_EE17ReallocateDefaultIS1_S5_EE6appendERKS1_
	.hidden	_ZN8CIwArrayIP10CIw2DImage12CIwAllocatorIS1_15CIwMallocRouterIS1_EE17ReallocateDefaultIS1_S5_EE6appendERKS1_
	.type	_ZN8CIwArrayIP10CIw2DImage12CIwAllocatorIS1_15CIwMallocRouterIS1_EE17ReallocateDefaultIS1_S5_EE6appendERKS1_, %function
_ZN8CIwArrayIP10CIw2DImage12CIwAllocatorIS1_15CIwMallocRouterIS1_EE17ReallocateDefaultIS1_S5_EE6appendERKS1_:
.LFB2163:
	.file 5 "c:/marmalade/6.2/modules/iwutil/h/IwArray.h"
	.loc 5 594 0
	.cfi_startproc
	@ args = 0, pretend = 0, frame = 8
	@ frame_needed = 0, uses_anonymous_args = 0
	str	lr, [sp, #-4]!
.LCFI18:
	.cfi_def_cfa_offset 4
	sub	sp, sp, #12
.LCFI19:
	.cfi_def_cfa_offset 16
	str	r0, [sp, #4]
	str	r1, [sp, #0]
	.loc 5 594 0
	ldr	r0, [sp, #4]
	ldr	r1, [sp, #0]
	.cfi_offset 14, -4
	bl	_ZN8CIwArrayIP10CIw2DImage12CIwAllocatorIS1_15CIwMallocRouterIS1_EE17ReallocateDefaultIS1_S5_EE9push_backERKS1_
	mov	r3, r0
	mov	r0, r3
	add	sp, sp, #12
	ldmfd	sp!, {pc}
	.cfi_endproc
.LFE2163:
	.size	_ZN8CIwArrayIP10CIw2DImage12CIwAllocatorIS1_15CIwMallocRouterIS1_EE17ReallocateDefaultIS1_S5_EE6appendERKS1_, .-_ZN8CIwArrayIP10CIw2DImage12CIwAllocatorIS1_15CIwMallocRouterIS1_EE17ReallocateDefaultIS1_S5_EE6appendERKS1_
	.section	.text._ZNK8CIwArrayIP10CIw2DImage12CIwAllocatorIS1_15CIwMallocRouterIS1_EE17ReallocateDefaultIS1_S5_EE4sizeEv,"axG",%progbits,_ZNK8CIwArrayIP10CIw2DImage12CIwAllocatorIS1_15CIwMallocRouterIS1_EE17ReallocateDefaultIS1_S5_EE4sizeEv,comdat
	.align	2
	.weak	_ZNK8CIwArrayIP10CIw2DImage12CIwAllocatorIS1_15CIwMallocRouterIS1_EE17ReallocateDefaultIS1_S5_EE4sizeEv
	.hidden	_ZNK8CIwArrayIP10CIw2DImage12CIwAllocatorIS1_15CIwMallocRouterIS1_EE17ReallocateDefaultIS1_S5_EE4sizeEv
	.type	_ZNK8CIwArrayIP10CIw2DImage12CIwAllocatorIS1_15CIwMallocRouterIS1_EE17ReallocateDefaultIS1_S5_EE4sizeEv, %function
_ZNK8CIwArrayIP10CIw2DImage12CIwAllocatorIS1_15CIwMallocRouterIS1_EE17ReallocateDefaultIS1_S5_EE4sizeEv:
.LFB2164:
	.loc 5 113 0
	.cfi_startproc
	@ args = 0, pretend = 0, frame = 8
	@ frame_needed = 0, uses_anonymous_args = 0
	@ link register save eliminated.
	sub	sp, sp, #8
.LCFI20:
	.cfi_def_cfa_offset 8
	str	r0, [sp, #4]
	.loc 5 113 0
	ldr	r3, [sp, #4]
	ldr	r3, [r3, #4]
	mov	r0, r3
	add	sp, sp, #8
	bx	lr
	.cfi_endproc
.LFE2164:
	.size	_ZNK8CIwArrayIP10CIw2DImage12CIwAllocatorIS1_15CIwMallocRouterIS1_EE17ReallocateDefaultIS1_S5_EE4sizeEv, .-_ZNK8CIwArrayIP10CIw2DImage12CIwAllocatorIS1_15CIwMallocRouterIS1_EE17ReallocateDefaultIS1_S5_EE4sizeEv
	.section	.rodata
	.align	2
.LC1:
	.ascii	"CORE\000"
	.align	2
.LC2:
	.ascii	"invalid index (%d) into array of size %u\000"
	.align	2
.LC3:
	.ascii	"i>=0 && index<num_p\000"
	.align	2
.LC4:
	.ascii	"c:/marmalade/6.2/modules/iwutil/h/IwArray.h\000"
	.section	.text._ZNK8CIwArrayIP10CIw2DImage12CIwAllocatorIS1_15CIwMallocRouterIS1_EE17ReallocateDefaultIS1_S5_EEixEi,"axG",%progbits,_ZNK8CIwArrayIP10CIw2DImage12CIwAllocatorIS1_15CIwMallocRouterIS1_EE17ReallocateDefaultIS1_S5_EEixEi,comdat
	.align	2
	.weak	_ZNK8CIwArrayIP10CIw2DImage12CIwAllocatorIS1_15CIwMallocRouterIS1_EE17ReallocateDefaultIS1_S5_EEixEi
	.hidden	_ZNK8CIwArrayIP10CIw2DImage12CIwAllocatorIS1_15CIwMallocRouterIS1_EE17ReallocateDefaultIS1_S5_EEixEi
	.type	_ZNK8CIwArrayIP10CIw2DImage12CIwAllocatorIS1_15CIwMallocRouterIS1_EE17ReallocateDefaultIS1_S5_EEixEi, %function
_ZNK8CIwArrayIP10CIw2DImage12CIwAllocatorIS1_15CIwMallocRouterIS1_EE17ReallocateDefaultIS1_S5_EEixEi:
.LFB2165:
	.loc 5 694 0
	.cfi_startproc
	@ args = 0, pretend = 0, frame = 16
	@ frame_needed = 0, uses_anonymous_args = 0
	str	lr, [sp, #-4]!
.LCFI21:
	.cfi_def_cfa_offset 4
	sub	sp, sp, #20
.LCFI22:
	.cfi_def_cfa_offset 24
	str	r0, [sp, #4]
	str	r1, [sp, #0]
.LBB8:
	.loc 5 696 0
	ldr	r3, [sp, #0]
	str	r3, [sp, #12]
.LBB9:
	.loc 5 697 0
	ldr	r3, [sp, #0]
	cmp	r3, #0
	blt	.L50
	.cfi_offset 14, -4
	ldr	r3, [sp, #4]
	ldr	r2, [r3, #4]
	ldr	r3, [sp, #12]
	cmp	r2, r3
	bhi	.L51
.L50:
	ldr	r0, .L62
	bl	IwDebugAssertIsChannelOn
	mov	r3, r0
	cmp	r3, #0
	beq	.L51
	ldr	r3, .L62+4
	ldrb	r3, [r3, #0]	@ zero_extendqisi2
	cmp	r3, #0
	bne	.L51
	mov	r3, #1
	b	.L52
.L51:
	mov	r3, #0
.L52:
	cmp	r3, #0
	beq	.L53
	mov	r0, #0
	bl	IwDebugAssertSetSolution
	ldr	r0, .L62+8
	bl	IwDebugAssertSetUID
	ldr	r3, [sp, #4]
	ldr	r3, [r3, #4]
	ldr	r0, .L62+12
	ldr	r1, [sp, #0]
	mov	r2, r3
	bl	IwDebugAssertSetMessage
	ldr	r0, .L62+16
	ldr	r1, .L62+20
	ldr	r2, .L62+24
	mov	r3, #1
	bl	IwDebugAssertShow
	mov	r3, r0
	cmp	r3, #1
	beq	.L55
	cmp	r3, #2
	beq	.L56
	b	.L54
.L55:
	bl	s3eDebugIsDebuggerPresent
	mov	r3, r0
	cmp	r3, #0
	moveq	r3, #0
	movne	r3, #1
	and	r3, r3, #255
	cmp	r3, #0
	beq	.L57
	bl	s3eDebugIsDebuggerPresent
	mov	r3, r0
	cmp	r3, #0
	moveq	r3, #0
	movne	r3, #1
	and	r3, r3, #255
	cmp	r3, #0
	beq	.L61
	mvn	r3, #11
	mov	r2, #0
	str	r2, [r3, #0]
	b	.L54
.L57:
	bl	_ZL11IwDebugExitv
	b	.L54
.L56:
	ldr	r3, .L62+4
	mov	r2, #1
	strb	r2, [r3, #0]
	b	.L54
.L61:
	mov	r0, r0	@ nop
.L54:
	mov	r0, #0
	bl	IwDebugAssertSetUID
.L53:
.LBE9:
	.loc 5 698 0
	ldr	r3, [sp, #4]
	ldr	r2, [r3, #0]
	ldr	r3, [sp, #12]
	mov	r3, r3, asl #2
	add	r3, r2, r3
.LBE8:
	.loc 5 699 0
	mov	r0, r3
	add	sp, sp, #20
	ldmfd	sp!, {pc}
.L63:
	.align	2
.L62:
	.word	.LC1
	.word	_ZZNK8CIwArrayIP10CIw2DImage12CIwAllocatorIS1_15CIwMallocRouterIS1_EE17ReallocateDefaultIS1_S5_EEixEiE21_s_IwAssertIgnoreThis
	.word	1731
	.word	.LC2
	.word	.LC3
	.word	.LC4
	.word	697
	.cfi_endproc
.LFE2165:
	.size	_ZNK8CIwArrayIP10CIw2DImage12CIwAllocatorIS1_15CIwMallocRouterIS1_EE17ReallocateDefaultIS1_S5_EEixEi, .-_ZNK8CIwArrayIP10CIw2DImage12CIwAllocatorIS1_15CIwMallocRouterIS1_EE17ReallocateDefaultIS1_S5_EEixEi
	.section	.text._ZNK8CIwArrayIP6Button12CIwAllocatorIS1_15CIwMallocRouterIS1_EE17ReallocateDefaultIS1_S5_EE4sizeEv,"axG",%progbits,_ZNK8CIwArrayIP6Button12CIwAllocatorIS1_15CIwMallocRouterIS1_EE17ReallocateDefaultIS1_S5_EE4sizeEv,comdat
	.align	2
	.weak	_ZNK8CIwArrayIP6Button12CIwAllocatorIS1_15CIwMallocRouterIS1_EE17ReallocateDefaultIS1_S5_EE4sizeEv
	.hidden	_ZNK8CIwArrayIP6Button12CIwAllocatorIS1_15CIwMallocRouterIS1_EE17ReallocateDefaultIS1_S5_EE4sizeEv
	.type	_ZNK8CIwArrayIP6Button12CIwAllocatorIS1_15CIwMallocRouterIS1_EE17ReallocateDefaultIS1_S5_EE4sizeEv, %function
_ZNK8CIwArrayIP6Button12CIwAllocatorIS1_15CIwMallocRouterIS1_EE17ReallocateDefaultIS1_S5_EE4sizeEv:
.LFB2166:
	.loc 5 113 0
	.cfi_startproc
	@ args = 0, pretend = 0, frame = 8
	@ frame_needed = 0, uses_anonymous_args = 0
	@ link register save eliminated.
	sub	sp, sp, #8
.LCFI23:
	.cfi_def_cfa_offset 8
	str	r0, [sp, #4]
	.loc 5 113 0
	ldr	r3, [sp, #4]
	ldr	r3, [r3, #4]
	mov	r0, r3
	add	sp, sp, #8
	bx	lr
	.cfi_endproc
.LFE2166:
	.size	_ZNK8CIwArrayIP6Button12CIwAllocatorIS1_15CIwMallocRouterIS1_EE17ReallocateDefaultIS1_S5_EE4sizeEv, .-_ZNK8CIwArrayIP6Button12CIwAllocatorIS1_15CIwMallocRouterIS1_EE17ReallocateDefaultIS1_S5_EE4sizeEv
	.section	.text._ZNK8CIwArrayIP6Button12CIwAllocatorIS1_15CIwMallocRouterIS1_EE17ReallocateDefaultIS1_S5_EEixEi,"axG",%progbits,_ZNK8CIwArrayIP6Button12CIwAllocatorIS1_15CIwMallocRouterIS1_EE17ReallocateDefaultIS1_S5_EEixEi,comdat
	.align	2
	.weak	_ZNK8CIwArrayIP6Button12CIwAllocatorIS1_15CIwMallocRouterIS1_EE17ReallocateDefaultIS1_S5_EEixEi
	.hidden	_ZNK8CIwArrayIP6Button12CIwAllocatorIS1_15CIwMallocRouterIS1_EE17ReallocateDefaultIS1_S5_EEixEi
	.type	_ZNK8CIwArrayIP6Button12CIwAllocatorIS1_15CIwMallocRouterIS1_EE17ReallocateDefaultIS1_S5_EEixEi, %function
_ZNK8CIwArrayIP6Button12CIwAllocatorIS1_15CIwMallocRouterIS1_EE17ReallocateDefaultIS1_S5_EEixEi:
.LFB2167:
	.loc 5 694 0
	.cfi_startproc
	@ args = 0, pretend = 0, frame = 16
	@ frame_needed = 0, uses_anonymous_args = 0
	str	lr, [sp, #-4]!
.LCFI24:
	.cfi_def_cfa_offset 4
	sub	sp, sp, #20
.LCFI25:
	.cfi_def_cfa_offset 24
	str	r0, [sp, #4]
	str	r1, [sp, #0]
.LBB10:
	.loc 5 696 0
	ldr	r3, [sp, #0]
	str	r3, [sp, #12]
.LBB11:
	.loc 5 697 0
	ldr	r3, [sp, #0]
	cmp	r3, #0
	blt	.L67
	.cfi_offset 14, -4
	ldr	r3, [sp, #4]
	ldr	r2, [r3, #4]
	ldr	r3, [sp, #12]
	cmp	r2, r3
	bhi	.L68
.L67:
	ldr	r0, .L79
	bl	IwDebugAssertIsChannelOn
	mov	r3, r0
	cmp	r3, #0
	beq	.L68
	ldr	r3, .L79+4
	ldrb	r3, [r3, #0]	@ zero_extendqisi2
	cmp	r3, #0
	bne	.L68
	mov	r3, #1
	b	.L69
.L68:
	mov	r3, #0
.L69:
	cmp	r3, #0
	beq	.L70
	mov	r0, #0
	bl	IwDebugAssertSetSolution
	ldr	r0, .L79+8
	bl	IwDebugAssertSetUID
	ldr	r3, [sp, #4]
	ldr	r3, [r3, #4]
	ldr	r0, .L79+12
	ldr	r1, [sp, #0]
	mov	r2, r3
	bl	IwDebugAssertSetMessage
	ldr	r0, .L79+16
	ldr	r1, .L79+20
	ldr	r2, .L79+24
	mov	r3, #1
	bl	IwDebugAssertShow
	mov	r3, r0
	cmp	r3, #1
	beq	.L72
	cmp	r3, #2
	beq	.L73
	b	.L71
.L72:
	bl	s3eDebugIsDebuggerPresent
	mov	r3, r0
	cmp	r3, #0
	moveq	r3, #0
	movne	r3, #1
	and	r3, r3, #255
	cmp	r3, #0
	beq	.L74
	bl	s3eDebugIsDebuggerPresent
	mov	r3, r0
	cmp	r3, #0
	moveq	r3, #0
	movne	r3, #1
	and	r3, r3, #255
	cmp	r3, #0
	beq	.L78
	mvn	r3, #11
	mov	r2, #0
	str	r2, [r3, #0]
	b	.L71
.L74:
	bl	_ZL11IwDebugExitv
	b	.L71
.L73:
	ldr	r3, .L79+4
	mov	r2, #1
	strb	r2, [r3, #0]
	b	.L71
.L78:
	mov	r0, r0	@ nop
.L71:
	mov	r0, #0
	bl	IwDebugAssertSetUID
.L70:
.LBE11:
	.loc 5 698 0
	ldr	r3, [sp, #4]
	ldr	r2, [r3, #0]
	ldr	r3, [sp, #12]
	mov	r3, r3, asl #2
	add	r3, r2, r3
.LBE10:
	.loc 5 699 0
	mov	r0, r3
	add	sp, sp, #20
	ldmfd	sp!, {pc}
.L80:
	.align	2
.L79:
	.word	.LC1
	.word	_ZZNK8CIwArrayIP6Button12CIwAllocatorIS1_15CIwMallocRouterIS1_EE17ReallocateDefaultIS1_S5_EEixEiE21_s_IwAssertIgnoreThis
	.word	1731
	.word	.LC2
	.word	.LC3
	.word	.LC4
	.word	697
	.cfi_endproc
.LFE2167:
	.size	_ZNK8CIwArrayIP6Button12CIwAllocatorIS1_15CIwMallocRouterIS1_EE17ReallocateDefaultIS1_S5_EEixEi, .-_ZNK8CIwArrayIP6Button12CIwAllocatorIS1_15CIwMallocRouterIS1_EE17ReallocateDefaultIS1_S5_EEixEi
	.section	.text._ZN12CIwAllocatorIP10CIw2DImage15CIwMallocRouterIS1_EE10deallocateEPS1_j,"axG",%progbits,_ZN12CIwAllocatorIP10CIw2DImage15CIwMallocRouterIS1_EE10deallocateEPS1_j,comdat
	.align	2
	.weak	_ZN12CIwAllocatorIP10CIw2DImage15CIwMallocRouterIS1_EE10deallocateEPS1_j
	.hidden	_ZN12CIwAllocatorIP10CIw2DImage15CIwMallocRouterIS1_EE10deallocateEPS1_j
	.type	_ZN12CIwAllocatorIP10CIw2DImage15CIwMallocRouterIS1_EE10deallocateEPS1_j, %function
_ZN12CIwAllocatorIP10CIw2DImage15CIwMallocRouterIS1_EE10deallocateEPS1_j:
.LFB2206:
	.file 6 "c:/marmalade/6.2/modules/iwutil/h/IwAllocator.h"
	.loc 6 147 0
	.cfi_startproc
	@ args = 0, pretend = 0, frame = 16
	@ frame_needed = 0, uses_anonymous_args = 0
	str	lr, [sp, #-4]!
.LCFI26:
	.cfi_def_cfa_offset 4
	sub	sp, sp, #20
.LCFI27:
	.cfi_def_cfa_offset 24
	str	r0, [sp, #12]
	str	r1, [sp, #8]
	str	r2, [sp, #4]
	.loc 6 147 0
	ldr	r0, [sp, #8]
	.cfi_offset 14, -4
	bl	_ZN15CIwMallocRouterIP10CIw2DImageE6DoFreeEPv
	add	sp, sp, #20
	ldmfd	sp!, {pc}
	.cfi_endproc
.LFE2206:
	.size	_ZN12CIwAllocatorIP10CIw2DImage15CIwMallocRouterIS1_EE10deallocateEPS1_j, .-_ZN12CIwAllocatorIP10CIw2DImage15CIwMallocRouterIS1_EE10deallocateEPS1_j
	.section	.rodata
	.align	2
.LC5:
	.ascii	"Attempting to change capacity of an array that does"
	.ascii	"n't own its data allocation.\000"
	.align	2
.LC6:
	.ascii	"!block_delete\000"
	.align	2
.LC7:
	.ascii	"Attempting to expand an array that has its size loc"
	.ascii	"ked.\000"
	.align	2
.LC8:
	.ascii	"!no_grow || q <= max_p\000"
	.align	2
.LC9:
	.ascii	"q>=num_p\000"
	.section	.text._ZN8CIwArrayIP10CIw2DImage12CIwAllocatorIS1_15CIwMallocRouterIS1_EE17ReallocateDefaultIS1_S5_EE12set_capacityEj,"axG",%progbits,_ZN8CIwArrayIP10CIw2DImage12CIwAllocatorIS1_15CIwMallocRouterIS1_EE17ReallocateDefaultIS1_S5_EE12set_capacityEj,comdat
	.align	2
	.weak	_ZN8CIwArrayIP10CIw2DImage12CIwAllocatorIS1_15CIwMallocRouterIS1_EE17ReallocateDefaultIS1_S5_EE12set_capacityEj
	.hidden	_ZN8CIwArrayIP10CIw2DImage12CIwAllocatorIS1_15CIwMallocRouterIS1_EE17ReallocateDefaultIS1_S5_EE12set_capacityEj
	.type	_ZN8CIwArrayIP10CIw2DImage12CIwAllocatorIS1_15CIwMallocRouterIS1_EE17ReallocateDefaultIS1_S5_EE12set_capacityEj, %function
_ZN8CIwArrayIP10CIw2DImage12CIwAllocatorIS1_15CIwMallocRouterIS1_EE17ReallocateDefaultIS1_S5_EE12set_capacityEj:
.LFB2208:
	.loc 5 804 0
	.cfi_startproc
	@ args = 0, pretend = 0, frame = 8
	@ frame_needed = 0, uses_anonymous_args = 0
	str	lr, [sp, #-4]!
.LCFI28:
	.cfi_def_cfa_offset 4
	sub	sp, sp, #20
.LCFI29:
	.cfi_def_cfa_offset 24
	str	r0, [sp, #12]
	str	r1, [sp, #8]
.LBB12:
.LBB13:
	.loc 5 806 0
	ldr	r3, [sp, #12]
	ldrb	r3, [r3, #12]
	and	r3, r3, #1
	and	r3, r3, #255
	cmp	r3, #0
	beq	.L84
	.cfi_offset 14, -4
	ldr	r0, .L121
	bl	IwDebugAssertIsChannelOn
	mov	r3, r0
	cmp	r3, #0
	beq	.L85
	ldr	r3, .L121+4
	ldrb	r3, [r3, #0]	@ zero_extendqisi2
	cmp	r3, #0
	bne	.L85
	mov	r3, #1
	b	.L86
.L85:
	mov	r3, #0
.L86:
	cmp	r3, #0
	beq	.L116
	ldr	r0, .L121+8
	bl	IwDebugAssertSetUID
	ldr	r0, .L121+12
	bl	IwDebugAssertSetMessage
	ldr	r0, .L121+16
	ldr	r1, .L121+20
	ldr	r2, .L121+24
	mov	r3, #1
	bl	IwDebugAssertShow
	mov	r3, r0
	cmp	r3, #1
	beq	.L89
	cmp	r3, #2
	beq	.L90
	b	.L88
.L89:
	bl	s3eDebugIsDebuggerPresent
	mov	r3, r0
	cmp	r3, #0
	moveq	r3, #0
	movne	r3, #1
	and	r3, r3, #255
	cmp	r3, #0
	beq	.L91
	bl	s3eDebugIsDebuggerPresent
	mov	r3, r0
	cmp	r3, #0
	moveq	r3, #0
	movne	r3, #1
	and	r3, r3, #255
	cmp	r3, #0
	beq	.L117
	mvn	r3, #11
	mov	r2, #0
	str	r2, [r3, #0]
	b	.L88
.L91:
	bl	_ZL11IwDebugExitv
	b	.L88
.L90:
	ldr	r3, .L121+4
	mov	r2, #1
	strb	r2, [r3, #0]
	b	.L88
.L117:
	mov	r0, r0	@ nop
.L88:
	mov	r0, #0
	bl	IwDebugAssertSetUID
	b	.L115
.L84:
.LBE13:
.LBB14:
	.loc 5 807 0
	ldr	r3, [sp, #12]
	ldrb	r3, [r3, #12]	@ zero_extendqisi2
	mov	r3, r3, lsr #1
	and	r3, r3, #1
	and	r3, r3, #255
	cmp	r3, #0
	beq	.L95
	ldr	r3, [sp, #12]
	ldr	r2, [r3, #8]
	ldr	r3, [sp, #8]
	cmp	r2, r3
	bcs	.L95
	ldr	r0, .L121
	bl	IwDebugAssertIsChannelOn
	mov	r3, r0
	cmp	r3, #0
	beq	.L95
	ldr	r3, .L121+28
	ldrb	r3, [r3, #0]	@ zero_extendqisi2
	cmp	r3, #0
	bne	.L95
	mov	r3, #1
	b	.L96
.L95:
	mov	r3, #0
.L96:
	cmp	r3, #0
	beq	.L97
	mov	r0, #0
	bl	IwDebugAssertSetSolution
	ldr	r0, .L121+32
	bl	IwDebugAssertSetUID
	ldr	r0, .L121+36
	bl	IwDebugAssertSetMessage
	ldr	r0, .L121+40
	ldr	r1, .L121+20
	ldr	r2, .L121+44
	mov	r3, #1
	bl	IwDebugAssertShow
	mov	r3, r0
	cmp	r3, #1
	beq	.L99
	cmp	r3, #2
	beq	.L100
	b	.L98
.L99:
	bl	s3eDebugIsDebuggerPresent
	mov	r3, r0
	cmp	r3, #0
	moveq	r3, #0
	movne	r3, #1
	and	r3, r3, #255
	cmp	r3, #0
	beq	.L101
	bl	s3eDebugIsDebuggerPresent
	mov	r3, r0
	cmp	r3, #0
	moveq	r3, #0
	movne	r3, #1
	and	r3, r3, #255
	cmp	r3, #0
	beq	.L118
	mvn	r3, #11
	mov	r2, #0
	str	r2, [r3, #0]
	b	.L98
.L101:
	bl	_ZL11IwDebugExitv
	b	.L98
.L100:
	ldr	r3, .L121+28
	mov	r2, #1
	strb	r2, [r3, #0]
	b	.L98
.L118:
	mov	r0, r0	@ nop
.L98:
	mov	r0, #0
	bl	IwDebugAssertSetUID
.L97:
.LBE14:
.LBB15:
	.loc 5 808 0
	ldr	r3, [sp, #12]
	ldr	r2, [r3, #4]
	ldr	r3, [sp, #8]
	cmp	r2, r3
	bls	.L104
	ldr	r0, .L121
	bl	IwDebugAssertIsChannelOn
	mov	r3, r0
	cmp	r3, #0
	beq	.L104
	ldr	r3, .L121+48
	ldrb	r3, [r3, #0]	@ zero_extendqisi2
	cmp	r3, #0
	bne	.L104
	mov	r3, #1
	b	.L105
.L104:
	mov	r3, #0
.L105:
	cmp	r3, #0
	beq	.L106
	mov	r0, #0
	bl	IwDebugAssertSetSolution
	mov	r0, #0
	bl	IwDebugAssertSetUID
	mov	r0, #0
	bl	IwDebugAssertSetMessage
	ldr	r0, .L121+52
	ldr	r1, .L121+20
	mov	r2, #808
	mov	r3, #1
	bl	IwDebugAssertShow
	mov	r3, r0
	cmp	r3, #1
	beq	.L108
	cmp	r3, #2
	beq	.L109
	b	.L107
.L108:
	bl	s3eDebugIsDebuggerPresent
	mov	r3, r0
	cmp	r3, #0
	moveq	r3, #0
	movne	r3, #1
	and	r3, r3, #255
	cmp	r3, #0
	beq	.L110
	bl	s3eDebugIsDebuggerPresent
	mov	r3, r0
	cmp	r3, #0
	moveq	r3, #0
	movne	r3, #1
	and	r3, r3, #255
	cmp	r3, #0
	beq	.L119
	mvn	r3, #11
	mov	r2, #0
	str	r2, [r3, #0]
	b	.L107
.L110:
	bl	_ZL11IwDebugExitv
	b	.L107
.L109:
	ldr	r3, .L121+48
	mov	r2, #1
	strb	r2, [r3, #0]
	b	.L107
.L119:
	mov	r0, r0	@ nop
.L107:
	mov	r0, #0
	bl	IwDebugAssertSetUID
.L106:
.LBE15:
	.loc 5 809 0
	ldr	r3, [sp, #12]
	ldr	r2, [r3, #8]
	ldr	r3, [sp, #8]
	cmp	r2, r3
	beq	.L120
.L113:
	.loc 5 810 0
	ldr	r3, [sp, #12]
	ldr	r2, [sp, #8]
	str	r2, [r3, #8]
	.loc 5 811 0
	ldr	r3, [sp, #8]
	cmp	r3, #0
	bne	.L114
	.loc 5 813 0
	ldr	r3, [sp, #12]
	add	r1, r3, #13
	ldr	r3, [sp, #12]
	ldr	r2, [r3, #0]
	ldr	r3, [sp, #12]
	ldr	r3, [r3, #8]
	mov	r0, r1
	mov	r1, r2
	mov	r2, r3
	bl	_ZN12CIwAllocatorIP10CIw2DImage15CIwMallocRouterIS1_EE10deallocateEPS1_j
	.loc 5 814 0
	ldr	r3, [sp, #12]
	mov	r2, #0
	str	r2, [r3, #0]
	b	.L115
.L114:
	.loc 5 818 0
	ldr	r3, [sp, #12]
	ldr	r1, [r3, #4]
	ldr	r3, [sp, #12]
	ldr	r2, [r3, #8]
	ldr	r3, [sp, #12]
	ldr	r3, [r3, #0]
	ldr	r0, [sp, #12]
	add	r0, r0, #13
	str	r0, [sp, #0]
	ldr	r0, [sp, #8]
	bl	_ZN17ReallocateDefaultIP10CIw2DImage12CIwAllocatorIS1_15CIwMallocRouterIS1_EEE10ReallocateEjjjPS1_RS5_
	mov	r2, r0
	ldr	r3, [sp, #12]
	str	r2, [r3, #0]
	b	.L115
.L116:
.LBB16:
	.loc 5 806 0
	mov	r0, r0	@ nop
	b	.L115
.L120:
.LBE16:
	.loc 5 809 0
	mov	r0, r0	@ nop
.L115:
.LBE12:
	.loc 5 820 0
	add	sp, sp, #20
	ldmfd	sp!, {pc}
.L122:
	.align	2
.L121:
	.word	.LC1
	.word	_ZZN8CIwArrayIP10CIw2DImage12CIwAllocatorIS1_15CIwMallocRouterIS1_EE17ReallocateDefaultIS1_S5_EE12set_capacityEjE21_s_IwAssertIgnoreThis
	.word	1733
	.word	.LC5
	.word	.LC6
	.word	.LC4
	.word	806
	.word	_ZZN8CIwArrayIP10CIw2DImage12CIwAllocatorIS1_15CIwMallocRouterIS1_EE17ReallocateDefaultIS1_S5_EE12set_capacityEjE21_s_IwAssertIgnoreThis_0
	.word	1732
	.word	.LC7
	.word	.LC8
	.word	807
	.word	_ZZN8CIwArrayIP10CIw2DImage12CIwAllocatorIS1_15CIwMallocRouterIS1_EE17ReallocateDefaultIS1_S5_EE12set_capacityEjE21_s_IwAssertIgnoreThis_1
	.word	.LC9
	.cfi_endproc
.LFE2208:
	.size	_ZN8CIwArrayIP10CIw2DImage12CIwAllocatorIS1_15CIwMallocRouterIS1_EE17ReallocateDefaultIS1_S5_EE12set_capacityEj, .-_ZN8CIwArrayIP10CIw2DImage12CIwAllocatorIS1_15CIwMallocRouterIS1_EE17ReallocateDefaultIS1_S5_EE12set_capacityEj
	.section	.rodata
	.align	2
.LC10:
	.ascii	"!(&x>=p && &x<p+max_p)\000"
	.align	2
.LC11:
	.ascii	"num_p < max_p\000"
	.section	.text._ZN8CIwArrayIP10CIw2DImage12CIwAllocatorIS1_15CIwMallocRouterIS1_EE17ReallocateDefaultIS1_S5_EE9push_backERKS1_,"axG",%progbits,_ZN8CIwArrayIP10CIw2DImage12CIwAllocatorIS1_15CIwMallocRouterIS1_EE17ReallocateDefaultIS1_S5_EE9push_backERKS1_,comdat
	.align	2
	.weak	_ZN8CIwArrayIP10CIw2DImage12CIwAllocatorIS1_15CIwMallocRouterIS1_EE17ReallocateDefaultIS1_S5_EE9push_backERKS1_
	.hidden	_ZN8CIwArrayIP10CIw2DImage12CIwAllocatorIS1_15CIwMallocRouterIS1_EE17ReallocateDefaultIS1_S5_EE9push_backERKS1_
	.type	_ZN8CIwArrayIP10CIw2DImage12CIwAllocatorIS1_15CIwMallocRouterIS1_EE17ReallocateDefaultIS1_S5_EE9push_backERKS1_, %function
_ZN8CIwArrayIP10CIw2DImage12CIwAllocatorIS1_15CIwMallocRouterIS1_EE17ReallocateDefaultIS1_S5_EE9push_backERKS1_:
.LFB2209:
	.loc 5 618 0
	.cfi_startproc
	@ args = 0, pretend = 0, frame = 8
	@ frame_needed = 0, uses_anonymous_args = 0
	str	lr, [sp, #-4]!
.LCFI30:
	.cfi_def_cfa_offset 4
	sub	sp, sp, #12
.LCFI31:
	.cfi_def_cfa_offset 16
	str	r0, [sp, #4]
	str	r1, [sp, #0]
.LBB17:
.LBB18:
	.loc 5 632 0
	ldr	r3, [sp, #4]
	ldr	r2, [r3, #0]
	ldr	r3, [sp, #0]
	cmp	r2, r3
	bhi	.L124
	.cfi_offset 14, -4
	ldr	r3, [sp, #4]
	ldr	r2, [r3, #0]
	ldr	r3, [sp, #4]
	ldr	r3, [r3, #8]
	mov	r3, r3, asl #2
	add	r2, r2, r3
	ldr	r3, [sp, #0]
	cmp	r2, r3
	bls	.L124
	ldr	r0, .L145
	bl	IwDebugAssertIsChannelOn
	mov	r3, r0
	cmp	r3, #0
	beq	.L124
	ldr	r3, .L145+4
	ldrb	r3, [r3, #0]	@ zero_extendqisi2
	cmp	r3, #0
	bne	.L124
	mov	r3, #1
	b	.L125
.L124:
	mov	r3, #0
.L125:
	cmp	r3, #0
	beq	.L126
	mov	r0, #0
	bl	IwDebugAssertSetSolution
	mov	r0, #0
	bl	IwDebugAssertSetUID
	mov	r0, #0
	bl	IwDebugAssertSetMessage
	ldr	r0, .L145+8
	ldr	r1, .L145+12
	mov	r2, #632
	mov	r3, #1
	bl	IwDebugAssertShow
	mov	r3, r0
	cmp	r3, #1
	beq	.L128
	cmp	r3, #2
	beq	.L129
	b	.L127
.L128:
	bl	s3eDebugIsDebuggerPresent
	mov	r3, r0
	cmp	r3, #0
	moveq	r3, #0
	movne	r3, #1
	and	r3, r3, #255
	cmp	r3, #0
	beq	.L130
	bl	s3eDebugIsDebuggerPresent
	mov	r3, r0
	cmp	r3, #0
	moveq	r3, #0
	movne	r3, #1
	and	r3, r3, #255
	cmp	r3, #0
	beq	.L143
	mvn	r3, #11
	mov	r2, #0
	str	r2, [r3, #0]
	b	.L127
.L130:
	bl	_ZL11IwDebugExitv
	b	.L127
.L129:
	ldr	r3, .L145+4
	mov	r2, #1
	strb	r2, [r3, #0]
	b	.L127
.L143:
	mov	r0, r0	@ nop
.L127:
	mov	r0, #0
	bl	IwDebugAssertSetUID
.L126:
.LBE18:
	.loc 5 634 0
	ldr	r3, [sp, #4]
	ldr	r3, [r3, #4]
	add	r3, r3, #1
	ldr	r0, [sp, #4]
	mov	r1, r3
	bl	_ZN8CIwArrayIP10CIw2DImage12CIwAllocatorIS1_15CIwMallocRouterIS1_EE17ReallocateDefaultIS1_S5_EE7reserveEj
.LBB19:
	.loc 5 635 0
	ldr	r3, [sp, #4]
	ldr	r2, [r3, #4]
	ldr	r3, [sp, #4]
	ldr	r3, [r3, #8]
	cmp	r2, r3
	bcc	.L133
	ldr	r0, .L145
	bl	IwDebugAssertIsChannelOn
	mov	r3, r0
	cmp	r3, #0
	beq	.L133
	ldr	r3, .L145+16
	ldrb	r3, [r3, #0]	@ zero_extendqisi2
	cmp	r3, #0
	bne	.L133
	mov	r3, #1
	b	.L134
.L133:
	mov	r3, #0
.L134:
	cmp	r3, #0
	beq	.L135
	mov	r0, #0
	bl	IwDebugAssertSetSolution
	mov	r0, #0
	bl	IwDebugAssertSetUID
	mov	r0, #0
	bl	IwDebugAssertSetMessage
	ldr	r0, .L145+20
	ldr	r1, .L145+12
	ldr	r2, .L145+24
	mov	r3, #1
	bl	IwDebugAssertShow
	mov	r3, r0
	cmp	r3, #1
	beq	.L137
	cmp	r3, #2
	beq	.L138
	b	.L136
.L137:
	bl	s3eDebugIsDebuggerPresent
	mov	r3, r0
	cmp	r3, #0
	moveq	r3, #0
	movne	r3, #1
	and	r3, r3, #255
	cmp	r3, #0
	beq	.L139
	bl	s3eDebugIsDebuggerPresent
	mov	r3, r0
	cmp	r3, #0
	moveq	r3, #0
	movne	r3, #1
	and	r3, r3, #255
	cmp	r3, #0
	beq	.L144
	mvn	r3, #11
	mov	r2, #0
	str	r2, [r3, #0]
	b	.L136
.L139:
	bl	_ZL11IwDebugExitv
	b	.L136
.L138:
	ldr	r3, .L145+16
	mov	r2, #1
	strb	r2, [r3, #0]
	b	.L136
.L144:
	mov	r0, r0	@ nop
.L136:
	mov	r0, #0
	bl	IwDebugAssertSetUID
.L135:
.LBE19:
	.loc 5 636 0
	ldr	r3, [sp, #4]
	ldr	r2, [r3, #0]
	ldr	r3, [sp, #4]
	ldr	r3, [r3, #4]
	mov	r3, r3, asl #2
	add	r3, r2, r3
	mov	r0, #4
	mov	r1, r3
	bl	_ZnwjPv
	mov	r3, r0
	ldr	r2, [sp, #0]
	ldr	r2, [r2, #0]
	str	r2, [r3, #0]
	.loc 5 637 0
	ldr	r3, [sp, #4]
	ldr	r3, [r3, #4]
	mov	r2, r3
	add	r1, r3, #1
	ldr	r3, [sp, #4]
	str	r1, [r3, #4]
	mov	r3, r2
.LBE17:
	.loc 5 638 0
	mov	r0, r3
	add	sp, sp, #12
	ldmfd	sp!, {pc}
.L146:
	.align	2
.L145:
	.word	.LC1
	.word	_ZZN8CIwArrayIP10CIw2DImage12CIwAllocatorIS1_15CIwMallocRouterIS1_EE17ReallocateDefaultIS1_S5_EE9push_backERKS1_E21_s_IwAssertIgnoreThis
	.word	.LC10
	.word	.LC4
	.word	_ZZN8CIwArrayIP10CIw2DImage12CIwAllocatorIS1_15CIwMallocRouterIS1_EE17ReallocateDefaultIS1_S5_EE9push_backERKS1_E21_s_IwAssertIgnoreThis_0
	.word	.LC11
	.word	635
	.cfi_endproc
.LFE2209:
	.size	_ZN8CIwArrayIP10CIw2DImage12CIwAllocatorIS1_15CIwMallocRouterIS1_EE17ReallocateDefaultIS1_S5_EE9push_backERKS1_, .-_ZN8CIwArrayIP10CIw2DImage12CIwAllocatorIS1_15CIwMallocRouterIS1_EE17ReallocateDefaultIS1_S5_EE9push_backERKS1_
	.section	.text._ZN15CIwMallocRouterIP10CIw2DImageE6DoFreeEPv,"axG",%progbits,_ZN15CIwMallocRouterIP10CIw2DImageE6DoFreeEPv,comdat
	.align	2
	.weak	_ZN15CIwMallocRouterIP10CIw2DImageE6DoFreeEPv
	.hidden	_ZN15CIwMallocRouterIP10CIw2DImageE6DoFreeEPv
	.type	_ZN15CIwMallocRouterIP10CIw2DImageE6DoFreeEPv, %function
_ZN15CIwMallocRouterIP10CIw2DImageE6DoFreeEPv:
.LFB2228:
	.loc 6 93 0
	.cfi_startproc
	@ args = 0, pretend = 0, frame = 8
	@ frame_needed = 0, uses_anonymous_args = 0
	str	lr, [sp, #-4]!
.LCFI32:
	.cfi_def_cfa_offset 4
	sub	sp, sp, #12
.LCFI33:
	.cfi_def_cfa_offset 16
	str	r0, [sp, #4]
	.loc 6 95 0
	ldr	r0, [sp, #4]
	mov	r1, #4
	.cfi_offset 14, -4
	bl	_ZN22CIwDefaultMallocRouter8BaseFreeEPvj
	.loc 6 96 0
	add	sp, sp, #12
	ldmfd	sp!, {pc}
	.cfi_endproc
.LFE2228:
	.size	_ZN15CIwMallocRouterIP10CIw2DImageE6DoFreeEPv, .-_ZN15CIwMallocRouterIP10CIw2DImageE6DoFreeEPv
	.section	.text._ZN17ReallocateDefaultIP10CIw2DImage12CIwAllocatorIS1_15CIwMallocRouterIS1_EEE10ReallocateEjjjPS1_RS5_,"axG",%progbits,_ZN17ReallocateDefaultIP10CIw2DImage12CIwAllocatorIS1_15CIwMallocRouterIS1_EEE10ReallocateEjjjPS1_RS5_,comdat
	.align	2
	.weak	_ZN17ReallocateDefaultIP10CIw2DImage12CIwAllocatorIS1_15CIwMallocRouterIS1_EEE10ReallocateEjjjPS1_RS5_
	.hidden	_ZN17ReallocateDefaultIP10CIw2DImage12CIwAllocatorIS1_15CIwMallocRouterIS1_EEE10ReallocateEjjjPS1_RS5_
	.type	_ZN17ReallocateDefaultIP10CIw2DImage12CIwAllocatorIS1_15CIwMallocRouterIS1_EEE10ReallocateEjjjPS1_RS5_, %function
_ZN17ReallocateDefaultIP10CIw2DImage12CIwAllocatorIS1_15CIwMallocRouterIS1_EEE10ReallocateEjjjPS1_RS5_:
.LFB2229:
	.loc 5 52 0
	.cfi_startproc
	@ args = 4, pretend = 0, frame = 16
	@ frame_needed = 0, uses_anonymous_args = 0
	str	lr, [sp, #-4]!
.LCFI34:
	.cfi_def_cfa_offset 4
	sub	sp, sp, #20
.LCFI35:
	.cfi_def_cfa_offset 24
	str	r0, [sp, #12]
	str	r1, [sp, #8]
	str	r2, [sp, #4]
	str	r3, [sp, #0]
	.loc 5 54 0
	ldr	r3, [sp, #12]
	mov	r3, r3, asl #2
	ldr	r0, [sp, #24]
	ldr	r1, [sp, #0]
	mov	r2, r3
	.cfi_offset 14, -4
	bl	_ZN12CIwAllocatorIP10CIw2DImage15CIwMallocRouterIS1_EE10reallocateEPS1_j
	mov	r3, r0
	.loc 5 55 0
	mov	r0, r3
	add	sp, sp, #20
	ldmfd	sp!, {pc}
	.cfi_endproc
.LFE2229:
	.size	_ZN17ReallocateDefaultIP10CIw2DImage12CIwAllocatorIS1_15CIwMallocRouterIS1_EEE10ReallocateEjjjPS1_RS5_, .-_ZN17ReallocateDefaultIP10CIw2DImage12CIwAllocatorIS1_15CIwMallocRouterIS1_EEE10ReallocateEjjjPS1_RS5_
	.section	.text._ZN8CIwArrayIP10CIw2DImage12CIwAllocatorIS1_15CIwMallocRouterIS1_EE17ReallocateDefaultIS1_S5_EE7reserveEj,"axG",%progbits,_ZN8CIwArrayIP10CIw2DImage12CIwAllocatorIS1_15CIwMallocRouterIS1_EE17ReallocateDefaultIS1_S5_EE7reserveEj,comdat
	.align	2
	.weak	_ZN8CIwArrayIP10CIw2DImage12CIwAllocatorIS1_15CIwMallocRouterIS1_EE17ReallocateDefaultIS1_S5_EE7reserveEj
	.hidden	_ZN8CIwArrayIP10CIw2DImage12CIwAllocatorIS1_15CIwMallocRouterIS1_EE17ReallocateDefaultIS1_S5_EE7reserveEj
	.type	_ZN8CIwArrayIP10CIw2DImage12CIwAllocatorIS1_15CIwMallocRouterIS1_EE17ReallocateDefaultIS1_S5_EE7reserveEj, %function
_ZN8CIwArrayIP10CIw2DImage12CIwAllocatorIS1_15CIwMallocRouterIS1_EE17ReallocateDefaultIS1_S5_EE7reserveEj:
.LFB2230:
	.loc 5 253 0
	.cfi_startproc
	@ args = 0, pretend = 0, frame = 8
	@ frame_needed = 0, uses_anonymous_args = 0
	str	lr, [sp, #-4]!
.LCFI36:
	.cfi_def_cfa_offset 4
	sub	sp, sp, #12
.LCFI37:
	.cfi_def_cfa_offset 16
	str	r0, [sp, #4]
	str	r1, [sp, #0]
	.loc 5 255 0
	ldr	r3, [sp, #4]
	ldr	r2, [r3, #8]
	ldr	r3, [sp, #0]
	cmp	r2, r3
	bcs	.L155
	.cfi_offset 14, -4
	.loc 5 257 0
	ldr	r3, [sp, #4]
	ldr	r3, [r3, #8]
	cmp	r3, #15
	bls	.L153
	ldr	r3, [sp, #4]
	ldr	r3, [r3, #8]
	mov	r3, r3, lsr #3
	b	.L154
.L153:
	mov	r3, #2
.L154:
	ldr	r2, [sp, #0]
	add	r3, r3, r2
	ldr	r0, [sp, #4]
	mov	r1, r3
	bl	_ZN8CIwArrayIP10CIw2DImage12CIwAllocatorIS1_15CIwMallocRouterIS1_EE17ReallocateDefaultIS1_S5_EE12set_capacityEj
.L155:
	.loc 5 259 0
	add	sp, sp, #12
	ldmfd	sp!, {pc}
	.cfi_endproc
.LFE2230:
	.size	_ZN8CIwArrayIP10CIw2DImage12CIwAllocatorIS1_15CIwMallocRouterIS1_EE17ReallocateDefaultIS1_S5_EE7reserveEj, .-_ZN8CIwArrayIP10CIw2DImage12CIwAllocatorIS1_15CIwMallocRouterIS1_EE17ReallocateDefaultIS1_S5_EE7reserveEj
	.section	.text._ZN12CIwAllocatorIP10CIw2DImage15CIwMallocRouterIS1_EE10reallocateEPS1_j,"axG",%progbits,_ZN12CIwAllocatorIP10CIw2DImage15CIwMallocRouterIS1_EE10reallocateEPS1_j,comdat
	.align	2
	.weak	_ZN12CIwAllocatorIP10CIw2DImage15CIwMallocRouterIS1_EE10reallocateEPS1_j
	.hidden	_ZN12CIwAllocatorIP10CIw2DImage15CIwMallocRouterIS1_EE10reallocateEPS1_j
	.type	_ZN12CIwAllocatorIP10CIw2DImage15CIwMallocRouterIS1_EE10reallocateEPS1_j, %function
_ZN12CIwAllocatorIP10CIw2DImage15CIwMallocRouterIS1_EE10reallocateEPS1_j:
.LFB2238:
	.loc 6 142 0
	.cfi_startproc
	@ args = 0, pretend = 0, frame = 16
	@ frame_needed = 0, uses_anonymous_args = 0
	str	lr, [sp, #-4]!
.LCFI38:
	.cfi_def_cfa_offset 4
	sub	sp, sp, #20
.LCFI39:
	.cfi_def_cfa_offset 24
	str	r0, [sp, #12]
	str	r1, [sp, #8]
	str	r2, [sp, #4]
	.loc 6 144 0
	ldr	r0, [sp, #8]
	ldr	r1, [sp, #4]
	.cfi_offset 14, -4
	bl	_ZN15CIwMallocRouterIP10CIw2DImageE9DoReallocEPvj
	mov	r3, r0
	.loc 6 145 0
	mov	r0, r3
	add	sp, sp, #20
	ldmfd	sp!, {pc}
	.cfi_endproc
.LFE2238:
	.size	_ZN12CIwAllocatorIP10CIw2DImage15CIwMallocRouterIS1_EE10reallocateEPS1_j, .-_ZN12CIwAllocatorIP10CIw2DImage15CIwMallocRouterIS1_EE10reallocateEPS1_j
	.section	.text._ZN15CIwMallocRouterIP10CIw2DImageE9DoReallocEPvj,"axG",%progbits,_ZN15CIwMallocRouterIP10CIw2DImageE9DoReallocEPvj,comdat
	.align	2
	.weak	_ZN15CIwMallocRouterIP10CIw2DImageE9DoReallocEPvj
	.hidden	_ZN15CIwMallocRouterIP10CIw2DImageE9DoReallocEPvj
	.type	_ZN15CIwMallocRouterIP10CIw2DImageE9DoReallocEPvj, %function
_ZN15CIwMallocRouterIP10CIw2DImageE9DoReallocEPvj:
.LFB2246:
	.loc 6 97 0
	.cfi_startproc
	@ args = 0, pretend = 0, frame = 8
	@ frame_needed = 0, uses_anonymous_args = 0
	str	lr, [sp, #-4]!
.LCFI40:
	.cfi_def_cfa_offset 4
	sub	sp, sp, #12
.LCFI41:
	.cfi_def_cfa_offset 16
	str	r0, [sp, #4]
	str	r1, [sp, #0]
	.loc 6 99 0
	ldr	r0, [sp, #4]
	ldr	r1, [sp, #0]
	mov	r2, #4
	.cfi_offset 14, -4
	bl	_ZN22CIwDefaultMallocRouter11BaseReallocEPvjj
	mov	r3, r0
	.loc 6 100 0
	mov	r0, r3
	add	sp, sp, #12
	ldmfd	sp!, {pc}
	.cfi_endproc
.LFE2246:
	.size	_ZN15CIwMallocRouterIP10CIw2DImageE9DoReallocEPvj, .-_ZN15CIwMallocRouterIP10CIw2DImageE9DoReallocEPvj
	.hidden	_ZZNK8CIwArrayIP6Button12CIwAllocatorIS1_15CIwMallocRouterIS1_EE17ReallocateDefaultIS1_S5_EEixEiE21_s_IwAssertIgnoreThis
	.weak	_ZZNK8CIwArrayIP6Button12CIwAllocatorIS1_15CIwMallocRouterIS1_EE17ReallocateDefaultIS1_S5_EEixEiE21_s_IwAssertIgnoreThis
	.section	.bss._ZZNK8CIwArrayIP6Button12CIwAllocatorIS1_15CIwMallocRouterIS1_EE17ReallocateDefaultIS1_S5_EEixEiE21_s_IwAssertIgnoreThis,"awG",%nobits,_ZZNK8CIwArrayIP6Button12CIwAllocatorIS1_15CIwMallocRouterIS1_EE17ReallocateDefaultIS1_S5_EEixEiE21_s_IwAssertIgnoreThis,comdat
	.type	_ZZNK8CIwArrayIP6Button12CIwAllocatorIS1_15CIwMallocRouterIS1_EE17ReallocateDefaultIS1_S5_EEixEiE21_s_IwAssertIgnoreThis, %object
	.size	_ZZNK8CIwArrayIP6Button12CIwAllocatorIS1_15CIwMallocRouterIS1_EE17ReallocateDefaultIS1_S5_EEixEiE21_s_IwAssertIgnoreThis, 1
_ZZNK8CIwArrayIP6Button12CIwAllocatorIS1_15CIwMallocRouterIS1_EE17ReallocateDefaultIS1_S5_EEixEiE21_s_IwAssertIgnoreThis:
	.space	1
	.hidden	_ZZNK8CIwArrayIP10CIw2DImage12CIwAllocatorIS1_15CIwMallocRouterIS1_EE17ReallocateDefaultIS1_S5_EEixEiE21_s_IwAssertIgnoreThis
	.weak	_ZZNK8CIwArrayIP10CIw2DImage12CIwAllocatorIS1_15CIwMallocRouterIS1_EE17ReallocateDefaultIS1_S5_EEixEiE21_s_IwAssertIgnoreThis
	.section	.bss._ZZNK8CIwArrayIP10CIw2DImage12CIwAllocatorIS1_15CIwMallocRouterIS1_EE17ReallocateDefaultIS1_S5_EEixEiE21_s_IwAssertIgnoreThis,"awG",%nobits,_ZZNK8CIwArrayIP10CIw2DImage12CIwAllocatorIS1_15CIwMallocRouterIS1_EE17ReallocateDefaultIS1_S5_EEixEiE21_s_IwAssertIgnoreThis,comdat
	.type	_ZZNK8CIwArrayIP10CIw2DImage12CIwAllocatorIS1_15CIwMallocRouterIS1_EE17ReallocateDefaultIS1_S5_EEixEiE21_s_IwAssertIgnoreThis, %object
	.size	_ZZNK8CIwArrayIP10CIw2DImage12CIwAllocatorIS1_15CIwMallocRouterIS1_EE17ReallocateDefaultIS1_S5_EEixEiE21_s_IwAssertIgnoreThis, 1
_ZZNK8CIwArrayIP10CIw2DImage12CIwAllocatorIS1_15CIwMallocRouterIS1_EE17ReallocateDefaultIS1_S5_EEixEiE21_s_IwAssertIgnoreThis:
	.space	1
	.hidden	_ZZN8CIwArrayIP10CIw2DImage12CIwAllocatorIS1_15CIwMallocRouterIS1_EE17ReallocateDefaultIS1_S5_EE9push_backERKS1_E21_s_IwAssertIgnoreThis
	.weak	_ZZN8CIwArrayIP10CIw2DImage12CIwAllocatorIS1_15CIwMallocRouterIS1_EE17ReallocateDefaultIS1_S5_EE9push_backERKS1_E21_s_IwAssertIgnoreThis
	.section	.bss._ZZN8CIwArrayIP10CIw2DImage12CIwAllocatorIS1_15CIwMallocRouterIS1_EE17ReallocateDefaultIS1_S5_EE9push_backERKS1_E21_s_IwAssertIgnoreThis,"awG",%nobits,_ZZN8CIwArrayIP10CIw2DImage12CIwAllocatorIS1_15CIwMallocRouterIS1_EE17ReallocateDefaultIS1_S5_EE9push_backERKS1_E21_s_IwAssertIgnoreThis,comdat
	.type	_ZZN8CIwArrayIP10CIw2DImage12CIwAllocatorIS1_15CIwMallocRouterIS1_EE17ReallocateDefaultIS1_S5_EE9push_backERKS1_E21_s_IwAssertIgnoreThis, %object
	.size	_ZZN8CIwArrayIP10CIw2DImage12CIwAllocatorIS1_15CIwMallocRouterIS1_EE17ReallocateDefaultIS1_S5_EE9push_backERKS1_E21_s_IwAssertIgnoreThis, 1
_ZZN8CIwArrayIP10CIw2DImage12CIwAllocatorIS1_15CIwMallocRouterIS1_EE17ReallocateDefaultIS1_S5_EE9push_backERKS1_E21_s_IwAssertIgnoreThis:
	.space	1
	.hidden	_ZZN8CIwArrayIP10CIw2DImage12CIwAllocatorIS1_15CIwMallocRouterIS1_EE17ReallocateDefaultIS1_S5_EE9push_backERKS1_E21_s_IwAssertIgnoreThis_0
	.weak	_ZZN8CIwArrayIP10CIw2DImage12CIwAllocatorIS1_15CIwMallocRouterIS1_EE17ReallocateDefaultIS1_S5_EE9push_backERKS1_E21_s_IwAssertIgnoreThis_0
	.section	.bss._ZZN8CIwArrayIP10CIw2DImage12CIwAllocatorIS1_15CIwMallocRouterIS1_EE17ReallocateDefaultIS1_S5_EE9push_backERKS1_E21_s_IwAssertIgnoreThis_0,"awG",%nobits,_ZZN8CIwArrayIP10CIw2DImage12CIwAllocatorIS1_15CIwMallocRouterIS1_EE17ReallocateDefaultIS1_S5_EE9push_backERKS1_E21_s_IwAssertIgnoreThis_0,comdat
	.type	_ZZN8CIwArrayIP10CIw2DImage12CIwAllocatorIS1_15CIwMallocRouterIS1_EE17ReallocateDefaultIS1_S5_EE9push_backERKS1_E21_s_IwAssertIgnoreThis_0, %object
	.size	_ZZN8CIwArrayIP10CIw2DImage12CIwAllocatorIS1_15CIwMallocRouterIS1_EE17ReallocateDefaultIS1_S5_EE9push_backERKS1_E21_s_IwAssertIgnoreThis_0, 1
_ZZN8CIwArrayIP10CIw2DImage12CIwAllocatorIS1_15CIwMallocRouterIS1_EE17ReallocateDefaultIS1_S5_EE9push_backERKS1_E21_s_IwAssertIgnoreThis_0:
	.space	1
	.hidden	_ZZN8CIwArrayIP10CIw2DImage12CIwAllocatorIS1_15CIwMallocRouterIS1_EE17ReallocateDefaultIS1_S5_EE12set_capacityEjE21_s_IwAssertIgnoreThis
	.weak	_ZZN8CIwArrayIP10CIw2DImage12CIwAllocatorIS1_15CIwMallocRouterIS1_EE17ReallocateDefaultIS1_S5_EE12set_capacityEjE21_s_IwAssertIgnoreThis
	.section	.bss._ZZN8CIwArrayIP10CIw2DImage12CIwAllocatorIS1_15CIwMallocRouterIS1_EE17ReallocateDefaultIS1_S5_EE12set_capacityEjE21_s_IwAssertIgnoreThis,"awG",%nobits,_ZZN8CIwArrayIP10CIw2DImage12CIwAllocatorIS1_15CIwMallocRouterIS1_EE17ReallocateDefaultIS1_S5_EE12set_capacityEjE21_s_IwAssertIgnoreThis,comdat
	.type	_ZZN8CIwArrayIP10CIw2DImage12CIwAllocatorIS1_15CIwMallocRouterIS1_EE17ReallocateDefaultIS1_S5_EE12set_capacityEjE21_s_IwAssertIgnoreThis, %object
	.size	_ZZN8CIwArrayIP10CIw2DImage12CIwAllocatorIS1_15CIwMallocRouterIS1_EE17ReallocateDefaultIS1_S5_EE12set_capacityEjE21_s_IwAssertIgnoreThis, 1
_ZZN8CIwArrayIP10CIw2DImage12CIwAllocatorIS1_15CIwMallocRouterIS1_EE17ReallocateDefaultIS1_S5_EE12set_capacityEjE21_s_IwAssertIgnoreThis:
	.space	1
	.hidden	_ZZN8CIwArrayIP10CIw2DImage12CIwAllocatorIS1_15CIwMallocRouterIS1_EE17ReallocateDefaultIS1_S5_EE12set_capacityEjE21_s_IwAssertIgnoreThis_0
	.weak	_ZZN8CIwArrayIP10CIw2DImage12CIwAllocatorIS1_15CIwMallocRouterIS1_EE17ReallocateDefaultIS1_S5_EE12set_capacityEjE21_s_IwAssertIgnoreThis_0
	.section	.bss._ZZN8CIwArrayIP10CIw2DImage12CIwAllocatorIS1_15CIwMallocRouterIS1_EE17ReallocateDefaultIS1_S5_EE12set_capacityEjE21_s_IwAssertIgnoreThis_0,"awG",%nobits,_ZZN8CIwArrayIP10CIw2DImage12CIwAllocatorIS1_15CIwMallocRouterIS1_EE17ReallocateDefaultIS1_S5_EE12set_capacityEjE21_s_IwAssertIgnoreThis_0,comdat
	.type	_ZZN8CIwArrayIP10CIw2DImage12CIwAllocatorIS1_15CIwMallocRouterIS1_EE17ReallocateDefaultIS1_S5_EE12set_capacityEjE21_s_IwAssertIgnoreThis_0, %object
	.size	_ZZN8CIwArrayIP10CIw2DImage12CIwAllocatorIS1_15CIwMallocRouterIS1_EE17ReallocateDefaultIS1_S5_EE12set_capacityEjE21_s_IwAssertIgnoreThis_0, 1
_ZZN8CIwArrayIP10CIw2DImage12CIwAllocatorIS1_15CIwMallocRouterIS1_EE17ReallocateDefaultIS1_S5_EE12set_capacityEjE21_s_IwAssertIgnoreThis_0:
	.space	1
	.hidden	_ZZN8CIwArrayIP10CIw2DImage12CIwAllocatorIS1_15CIwMallocRouterIS1_EE17ReallocateDefaultIS1_S5_EE12set_capacityEjE21_s_IwAssertIgnoreThis_1
	.weak	_ZZN8CIwArrayIP10CIw2DImage12CIwAllocatorIS1_15CIwMallocRouterIS1_EE17ReallocateDefaultIS1_S5_EE12set_capacityEjE21_s_IwAssertIgnoreThis_1
	.section	.bss._ZZN8CIwArrayIP10CIw2DImage12CIwAllocatorIS1_15CIwMallocRouterIS1_EE17ReallocateDefaultIS1_S5_EE12set_capacityEjE21_s_IwAssertIgnoreThis_1,"awG",%nobits,_ZZN8CIwArrayIP10CIw2DImage12CIwAllocatorIS1_15CIwMallocRouterIS1_EE17ReallocateDefaultIS1_S5_EE12set_capacityEjE21_s_IwAssertIgnoreThis_1,comdat
	.type	_ZZN8CIwArrayIP10CIw2DImage12CIwAllocatorIS1_15CIwMallocRouterIS1_EE17ReallocateDefaultIS1_S5_EE12set_capacityEjE21_s_IwAssertIgnoreThis_1, %object
	.size	_ZZN8CIwArrayIP10CIw2DImage12CIwAllocatorIS1_15CIwMallocRouterIS1_EE17ReallocateDefaultIS1_S5_EE12set_capacityEjE21_s_IwAssertIgnoreThis_1, 1
_ZZN8CIwArrayIP10CIw2DImage12CIwAllocatorIS1_15CIwMallocRouterIS1_EE17ReallocateDefaultIS1_S5_EE12set_capacityEjE21_s_IwAssertIgnoreThis_1:
	.space	1
	.text
.Letext0: