	.arch armv5te
	.eabi_attribute 27, 3
	.fpu vfp
	.eabi_attribute 20, 1
	.eabi_attribute 21, 1
	.eabi_attribute 23, 3
	.eabi_attribute 24, 1
	.eabi_attribute 25, 1
	.eabi_attribute 26, 2
	.eabi_attribute 30, 6
	.eabi_attribute 18, 2
	.file	"character.cpp"
	.text
.Ltext0:
	.cfi_sections	.debug_frame
	.section	.text._ZL11IwDebugExitv,"ax",%progbits
	.align	2
	.type	_ZL11IwDebugExitv, %function
_ZL11IwDebugExitv:
.LFB0:
	.file 1 "c:/marmalade/6.2/modules/iwutil/h/IwDebug.h"
	.loc 1 354 0
	.cfi_startproc
	@ args = 0, pretend = 0, frame = 0
	@ frame_needed = 0, uses_anonymous_args = 0
	stmfd	sp!, {r3, lr}
.LCFI0:
	.cfi_def_cfa_offset 8
	.loc 1 355 0
	.cfi_offset 14, -4
	.cfi_offset 3, -8
	bl	abort
	.cfi_endproc
.LFE0:
	.size	_ZL11IwDebugExitv, .-_ZL11IwDebugExitv
	.section	.text._ZN8CIwSVec2C1Ess,"axG",%progbits,_ZN8CIwSVec2C1Ess,comdat
	.align	2
	.weak	_ZN8CIwSVec2C1Ess
	.hidden	_ZN8CIwSVec2C1Ess
	.type	_ZN8CIwSVec2C1Ess, %function
_ZN8CIwSVec2C1Ess:
.LFB131:
	.file 2 "c:/marmalade/6.2/modules/iwgeom/h/IwGeomSVec2.h"
	.loc 2 72 0
	.cfi_startproc
	@ args = 0, pretend = 0, frame = 8
	@ frame_needed = 0, uses_anonymous_args = 0
	@ link register save eliminated.
	sub	sp, sp, #8
.LCFI1:
	.cfi_def_cfa_offset 8
	str	r0, [sp, #4]
	mov	r3, r2
	strh	r1, [sp, #2]	@ movhi
	strh	r3, [sp, #0]	@ movhi
	.loc 2 72 0
	ldr	r3, [sp, #4]
	ldrh	r2, [sp, #2]	@ movhi
	strh	r2, [r3, #0]	@ movhi
	ldr	r3, [sp, #4]
	ldrh	r2, [sp, #0]	@ movhi
	strh	r2, [r3, #2]	@ movhi
	ldr	r3, [sp, #4]
	mov	r0, r3
	add	sp, sp, #8
	bx	lr
	.cfi_endproc
.LFE131:
	.size	_ZN8CIwSVec2C1Ess, .-_ZN8CIwSVec2C1Ess
	.section	.text._ZN8CIwSVec2aSERKS_,"axG",%progbits,_ZN8CIwSVec2aSERKS_,comdat
	.align	2
	.weak	_ZN8CIwSVec2aSERKS_
	.hidden	_ZN8CIwSVec2aSERKS_
	.type	_ZN8CIwSVec2aSERKS_, %function
_ZN8CIwSVec2aSERKS_:
.LFB134:
	.loc 2 359 0
	.cfi_startproc
	@ args = 0, pretend = 0, frame = 8
	@ frame_needed = 0, uses_anonymous_args = 0
	@ link register save eliminated.
	sub	sp, sp, #8
.LCFI2:
	.cfi_def_cfa_offset 8
	str	r0, [sp, #4]
	str	r1, [sp, #0]
	.loc 2 360 0
	ldr	r3, [sp, #0]
	ldrh	r2, [r3, #0]
	ldr	r3, [sp, #4]
	strh	r2, [r3, #0]	@ movhi
	.loc 2 361 0
	ldr	r3, [sp, #0]
	ldrh	r2, [r3, #2]
	ldr	r3, [sp, #4]
	strh	r2, [r3, #2]	@ movhi
	.loc 2 362 0
	ldr	r3, [sp, #4]
	.loc 2 363 0
	mov	r0, r3
	add	sp, sp, #8
	bx	lr
	.cfi_endproc
.LFE134:
	.size	_ZN8CIwSVec2aSERKS_, .-_ZN8CIwSVec2aSERKS_
	.section	.rodata
	.align	2
.LC0:
	.ascii	"GEOM\000"
	.align	2
.LC1:
	.ascii	"CIwSVec2 overflow: operator -\000"
	.align	2
.LC2:
	.ascii	"test >> 31 == test >> 15\000"
	.align	2
.LC3:
	.ascii	"c:/marmalade/6.2/modules/iwgeom/h/IwGeomSVec2.h\000"
	.section	.text._ZNK8CIwSVec2miERKS_,"axG",%progbits,_ZNK8CIwSVec2miERKS_,comdat
	.align	2
	.weak	_ZNK8CIwSVec2miERKS_
	.hidden	_ZNK8CIwSVec2miERKS_
	.type	_ZNK8CIwSVec2miERKS_, %function
_ZNK8CIwSVec2miERKS_:
.LFB137:
	.loc 2 400 0
	.cfi_startproc
	@ args = 0, pretend = 0, frame = 24
	@ frame_needed = 0, uses_anonymous_args = 0
	str	lr, [sp, #-4]!
.LCFI3:
	.cfi_def_cfa_offset 4
	sub	sp, sp, #28
.LCFI4:
	.cfi_def_cfa_offset 32
	str	r0, [sp, #4]
	str	r1, [sp, #0]
.LBB2:
	.loc 2 403 0
	ldr	r3, [sp, #4]
	ldrh	r3, [r3, #0]
	mov	r3, r3, asl #16
	mov	r2, r3, asr #16
	ldr	r3, [sp, #0]
	ldrh	r3, [r3, #0]
	mov	r3, r3, asl #16
	mov	r3, r3, asr #16
	rsb	r3, r3, r2
	str	r3, [sp, #20]
.LBB3:
	ldr	r3, [sp, #20]
	mov	r2, r3, asr #31
	ldr	r3, [sp, #20]
	mov	r3, r3, asr #15
	cmp	r2, r3
	beq	.L9
	.cfi_offset 14, -4
	ldr	r0, .L30
	bl	IwDebugAssertIsChannelOn
	mov	r3, r0
	cmp	r3, #0
	beq	.L9
	ldr	r3, .L30+4
	ldrb	r3, [r3, #0]	@ zero_extendqisi2
	cmp	r3, #0
	bne	.L9
	mov	r3, #1
	b	.L10
.L9:
	mov	r3, #0
.L10:
	cmp	r3, #0
	beq	.L11
	mov	r0, #0
	bl	IwDebugAssertSetSolution
	mov	r0, #0
	bl	IwDebugAssertSetUID
	ldr	r0, .L30+8
	bl	IwDebugAssertSetMessage
	ldr	r0, .L30+12
	ldr	r1, .L30+16
	ldr	r2, .L30+20
	mov	r3, #1
	bl	IwDebugAssertShow
	mov	r3, r0
	cmp	r3, #1
	beq	.L13
	cmp	r3, #2
	beq	.L14
	b	.L12
.L13:
	bl	s3eDebugIsDebuggerPresent
	mov	r3, r0
	cmp	r3, #0
	moveq	r3, #0
	movne	r3, #1
	and	r3, r3, #255
	cmp	r3, #0
	beq	.L15
	bl	s3eDebugIsDebuggerPresent
	mov	r3, r0
	cmp	r3, #0
	moveq	r3, #0
	movne	r3, #1
	and	r3, r3, #255
	cmp	r3, #0
	beq	.L28
	mvn	r3, #11
	mov	r2, #0
	str	r2, [r3, #0]
	b	.L12
.L15:
	bl	_ZL11IwDebugExitv
	b	.L12
.L14:
	ldr	r3, .L30+4
	mov	r2, #1
	strb	r2, [r3, #0]
	b	.L12
.L28:
	mov	r0, r0	@ nop
.L12:
	mov	r0, #0
	bl	IwDebugAssertSetUID
.L11:
.LBE3:
	.loc 2 404 0
	ldr	r3, [sp, #4]
	ldrh	r3, [r3, #2]
	mov	r3, r3, asl #16
	mov	r2, r3, asr #16
	ldr	r3, [sp, #0]
	ldrh	r3, [r3, #2]
	mov	r3, r3, asl #16
	mov	r3, r3, asr #16
	rsb	r3, r3, r2
	str	r3, [sp, #20]
.LBB4:
	ldr	r3, [sp, #20]
	mov	r2, r3, asr #31
	ldr	r3, [sp, #20]
	mov	r3, r3, asr #15
	cmp	r2, r3
	beq	.L18
	ldr	r0, .L30
	bl	IwDebugAssertIsChannelOn
	mov	r3, r0
	cmp	r3, #0
	beq	.L18
	ldr	r3, .L30+24
	ldrb	r3, [r3, #0]	@ zero_extendqisi2
	cmp	r3, #0
	bne	.L18
	mov	r3, #1
	b	.L19
.L18:
	mov	r3, #0
.L19:
	cmp	r3, #0
	beq	.L20
	mov	r0, #0
	bl	IwDebugAssertSetSolution
	mov	r0, #0
	bl	IwDebugAssertSetUID
	ldr	r0, .L30+8
	bl	IwDebugAssertSetMessage
	ldr	r0, .L30+12
	ldr	r1, .L30+16
	mov	r2, #404
	mov	r3, #1
	bl	IwDebugAssertShow
	mov	r3, r0
	cmp	r3, #1
	beq	.L22
	cmp	r3, #2
	beq	.L23
	b	.L21
.L22:
	bl	s3eDebugIsDebuggerPresent
	mov	r3, r0
	cmp	r3, #0
	moveq	r3, #0
	movne	r3, #1
	and	r3, r3, #255
	cmp	r3, #0
	beq	.L24
	bl	s3eDebugIsDebuggerPresent
	mov	r3, r0
	cmp	r3, #0
	moveq	r3, #0
	movne	r3, #1
	and	r3, r3, #255
	cmp	r3, #0
	beq	.L29
	mvn	r3, #11
	mov	r2, #0
	str	r2, [r3, #0]
	b	.L21
.L24:
	bl	_ZL11IwDebugExitv
	b	.L21
.L23:
	ldr	r3, .L30+24
	mov	r2, #1
	strb	r2, [r3, #0]
	b	.L21
.L29:
	mov	r0, r0	@ nop
.L21:
	mov	r0, #0
	bl	IwDebugAssertSetUID
.L20:
.LBE4:
	.loc 2 409 0
	ldr	r3, [sp, #4]
	ldrh	r3, [r3, #0]
	mov	r3, r3, asl #16
	mov	r2, r3, lsr #16
	ldr	r3, [sp, #0]
	ldrh	r3, [r3, #0]
	mov	r3, r3, asl #16
	mov	r3, r3, lsr #16
	rsb	r3, r3, r2
	mov	r3, r3, asl #16
	mov	r3, r3, lsr #16
	mov	r2, r3
	ldr	r3, [sp, #4]
	ldrh	r3, [r3, #2]
	mov	r3, r3, asl #16
	mov	r1, r3, lsr #16
	ldr	r3, [sp, #0]
	ldrh	r3, [r3, #2]
	mov	r3, r3, asl #16
	mov	r3, r3, lsr #16
	rsb	r3, r3, r1
	mov	r3, r3, asl #16
	mov	r3, r3, lsr #16
	add	r1, sp, #16
	mov	r2, r2, asl #16
	mov	r2, r2, asr #16
	mov	r3, r3, asl #16
	mov	r3, r3, asr #16
	mov	r0, r1
	mov	r1, r2
	mov	r2, r3
	bl	_ZN8CIwSVec2C1Ess
	ldr	r3, [sp, #16]
	str	r3, [sp, #12]
	mov	r3, #0
	ldrh	r2, [sp, #12]
	mov	r2, r2, asl #16
	mov	r3, r3, lsr #16
	orr	r3, r3, r2
	mov	r3, r3, ror #16
	ldrh	r2, [sp, #14]
	mov	r2, r2, asl #16
	mov	r3, r3, asl #16
	mov	r3, r3, lsr #16
	orr	r3, r3, r2
.LBE2:
	.loc 2 410 0
	mov	r0, r3
	add	sp, sp, #28
	ldmfd	sp!, {pc}
.L31:
	.align	2
.L30:
	.word	.LC0
	.word	_ZZNK8CIwSVec2miERKS_E21_s_IwAssertIgnoreThis
	.word	.LC1
	.word	.LC2
	.word	.LC3
	.word	403
	.word	_ZZNK8CIwSVec2miERKS_E21_s_IwAssertIgnoreThis_0
	.cfi_endproc
.LFE137:
	.size	_ZNK8CIwSVec2miERKS_, .-_ZNK8CIwSVec2miERKS_
	.section	.text._ZN8CIwFVec2C1Eff,"axG",%progbits,_ZN8CIwFVec2C1Eff,comdat
	.align	2
	.weak	_ZN8CIwFVec2C1Eff
	.hidden	_ZN8CIwFVec2C1Eff
	.type	_ZN8CIwFVec2C1Eff, %function
_ZN8CIwFVec2C1Eff:
.LFB195:
	.file 3 "c:/marmalade/6.2/modules/iwgeom/h/IwGeomFVec2.h"
	.loc 3 72 0
	.cfi_startproc
	@ args = 0, pretend = 0, frame = 16
	@ frame_needed = 0, uses_anonymous_args = 0
	@ link register save eliminated.
	sub	sp, sp, #16
.LCFI5:
	.cfi_def_cfa_offset 16
	str	r0, [sp, #12]
	str	r1, [sp, #8]	@ float
	str	r2, [sp, #4]	@ float
	.loc 3 72 0
	ldr	r3, [sp, #12]
	flds	s15, [sp, #8]
	fsts	s15, [r3, #0]
	ldr	r3, [sp, #12]
	flds	s15, [sp, #4]
	fsts	s15, [r3, #4]
	ldr	r3, [sp, #12]
	mov	r0, r3
	add	sp, sp, #16
	bx	lr
	.cfi_endproc
.LFE195:
	.size	_ZN8CIwFVec2C1Eff, .-_ZN8CIwFVec2C1Eff
	.section	.text._ZN8CIwFVec2aSERKS_,"axG",%progbits,_ZN8CIwFVec2aSERKS_,comdat
	.align	2
	.weak	_ZN8CIwFVec2aSERKS_
	.hidden	_ZN8CIwFVec2aSERKS_
	.type	_ZN8CIwFVec2aSERKS_, %function
_ZN8CIwFVec2aSERKS_:
.LFB198:
	.loc 3 285 0
	.cfi_startproc
	@ args = 0, pretend = 0, frame = 8
	@ frame_needed = 0, uses_anonymous_args = 0
	@ link register save eliminated.
	sub	sp, sp, #8
.LCFI6:
	.cfi_def_cfa_offset 8
	str	r0, [sp, #4]
	str	r1, [sp, #0]
	.loc 3 286 0
	ldr	r3, [sp, #0]
	flds	s15, [r3, #0]
	ldr	r3, [sp, #4]
	fsts	s15, [r3, #0]
	.loc 3 287 0
	ldr	r3, [sp, #0]
	flds	s15, [r3, #4]
	ldr	r3, [sp, #4]
	fsts	s15, [r3, #4]
	.loc 3 288 0
	ldr	r3, [sp, #4]
	.loc 3 289 0
	mov	r0, r3
	add	sp, sp, #8
	bx	lr
	.cfi_endproc
.LFE198:
	.size	_ZN8CIwFVec2aSERKS_, .-_ZN8CIwFVec2aSERKS_
	.section	.text._ZNK8CIwFVec2miERKS_,"axG",%progbits,_ZNK8CIwFVec2miERKS_,comdat
	.align	2
	.weak	_ZNK8CIwFVec2miERKS_
	.hidden	_ZNK8CIwFVec2miERKS_
	.type	_ZNK8CIwFVec2miERKS_, %function
_ZNK8CIwFVec2miERKS_:
.LFB201:
	.loc 3 316 0
	.cfi_startproc
	@ args = 0, pretend = 0, frame = 8
	@ frame_needed = 0, uses_anonymous_args = 0
	stmfd	sp!, {r4, lr}
.LCFI7:
	.cfi_def_cfa_offset 8
	sub	sp, sp, #8
.LCFI8:
	.cfi_def_cfa_offset 16
	mov	r4, r0
	.cfi_offset 14, -4
	.cfi_offset 4, -8
	str	r1, [sp, #4]
	str	r2, [sp, #0]
	.loc 3 320 0
	ldr	r3, [sp, #4]
	flds	s14, [r3, #0]
	ldr	r3, [sp, #0]
	flds	s15, [r3, #0]
	fsubs	s13, s14, s15
	ldr	r3, [sp, #4]
	flds	s14, [r3, #4]
	ldr	r3, [sp, #0]
	flds	s15, [r3, #4]
	fsubs	s15, s14, s15
	mov	r0, r4
	fmrs	r1, s13
	fmrs	r2, s15
	bl	_ZN8CIwFVec2C1Eff
	.loc 3 321 0
	mov	r0, r4
	add	sp, sp, #8
	ldmfd	sp!, {r4, pc}
	.cfi_endproc
.LFE201:
	.size	_ZNK8CIwFVec2miERKS_, .-_ZNK8CIwFVec2miERKS_
	.section	.rodata
	.align	2
.LC4:
	.ascii	"character\000"
	.section	.text._ZN9Character4LoadEv,"ax",%progbits
	.align	2
	.global	_ZN9Character4LoadEv
	.hidden	_ZN9Character4LoadEv
	.type	_ZN9Character4LoadEv, %function
_ZN9Character4LoadEv:
.LFB1571:
	.file 4 "c:/users/1106786/dropbox/dropbox/pg life/project impact/code/demos/demo_6_p.c.ani/src/character.cpp"
	.loc 4 11 0
	.cfi_startproc
	@ args = 0, pretend = 0, frame = 24
	@ frame_needed = 0, uses_anonymous_args = 0
	stmfd	sp!, {r4, r5, lr}
.LCFI9:
	.cfi_def_cfa_offset 12
	fstmfdd	sp!, {d8}
.LCFI10:
	.cfi_def_cfa_offset 20
	sub	sp, sp, #28
.LCFI11:
	.cfi_def_cfa_offset 48
	str	r0, [sp, #4]
	.loc 4 13 0
	ldr	r3, [sp, #4]
	add	r4, r3, #24
	.cfi_offset 80, -20
	.cfi_offset 14, -4
	.cfi_offset 5, -8
	.cfi_offset 4, -12
	bl	_Z19Iw2DGetSurfaceWidthv
	fmsr	s15, r0	@ int
	fsitos	s14, s15
	flds	s15, .L41
	fdivs	s16, s14, s15
	bl	_Z20Iw2DGetSurfaceHeightv
	fmsr	s15, r0	@ int
	fsitos	s14, s15
	flds	s15, .L41
	fdivs	s15, s14, s15
	add	r3, sp, #8
	mov	r0, r3
	fmrs	r1, s16
	fmrs	r2, s15
	bl	_ZN8CIwFVec2C1Eff
	add	r3, sp, #8
	mov	r0, r4
	mov	r1, r3
	bl	_ZN8CIwFVec2aSERKS_
	.loc 4 17 0
	ldr	r3, [sp, #4]
	mov	r2, #0
	strb	r2, [r3, #44]
	.loc 4 19 0
	ldr	r0, .L41+4
	bl	_Z23Iw2DCreateImageResourcePKc
	mov	r2, r0
	ldr	r3, [sp, #4]
	str	r2, [r3, #48]
	.loc 4 20 0
	ldr	r3, [sp, #4]
	add	r4, r3, #52
	ldr	r3, [sp, #4]
	ldr	r3, [r3, #48]
	ldr	r3, [r3, #0]
	ldr	r3, [r3, #0]
	ldr	r2, [sp, #4]
	ldr	r2, [r2, #48]
	mov	r0, r2
	blx	r3
	mov	r3, r0
	mov	r3, r3, asl #16
	mov	r5, r3, lsr #16
	ldr	r3, [sp, #4]
	ldr	r3, [r3, #48]
	ldr	r3, [r3, #0]
	add	r3, r3, #4
	ldr	r3, [r3, #0]
	ldr	r2, [sp, #4]
	ldr	r2, [r2, #48]
	mov	r0, r2
	blx	r3
	mov	r3, r0
	mov	r3, r3, asl #16
	mov	r3, r3, lsr #16
	add	r1, sp, #16
	mov	r2, r5, asl #16
	mov	r2, r2, asr #16
	mov	r3, r3, asl #16
	mov	r3, r3, asr #16
	mov	r0, r1
	mov	r1, r2
	mov	r2, r3
	bl	_ZN8CIwSVec2C1Ess
	add	r3, sp, #16
	mov	r0, r4
	mov	r1, r3
	bl	_ZN8CIwSVec2aSERKS_
	.loc 4 21 0
	ldr	r3, [sp, #4]
	add	r4, r3, #40
	ldr	r3, [sp, #4]
	ldrh	r3, [r3, #52]
	mov	r3, r3, asl #16
	mov	r3, r3, asr #16
	mov	r2, r3, lsr #31
	add	r3, r2, r3
	mov	r3, r3, asr #1
	mov	r3, r3, asl #16
	mov	r2, r3, lsr #16
	ldr	r3, [sp, #4]
	ldrh	r3, [r3, #54]
	mov	r3, r3, asl #16
	mov	r3, r3, asr #16
	add	r1, r3, #3
	cmp	r3, #0
	movlt	r3, r1
	mov	r3, r3, asr #2
	mov	r3, r3, asl #16
	mov	r3, r3, lsr #16
	add	r1, sp, #20
	mov	r2, r2, asl #16
	mov	r2, r2, asr #16
	mov	r3, r3, asl #16
	mov	r3, r3, asr #16
	mov	r0, r1
	mov	r1, r2
	mov	r2, r3
	bl	_ZN8CIwSVec2C1Ess
	add	r3, sp, #20
	mov	r0, r4
	mov	r1, r3
	bl	_ZN8CIwSVec2aSERKS_
	.loc 4 22 0
	add	sp, sp, #28
	fldmfdd	sp!, {d8}
	ldmfd	sp!, {r4, r5, pc}
.L42:
	.align	2
.L41:
	.word	1073741824
	.word	.LC4
	.cfi_endproc
.LFE1571:
	.size	_ZN9Character4LoadEv, .-_ZN9Character4LoadEv
	.section	.text._ZN9Character4InitEPi,"ax",%progbits
	.align	2
	.global	_ZN9Character4InitEPi
	.hidden	_ZN9Character4InitEPi
	.type	_ZN9Character4InitEPi, %function
_ZN9Character4InitEPi:
.LFB1572:
	.loc 4 24 0
	.cfi_startproc
	@ args = 0, pretend = 0, frame = 16
	@ frame_needed = 0, uses_anonymous_args = 0
	stmfd	sp!, {r4, r5, lr}
.LCFI12:
	.cfi_def_cfa_offset 12
	sub	sp, sp, #20
.LCFI13:
	.cfi_def_cfa_offset 32
	str	r0, [sp, #4]
	str	r1, [sp, #0]
	.loc 4 25 0
	ldr	r4, [sp, #4]
	.cfi_offset 14, -4
	.cfi_offset 5, -8
	.cfi_offset 4, -12
	ldr	r3, [sp, #4]
	add	r5, r3, #8
	ldr	r3, [sp, #0]
	ldr	r3, [r3, #0]
	mov	r3, r3, asl #6
	fmsr	s15, r3	@ int
	fsitos	s14, s15
	ldr	r3, [sp, #0]
	add	r3, r3, #4
	ldr	r3, [r3, #0]
	mov	r3, r3, asl #6
	fmsr	s15, r3	@ int
	fsitos	s15, s15
	add	r3, sp, #8
	mov	r0, r3
	fmrs	r1, s14
	fmrs	r2, s15
	bl	_ZN8CIwFVec2C1Eff
	add	r3, sp, #8
	mov	r0, r5
	mov	r1, r3
	bl	_ZN8CIwFVec2aSERKS_
	mov	r3, r0
	mov	r0, r4
	mov	r1, r3
	bl	_ZN8CIwFVec2aSERKS_
	.loc 4 26 0
	add	sp, sp, #20
	ldmfd	sp!, {r4, r5, pc}
	.cfi_endproc
.LFE1572:
	.size	_ZN9Character4InitEPi, .-_ZN9Character4InitEPi
	.section	.text._ZN9Character6RenderE8CIwFVec2,"ax",%progbits
	.align	2
	.global	_ZN9Character6RenderE8CIwFVec2
	.hidden	_ZN9Character6RenderE8CIwFVec2
	.type	_ZN9Character6RenderE8CIwFVec2, %function
_ZN9Character6RenderE8CIwFVec2:
.LFB1573:
	.loc 4 29 0
	.cfi_startproc
	@ args = 0, pretend = 0, frame = 48
	@ frame_needed = 0, uses_anonymous_args = 0
	stmfd	sp!, {r4, lr}
.LCFI14:
	.cfi_def_cfa_offset 8
	sub	sp, sp, #48
.LCFI15:
	.cfi_def_cfa_offset 56
	str	r0, [sp, #20]
	add	r3, sp, #12
	stmia	r3, {r1, r2}
	.loc 4 31 0
	ldr	r3, [sp, #20]
	ldr	r4, [r3, #48]
	.cfi_offset 14, -4
	.cfi_offset 4, -8
	ldr	r3, [sp, #20]
	flds	s14, [r3, #24]
	ldr	r3, [sp, #20]
	ldrh	r3, [r3, #52]
	mov	r3, r3, asl #16
	mov	r3, r3, asr #16
	fmsr	s15, r3	@ int
	fsitos	s13, s15
	flds	s15, .L47
	fdivs	s15, s13, s15
	fadds	s15, s14, s15
	ftosizs	s15, s15
	fmrs	r3, s15	@ int
	mov	r3, r3, asl #16
	mov	r2, r3, lsr #16
	ldr	r3, [sp, #20]
	flds	s14, [r3, #28]
	ldr	r3, [sp, #20]
	ldrh	r3, [r3, #54]
	mov	r3, r3, asl #16
	mov	r3, r3, asr #16
	fmsr	s15, r3	@ int
	fsitos	s13, s15
	flds	s15, .L47
	fdivs	s15, s13, s15
	fadds	s14, s14, s15
	ldr	r3, [sp, #20]
	ldrh	r3, [r3, #54]
	mov	r3, r3, asl #16
	mov	r3, r3, asr #16
	fmsr	s15, r3	@ int
	fsitos	s13, s15
	flds	s15, .L47+4
	fdivs	s15, s13, s15
	fadds	s15, s14, s15
	ftosizs	s15, s15
	fmrs	r3, s15	@ int
	mov	r3, r3, asl #16
	mov	r3, r3, lsr #16
	add	r1, sp, #28
	mov	r2, r2, asl #16
	mov	r2, r2, asr #16
	mov	r3, r3, asl #16
	mov	r3, r3, asr #16
	mov	r0, r1
	mov	r1, r2
	mov	r2, r3
	bl	_ZN8CIwSVec2C1Ess
	mov	r0, r4
	ldr	r1, [sp, #28]
	bl	_Z13Iw2DDrawImageP10CIw2DImage8CIwSVec2
	.loc 4 33 0
	ldr	r0, .L47+8
	bl	_Z13Iw2DSetColourj
	.loc 4 34 0
	ldr	r3, [sp, #20]
	flds	s15, [r3, #32]
	ftosizs	s15, s15
	fmrs	r3, s15	@ int
	mov	r3, r3, asl #16
	mov	r2, r3, lsr #16
	ldr	r3, [sp, #20]
	flds	s15, [r3, #36]
	ftosizs	s15, s15
	fmrs	r3, s15	@ int
	mov	r3, r3, asl #16
	mov	r3, r3, lsr #16
	add	r1, sp, #36
	mov	r2, r2, asl #16
	mov	r2, r2, asr #16
	mov	r3, r3, asl #16
	mov	r3, r3, asr #16
	mov	r0, r1
	mov	r1, r2
	mov	r2, r3
	bl	_ZN8CIwSVec2C1Ess
	add	r3, sp, #40
	mov	r0, r3
	mov	r1, #2
	mov	r2, #2
	bl	_ZN8CIwSVec2C1Ess
	add	r2, sp, #36
	add	r3, sp, #40
	mov	r0, r2
	mov	r1, r3
	bl	_ZNK8CIwSVec2miERKS_
	strh	r0, [sp, #0]	@ movhi
	mov	r3, r0, lsr #16
	strh	r3, [sp, #2]	@ movhi
	ldr	r3, [sp, #0]
	str	r3, [sp, #32]
	add	r3, sp, #44
	mov	r0, r3
	mov	r1, #4
	mov	r2, #4
	bl	_ZN8CIwSVec2C1Ess
	ldr	r0, [sp, #32]
	ldr	r1, [sp, #44]
	bl	_Z12Iw2DFillRect8CIwSVec2S_
	.loc 4 38 0
	mvn	r0, #0
	bl	_Z13Iw2DSetColourj
	.loc 4 39 0
	add	sp, sp, #48
	ldmfd	sp!, {r4, pc}
.L48:
	.align	2
.L47:
	.word	-1073741824
	.word	-1065353216
	.word	-16711936
	.cfi_endproc
.LFE1573:
	.size	_ZN9Character6RenderE8CIwFVec2, .-_ZN9Character6RenderE8CIwFVec2
	.section	.text._ZN9Character6UpdateEi,"ax",%progbits
	.align	2
	.global	_ZN9Character6UpdateEi
	.hidden	_ZN9Character6UpdateEi
	.type	_ZN9Character6UpdateEi, %function
_ZN9Character6UpdateEi:
.LFB1574:
	.loc 4 42 0
	.cfi_startproc
	@ args = 0, pretend = 0, frame = 8
	@ frame_needed = 0, uses_anonymous_args = 0
	@ link register save eliminated.
	sub	sp, sp, #8
.LCFI16:
	.cfi_def_cfa_offset 8
	str	r0, [sp, #4]
	str	r1, [sp, #0]
	.loc 4 45 0
	add	sp, sp, #8
	bx	lr
	.cfi_endproc
.LFE1574:
	.size	_ZN9Character6UpdateEi, .-_ZN9Character6UpdateEi
	.section	.text._ZN9Character19GetDistanceToCenterEv,"ax",%progbits
	.align	2
	.global	_ZN9Character19GetDistanceToCenterEv
	.hidden	_ZN9Character19GetDistanceToCenterEv
	.type	_ZN9Character19GetDistanceToCenterEv, %function
_ZN9Character19GetDistanceToCenterEv:
.LFB1575:
	.loc 4 48 0
	.cfi_startproc
	@ args = 0, pretend = 0, frame = 16
	@ frame_needed = 0, uses_anonymous_args = 0
	str	lr, [sp, #-4]!
.LCFI17:
	.cfi_def_cfa_offset 4
	sub	sp, sp, #20
.LCFI18:
	.cfi_def_cfa_offset 24
	str	r0, [sp, #4]
	.loc 4 49 0
	ldr	r3, [sp, #4]
	add	r2, r3, #8
	ldr	r3, [sp, #4]
	add	r3, r3, #24
	add	r1, sp, #8
	mov	r0, r1
	mov	r1, r2
	mov	r2, r3
	.cfi_offset 14, -4
	bl	_ZNK8CIwFVec2miERKS_
	add	r3, sp, #8
	mov	r0, r3
	bl	_ZNK8CIwFVec29GetLengthEv
	mov	r3, r0	@ float
	fmsr	s15, r3
	fmrs	r3, s15
	.loc 4 50 0
	mov	r0, r3	@ float
	add	sp, sp, #20
	ldmfd	sp!, {pc}
	.cfi_endproc
.LFE1575:
	.size	_ZN9Character19GetDistanceToCenterEv, .-_ZN9Character19GetDistanceToCenterEv
	.section	.text._ZN9Character19GetDistanceToTargetEv,"ax",%progbits
	.align	2
	.global	_ZN9Character19GetDistanceToTargetEv
	.hidden	_ZN9Character19GetDistanceToTargetEv
	.type	_ZN9Character19GetDistanceToTargetEv, %function
_ZN9Character19GetDistanceToTargetEv:
.LFB1576:
	.loc 4 53 0
	.cfi_startproc
	@ args = 0, pretend = 0, frame = 16
	@ frame_needed = 0, uses_anonymous_args = 0
	str	lr, [sp, #-4]!
.LCFI19:
	.cfi_def_cfa_offset 4
	sub	sp, sp, #20
.LCFI20:
	.cfi_def_cfa_offset 24
	str	r0, [sp, #4]
	.loc 4 54 0
	ldr	r2, [sp, #4]
	ldr	r3, [sp, #4]
	add	r3, r3, #8
	add	r1, sp, #8
	mov	r0, r1
	mov	r1, r2
	mov	r2, r3
	.cfi_offset 14, -4
	bl	_ZNK8CIwFVec2miERKS_
	add	r3, sp, #8
	mov	r0, r3
	bl	_ZNK8CIwFVec29GetLengthEv
	mov	r3, r0	@ float
	fmsr	s15, r3
	fmrs	r3, s15
	.loc 4 55 0
	mov	r0, r3	@ float
	add	sp, sp, #20
	ldmfd	sp!, {pc}
	.cfi_endproc
.LFE1576:
	.size	_ZN9Character19GetDistanceToTargetEv, .-_ZN9Character19GetDistanceToTargetEv
	.section	.text._ZN9Character11CheckTargetER8CIwFVec2,"ax",%progbits
	.align	2
	.global	_ZN9Character11CheckTargetER8CIwFVec2
	.hidden	_ZN9Character11CheckTargetER8CIwFVec2
	.type	_ZN9Character11CheckTargetER8CIwFVec2, %function
_ZN9Character11CheckTargetER8CIwFVec2:
.LFB1577:
	.loc 4 57 0
	.cfi_startproc
	@ args = 0, pretend = 0, frame = 8
	@ frame_needed = 0, uses_anonymous_args = 0
	@ link register save eliminated.
	sub	sp, sp, #8
.LCFI21:
	.cfi_def_cfa_offset 8
	str	r0, [sp, #4]
	str	r1, [sp, #0]
	.loc 4 59 0
	add	sp, sp, #8
	bx	lr
	.cfi_endproc
.LFE1577:
	.size	_ZN9Character11CheckTargetER8CIwFVec2, .-_ZN9Character11CheckTargetER8CIwFVec2
	.hidden	_ZZNK8CIwSVec2miERKS_E21_s_IwAssertIgnoreThis
	.weak	_ZZNK8CIwSVec2miERKS_E21_s_IwAssertIgnoreThis
	.section	.bss._ZZNK8CIwSVec2miERKS_E21_s_IwAssertIgnoreThis,"awG",%nobits,_ZZNK8CIwSVec2miERKS_E21_s_IwAssertIgnoreThis,comdat
	.type	_ZZNK8CIwSVec2miERKS_E21_s_IwAssertIgnoreThis, %object
	.size	_ZZNK8CIwSVec2miERKS_E21_s_IwAssertIgnoreThis, 1
_ZZNK8CIwSVec2miERKS_E21_s_IwAssertIgnoreThis:
	.space	1
	.hidden	_ZZNK8CIwSVec2miERKS_E21_s_IwAssertIgnoreThis_0
	.weak	_ZZNK8CIwSVec2miERKS_E21_s_IwAssertIgnoreThis_0
	.section	.bss._ZZNK8CIwSVec2miERKS_E21_s_IwAssertIgnoreThis_0,"awG",%nobits,_ZZNK8CIwSVec2miERKS_E21_s_IwAssertIgnoreThis_0,comdat
	.type	_ZZNK8CIwSVec2miERKS_E21_s_IwAssertIgnoreThis_0, %object
	.size	_ZZNK8CIwSVec2miERKS_E21_s_IwAssertIgnoreThis_0, 1
_ZZNK8CIwSVec2miERKS_E21_s_IwAssertIgnoreThis_0:
	.space	1
	.text
.Letext0: