	.arch armv5te
	.eabi_attribute 27, 3
	.fpu vfp
	.eabi_attribute 20, 1
	.eabi_attribute 21, 1
	.eabi_attribute 23, 3
	.eabi_attribute 24, 1
	.eabi_attribute 25, 1
	.eabi_attribute 26, 2
	.eabi_attribute 30, 6
	.eabi_attribute 18, 2
	.file	"path.cpp"
	.text
.Ltext0:
	.cfi_sections	.debug_frame
	.section	.text._ZnwjPv,"axG",%progbits,_ZnwjPv,comdat
	.align	2
	.weak	_ZnwjPv
	.hidden	_ZnwjPv
	.type	_ZnwjPv, %function
_ZnwjPv:
.LFB0:
	.file 1 "c:/marmalade/6.2/s3e/h/std/c++/new.h"
	.loc 1 52 0
	.cfi_startproc
	@ args = 0, pretend = 0, frame = 8
	@ frame_needed = 0, uses_anonymous_args = 0
	@ link register save eliminated.
	sub	sp, sp, #8
.LCFI0:
	.cfi_def_cfa_offset 8
	str	r0, [sp, #4]
	str	r1, [sp, #0]
	.loc 1 52 0
	ldr	r3, [sp, #0]
	mov	r0, r3
	add	sp, sp, #8
	bx	lr
	.cfi_endproc
.LFE0:
	.size	_ZnwjPv, .-_ZnwjPv
	.section	.text._ZL11IwDebugExitv,"ax",%progbits
	.align	2
	.type	_ZL11IwDebugExitv, %function
_ZL11IwDebugExitv:
.LFB24:
	.file 2 "c:/marmalade/6.2/modules/iwutil/h/IwDebug.h"
	.loc 2 354 0
	.cfi_startproc
	@ args = 0, pretend = 0, frame = 0
	@ frame_needed = 0, uses_anonymous_args = 0
	stmfd	sp!, {r3, lr}
.LCFI1:
	.cfi_def_cfa_offset 8
	.loc 2 355 0
	.cfi_offset 14, -4
	.cfi_offset 3, -8
	bl	abort
	.cfi_endproc
.LFE24:
	.size	_ZL11IwDebugExitv, .-_ZL11IwDebugExitv
	.section	.text._ZN12CIwCallStackC1EPKc,"axG",%progbits,_ZN12CIwCallStackC1EPKc,comdat
	.align	2
	.weak	_ZN12CIwCallStackC1EPKc
	.hidden	_ZN12CIwCallStackC1EPKc
	.type	_ZN12CIwCallStackC1EPKc, %function
_ZN12CIwCallStackC1EPKc:
.LFB147:
	.file 3 "c:/marmalade/6.2/modules/iwutil/h/IwRuntime.h"
	.loc 3 97 0
	.cfi_startproc
	@ args = 0, pretend = 0, frame = 8
	@ frame_needed = 0, uses_anonymous_args = 0
	str	lr, [sp, #-4]!
.LCFI2:
	.cfi_def_cfa_offset 4
	sub	sp, sp, #12
.LCFI3:
	.cfi_def_cfa_offset 16
	str	r0, [sp, #4]
	str	r1, [sp, #0]
	.loc 3 99 0
	ldr	r0, [sp, #0]
	ldr	r1, [sp, #4]
	.cfi_offset 14, -4
	bl	IwCallStackEnter
	mov	r3, r0
	mov	r2, r3
	ldr	r3, [sp, #4]
	strb	r2, [r3, #0]
	.loc 3 100 0
	ldr	r3, [sp, #4]
	mov	r0, r3
	add	sp, sp, #12
	ldmfd	sp!, {pc}
	.cfi_endproc
.LFE147:
	.size	_ZN12CIwCallStackC1EPKc, .-_ZN12CIwCallStackC1EPKc
	.section	.text._ZN12CIwCallStackD1Ev,"axG",%progbits,_ZN12CIwCallStackD1Ev,comdat
	.align	2
	.weak	_ZN12CIwCallStackD1Ev
	.hidden	_ZN12CIwCallStackD1Ev
	.type	_ZN12CIwCallStackD1Ev, %function
_ZN12CIwCallStackD1Ev:
.LFB150:
	.loc 3 101 0
	.cfi_startproc
	@ args = 0, pretend = 0, frame = 8
	@ frame_needed = 0, uses_anonymous_args = 0
	str	lr, [sp, #-4]!
.LCFI4:
	.cfi_def_cfa_offset 4
	sub	sp, sp, #12
.LCFI5:
	.cfi_def_cfa_offset 16
	str	r0, [sp, #4]
	.loc 3 103 0
	ldr	r3, [sp, #4]
	ldrb	r3, [r3, #0]	@ zero_extendqisi2
	cmp	r3, #0
	beq	.L9
	.cfi_offset 14, -4
	.loc 3 104 0
	ldr	r0, [sp, #4]
	bl	IwCallStackLeave
.L9:
	.loc 3 105 0
	ldr	r3, [sp, #4]
	mov	r0, r3
	add	sp, sp, #12
	ldmfd	sp!, {pc}
	.cfi_endproc
.LFE150:
	.size	_ZN12CIwCallStackD1Ev, .-_ZN12CIwCallStackD1Ev
	.section	.text._ZN4Path4InitEii,"ax",%progbits
	.align	2
	.global	_ZN4Path4InitEii
	.hidden	_ZN4Path4InitEii
	.type	_ZN4Path4InitEii, %function
_ZN4Path4InitEii:
.LFB1571:
	.file 4 "c:/users/1106786/dropbox/dropbox/pg life/project impact/code/demos/demo_6_p.c.ani/src/path.cpp"
	.loc 4 5 0
	.cfi_startproc
	@ args = 0, pretend = 0, frame = 40
	@ frame_needed = 0, uses_anonymous_args = 0
	str	lr, [sp, #-4]!
.LCFI6:
	.cfi_def_cfa_offset 4
	sub	sp, sp, #44
.LCFI7:
	.cfi_def_cfa_offset 48
	str	r0, [sp, #12]
	str	r1, [sp, #8]
	str	r2, [sp, #4]
.LBB2:
	.loc 4 6 0
	ldr	r3, [sp, #12]
	mov	r0, r3
	.cfi_offset 14, -4
	bl	_ZN8CIwArrayI8PathNode12CIwAllocatorIS0_15CIwMallocRouterIS0_EE17ReallocateDefaultIS0_S4_EE5clearEv
	.loc 4 7 0
	ldr	r3, [sp, #12]
	ldr	r2, [sp, #8]
	str	r2, [r3, #32]
	.loc 4 8 0
	ldr	r3, [sp, #12]
	ldr	r2, [sp, #4]
	str	r2, [r3, #36]
	.loc 4 10 0
	ldr	r3, [sp, #8]
	str	r3, [sp, #24]
	.loc 4 11 0
	mvn	r3, #0
	str	r3, [sp, #20]
	.loc 4 12 0
	mvn	r3, #0
	str	r3, [sp, #28]
	.loc 4 13 0
	mvn	r3, #0
	str	r3, [sp, #32]
	.loc 4 14 0
	mvn	r3, #0
	str	r3, [sp, #36]
	.loc 4 15 0
	ldr	r2, [sp, #12]
	add	r3, sp, #20
	mov	r0, r2
	mov	r1, r3
	bl	_ZN8CIwArrayI8PathNode12CIwAllocatorIS0_15CIwMallocRouterIS0_EE17ReallocateDefaultIS0_S4_EE6appendERKS0_
.LBE2:
	.loc 4 16 0
	add	sp, sp, #44
	ldmfd	sp!, {pc}
	.cfi_endproc
.LFE1571:
	.size	_ZN4Path4InitEii, .-_ZN4Path4InitEii
	.section	.text._ZN4Path11AddPathNodeEii,"ax",%progbits
	.align	2
	.global	_ZN4Path11AddPathNodeEii
	.hidden	_ZN4Path11AddPathNodeEii
	.type	_ZN4Path11AddPathNodeEii, %function
_ZN4Path11AddPathNodeEii:
.LFB1572:
	.loc 4 18 0
	.cfi_startproc
	@ args = 0, pretend = 0, frame = 40
	@ frame_needed = 0, uses_anonymous_args = 0
	str	lr, [sp, #-4]!
.LCFI8:
	.cfi_def_cfa_offset 4
	sub	sp, sp, #44
.LCFI9:
	.cfi_def_cfa_offset 48
	str	r0, [sp, #12]
	str	r1, [sp, #8]
	str	r2, [sp, #4]
.LBB3:
	.loc 4 19 0
	ldr	r3, [sp, #12]
	add	r2, r3, #16
	add	r3, sp, #8
	mov	r0, r2
	mov	r1, r3
	.cfi_offset 14, -4
	bl	_ZNK8CIwArrayIi12CIwAllocatorIi15CIwMallocRouterIiEE17ReallocateDefaultIiS3_EE4findERKi
	mov	r3, r0
	str	r3, [sp, #36]
	.loc 4 20 0
	ldr	r3, [sp, #36]
	cmn	r3, #1
	bne	.L15
.LBB4:
	.loc 4 23 0
	ldr	r3, [sp, #8]
	str	r3, [sp, #20]
	.loc 4 24 0
	ldr	r3, [sp, #4]
	str	r3, [sp, #16]
	.loc 4 25 0
	mvn	r3, #0
	str	r3, [sp, #24]
	.loc 4 26 0
	mvn	r3, #0
	str	r3, [sp, #28]
	.loc 4 27 0
	mvn	r3, #0
	str	r3, [sp, #32]
	.loc 4 28 0
	ldr	r2, [sp, #12]
	add	r3, sp, #16
	mov	r0, r2
	mov	r1, r3
	bl	_ZN8CIwArrayI8PathNode12CIwAllocatorIS0_15CIwMallocRouterIS0_EE17ReallocateDefaultIS0_S4_EE6appendERKS0_
	.loc 4 29 0
	ldr	r3, [sp, #12]
	add	r2, r3, #16
	add	r3, sp, #8
	mov	r0, r2
	mov	r1, r3
	bl	_ZN8CIwArrayIi12CIwAllocatorIi15CIwMallocRouterIiEE17ReallocateDefaultIiS3_EE6appendERKi
.L15:
.LBE4:
.LBE3:
	.loc 4 42 0
	add	sp, sp, #44
	ldmfd	sp!, {pc}
	.cfi_endproc
.LFE1572:
	.size	_ZN4Path11AddPathNodeEii, .-_ZN4Path11AddPathNodeEii
	.section	.rodata
	.align	2
.LC0:
	.ascii	"Path::isEnd()\000"
	.section	.text._ZN4Path5isEndEv,"ax",%progbits
	.align	2
	.global	_ZN4Path5isEndEv
	.hidden	_ZN4Path5isEndEv
	.type	_ZN4Path5isEndEv, %function
_ZN4Path5isEndEv:
.LFB1573:
	.loc 4 44 0
	.cfi_startproc
	@ args = 0, pretend = 0, frame = 16
	@ frame_needed = 0, uses_anonymous_args = 0
	stmfd	sp!, {r4, lr}
.LCFI10:
	.cfi_def_cfa_offset 8
	sub	sp, sp, #16
.LCFI11:
	.cfi_def_cfa_offset 24
	str	r0, [sp, #4]
.LBB5:
	.loc 4 46 0
	add	r3, sp, #12
	mov	r0, r3
	ldr	r1, .L18
	.cfi_offset 14, -4
	.cfi_offset 4, -8
	bl	_ZN12CIwCallStackC1EPKc
	.loc 4 47 0
	ldr	r3, [sp, #4]
	add	r2, r3, #16
	ldr	r3, [sp, #4]
	add	r3, r3, #36
	mov	r0, r2
	mov	r1, r3
	bl	_ZNK8CIwArrayIi12CIwAllocatorIi15CIwMallocRouterIiEE17ReallocateDefaultIiS3_EE4findERKi
	mov	r3, r0
	cmn	r3, #1
	moveq	r3, #0
	movne	r3, #1
	and	r4, r3, #255
	add	r3, sp, #12
	mov	r0, r3
	bl	_ZN12CIwCallStackD1Ev
	mov	r3, r4
.LBE5:
	.loc 4 48 0
	mov	r0, r3
	add	sp, sp, #16
	ldmfd	sp!, {r4, pc}
.L19:
	.align	2
.L18:
	.word	.LC0
	.cfi_endproc
.LFE1573:
	.size	_ZN4Path5isEndEv, .-_ZN4Path5isEndEv
	.section	.text._ZN8PathNodeD1Ev,"axG",%progbits,_ZN8PathNodeD1Ev,comdat
	.align	2
	.weak	_ZN8PathNodeD1Ev
	.hidden	_ZN8PathNodeD1Ev
	.type	_ZN8PathNodeD1Ev, %function
_ZN8PathNodeD1Ev:
.LFB1599:
	.file 5 "c:/users/1106786/dropbox/dropbox/pg life/project impact/code/demos/demo_6_p.c.ani/h/path.h"
	.loc 5 6 0
	.cfi_startproc
	@ args = 0, pretend = 0, frame = 8
	@ frame_needed = 0, uses_anonymous_args = 0
	@ link register save eliminated.
	sub	sp, sp, #8
.LCFI12:
	.cfi_def_cfa_offset 8
	str	r0, [sp, #4]
	.loc 5 6 0
	ldr	r3, [sp, #4]
	mov	r0, r3
	add	sp, sp, #8
	bx	lr
	.cfi_endproc
.LFE1599:
	.size	_ZN8PathNodeD1Ev, .-_ZN8PathNodeD1Ev
	.section	.text._ZN8CIwArrayI8PathNode12CIwAllocatorIS0_15CIwMallocRouterIS0_EE17ReallocateDefaultIS0_S4_EE5clearEv,"axG",%progbits,_ZN8CIwArrayI8PathNode12CIwAllocatorIS0_15CIwMallocRouterIS0_EE17ReallocateDefaultIS0_S4_EE5clearEv,comdat
	.align	2
	.weak	_ZN8CIwArrayI8PathNode12CIwAllocatorIS0_15CIwMallocRouterIS0_EE17ReallocateDefaultIS0_S4_EE5clearEv
	.hidden	_ZN8CIwArrayI8PathNode12CIwAllocatorIS0_15CIwMallocRouterIS0_EE17ReallocateDefaultIS0_S4_EE5clearEv
	.type	_ZN8CIwArrayI8PathNode12CIwAllocatorIS0_15CIwMallocRouterIS0_EE17ReallocateDefaultIS0_S4_EE5clearEv, %function
_ZN8CIwArrayI8PathNode12CIwAllocatorIS0_15CIwMallocRouterIS0_EE17ReallocateDefaultIS0_S4_EE5clearEv:
.LFB1653:
	.file 6 "c:/marmalade/6.2/modules/iwutil/h/IwArray.h"
	.loc 6 199 0
	.cfi_startproc
	@ args = 0, pretend = 0, frame = 8
	@ frame_needed = 0, uses_anonymous_args = 0
	str	lr, [sp, #-4]!
.LCFI13:
	.cfi_def_cfa_offset 4
	sub	sp, sp, #12
.LCFI14:
	.cfi_def_cfa_offset 16
	str	r0, [sp, #4]
	.loc 6 201 0
	ldr	r0, [sp, #4]
	mov	r1, #0
	.cfi_offset 14, -4
	bl	_ZN8CIwArrayI8PathNode12CIwAllocatorIS0_15CIwMallocRouterIS0_EE17ReallocateDefaultIS0_S4_EE8truncateEj
	.loc 6 202 0
	add	sp, sp, #12
	ldmfd	sp!, {pc}
	.cfi_endproc
.LFE1653:
	.size	_ZN8CIwArrayI8PathNode12CIwAllocatorIS0_15CIwMallocRouterIS0_EE17ReallocateDefaultIS0_S4_EE5clearEv, .-_ZN8CIwArrayI8PathNode12CIwAllocatorIS0_15CIwMallocRouterIS0_EE17ReallocateDefaultIS0_S4_EE5clearEv
	.section	.text._ZN8CIwArrayI8PathNode12CIwAllocatorIS0_15CIwMallocRouterIS0_EE17ReallocateDefaultIS0_S4_EE6appendERKS0_,"axG",%progbits,_ZN8CIwArrayI8PathNode12CIwAllocatorIS0_15CIwMallocRouterIS0_EE17ReallocateDefaultIS0_S4_EE6appendERKS0_,comdat
	.align	2
	.weak	_ZN8CIwArrayI8PathNode12CIwAllocatorIS0_15CIwMallocRouterIS0_EE17ReallocateDefaultIS0_S4_EE6appendERKS0_
	.hidden	_ZN8CIwArrayI8PathNode12CIwAllocatorIS0_15CIwMallocRouterIS0_EE17ReallocateDefaultIS0_S4_EE6appendERKS0_
	.type	_ZN8CIwArrayI8PathNode12CIwAllocatorIS0_15CIwMallocRouterIS0_EE17ReallocateDefaultIS0_S4_EE6appendERKS0_, %function
_ZN8CIwArrayI8PathNode12CIwAllocatorIS0_15CIwMallocRouterIS0_EE17ReallocateDefaultIS0_S4_EE6appendERKS0_:
.LFB1654:
	.loc 6 594 0
	.cfi_startproc
	@ args = 0, pretend = 0, frame = 8
	@ frame_needed = 0, uses_anonymous_args = 0
	str	lr, [sp, #-4]!
.LCFI15:
	.cfi_def_cfa_offset 4
	sub	sp, sp, #12
.LCFI16:
	.cfi_def_cfa_offset 16
	str	r0, [sp, #4]
	str	r1, [sp, #0]
	.loc 6 594 0
	ldr	r0, [sp, #4]
	ldr	r1, [sp, #0]
	.cfi_offset 14, -4
	bl	_ZN8CIwArrayI8PathNode12CIwAllocatorIS0_15CIwMallocRouterIS0_EE17ReallocateDefaultIS0_S4_EE9push_backERKS0_
	mov	r3, r0
	mov	r0, r3
	add	sp, sp, #12
	ldmfd	sp!, {pc}
	.cfi_endproc
.LFE1654:
	.size	_ZN8CIwArrayI8PathNode12CIwAllocatorIS0_15CIwMallocRouterIS0_EE17ReallocateDefaultIS0_S4_EE6appendERKS0_, .-_ZN8CIwArrayI8PathNode12CIwAllocatorIS0_15CIwMallocRouterIS0_EE17ReallocateDefaultIS0_S4_EE6appendERKS0_
	.section	.text._ZNK8CIwArrayIi12CIwAllocatorIi15CIwMallocRouterIiEE17ReallocateDefaultIiS3_EE4findERKi,"axG",%progbits,_ZNK8CIwArrayIi12CIwAllocatorIi15CIwMallocRouterIiEE17ReallocateDefaultIiS3_EE4findERKi,comdat
	.align	2
	.weak	_ZNK8CIwArrayIi12CIwAllocatorIi15CIwMallocRouterIiEE17ReallocateDefaultIiS3_EE4findERKi
	.hidden	_ZNK8CIwArrayIi12CIwAllocatorIi15CIwMallocRouterIiEE17ReallocateDefaultIiS3_EE4findERKi
	.type	_ZNK8CIwArrayIi12CIwAllocatorIi15CIwMallocRouterIiEE17ReallocateDefaultIiS3_EE4findERKi, %function
_ZNK8CIwArrayIi12CIwAllocatorIi15CIwMallocRouterIiEE17ReallocateDefaultIiS3_EE4findERKi:
.LFB1655:
	.loc 6 308 0
	.cfi_startproc
	@ args = 0, pretend = 0, frame = 16
	@ frame_needed = 0, uses_anonymous_args = 0
	@ link register save eliminated.
	sub	sp, sp, #16
.LCFI17:
	.cfi_def_cfa_offset 16
	str	r0, [sp, #4]
	str	r1, [sp, #0]
.LBB6:
.LBB7:
	.loc 6 310 0
	mov	r3, #0
	str	r3, [sp, #12]
	b	.L28
.L31:
	.loc 6 311 0
	ldr	r3, [sp, #4]
	ldr	r2, [r3, #0]
	ldr	r3, [sp, #12]
	mov	r3, r3, asl #2
	add	r3, r2, r3
	ldr	r2, [r3, #0]
	ldr	r3, [sp, #0]
	ldr	r3, [r3, #0]
	cmp	r2, r3
	bne	.L29
	.loc 6 313 0
	ldr	r3, [sp, #12]
	b	.L30
.L29:
	.loc 6 310 0
	ldr	r3, [sp, #12]
	add	r3, r3, #1
	str	r3, [sp, #12]
.L28:
	ldr	r3, [sp, #4]
	ldr	r2, [r3, #4]
	ldr	r3, [sp, #12]
	cmp	r2, r3
	movls	r3, #0
	movhi	r3, #1
	and	r3, r3, #255
	cmp	r3, #0
	bne	.L31
.LBE7:
	.loc 6 315 0
	mvn	r3, #0
.L30:
.LBE6:
	.loc 6 316 0
	mov	r0, r3
	add	sp, sp, #16
	bx	lr
	.cfi_endproc
.LFE1655:
	.size	_ZNK8CIwArrayIi12CIwAllocatorIi15CIwMallocRouterIiEE17ReallocateDefaultIiS3_EE4findERKi, .-_ZNK8CIwArrayIi12CIwAllocatorIi15CIwMallocRouterIiEE17ReallocateDefaultIiS3_EE4findERKi
	.section	.text._ZN8CIwArrayIi12CIwAllocatorIi15CIwMallocRouterIiEE17ReallocateDefaultIiS3_EE6appendERKi,"axG",%progbits,_ZN8CIwArrayIi12CIwAllocatorIi15CIwMallocRouterIiEE17ReallocateDefaultIiS3_EE6appendERKi,comdat
	.align	2
	.weak	_ZN8CIwArrayIi12CIwAllocatorIi15CIwMallocRouterIiEE17ReallocateDefaultIiS3_EE6appendERKi
	.hidden	_ZN8CIwArrayIi12CIwAllocatorIi15CIwMallocRouterIiEE17ReallocateDefaultIiS3_EE6appendERKi
	.type	_ZN8CIwArrayIi12CIwAllocatorIi15CIwMallocRouterIiEE17ReallocateDefaultIiS3_EE6appendERKi, %function
_ZN8CIwArrayIi12CIwAllocatorIi15CIwMallocRouterIiEE17ReallocateDefaultIiS3_EE6appendERKi:
.LFB1656:
	.loc 6 594 0
	.cfi_startproc
	@ args = 0, pretend = 0, frame = 8
	@ frame_needed = 0, uses_anonymous_args = 0
	str	lr, [sp, #-4]!
.LCFI18:
	.cfi_def_cfa_offset 4
	sub	sp, sp, #12
.LCFI19:
	.cfi_def_cfa_offset 16
	str	r0, [sp, #4]
	str	r1, [sp, #0]
	.loc 6 594 0
	ldr	r0, [sp, #4]
	ldr	r1, [sp, #0]
	.cfi_offset 14, -4
	bl	_ZN8CIwArrayIi12CIwAllocatorIi15CIwMallocRouterIiEE17ReallocateDefaultIiS3_EE9push_backERKi
	mov	r3, r0
	mov	r0, r3
	add	sp, sp, #12
	ldmfd	sp!, {pc}
	.cfi_endproc
.LFE1656:
	.size	_ZN8CIwArrayIi12CIwAllocatorIi15CIwMallocRouterIiEE17ReallocateDefaultIiS3_EE6appendERKi, .-_ZN8CIwArrayIi12CIwAllocatorIi15CIwMallocRouterIiEE17ReallocateDefaultIiS3_EE6appendERKi
	.section	.text._ZN12CIwAllocatorI8PathNode15CIwMallocRouterIS0_EE10deallocateEPS0_j,"axG",%progbits,_ZN12CIwAllocatorI8PathNode15CIwMallocRouterIS0_EE10deallocateEPS0_j,comdat
	.align	2
	.weak	_ZN12CIwAllocatorI8PathNode15CIwMallocRouterIS0_EE10deallocateEPS0_j
	.hidden	_ZN12CIwAllocatorI8PathNode15CIwMallocRouterIS0_EE10deallocateEPS0_j
	.type	_ZN12CIwAllocatorI8PathNode15CIwMallocRouterIS0_EE10deallocateEPS0_j, %function
_ZN12CIwAllocatorI8PathNode15CIwMallocRouterIS0_EE10deallocateEPS0_j:
.LFB1664:
	.file 7 "c:/marmalade/6.2/modules/iwutil/h/IwAllocator.h"
	.loc 7 147 0
	.cfi_startproc
	@ args = 0, pretend = 0, frame = 16
	@ frame_needed = 0, uses_anonymous_args = 0
	str	lr, [sp, #-4]!
.LCFI20:
	.cfi_def_cfa_offset 4
	sub	sp, sp, #20
.LCFI21:
	.cfi_def_cfa_offset 24
	str	r0, [sp, #12]
	str	r1, [sp, #8]
	str	r2, [sp, #4]
	.loc 7 147 0
	ldr	r0, [sp, #8]
	.cfi_offset 14, -4
	bl	_ZN15CIwMallocRouterI8PathNodeE6DoFreeEPv
	add	sp, sp, #20
	ldmfd	sp!, {pc}
	.cfi_endproc
.LFE1664:
	.size	_ZN12CIwAllocatorI8PathNode15CIwMallocRouterIS0_EE10deallocateEPS0_j, .-_ZN12CIwAllocatorI8PathNode15CIwMallocRouterIS0_EE10deallocateEPS0_j
	.section	.text._ZN12CIwAllocatorIi15CIwMallocRouterIiEE10deallocateEPij,"axG",%progbits,_ZN12CIwAllocatorIi15CIwMallocRouterIiEE10deallocateEPij,comdat
	.align	2
	.weak	_ZN12CIwAllocatorIi15CIwMallocRouterIiEE10deallocateEPij
	.hidden	_ZN12CIwAllocatorIi15CIwMallocRouterIiEE10deallocateEPij
	.type	_ZN12CIwAllocatorIi15CIwMallocRouterIiEE10deallocateEPij, %function
_ZN12CIwAllocatorIi15CIwMallocRouterIiEE10deallocateEPij:
.LFB1667:
	.loc 7 147 0
	.cfi_startproc
	@ args = 0, pretend = 0, frame = 16
	@ frame_needed = 0, uses_anonymous_args = 0
	str	lr, [sp, #-4]!
.LCFI22:
	.cfi_def_cfa_offset 4
	sub	sp, sp, #20
.LCFI23:
	.cfi_def_cfa_offset 24
	str	r0, [sp, #12]
	str	r1, [sp, #8]
	str	r2, [sp, #4]
	.loc 7 147 0
	ldr	r0, [sp, #8]
	.cfi_offset 14, -4
	bl	_ZN15CIwMallocRouterIiE6DoFreeEPv
	add	sp, sp, #20
	ldmfd	sp!, {pc}
	.cfi_endproc
.LFE1667:
	.size	_ZN12CIwAllocatorIi15CIwMallocRouterIiEE10deallocateEPij, .-_ZN12CIwAllocatorIi15CIwMallocRouterIiEE10deallocateEPij
	.section	.rodata
	.align	2
.LC1:
	.ascii	"CORE\000"
	.align	2
.LC2:
	.ascii	"q<=num_p\000"
	.align	2
.LC3:
	.ascii	"c:/marmalade/6.2/modules/iwutil/h/IwArray.h\000"
	.section	.text._ZN8CIwArrayI8PathNode12CIwAllocatorIS0_15CIwMallocRouterIS0_EE17ReallocateDefaultIS0_S4_EE8truncateEj,"axG",%progbits,_ZN8CIwArrayI8PathNode12CIwAllocatorIS0_15CIwMallocRouterIS0_EE17ReallocateDefaultIS0_S4_EE8truncateEj,comdat
	.align	2
	.weak	_ZN8CIwArrayI8PathNode12CIwAllocatorIS0_15CIwMallocRouterIS0_EE17ReallocateDefaultIS0_S4_EE8truncateEj
	.hidden	_ZN8CIwArrayI8PathNode12CIwAllocatorIS0_15CIwMallocRouterIS0_EE17ReallocateDefaultIS0_S4_EE8truncateEj
	.type	_ZN8CIwArrayI8PathNode12CIwAllocatorIS0_15CIwMallocRouterIS0_EE17ReallocateDefaultIS0_S4_EE8truncateEj, %function
_ZN8CIwArrayI8PathNode12CIwAllocatorIS0_15CIwMallocRouterIS0_EE17ReallocateDefaultIS0_S4_EE8truncateEj:
.LFB1668:
	.loc 6 765 0
	.cfi_startproc
	@ args = 0, pretend = 0, frame = 16
	@ frame_needed = 0, uses_anonymous_args = 0
	str	lr, [sp, #-4]!
.LCFI24:
	.cfi_def_cfa_offset 4
	sub	sp, sp, #20
.LCFI25:
	.cfi_def_cfa_offset 24
	str	r0, [sp, #4]
	str	r1, [sp, #0]
.LBB8:
.LBB9:
	.loc 6 767 0
	ldr	r3, [sp, #4]
	ldr	r2, [r3, #4]
	ldr	r3, [sp, #0]
	cmp	r2, r3
	bcs	.L40
	.cfi_offset 14, -4
	ldr	r0, .L53
	bl	IwDebugAssertIsChannelOn
	mov	r3, r0
	cmp	r3, #0
	beq	.L40
	ldr	r3, .L53+4
	ldrb	r3, [r3, #0]	@ zero_extendqisi2
	cmp	r3, #0
	bne	.L40
	mov	r3, #1
	b	.L41
.L40:
	mov	r3, #0
.L41:
	cmp	r3, #0
	beq	.L42
	mov	r0, #0
	bl	IwDebugAssertSetSolution
	mov	r0, #0
	bl	IwDebugAssertSetUID
	mov	r0, #0
	bl	IwDebugAssertSetMessage
	ldr	r0, .L53+8
	ldr	r1, .L53+12
	ldr	r2, .L53+16
	mov	r3, #1
	bl	IwDebugAssertShow
	mov	r3, r0
	cmp	r3, #1
	beq	.L44
	cmp	r3, #2
	beq	.L45
	b	.L43
.L44:
	bl	s3eDebugIsDebuggerPresent
	mov	r3, r0
	cmp	r3, #0
	moveq	r3, #0
	movne	r3, #1
	and	r3, r3, #255
	cmp	r3, #0
	beq	.L46
	bl	s3eDebugIsDebuggerPresent
	mov	r3, r0
	cmp	r3, #0
	moveq	r3, #0
	movne	r3, #1
	and	r3, r3, #255
	cmp	r3, #0
	beq	.L52
	mvn	r3, #11
	mov	r2, #0
	str	r2, [r3, #0]
	b	.L43
.L46:
	bl	_ZL11IwDebugExitv
	b	.L43
.L45:
	ldr	r3, .L53+4
	mov	r2, #1
	strb	r2, [r3, #0]
	b	.L43
.L52:
	mov	r0, r0	@ nop
.L43:
	mov	r0, #0
	bl	IwDebugAssertSetUID
.L42:
.LBE9:
.LBB10:
	.loc 6 769 0
	ldr	r3, [sp, #0]
	str	r3, [sp, #12]
	b	.L49
.L50:
	.loc 6 770 0
	ldr	r3, [sp, #4]
	ldr	r1, [r3, #0]
	ldr	r2, [sp, #12]
	mov	r3, r2
	mov	r3, r3, asl #2
	add	r3, r3, r2
	mov	r3, r3, asl #2
	add	r3, r1, r3
	mov	r0, r3
	bl	_ZN8PathNodeD1Ev
	.loc 6 769 0
	ldr	r3, [sp, #12]
	add	r3, r3, #1
	str	r3, [sp, #12]
.L49:
	ldr	r3, [sp, #4]
	ldr	r2, [r3, #4]
	ldr	r3, [sp, #12]
	cmp	r2, r3
	movls	r3, #0
	movhi	r3, #1
	and	r3, r3, #255
	cmp	r3, #0
	bne	.L50
.LBE10:
	.loc 6 771 0
	ldr	r3, [sp, #4]
	ldr	r2, [sp, #0]
	str	r2, [r3, #4]
.LBE8:
	.loc 6 772 0
	add	sp, sp, #20
	ldmfd	sp!, {pc}
.L54:
	.align	2
.L53:
	.word	.LC1
	.word	_ZZN8CIwArrayI8PathNode12CIwAllocatorIS0_15CIwMallocRouterIS0_EE17ReallocateDefaultIS0_S4_EE8truncateEjE21_s_IwAssertIgnoreThis
	.word	.LC2
	.word	.LC3
	.word	767
	.cfi_endproc
.LFE1668:
	.size	_ZN8CIwArrayI8PathNode12CIwAllocatorIS0_15CIwMallocRouterIS0_EE17ReallocateDefaultIS0_S4_EE8truncateEj, .-_ZN8CIwArrayI8PathNode12CIwAllocatorIS0_15CIwMallocRouterIS0_EE17ReallocateDefaultIS0_S4_EE8truncateEj
	.section	.rodata
	.align	2
.LC4:
	.ascii	"Attempting to change capacity of an array that does"
	.ascii	"n't own its data allocation.\000"
	.align	2
.LC5:
	.ascii	"!block_delete\000"
	.align	2
.LC6:
	.ascii	"Attempting to expand an array that has its size loc"
	.ascii	"ked.\000"
	.align	2
.LC7:
	.ascii	"!no_grow || q <= max_p\000"
	.align	2
.LC8:
	.ascii	"q>=num_p\000"
	.section	.text._ZN8CIwArrayI8PathNode12CIwAllocatorIS0_15CIwMallocRouterIS0_EE17ReallocateDefaultIS0_S4_EE12set_capacityEj,"axG",%progbits,_ZN8CIwArrayI8PathNode12CIwAllocatorIS0_15CIwMallocRouterIS0_EE17ReallocateDefaultIS0_S4_EE12set_capacityEj,comdat
	.align	2
	.weak	_ZN8CIwArrayI8PathNode12CIwAllocatorIS0_15CIwMallocRouterIS0_EE17ReallocateDefaultIS0_S4_EE12set_capacityEj
	.hidden	_ZN8CIwArrayI8PathNode12CIwAllocatorIS0_15CIwMallocRouterIS0_EE17ReallocateDefaultIS0_S4_EE12set_capacityEj
	.type	_ZN8CIwArrayI8PathNode12CIwAllocatorIS0_15CIwMallocRouterIS0_EE17ReallocateDefaultIS0_S4_EE12set_capacityEj, %function
_ZN8CIwArrayI8PathNode12CIwAllocatorIS0_15CIwMallocRouterIS0_EE17ReallocateDefaultIS0_S4_EE12set_capacityEj:
.LFB1669:
	.loc 6 804 0
	.cfi_startproc
	@ args = 0, pretend = 0, frame = 8
	@ frame_needed = 0, uses_anonymous_args = 0
	str	lr, [sp, #-4]!
.LCFI26:
	.cfi_def_cfa_offset 4
	sub	sp, sp, #20
.LCFI27:
	.cfi_def_cfa_offset 24
	str	r0, [sp, #12]
	str	r1, [sp, #8]
.LBB11:
.LBB12:
	.loc 6 806 0
	ldr	r3, [sp, #12]
	ldrb	r3, [r3, #12]
	and	r3, r3, #1
	and	r3, r3, #255
	cmp	r3, #0
	beq	.L56
	.cfi_offset 14, -4
	ldr	r0, .L93
	bl	IwDebugAssertIsChannelOn
	mov	r3, r0
	cmp	r3, #0
	beq	.L57
	ldr	r3, .L93+4
	ldrb	r3, [r3, #0]	@ zero_extendqisi2
	cmp	r3, #0
	bne	.L57
	mov	r3, #1
	b	.L58
.L57:
	mov	r3, #0
.L58:
	cmp	r3, #0
	beq	.L88
	ldr	r0, .L93+8
	bl	IwDebugAssertSetUID
	ldr	r0, .L93+12
	bl	IwDebugAssertSetMessage
	ldr	r0, .L93+16
	ldr	r1, .L93+20
	ldr	r2, .L93+24
	mov	r3, #1
	bl	IwDebugAssertShow
	mov	r3, r0
	cmp	r3, #1
	beq	.L61
	cmp	r3, #2
	beq	.L62
	b	.L60
.L61:
	bl	s3eDebugIsDebuggerPresent
	mov	r3, r0
	cmp	r3, #0
	moveq	r3, #0
	movne	r3, #1
	and	r3, r3, #255
	cmp	r3, #0
	beq	.L63
	bl	s3eDebugIsDebuggerPresent
	mov	r3, r0
	cmp	r3, #0
	moveq	r3, #0
	movne	r3, #1
	and	r3, r3, #255
	cmp	r3, #0
	beq	.L89
	mvn	r3, #11
	mov	r2, #0
	str	r2, [r3, #0]
	b	.L60
.L63:
	bl	_ZL11IwDebugExitv
	b	.L60
.L62:
	ldr	r3, .L93+4
	mov	r2, #1
	strb	r2, [r3, #0]
	b	.L60
.L89:
	mov	r0, r0	@ nop
.L60:
	mov	r0, #0
	bl	IwDebugAssertSetUID
	b	.L87
.L56:
.LBE12:
.LBB13:
	.loc 6 807 0
	ldr	r3, [sp, #12]
	ldrb	r3, [r3, #12]	@ zero_extendqisi2
	mov	r3, r3, lsr #1
	and	r3, r3, #1
	and	r3, r3, #255
	cmp	r3, #0
	beq	.L67
	ldr	r3, [sp, #12]
	ldr	r2, [r3, #8]
	ldr	r3, [sp, #8]
	cmp	r2, r3
	bcs	.L67
	ldr	r0, .L93
	bl	IwDebugAssertIsChannelOn
	mov	r3, r0
	cmp	r3, #0
	beq	.L67
	ldr	r3, .L93+28
	ldrb	r3, [r3, #0]	@ zero_extendqisi2
	cmp	r3, #0
	bne	.L67
	mov	r3, #1
	b	.L68
.L67:
	mov	r3, #0
.L68:
	cmp	r3, #0
	beq	.L69
	mov	r0, #0
	bl	IwDebugAssertSetSolution
	ldr	r0, .L93+32
	bl	IwDebugAssertSetUID
	ldr	r0, .L93+36
	bl	IwDebugAssertSetMessage
	ldr	r0, .L93+40
	ldr	r1, .L93+20
	ldr	r2, .L93+44
	mov	r3, #1
	bl	IwDebugAssertShow
	mov	r3, r0
	cmp	r3, #1
	beq	.L71
	cmp	r3, #2
	beq	.L72
	b	.L70
.L71:
	bl	s3eDebugIsDebuggerPresent
	mov	r3, r0
	cmp	r3, #0
	moveq	r3, #0
	movne	r3, #1
	and	r3, r3, #255
	cmp	r3, #0
	beq	.L73
	bl	s3eDebugIsDebuggerPresent
	mov	r3, r0
	cmp	r3, #0
	moveq	r3, #0
	movne	r3, #1
	and	r3, r3, #255
	cmp	r3, #0
	beq	.L90
	mvn	r3, #11
	mov	r2, #0
	str	r2, [r3, #0]
	b	.L70
.L73:
	bl	_ZL11IwDebugExitv
	b	.L70
.L72:
	ldr	r3, .L93+28
	mov	r2, #1
	strb	r2, [r3, #0]
	b	.L70
.L90:
	mov	r0, r0	@ nop
.L70:
	mov	r0, #0
	bl	IwDebugAssertSetUID
.L69:
.LBE13:
.LBB14:
	.loc 6 808 0
	ldr	r3, [sp, #12]
	ldr	r2, [r3, #4]
	ldr	r3, [sp, #8]
	cmp	r2, r3
	bls	.L76
	ldr	r0, .L93
	bl	IwDebugAssertIsChannelOn
	mov	r3, r0
	cmp	r3, #0
	beq	.L76
	ldr	r3, .L93+48
	ldrb	r3, [r3, #0]	@ zero_extendqisi2
	cmp	r3, #0
	bne	.L76
	mov	r3, #1
	b	.L77
.L76:
	mov	r3, #0
.L77:
	cmp	r3, #0
	beq	.L78
	mov	r0, #0
	bl	IwDebugAssertSetSolution
	mov	r0, #0
	bl	IwDebugAssertSetUID
	mov	r0, #0
	bl	IwDebugAssertSetMessage
	ldr	r0, .L93+52
	ldr	r1, .L93+20
	mov	r2, #808
	mov	r3, #1
	bl	IwDebugAssertShow
	mov	r3, r0
	cmp	r3, #1
	beq	.L80
	cmp	r3, #2
	beq	.L81
	b	.L79
.L80:
	bl	s3eDebugIsDebuggerPresent
	mov	r3, r0
	cmp	r3, #0
	moveq	r3, #0
	movne	r3, #1
	and	r3, r3, #255
	cmp	r3, #0
	beq	.L82
	bl	s3eDebugIsDebuggerPresent
	mov	r3, r0
	cmp	r3, #0
	moveq	r3, #0
	movne	r3, #1
	and	r3, r3, #255
	cmp	r3, #0
	beq	.L91
	mvn	r3, #11
	mov	r2, #0
	str	r2, [r3, #0]
	b	.L79
.L82:
	bl	_ZL11IwDebugExitv
	b	.L79
.L81:
	ldr	r3, .L93+48
	mov	r2, #1
	strb	r2, [r3, #0]
	b	.L79
.L91:
	mov	r0, r0	@ nop
.L79:
	mov	r0, #0
	bl	IwDebugAssertSetUID
.L78:
.LBE14:
	.loc 6 809 0
	ldr	r3, [sp, #12]
	ldr	r2, [r3, #8]
	ldr	r3, [sp, #8]
	cmp	r2, r3
	beq	.L92
.L85:
	.loc 6 810 0
	ldr	r3, [sp, #12]
	ldr	r2, [sp, #8]
	str	r2, [r3, #8]
	.loc 6 811 0
	ldr	r3, [sp, #8]
	cmp	r3, #0
	bne	.L86
	.loc 6 813 0
	ldr	r3, [sp, #12]
	add	r1, r3, #13
	ldr	r3, [sp, #12]
	ldr	r2, [r3, #0]
	ldr	r3, [sp, #12]
	ldr	r3, [r3, #8]
	mov	r0, r1
	mov	r1, r2
	mov	r2, r3
	bl	_ZN12CIwAllocatorI8PathNode15CIwMallocRouterIS0_EE10deallocateEPS0_j
	.loc 6 814 0
	ldr	r3, [sp, #12]
	mov	r2, #0
	str	r2, [r3, #0]
	b	.L87
.L86:
	.loc 6 818 0
	ldr	r3, [sp, #12]
	ldr	r1, [r3, #4]
	ldr	r3, [sp, #12]
	ldr	r2, [r3, #8]
	ldr	r3, [sp, #12]
	ldr	r3, [r3, #0]
	ldr	r0, [sp, #12]
	add	r0, r0, #13
	str	r0, [sp, #0]
	ldr	r0, [sp, #8]
	bl	_ZN17ReallocateDefaultI8PathNode12CIwAllocatorIS0_15CIwMallocRouterIS0_EEE10ReallocateEjjjPS0_RS4_
	mov	r2, r0
	ldr	r3, [sp, #12]
	str	r2, [r3, #0]
	b	.L87
.L88:
.LBB15:
	.loc 6 806 0
	mov	r0, r0	@ nop
	b	.L87
.L92:
.LBE15:
	.loc 6 809 0
	mov	r0, r0	@ nop
.L87:
.LBE11:
	.loc 6 820 0
	add	sp, sp, #20
	ldmfd	sp!, {pc}
.L94:
	.align	2
.L93:
	.word	.LC1
	.word	_ZZN8CIwArrayI8PathNode12CIwAllocatorIS0_15CIwMallocRouterIS0_EE17ReallocateDefaultIS0_S4_EE12set_capacityEjE21_s_IwAssertIgnoreThis
	.word	1733
	.word	.LC4
	.word	.LC5
	.word	.LC3
	.word	806
	.word	_ZZN8CIwArrayI8PathNode12CIwAllocatorIS0_15CIwMallocRouterIS0_EE17ReallocateDefaultIS0_S4_EE12set_capacityEjE21_s_IwAssertIgnoreThis_0
	.word	1732
	.word	.LC6
	.word	.LC7
	.word	807
	.word	_ZZN8CIwArrayI8PathNode12CIwAllocatorIS0_15CIwMallocRouterIS0_EE17ReallocateDefaultIS0_S4_EE12set_capacityEjE21_s_IwAssertIgnoreThis_1
	.word	.LC8
	.cfi_endproc
.LFE1669:
	.size	_ZN8CIwArrayI8PathNode12CIwAllocatorIS0_15CIwMallocRouterIS0_EE17ReallocateDefaultIS0_S4_EE12set_capacityEj, .-_ZN8CIwArrayI8PathNode12CIwAllocatorIS0_15CIwMallocRouterIS0_EE17ReallocateDefaultIS0_S4_EE12set_capacityEj
	.section	.text._ZN8CIwArrayIi12CIwAllocatorIi15CIwMallocRouterIiEE17ReallocateDefaultIiS3_EE12set_capacityEj,"axG",%progbits,_ZN8CIwArrayIi12CIwAllocatorIi15CIwMallocRouterIiEE17ReallocateDefaultIiS3_EE12set_capacityEj,comdat
	.align	2
	.weak	_ZN8CIwArrayIi12CIwAllocatorIi15CIwMallocRouterIiEE17ReallocateDefaultIiS3_EE12set_capacityEj
	.hidden	_ZN8CIwArrayIi12CIwAllocatorIi15CIwMallocRouterIiEE17ReallocateDefaultIiS3_EE12set_capacityEj
	.type	_ZN8CIwArrayIi12CIwAllocatorIi15CIwMallocRouterIiEE17ReallocateDefaultIiS3_EE12set_capacityEj, %function
_ZN8CIwArrayIi12CIwAllocatorIi15CIwMallocRouterIiEE17ReallocateDefaultIiS3_EE12set_capacityEj:
.LFB1671:
	.loc 6 804 0
	.cfi_startproc
	@ args = 0, pretend = 0, frame = 8
	@ frame_needed = 0, uses_anonymous_args = 0
	str	lr, [sp, #-4]!
.LCFI28:
	.cfi_def_cfa_offset 4
	sub	sp, sp, #20
.LCFI29:
	.cfi_def_cfa_offset 24
	str	r0, [sp, #12]
	str	r1, [sp, #8]
.LBB16:
.LBB17:
	.loc 6 806 0
	ldr	r3, [sp, #12]
	ldrb	r3, [r3, #12]
	and	r3, r3, #1
	and	r3, r3, #255
	cmp	r3, #0
	beq	.L96
	.cfi_offset 14, -4
	ldr	r0, .L133
	bl	IwDebugAssertIsChannelOn
	mov	r3, r0
	cmp	r3, #0
	beq	.L97
	ldr	r3, .L133+4
	ldrb	r3, [r3, #0]	@ zero_extendqisi2
	cmp	r3, #0
	bne	.L97
	mov	r3, #1
	b	.L98
.L97:
	mov	r3, #0
.L98:
	cmp	r3, #0
	beq	.L128
	ldr	r0, .L133+8
	bl	IwDebugAssertSetUID
	ldr	r0, .L133+12
	bl	IwDebugAssertSetMessage
	ldr	r0, .L133+16
	ldr	r1, .L133+20
	ldr	r2, .L133+24
	mov	r3, #1
	bl	IwDebugAssertShow
	mov	r3, r0
	cmp	r3, #1
	beq	.L101
	cmp	r3, #2
	beq	.L102
	b	.L100
.L101:
	bl	s3eDebugIsDebuggerPresent
	mov	r3, r0
	cmp	r3, #0
	moveq	r3, #0
	movne	r3, #1
	and	r3, r3, #255
	cmp	r3, #0
	beq	.L103
	bl	s3eDebugIsDebuggerPresent
	mov	r3, r0
	cmp	r3, #0
	moveq	r3, #0
	movne	r3, #1
	and	r3, r3, #255
	cmp	r3, #0
	beq	.L129
	mvn	r3, #11
	mov	r2, #0
	str	r2, [r3, #0]
	b	.L100
.L103:
	bl	_ZL11IwDebugExitv
	b	.L100
.L102:
	ldr	r3, .L133+4
	mov	r2, #1
	strb	r2, [r3, #0]
	b	.L100
.L129:
	mov	r0, r0	@ nop
.L100:
	mov	r0, #0
	bl	IwDebugAssertSetUID
	b	.L127
.L96:
.LBE17:
.LBB18:
	.loc 6 807 0
	ldr	r3, [sp, #12]
	ldrb	r3, [r3, #12]	@ zero_extendqisi2
	mov	r3, r3, lsr #1
	and	r3, r3, #1
	and	r3, r3, #255
	cmp	r3, #0
	beq	.L107
	ldr	r3, [sp, #12]
	ldr	r2, [r3, #8]
	ldr	r3, [sp, #8]
	cmp	r2, r3
	bcs	.L107
	ldr	r0, .L133
	bl	IwDebugAssertIsChannelOn
	mov	r3, r0
	cmp	r3, #0
	beq	.L107
	ldr	r3, .L133+28
	ldrb	r3, [r3, #0]	@ zero_extendqisi2
	cmp	r3, #0
	bne	.L107
	mov	r3, #1
	b	.L108
.L107:
	mov	r3, #0
.L108:
	cmp	r3, #0
	beq	.L109
	mov	r0, #0
	bl	IwDebugAssertSetSolution
	ldr	r0, .L133+32
	bl	IwDebugAssertSetUID
	ldr	r0, .L133+36
	bl	IwDebugAssertSetMessage
	ldr	r0, .L133+40
	ldr	r1, .L133+20
	ldr	r2, .L133+44
	mov	r3, #1
	bl	IwDebugAssertShow
	mov	r3, r0
	cmp	r3, #1
	beq	.L111
	cmp	r3, #2
	beq	.L112
	b	.L110
.L111:
	bl	s3eDebugIsDebuggerPresent
	mov	r3, r0
	cmp	r3, #0
	moveq	r3, #0
	movne	r3, #1
	and	r3, r3, #255
	cmp	r3, #0
	beq	.L113
	bl	s3eDebugIsDebuggerPresent
	mov	r3, r0
	cmp	r3, #0
	moveq	r3, #0
	movne	r3, #1
	and	r3, r3, #255
	cmp	r3, #0
	beq	.L130
	mvn	r3, #11
	mov	r2, #0
	str	r2, [r3, #0]
	b	.L110
.L113:
	bl	_ZL11IwDebugExitv
	b	.L110
.L112:
	ldr	r3, .L133+28
	mov	r2, #1
	strb	r2, [r3, #0]
	b	.L110
.L130:
	mov	r0, r0	@ nop
.L110:
	mov	r0, #0
	bl	IwDebugAssertSetUID
.L109:
.LBE18:
.LBB19:
	.loc 6 808 0
	ldr	r3, [sp, #12]
	ldr	r2, [r3, #4]
	ldr	r3, [sp, #8]
	cmp	r2, r3
	bls	.L116
	ldr	r0, .L133
	bl	IwDebugAssertIsChannelOn
	mov	r3, r0
	cmp	r3, #0
	beq	.L116
	ldr	r3, .L133+48
	ldrb	r3, [r3, #0]	@ zero_extendqisi2
	cmp	r3, #0
	bne	.L116
	mov	r3, #1
	b	.L117
.L116:
	mov	r3, #0
.L117:
	cmp	r3, #0
	beq	.L118
	mov	r0, #0
	bl	IwDebugAssertSetSolution
	mov	r0, #0
	bl	IwDebugAssertSetUID
	mov	r0, #0
	bl	IwDebugAssertSetMessage
	ldr	r0, .L133+52
	ldr	r1, .L133+20
	mov	r2, #808
	mov	r3, #1
	bl	IwDebugAssertShow
	mov	r3, r0
	cmp	r3, #1
	beq	.L120
	cmp	r3, #2
	beq	.L121
	b	.L119
.L120:
	bl	s3eDebugIsDebuggerPresent
	mov	r3, r0
	cmp	r3, #0
	moveq	r3, #0
	movne	r3, #1
	and	r3, r3, #255
	cmp	r3, #0
	beq	.L122
	bl	s3eDebugIsDebuggerPresent
	mov	r3, r0
	cmp	r3, #0
	moveq	r3, #0
	movne	r3, #1
	and	r3, r3, #255
	cmp	r3, #0
	beq	.L131
	mvn	r3, #11
	mov	r2, #0
	str	r2, [r3, #0]
	b	.L119
.L122:
	bl	_ZL11IwDebugExitv
	b	.L119
.L121:
	ldr	r3, .L133+48
	mov	r2, #1
	strb	r2, [r3, #0]
	b	.L119
.L131:
	mov	r0, r0	@ nop
.L119:
	mov	r0, #0
	bl	IwDebugAssertSetUID
.L118:
.LBE19:
	.loc 6 809 0
	ldr	r3, [sp, #12]
	ldr	r2, [r3, #8]
	ldr	r3, [sp, #8]
	cmp	r2, r3
	beq	.L132
.L125:
	.loc 6 810 0
	ldr	r3, [sp, #12]
	ldr	r2, [sp, #8]
	str	r2, [r3, #8]
	.loc 6 811 0
	ldr	r3, [sp, #8]
	cmp	r3, #0
	bne	.L126
	.loc 6 813 0
	ldr	r3, [sp, #12]
	add	r1, r3, #13
	ldr	r3, [sp, #12]
	ldr	r2, [r3, #0]
	ldr	r3, [sp, #12]
	ldr	r3, [r3, #8]
	mov	r0, r1
	mov	r1, r2
	mov	r2, r3
	bl	_ZN12CIwAllocatorIi15CIwMallocRouterIiEE10deallocateEPij
	.loc 6 814 0
	ldr	r3, [sp, #12]
	mov	r2, #0
	str	r2, [r3, #0]
	b	.L127
.L126:
	.loc 6 818 0
	ldr	r3, [sp, #12]
	ldr	r1, [r3, #4]
	ldr	r3, [sp, #12]
	ldr	r2, [r3, #8]
	ldr	r3, [sp, #12]
	ldr	r3, [r3, #0]
	ldr	r0, [sp, #12]
	add	r0, r0, #13
	str	r0, [sp, #0]
	ldr	r0, [sp, #8]
	bl	_ZN17ReallocateDefaultIi12CIwAllocatorIi15CIwMallocRouterIiEEE10ReallocateEjjjPiRS3_
	mov	r2, r0
	ldr	r3, [sp, #12]
	str	r2, [r3, #0]
	b	.L127
.L128:
.LBB20:
	.loc 6 806 0
	mov	r0, r0	@ nop
	b	.L127
.L132:
.LBE20:
	.loc 6 809 0
	mov	r0, r0	@ nop
.L127:
.LBE16:
	.loc 6 820 0
	add	sp, sp, #20
	ldmfd	sp!, {pc}
.L134:
	.align	2
.L133:
	.word	.LC1
	.word	_ZZN8CIwArrayIi12CIwAllocatorIi15CIwMallocRouterIiEE17ReallocateDefaultIiS3_EE12set_capacityEjE21_s_IwAssertIgnoreThis
	.word	1733
	.word	.LC4
	.word	.LC5
	.word	.LC3
	.word	806
	.word	_ZZN8CIwArrayIi12CIwAllocatorIi15CIwMallocRouterIiEE17ReallocateDefaultIiS3_EE12set_capacityEjE21_s_IwAssertIgnoreThis_0
	.word	1732
	.word	.LC6
	.word	.LC7
	.word	807
	.word	_ZZN8CIwArrayIi12CIwAllocatorIi15CIwMallocRouterIiEE17ReallocateDefaultIiS3_EE12set_capacityEjE21_s_IwAssertIgnoreThis_1
	.word	.LC8
	.cfi_endproc
.LFE1671:
	.size	_ZN8CIwArrayIi12CIwAllocatorIi15CIwMallocRouterIiEE17ReallocateDefaultIiS3_EE12set_capacityEj, .-_ZN8CIwArrayIi12CIwAllocatorIi15CIwMallocRouterIiEE17ReallocateDefaultIiS3_EE12set_capacityEj
	.section	.rodata
	.align	2
.LC9:
	.ascii	"!(&x>=p && &x<p+max_p)\000"
	.align	2
.LC10:
	.ascii	"num_p < max_p\000"
	.section	.text._ZN8CIwArrayI8PathNode12CIwAllocatorIS0_15CIwMallocRouterIS0_EE17ReallocateDefaultIS0_S4_EE9push_backERKS0_,"axG",%progbits,_ZN8CIwArrayI8PathNode12CIwAllocatorIS0_15CIwMallocRouterIS0_EE17ReallocateDefaultIS0_S4_EE9push_backERKS0_,comdat
	.align	2
	.weak	_ZN8CIwArrayI8PathNode12CIwAllocatorIS0_15CIwMallocRouterIS0_EE17ReallocateDefaultIS0_S4_EE9push_backERKS0_
	.hidden	_ZN8CIwArrayI8PathNode12CIwAllocatorIS0_15CIwMallocRouterIS0_EE17ReallocateDefaultIS0_S4_EE9push_backERKS0_
	.type	_ZN8CIwArrayI8PathNode12CIwAllocatorIS0_15CIwMallocRouterIS0_EE17ReallocateDefaultIS0_S4_EE9push_backERKS0_, %function
_ZN8CIwArrayI8PathNode12CIwAllocatorIS0_15CIwMallocRouterIS0_EE17ReallocateDefaultIS0_S4_EE9push_backERKS0_:
.LFB1692:
	.loc 6 618 0
	.cfi_startproc
	@ args = 0, pretend = 0, frame = 8
	@ frame_needed = 0, uses_anonymous_args = 0
	stmfd	sp!, {r4, lr}
.LCFI30:
	.cfi_def_cfa_offset 8
	sub	sp, sp, #8
.LCFI31:
	.cfi_def_cfa_offset 16
	str	r0, [sp, #4]
	str	r1, [sp, #0]
.LBB21:
.LBB22:
	.loc 6 632 0
	ldr	r3, [sp, #4]
	ldr	r2, [r3, #0]
	ldr	r3, [sp, #0]
	cmp	r2, r3
	bhi	.L136
	.cfi_offset 14, -4
	.cfi_offset 4, -8
	ldr	r3, [sp, #4]
	ldr	r1, [r3, #0]
	ldr	r3, [sp, #4]
	ldr	r2, [r3, #8]
	mov	r3, r2
	mov	r3, r3, asl #2
	add	r3, r3, r2
	mov	r3, r3, asl #2
	add	r2, r1, r3
	ldr	r3, [sp, #0]
	cmp	r2, r3
	bls	.L136
	ldr	r0, .L157
	bl	IwDebugAssertIsChannelOn
	mov	r3, r0
	cmp	r3, #0
	beq	.L136
	ldr	r3, .L157+4
	ldrb	r3, [r3, #0]	@ zero_extendqisi2
	cmp	r3, #0
	bne	.L136
	mov	r3, #1
	b	.L137
.L136:
	mov	r3, #0
.L137:
	cmp	r3, #0
	beq	.L138
	mov	r0, #0
	bl	IwDebugAssertSetSolution
	mov	r0, #0
	bl	IwDebugAssertSetUID
	mov	r0, #0
	bl	IwDebugAssertSetMessage
	ldr	r0, .L157+8
	ldr	r1, .L157+12
	mov	r2, #632
	mov	r3, #1
	bl	IwDebugAssertShow
	mov	r3, r0
	cmp	r3, #1
	beq	.L140
	cmp	r3, #2
	beq	.L141
	b	.L139
.L140:
	bl	s3eDebugIsDebuggerPresent
	mov	r3, r0
	cmp	r3, #0
	moveq	r3, #0
	movne	r3, #1
	and	r3, r3, #255
	cmp	r3, #0
	beq	.L142
	bl	s3eDebugIsDebuggerPresent
	mov	r3, r0
	cmp	r3, #0
	moveq	r3, #0
	movne	r3, #1
	and	r3, r3, #255
	cmp	r3, #0
	beq	.L155
	mvn	r3, #11
	mov	r2, #0
	str	r2, [r3, #0]
	b	.L139
.L142:
	bl	_ZL11IwDebugExitv
	b	.L139
.L141:
	ldr	r3, .L157+4
	mov	r2, #1
	strb	r2, [r3, #0]
	b	.L139
.L155:
	mov	r0, r0	@ nop
.L139:
	mov	r0, #0
	bl	IwDebugAssertSetUID
.L138:
.LBE22:
	.loc 6 634 0
	ldr	r3, [sp, #4]
	ldr	r3, [r3, #4]
	add	r3, r3, #1
	ldr	r0, [sp, #4]
	mov	r1, r3
	bl	_ZN8CIwArrayI8PathNode12CIwAllocatorIS0_15CIwMallocRouterIS0_EE17ReallocateDefaultIS0_S4_EE7reserveEj
.LBB23:
	.loc 6 635 0
	ldr	r3, [sp, #4]
	ldr	r2, [r3, #4]
	ldr	r3, [sp, #4]
	ldr	r3, [r3, #8]
	cmp	r2, r3
	bcc	.L145
	ldr	r0, .L157
	bl	IwDebugAssertIsChannelOn
	mov	r3, r0
	cmp	r3, #0
	beq	.L145
	ldr	r3, .L157+16
	ldrb	r3, [r3, #0]	@ zero_extendqisi2
	cmp	r3, #0
	bne	.L145
	mov	r3, #1
	b	.L146
.L145:
	mov	r3, #0
.L146:
	cmp	r3, #0
	beq	.L147
	mov	r0, #0
	bl	IwDebugAssertSetSolution
	mov	r0, #0
	bl	IwDebugAssertSetUID
	mov	r0, #0
	bl	IwDebugAssertSetMessage
	ldr	r0, .L157+20
	ldr	r1, .L157+12
	ldr	r2, .L157+24
	mov	r3, #1
	bl	IwDebugAssertShow
	mov	r3, r0
	cmp	r3, #1
	beq	.L149
	cmp	r3, #2
	beq	.L150
	b	.L148
.L149:
	bl	s3eDebugIsDebuggerPresent
	mov	r3, r0
	cmp	r3, #0
	moveq	r3, #0
	movne	r3, #1
	and	r3, r3, #255
	cmp	r3, #0
	beq	.L151
	bl	s3eDebugIsDebuggerPresent
	mov	r3, r0
	cmp	r3, #0
	moveq	r3, #0
	movne	r3, #1
	and	r3, r3, #255
	cmp	r3, #0
	beq	.L156
	mvn	r3, #11
	mov	r2, #0
	str	r2, [r3, #0]
	b	.L148
.L151:
	bl	_ZL11IwDebugExitv
	b	.L148
.L150:
	ldr	r3, .L157+16
	mov	r2, #1
	strb	r2, [r3, #0]
	b	.L148
.L156:
	mov	r0, r0	@ nop
.L148:
	mov	r0, #0
	bl	IwDebugAssertSetUID
.L147:
.LBE23:
	.loc 6 636 0
	ldr	r3, [sp, #4]
	ldr	r1, [r3, #0]
	ldr	r3, [sp, #4]
	ldr	r2, [r3, #4]
	mov	r3, r2
	mov	r3, r3, asl #2
	add	r3, r3, r2
	mov	r3, r3, asl #2
	add	r3, r1, r3
	mov	r0, #20
	mov	r1, r3
	bl	_ZnwjPv
	mov	r3, r0
	mov	r2, r3
	ldr	r3, [sp, #0]
	mov	ip, r2
	mov	r4, r3
	ldmia	r4!, {r0, r1, r2, r3}
	stmia	ip!, {r0, r1, r2, r3}
	ldr	r3, [r4, #0]
	str	r3, [ip, #0]
	.loc 6 637 0
	ldr	r3, [sp, #4]
	ldr	r3, [r3, #4]
	mov	r2, r3
	add	r1, r3, #1
	ldr	r3, [sp, #4]
	str	r1, [r3, #4]
	mov	r3, r2
.LBE21:
	.loc 6 638 0
	mov	r0, r3
	add	sp, sp, #8
	ldmfd	sp!, {r4, pc}
.L158:
	.align	2
.L157:
	.word	.LC1
	.word	_ZZN8CIwArrayI8PathNode12CIwAllocatorIS0_15CIwMallocRouterIS0_EE17ReallocateDefaultIS0_S4_EE9push_backERKS0_E21_s_IwAssertIgnoreThis
	.word	.LC9
	.word	.LC3
	.word	_ZZN8CIwArrayI8PathNode12CIwAllocatorIS0_15CIwMallocRouterIS0_EE17ReallocateDefaultIS0_S4_EE9push_backERKS0_E21_s_IwAssertIgnoreThis_0
	.word	.LC10
	.word	635
	.cfi_endproc
.LFE1692:
	.size	_ZN8CIwArrayI8PathNode12CIwAllocatorIS0_15CIwMallocRouterIS0_EE17ReallocateDefaultIS0_S4_EE9push_backERKS0_, .-_ZN8CIwArrayI8PathNode12CIwAllocatorIS0_15CIwMallocRouterIS0_EE17ReallocateDefaultIS0_S4_EE9push_backERKS0_
	.section	.text._ZN8CIwArrayIi12CIwAllocatorIi15CIwMallocRouterIiEE17ReallocateDefaultIiS3_EE9push_backERKi,"axG",%progbits,_ZN8CIwArrayIi12CIwAllocatorIi15CIwMallocRouterIiEE17ReallocateDefaultIiS3_EE9push_backERKi,comdat
	.align	2
	.weak	_ZN8CIwArrayIi12CIwAllocatorIi15CIwMallocRouterIiEE17ReallocateDefaultIiS3_EE9push_backERKi
	.hidden	_ZN8CIwArrayIi12CIwAllocatorIi15CIwMallocRouterIiEE17ReallocateDefaultIiS3_EE9push_backERKi
	.type	_ZN8CIwArrayIi12CIwAllocatorIi15CIwMallocRouterIiEE17ReallocateDefaultIiS3_EE9push_backERKi, %function
_ZN8CIwArrayIi12CIwAllocatorIi15CIwMallocRouterIiEE17ReallocateDefaultIiS3_EE9push_backERKi:
.LFB1693:
	.loc 6 618 0
	.cfi_startproc
	@ args = 0, pretend = 0, frame = 8
	@ frame_needed = 0, uses_anonymous_args = 0
	str	lr, [sp, #-4]!
.LCFI32:
	.cfi_def_cfa_offset 4
	sub	sp, sp, #12
.LCFI33:
	.cfi_def_cfa_offset 16
	str	r0, [sp, #4]
	str	r1, [sp, #0]
.LBB24:
.LBB25:
	.loc 6 632 0
	ldr	r3, [sp, #4]
	ldr	r2, [r3, #0]
	ldr	r3, [sp, #0]
	cmp	r2, r3
	bhi	.L160
	.cfi_offset 14, -4
	ldr	r3, [sp, #4]
	ldr	r2, [r3, #0]
	ldr	r3, [sp, #4]
	ldr	r3, [r3, #8]
	mov	r3, r3, asl #2
	add	r2, r2, r3
	ldr	r3, [sp, #0]
	cmp	r2, r3
	bls	.L160
	ldr	r0, .L181
	bl	IwDebugAssertIsChannelOn
	mov	r3, r0
	cmp	r3, #0
	beq	.L160
	ldr	r3, .L181+4
	ldrb	r3, [r3, #0]	@ zero_extendqisi2
	cmp	r3, #0
	bne	.L160
	mov	r3, #1
	b	.L161
.L160:
	mov	r3, #0
.L161:
	cmp	r3, #0
	beq	.L162
	mov	r0, #0
	bl	IwDebugAssertSetSolution
	mov	r0, #0
	bl	IwDebugAssertSetUID
	mov	r0, #0
	bl	IwDebugAssertSetMessage
	ldr	r0, .L181+8
	ldr	r1, .L181+12
	mov	r2, #632
	mov	r3, #1
	bl	IwDebugAssertShow
	mov	r3, r0
	cmp	r3, #1
	beq	.L164
	cmp	r3, #2
	beq	.L165
	b	.L163
.L164:
	bl	s3eDebugIsDebuggerPresent
	mov	r3, r0
	cmp	r3, #0
	moveq	r3, #0
	movne	r3, #1
	and	r3, r3, #255
	cmp	r3, #0
	beq	.L166
	bl	s3eDebugIsDebuggerPresent
	mov	r3, r0
	cmp	r3, #0
	moveq	r3, #0
	movne	r3, #1
	and	r3, r3, #255
	cmp	r3, #0
	beq	.L179
	mvn	r3, #11
	mov	r2, #0
	str	r2, [r3, #0]
	b	.L163
.L166:
	bl	_ZL11IwDebugExitv
	b	.L163
.L165:
	ldr	r3, .L181+4
	mov	r2, #1
	strb	r2, [r3, #0]
	b	.L163
.L179:
	mov	r0, r0	@ nop
.L163:
	mov	r0, #0
	bl	IwDebugAssertSetUID
.L162:
.LBE25:
	.loc 6 634 0
	ldr	r3, [sp, #4]
	ldr	r3, [r3, #4]
	add	r3, r3, #1
	ldr	r0, [sp, #4]
	mov	r1, r3
	bl	_ZN8CIwArrayIi12CIwAllocatorIi15CIwMallocRouterIiEE17ReallocateDefaultIiS3_EE7reserveEj
.LBB26:
	.loc 6 635 0
	ldr	r3, [sp, #4]
	ldr	r2, [r3, #4]
	ldr	r3, [sp, #4]
	ldr	r3, [r3, #8]
	cmp	r2, r3
	bcc	.L169
	ldr	r0, .L181
	bl	IwDebugAssertIsChannelOn
	mov	r3, r0
	cmp	r3, #0
	beq	.L169
	ldr	r3, .L181+16
	ldrb	r3, [r3, #0]	@ zero_extendqisi2
	cmp	r3, #0
	bne	.L169
	mov	r3, #1
	b	.L170
.L169:
	mov	r3, #0
.L170:
	cmp	r3, #0
	beq	.L171
	mov	r0, #0
	bl	IwDebugAssertSetSolution
	mov	r0, #0
	bl	IwDebugAssertSetUID
	mov	r0, #0
	bl	IwDebugAssertSetMessage
	ldr	r0, .L181+20
	ldr	r1, .L181+12
	ldr	r2, .L181+24
	mov	r3, #1
	bl	IwDebugAssertShow
	mov	r3, r0
	cmp	r3, #1
	beq	.L173
	cmp	r3, #2
	beq	.L174
	b	.L172
.L173:
	bl	s3eDebugIsDebuggerPresent
	mov	r3, r0
	cmp	r3, #0
	moveq	r3, #0
	movne	r3, #1
	and	r3, r3, #255
	cmp	r3, #0
	beq	.L175
	bl	s3eDebugIsDebuggerPresent
	mov	r3, r0
	cmp	r3, #0
	moveq	r3, #0
	movne	r3, #1
	and	r3, r3, #255
	cmp	r3, #0
	beq	.L180
	mvn	r3, #11
	mov	r2, #0
	str	r2, [r3, #0]
	b	.L172
.L175:
	bl	_ZL11IwDebugExitv
	b	.L172
.L174:
	ldr	r3, .L181+16
	mov	r2, #1
	strb	r2, [r3, #0]
	b	.L172
.L180:
	mov	r0, r0	@ nop
.L172:
	mov	r0, #0
	bl	IwDebugAssertSetUID
.L171:
.LBE26:
	.loc 6 636 0
	ldr	r3, [sp, #4]
	ldr	r2, [r3, #0]
	ldr	r3, [sp, #4]
	ldr	r3, [r3, #4]
	mov	r3, r3, asl #2
	add	r3, r2, r3
	mov	r0, #4
	mov	r1, r3
	bl	_ZnwjPv
	mov	r3, r0
	ldr	r2, [sp, #0]
	ldr	r2, [r2, #0]
	str	r2, [r3, #0]
	.loc 6 637 0
	ldr	r3, [sp, #4]
	ldr	r3, [r3, #4]
	mov	r2, r3
	add	r1, r3, #1
	ldr	r3, [sp, #4]
	str	r1, [r3, #4]
	mov	r3, r2
.LBE24:
	.loc 6 638 0
	mov	r0, r3
	add	sp, sp, #12
	ldmfd	sp!, {pc}
.L182:
	.align	2
.L181:
	.word	.LC1
	.word	_ZZN8CIwArrayIi12CIwAllocatorIi15CIwMallocRouterIiEE17ReallocateDefaultIiS3_EE9push_backERKiE21_s_IwAssertIgnoreThis
	.word	.LC9
	.word	.LC3
	.word	_ZZN8CIwArrayIi12CIwAllocatorIi15CIwMallocRouterIiEE17ReallocateDefaultIiS3_EE9push_backERKiE21_s_IwAssertIgnoreThis_0
	.word	.LC10
	.word	635
	.cfi_endproc
.LFE1693:
	.size	_ZN8CIwArrayIi12CIwAllocatorIi15CIwMallocRouterIiEE17ReallocateDefaultIiS3_EE9push_backERKi, .-_ZN8CIwArrayIi12CIwAllocatorIi15CIwMallocRouterIiEE17ReallocateDefaultIiS3_EE9push_backERKi
	.section	.text._ZN15CIwMallocRouterI8PathNodeE6DoFreeEPv,"axG",%progbits,_ZN15CIwMallocRouterI8PathNodeE6DoFreeEPv,comdat
	.align	2
	.weak	_ZN15CIwMallocRouterI8PathNodeE6DoFreeEPv
	.hidden	_ZN15CIwMallocRouterI8PathNodeE6DoFreeEPv
	.type	_ZN15CIwMallocRouterI8PathNodeE6DoFreeEPv, %function
_ZN15CIwMallocRouterI8PathNodeE6DoFreeEPv:
.LFB1698:
	.loc 7 93 0
	.cfi_startproc
	@ args = 0, pretend = 0, frame = 8
	@ frame_needed = 0, uses_anonymous_args = 0
	str	lr, [sp, #-4]!
.LCFI34:
	.cfi_def_cfa_offset 4
	sub	sp, sp, #12
.LCFI35:
	.cfi_def_cfa_offset 16
	str	r0, [sp, #4]
	.loc 7 95 0
	ldr	r0, [sp, #4]
	mov	r1, #20
	.cfi_offset 14, -4
	bl	_ZN22CIwDefaultMallocRouter8BaseFreeEPvj
	.loc 7 96 0
	add	sp, sp, #12
	ldmfd	sp!, {pc}
	.cfi_endproc
.LFE1698:
	.size	_ZN15CIwMallocRouterI8PathNodeE6DoFreeEPv, .-_ZN15CIwMallocRouterI8PathNodeE6DoFreeEPv
	.section	.text._ZN15CIwMallocRouterIiE6DoFreeEPv,"axG",%progbits,_ZN15CIwMallocRouterIiE6DoFreeEPv,comdat
	.align	2
	.weak	_ZN15CIwMallocRouterIiE6DoFreeEPv
	.hidden	_ZN15CIwMallocRouterIiE6DoFreeEPv
	.type	_ZN15CIwMallocRouterIiE6DoFreeEPv, %function
_ZN15CIwMallocRouterIiE6DoFreeEPv:
.LFB1700:
	.loc 7 93 0
	.cfi_startproc
	@ args = 0, pretend = 0, frame = 8
	@ frame_needed = 0, uses_anonymous_args = 0
	str	lr, [sp, #-4]!
.LCFI36:
	.cfi_def_cfa_offset 4
	sub	sp, sp, #12
.LCFI37:
	.cfi_def_cfa_offset 16
	str	r0, [sp, #4]
	.loc 7 95 0
	ldr	r0, [sp, #4]
	mov	r1, #4
	.cfi_offset 14, -4
	bl	_ZN22CIwDefaultMallocRouter8BaseFreeEPvj
	.loc 7 96 0
	add	sp, sp, #12
	ldmfd	sp!, {pc}
	.cfi_endproc
.LFE1700:
	.size	_ZN15CIwMallocRouterIiE6DoFreeEPv, .-_ZN15CIwMallocRouterIiE6DoFreeEPv
	.section	.text._ZN17ReallocateDefaultI8PathNode12CIwAllocatorIS0_15CIwMallocRouterIS0_EEE10ReallocateEjjjPS0_RS4_,"axG",%progbits,_ZN17ReallocateDefaultI8PathNode12CIwAllocatorIS0_15CIwMallocRouterIS0_EEE10ReallocateEjjjPS0_RS4_,comdat
	.align	2
	.weak	_ZN17ReallocateDefaultI8PathNode12CIwAllocatorIS0_15CIwMallocRouterIS0_EEE10ReallocateEjjjPS0_RS4_
	.hidden	_ZN17ReallocateDefaultI8PathNode12CIwAllocatorIS0_15CIwMallocRouterIS0_EEE10ReallocateEjjjPS0_RS4_
	.type	_ZN17ReallocateDefaultI8PathNode12CIwAllocatorIS0_15CIwMallocRouterIS0_EEE10ReallocateEjjjPS0_RS4_, %function
_ZN17ReallocateDefaultI8PathNode12CIwAllocatorIS0_15CIwMallocRouterIS0_EEE10ReallocateEjjjPS0_RS4_:
.LFB1701:
	.loc 6 52 0
	.cfi_startproc
	@ args = 4, pretend = 0, frame = 16
	@ frame_needed = 0, uses_anonymous_args = 0
	str	lr, [sp, #-4]!
.LCFI38:
	.cfi_def_cfa_offset 4
	sub	sp, sp, #20
.LCFI39:
	.cfi_def_cfa_offset 24
	str	r0, [sp, #12]
	str	r1, [sp, #8]
	str	r2, [sp, #4]
	str	r3, [sp, #0]
	.loc 6 54 0
	ldr	r2, [sp, #12]
	mov	r3, r2
	mov	r3, r3, asl #2
	add	r3, r3, r2
	mov	r3, r3, asl #2
	ldr	r0, [sp, #24]
	ldr	r1, [sp, #0]
	mov	r2, r3
	.cfi_offset 14, -4
	bl	_ZN12CIwAllocatorI8PathNode15CIwMallocRouterIS0_EE10reallocateEPS0_j
	mov	r3, r0
	.loc 6 55 0
	mov	r0, r3
	add	sp, sp, #20
	ldmfd	sp!, {pc}
	.cfi_endproc
.LFE1701:
	.size	_ZN17ReallocateDefaultI8PathNode12CIwAllocatorIS0_15CIwMallocRouterIS0_EEE10ReallocateEjjjPS0_RS4_, .-_ZN17ReallocateDefaultI8PathNode12CIwAllocatorIS0_15CIwMallocRouterIS0_EEE10ReallocateEjjjPS0_RS4_
	.section	.text._ZN17ReallocateDefaultIi12CIwAllocatorIi15CIwMallocRouterIiEEE10ReallocateEjjjPiRS3_,"axG",%progbits,_ZN17ReallocateDefaultIi12CIwAllocatorIi15CIwMallocRouterIiEEE10ReallocateEjjjPiRS3_,comdat
	.align	2
	.weak	_ZN17ReallocateDefaultIi12CIwAllocatorIi15CIwMallocRouterIiEEE10ReallocateEjjjPiRS3_
	.hidden	_ZN17ReallocateDefaultIi12CIwAllocatorIi15CIwMallocRouterIiEEE10ReallocateEjjjPiRS3_
	.type	_ZN17ReallocateDefaultIi12CIwAllocatorIi15CIwMallocRouterIiEEE10ReallocateEjjjPiRS3_, %function
_ZN17ReallocateDefaultIi12CIwAllocatorIi15CIwMallocRouterIiEEE10ReallocateEjjjPiRS3_:
.LFB1702:
	.loc 6 52 0
	.cfi_startproc
	@ args = 4, pretend = 0, frame = 16
	@ frame_needed = 0, uses_anonymous_args = 0
	str	lr, [sp, #-4]!
.LCFI40:
	.cfi_def_cfa_offset 4
	sub	sp, sp, #20
.LCFI41:
	.cfi_def_cfa_offset 24
	str	r0, [sp, #12]
	str	r1, [sp, #8]
	str	r2, [sp, #4]
	str	r3, [sp, #0]
	.loc 6 54 0
	ldr	r3, [sp, #12]
	mov	r3, r3, asl #2
	ldr	r0, [sp, #24]
	ldr	r1, [sp, #0]
	mov	r2, r3
	.cfi_offset 14, -4
	bl	_ZN12CIwAllocatorIi15CIwMallocRouterIiEE10reallocateEPij
	mov	r3, r0
	.loc 6 55 0
	mov	r0, r3
	add	sp, sp, #20
	ldmfd	sp!, {pc}
	.cfi_endproc
.LFE1702:
	.size	_ZN17ReallocateDefaultIi12CIwAllocatorIi15CIwMallocRouterIiEEE10ReallocateEjjjPiRS3_, .-_ZN17ReallocateDefaultIi12CIwAllocatorIi15CIwMallocRouterIiEEE10ReallocateEjjjPiRS3_
	.section	.text._ZN8CIwArrayI8PathNode12CIwAllocatorIS0_15CIwMallocRouterIS0_EE17ReallocateDefaultIS0_S4_EE7reserveEj,"axG",%progbits,_ZN8CIwArrayI8PathNode12CIwAllocatorIS0_15CIwMallocRouterIS0_EE17ReallocateDefaultIS0_S4_EE7reserveEj,comdat
	.align	2
	.weak	_ZN8CIwArrayI8PathNode12CIwAllocatorIS0_15CIwMallocRouterIS0_EE17ReallocateDefaultIS0_S4_EE7reserveEj
	.hidden	_ZN8CIwArrayI8PathNode12CIwAllocatorIS0_15CIwMallocRouterIS0_EE17ReallocateDefaultIS0_S4_EE7reserveEj
	.type	_ZN8CIwArrayI8PathNode12CIwAllocatorIS0_15CIwMallocRouterIS0_EE17ReallocateDefaultIS0_S4_EE7reserveEj, %function
_ZN8CIwArrayI8PathNode12CIwAllocatorIS0_15CIwMallocRouterIS0_EE17ReallocateDefaultIS0_S4_EE7reserveEj:
.LFB1708:
	.loc 6 253 0
	.cfi_startproc
	@ args = 0, pretend = 0, frame = 8
	@ frame_needed = 0, uses_anonymous_args = 0
	str	lr, [sp, #-4]!
.LCFI42:
	.cfi_def_cfa_offset 4
	sub	sp, sp, #12
.LCFI43:
	.cfi_def_cfa_offset 16
	str	r0, [sp, #4]
	str	r1, [sp, #0]
	.loc 6 255 0
	ldr	r3, [sp, #4]
	ldr	r2, [r3, #8]
	ldr	r3, [sp, #0]
	cmp	r2, r3
	bcs	.L195
	.cfi_offset 14, -4
	.loc 6 257 0
	ldr	r3, [sp, #4]
	ldr	r3, [r3, #8]
	cmp	r3, #15
	bls	.L193
	ldr	r3, [sp, #4]
	ldr	r3, [r3, #8]
	mov	r3, r3, lsr #3
	b	.L194
.L193:
	mov	r3, #2
.L194:
	ldr	r2, [sp, #0]
	add	r3, r3, r2
	ldr	r0, [sp, #4]
	mov	r1, r3
	bl	_ZN8CIwArrayI8PathNode12CIwAllocatorIS0_15CIwMallocRouterIS0_EE17ReallocateDefaultIS0_S4_EE12set_capacityEj
.L195:
	.loc 6 259 0
	add	sp, sp, #12
	ldmfd	sp!, {pc}
	.cfi_endproc
.LFE1708:
	.size	_ZN8CIwArrayI8PathNode12CIwAllocatorIS0_15CIwMallocRouterIS0_EE17ReallocateDefaultIS0_S4_EE7reserveEj, .-_ZN8CIwArrayI8PathNode12CIwAllocatorIS0_15CIwMallocRouterIS0_EE17ReallocateDefaultIS0_S4_EE7reserveEj
	.section	.text._ZN8CIwArrayIi12CIwAllocatorIi15CIwMallocRouterIiEE17ReallocateDefaultIiS3_EE7reserveEj,"axG",%progbits,_ZN8CIwArrayIi12CIwAllocatorIi15CIwMallocRouterIiEE17ReallocateDefaultIiS3_EE7reserveEj,comdat
	.align	2
	.weak	_ZN8CIwArrayIi12CIwAllocatorIi15CIwMallocRouterIiEE17ReallocateDefaultIiS3_EE7reserveEj
	.hidden	_ZN8CIwArrayIi12CIwAllocatorIi15CIwMallocRouterIiEE17ReallocateDefaultIiS3_EE7reserveEj
	.type	_ZN8CIwArrayIi12CIwAllocatorIi15CIwMallocRouterIiEE17ReallocateDefaultIiS3_EE7reserveEj, %function
_ZN8CIwArrayIi12CIwAllocatorIi15CIwMallocRouterIiEE17ReallocateDefaultIiS3_EE7reserveEj:
.LFB1709:
	.loc 6 253 0
	.cfi_startproc
	@ args = 0, pretend = 0, frame = 8
	@ frame_needed = 0, uses_anonymous_args = 0
	str	lr, [sp, #-4]!
.LCFI44:
	.cfi_def_cfa_offset 4
	sub	sp, sp, #12
.LCFI45:
	.cfi_def_cfa_offset 16
	str	r0, [sp, #4]
	str	r1, [sp, #0]
	.loc 6 255 0
	ldr	r3, [sp, #4]
	ldr	r2, [r3, #8]
	ldr	r3, [sp, #0]
	cmp	r2, r3
	bcs	.L200
	.cfi_offset 14, -4
	.loc 6 257 0
	ldr	r3, [sp, #4]
	ldr	r3, [r3, #8]
	cmp	r3, #15
	bls	.L198
	ldr	r3, [sp, #4]
	ldr	r3, [r3, #8]
	mov	r3, r3, lsr #3
	b	.L199
.L198:
	mov	r3, #2
.L199:
	ldr	r2, [sp, #0]
	add	r3, r3, r2
	ldr	r0, [sp, #4]
	mov	r1, r3
	bl	_ZN8CIwArrayIi12CIwAllocatorIi15CIwMallocRouterIiEE17ReallocateDefaultIiS3_EE12set_capacityEj
.L200:
	.loc 6 259 0
	add	sp, sp, #12
	ldmfd	sp!, {pc}
	.cfi_endproc
.LFE1709:
	.size	_ZN8CIwArrayIi12CIwAllocatorIi15CIwMallocRouterIiEE17ReallocateDefaultIiS3_EE7reserveEj, .-_ZN8CIwArrayIi12CIwAllocatorIi15CIwMallocRouterIiEE17ReallocateDefaultIiS3_EE7reserveEj
	.section	.text._ZN12CIwAllocatorI8PathNode15CIwMallocRouterIS0_EE10reallocateEPS0_j,"axG",%progbits,_ZN12CIwAllocatorI8PathNode15CIwMallocRouterIS0_EE10reallocateEPS0_j,comdat
	.align	2
	.weak	_ZN12CIwAllocatorI8PathNode15CIwMallocRouterIS0_EE10reallocateEPS0_j
	.hidden	_ZN12CIwAllocatorI8PathNode15CIwMallocRouterIS0_EE10reallocateEPS0_j
	.type	_ZN12CIwAllocatorI8PathNode15CIwMallocRouterIS0_EE10reallocateEPS0_j, %function
_ZN12CIwAllocatorI8PathNode15CIwMallocRouterIS0_EE10reallocateEPS0_j:
.LFB1711:
	.loc 7 142 0
	.cfi_startproc
	@ args = 0, pretend = 0, frame = 16
	@ frame_needed = 0, uses_anonymous_args = 0
	str	lr, [sp, #-4]!
.LCFI46:
	.cfi_def_cfa_offset 4
	sub	sp, sp, #20
.LCFI47:
	.cfi_def_cfa_offset 24
	str	r0, [sp, #12]
	str	r1, [sp, #8]
	str	r2, [sp, #4]
	.loc 7 144 0
	ldr	r0, [sp, #8]
	ldr	r1, [sp, #4]
	.cfi_offset 14, -4
	bl	_ZN15CIwMallocRouterI8PathNodeE9DoReallocEPvj
	mov	r3, r0
	.loc 7 145 0
	mov	r0, r3
	add	sp, sp, #20
	ldmfd	sp!, {pc}
	.cfi_endproc
.LFE1711:
	.size	_ZN12CIwAllocatorI8PathNode15CIwMallocRouterIS0_EE10reallocateEPS0_j, .-_ZN12CIwAllocatorI8PathNode15CIwMallocRouterIS0_EE10reallocateEPS0_j
	.section	.text._ZN12CIwAllocatorIi15CIwMallocRouterIiEE10reallocateEPij,"axG",%progbits,_ZN12CIwAllocatorIi15CIwMallocRouterIiEE10reallocateEPij,comdat
	.align	2
	.weak	_ZN12CIwAllocatorIi15CIwMallocRouterIiEE10reallocateEPij
	.hidden	_ZN12CIwAllocatorIi15CIwMallocRouterIiEE10reallocateEPij
	.type	_ZN12CIwAllocatorIi15CIwMallocRouterIiEE10reallocateEPij, %function
_ZN12CIwAllocatorIi15CIwMallocRouterIiEE10reallocateEPij:
.LFB1712:
	.loc 7 142 0
	.cfi_startproc
	@ args = 0, pretend = 0, frame = 16
	@ frame_needed = 0, uses_anonymous_args = 0
	str	lr, [sp, #-4]!
.LCFI48:
	.cfi_def_cfa_offset 4
	sub	sp, sp, #20
.LCFI49:
	.cfi_def_cfa_offset 24
	str	r0, [sp, #12]
	str	r1, [sp, #8]
	str	r2, [sp, #4]
	.loc 7 144 0
	ldr	r0, [sp, #8]
	ldr	r1, [sp, #4]
	.cfi_offset 14, -4
	bl	_ZN15CIwMallocRouterIiE9DoReallocEPvj
	mov	r3, r0
	.loc 7 145 0
	mov	r0, r3
	add	sp, sp, #20
	ldmfd	sp!, {pc}
	.cfi_endproc
.LFE1712:
	.size	_ZN12CIwAllocatorIi15CIwMallocRouterIiEE10reallocateEPij, .-_ZN12CIwAllocatorIi15CIwMallocRouterIiEE10reallocateEPij
	.section	.text._ZN15CIwMallocRouterI8PathNodeE9DoReallocEPvj,"axG",%progbits,_ZN15CIwMallocRouterI8PathNodeE9DoReallocEPvj,comdat
	.align	2
	.weak	_ZN15CIwMallocRouterI8PathNodeE9DoReallocEPvj
	.hidden	_ZN15CIwMallocRouterI8PathNodeE9DoReallocEPvj
	.type	_ZN15CIwMallocRouterI8PathNodeE9DoReallocEPvj, %function
_ZN15CIwMallocRouterI8PathNodeE9DoReallocEPvj:
.LFB1717:
	.loc 7 97 0
	.cfi_startproc
	@ args = 0, pretend = 0, frame = 8
	@ frame_needed = 0, uses_anonymous_args = 0
	str	lr, [sp, #-4]!
.LCFI50:
	.cfi_def_cfa_offset 4
	sub	sp, sp, #12
.LCFI51:
	.cfi_def_cfa_offset 16
	str	r0, [sp, #4]
	str	r1, [sp, #0]
	.loc 7 99 0
	ldr	r0, [sp, #4]
	ldr	r1, [sp, #0]
	mov	r2, #20
	.cfi_offset 14, -4
	bl	_ZN22CIwDefaultMallocRouter11BaseReallocEPvjj
	mov	r3, r0
	.loc 7 100 0
	mov	r0, r3
	add	sp, sp, #12
	ldmfd	sp!, {pc}
	.cfi_endproc
.LFE1717:
	.size	_ZN15CIwMallocRouterI8PathNodeE9DoReallocEPvj, .-_ZN15CIwMallocRouterI8PathNodeE9DoReallocEPvj
	.section	.text._ZN15CIwMallocRouterIiE9DoReallocEPvj,"axG",%progbits,_ZN15CIwMallocRouterIiE9DoReallocEPvj,comdat
	.align	2
	.weak	_ZN15CIwMallocRouterIiE9DoReallocEPvj
	.hidden	_ZN15CIwMallocRouterIiE9DoReallocEPvj
	.type	_ZN15CIwMallocRouterIiE9DoReallocEPvj, %function
_ZN15CIwMallocRouterIiE9DoReallocEPvj:
.LFB1718:
	.loc 7 97 0
	.cfi_startproc
	@ args = 0, pretend = 0, frame = 8
	@ frame_needed = 0, uses_anonymous_args = 0
	str	lr, [sp, #-4]!
.LCFI52:
	.cfi_def_cfa_offset 4
	sub	sp, sp, #12
.LCFI53:
	.cfi_def_cfa_offset 16
	str	r0, [sp, #4]
	str	r1, [sp, #0]
	.loc 7 99 0
	ldr	r0, [sp, #4]
	ldr	r1, [sp, #0]
	mov	r2, #4
	.cfi_offset 14, -4
	bl	_ZN22CIwDefaultMallocRouter11BaseReallocEPvjj
	mov	r3, r0
	.loc 7 100 0
	mov	r0, r3
	add	sp, sp, #12
	ldmfd	sp!, {pc}
	.cfi_endproc
.LFE1718:
	.size	_ZN15CIwMallocRouterIiE9DoReallocEPvj, .-_ZN15CIwMallocRouterIiE9DoReallocEPvj
	.hidden	_ZZN8CIwArrayI8PathNode12CIwAllocatorIS0_15CIwMallocRouterIS0_EE17ReallocateDefaultIS0_S4_EE9push_backERKS0_E21_s_IwAssertIgnoreThis
	.weak	_ZZN8CIwArrayI8PathNode12CIwAllocatorIS0_15CIwMallocRouterIS0_EE17ReallocateDefaultIS0_S4_EE9push_backERKS0_E21_s_IwAssertIgnoreThis
	.section	.bss._ZZN8CIwArrayI8PathNode12CIwAllocatorIS0_15CIwMallocRouterIS0_EE17ReallocateDefaultIS0_S4_EE9push_backERKS0_E21_s_IwAssertIgnoreThis,"awG",%nobits,_ZZN8CIwArrayI8PathNode12CIwAllocatorIS0_15CIwMallocRouterIS0_EE17ReallocateDefaultIS0_S4_EE9push_backERKS0_E21_s_IwAssertIgnoreThis,comdat
	.type	_ZZN8CIwArrayI8PathNode12CIwAllocatorIS0_15CIwMallocRouterIS0_EE17ReallocateDefaultIS0_S4_EE9push_backERKS0_E21_s_IwAssertIgnoreThis, %object
	.size	_ZZN8CIwArrayI8PathNode12CIwAllocatorIS0_15CIwMallocRouterIS0_EE17ReallocateDefaultIS0_S4_EE9push_backERKS0_E21_s_IwAssertIgnoreThis, 1
_ZZN8CIwArrayI8PathNode12CIwAllocatorIS0_15CIwMallocRouterIS0_EE17ReallocateDefaultIS0_S4_EE9push_backERKS0_E21_s_IwAssertIgnoreThis:
	.space	1
	.hidden	_ZZN8CIwArrayI8PathNode12CIwAllocatorIS0_15CIwMallocRouterIS0_EE17ReallocateDefaultIS0_S4_EE9push_backERKS0_E21_s_IwAssertIgnoreThis_0
	.weak	_ZZN8CIwArrayI8PathNode12CIwAllocatorIS0_15CIwMallocRouterIS0_EE17ReallocateDefaultIS0_S4_EE9push_backERKS0_E21_s_IwAssertIgnoreThis_0
	.section	.bss._ZZN8CIwArrayI8PathNode12CIwAllocatorIS0_15CIwMallocRouterIS0_EE17ReallocateDefaultIS0_S4_EE9push_backERKS0_E21_s_IwAssertIgnoreThis_0,"awG",%nobits,_ZZN8CIwArrayI8PathNode12CIwAllocatorIS0_15CIwMallocRouterIS0_EE17ReallocateDefaultIS0_S4_EE9push_backERKS0_E21_s_IwAssertIgnoreThis_0,comdat
	.type	_ZZN8CIwArrayI8PathNode12CIwAllocatorIS0_15CIwMallocRouterIS0_EE17ReallocateDefaultIS0_S4_EE9push_backERKS0_E21_s_IwAssertIgnoreThis_0, %object
	.size	_ZZN8CIwArrayI8PathNode12CIwAllocatorIS0_15CIwMallocRouterIS0_EE17ReallocateDefaultIS0_S4_EE9push_backERKS0_E21_s_IwAssertIgnoreThis_0, 1
_ZZN8CIwArrayI8PathNode12CIwAllocatorIS0_15CIwMallocRouterIS0_EE17ReallocateDefaultIS0_S4_EE9push_backERKS0_E21_s_IwAssertIgnoreThis_0:
	.space	1
	.hidden	_ZZN8CIwArrayI8PathNode12CIwAllocatorIS0_15CIwMallocRouterIS0_EE17ReallocateDefaultIS0_S4_EE12set_capacityEjE21_s_IwAssertIgnoreThis
	.weak	_ZZN8CIwArrayI8PathNode12CIwAllocatorIS0_15CIwMallocRouterIS0_EE17ReallocateDefaultIS0_S4_EE12set_capacityEjE21_s_IwAssertIgnoreThis
	.section	.bss._ZZN8CIwArrayI8PathNode12CIwAllocatorIS0_15CIwMallocRouterIS0_EE17ReallocateDefaultIS0_S4_EE12set_capacityEjE21_s_IwAssertIgnoreThis,"awG",%nobits,_ZZN8CIwArrayI8PathNode12CIwAllocatorIS0_15CIwMallocRouterIS0_EE17ReallocateDefaultIS0_S4_EE12set_capacityEjE21_s_IwAssertIgnoreThis,comdat
	.type	_ZZN8CIwArrayI8PathNode12CIwAllocatorIS0_15CIwMallocRouterIS0_EE17ReallocateDefaultIS0_S4_EE12set_capacityEjE21_s_IwAssertIgnoreThis, %object
	.size	_ZZN8CIwArrayI8PathNode12CIwAllocatorIS0_15CIwMallocRouterIS0_EE17ReallocateDefaultIS0_S4_EE12set_capacityEjE21_s_IwAssertIgnoreThis, 1
_ZZN8CIwArrayI8PathNode12CIwAllocatorIS0_15CIwMallocRouterIS0_EE17ReallocateDefaultIS0_S4_EE12set_capacityEjE21_s_IwAssertIgnoreThis:
	.space	1
	.hidden	_ZZN8CIwArrayI8PathNode12CIwAllocatorIS0_15CIwMallocRouterIS0_EE17ReallocateDefaultIS0_S4_EE12set_capacityEjE21_s_IwAssertIgnoreThis_0
	.weak	_ZZN8CIwArrayI8PathNode12CIwAllocatorIS0_15CIwMallocRouterIS0_EE17ReallocateDefaultIS0_S4_EE12set_capacityEjE21_s_IwAssertIgnoreThis_0
	.section	.bss._ZZN8CIwArrayI8PathNode12CIwAllocatorIS0_15CIwMallocRouterIS0_EE17ReallocateDefaultIS0_S4_EE12set_capacityEjE21_s_IwAssertIgnoreThis_0,"awG",%nobits,_ZZN8CIwArrayI8PathNode12CIwAllocatorIS0_15CIwMallocRouterIS0_EE17ReallocateDefaultIS0_S4_EE12set_capacityEjE21_s_IwAssertIgnoreThis_0,comdat
	.type	_ZZN8CIwArrayI8PathNode12CIwAllocatorIS0_15CIwMallocRouterIS0_EE17ReallocateDefaultIS0_S4_EE12set_capacityEjE21_s_IwAssertIgnoreThis_0, %object
	.size	_ZZN8CIwArrayI8PathNode12CIwAllocatorIS0_15CIwMallocRouterIS0_EE17ReallocateDefaultIS0_S4_EE12set_capacityEjE21_s_IwAssertIgnoreThis_0, 1
_ZZN8CIwArrayI8PathNode12CIwAllocatorIS0_15CIwMallocRouterIS0_EE17ReallocateDefaultIS0_S4_EE12set_capacityEjE21_s_IwAssertIgnoreThis_0:
	.space	1
	.hidden	_ZZN8CIwArrayI8PathNode12CIwAllocatorIS0_15CIwMallocRouterIS0_EE17ReallocateDefaultIS0_S4_EE12set_capacityEjE21_s_IwAssertIgnoreThis_1
	.weak	_ZZN8CIwArrayI8PathNode12CIwAllocatorIS0_15CIwMallocRouterIS0_EE17ReallocateDefaultIS0_S4_EE12set_capacityEjE21_s_IwAssertIgnoreThis_1
	.section	.bss._ZZN8CIwArrayI8PathNode12CIwAllocatorIS0_15CIwMallocRouterIS0_EE17ReallocateDefaultIS0_S4_EE12set_capacityEjE21_s_IwAssertIgnoreThis_1,"awG",%nobits,_ZZN8CIwArrayI8PathNode12CIwAllocatorIS0_15CIwMallocRouterIS0_EE17ReallocateDefaultIS0_S4_EE12set_capacityEjE21_s_IwAssertIgnoreThis_1,comdat
	.type	_ZZN8CIwArrayI8PathNode12CIwAllocatorIS0_15CIwMallocRouterIS0_EE17ReallocateDefaultIS0_S4_EE12set_capacityEjE21_s_IwAssertIgnoreThis_1, %object
	.size	_ZZN8CIwArrayI8PathNode12CIwAllocatorIS0_15CIwMallocRouterIS0_EE17ReallocateDefaultIS0_S4_EE12set_capacityEjE21_s_IwAssertIgnoreThis_1, 1
_ZZN8CIwArrayI8PathNode12CIwAllocatorIS0_15CIwMallocRouterIS0_EE17ReallocateDefaultIS0_S4_EE12set_capacityEjE21_s_IwAssertIgnoreThis_1:
	.space	1
	.hidden	_ZZN8CIwArrayIi12CIwAllocatorIi15CIwMallocRouterIiEE17ReallocateDefaultIiS3_EE9push_backERKiE21_s_IwAssertIgnoreThis
	.weak	_ZZN8CIwArrayIi12CIwAllocatorIi15CIwMallocRouterIiEE17ReallocateDefaultIiS3_EE9push_backERKiE21_s_IwAssertIgnoreThis
	.section	.bss._ZZN8CIwArrayIi12CIwAllocatorIi15CIwMallocRouterIiEE17ReallocateDefaultIiS3_EE9push_backERKiE21_s_IwAssertIgnoreThis,"awG",%nobits,_ZZN8CIwArrayIi12CIwAllocatorIi15CIwMallocRouterIiEE17ReallocateDefaultIiS3_EE9push_backERKiE21_s_IwAssertIgnoreThis,comdat
	.type	_ZZN8CIwArrayIi12CIwAllocatorIi15CIwMallocRouterIiEE17ReallocateDefaultIiS3_EE9push_backERKiE21_s_IwAssertIgnoreThis, %object
	.size	_ZZN8CIwArrayIi12CIwAllocatorIi15CIwMallocRouterIiEE17ReallocateDefaultIiS3_EE9push_backERKiE21_s_IwAssertIgnoreThis, 1
_ZZN8CIwArrayIi12CIwAllocatorIi15CIwMallocRouterIiEE17ReallocateDefaultIiS3_EE9push_backERKiE21_s_IwAssertIgnoreThis:
	.space	1
	.hidden	_ZZN8CIwArrayIi12CIwAllocatorIi15CIwMallocRouterIiEE17ReallocateDefaultIiS3_EE9push_backERKiE21_s_IwAssertIgnoreThis_0
	.weak	_ZZN8CIwArrayIi12CIwAllocatorIi15CIwMallocRouterIiEE17ReallocateDefaultIiS3_EE9push_backERKiE21_s_IwAssertIgnoreThis_0
	.section	.bss._ZZN8CIwArrayIi12CIwAllocatorIi15CIwMallocRouterIiEE17ReallocateDefaultIiS3_EE9push_backERKiE21_s_IwAssertIgnoreThis_0,"awG",%nobits,_ZZN8CIwArrayIi12CIwAllocatorIi15CIwMallocRouterIiEE17ReallocateDefaultIiS3_EE9push_backERKiE21_s_IwAssertIgnoreThis_0,comdat
	.type	_ZZN8CIwArrayIi12CIwAllocatorIi15CIwMallocRouterIiEE17ReallocateDefaultIiS3_EE9push_backERKiE21_s_IwAssertIgnoreThis_0, %object
	.size	_ZZN8CIwArrayIi12CIwAllocatorIi15CIwMallocRouterIiEE17ReallocateDefaultIiS3_EE9push_backERKiE21_s_IwAssertIgnoreThis_0, 1
_ZZN8CIwArrayIi12CIwAllocatorIi15CIwMallocRouterIiEE17ReallocateDefaultIiS3_EE9push_backERKiE21_s_IwAssertIgnoreThis_0:
	.space	1
	.hidden	_ZZN8CIwArrayIi12CIwAllocatorIi15CIwMallocRouterIiEE17ReallocateDefaultIiS3_EE12set_capacityEjE21_s_IwAssertIgnoreThis
	.weak	_ZZN8CIwArrayIi12CIwAllocatorIi15CIwMallocRouterIiEE17ReallocateDefaultIiS3_EE12set_capacityEjE21_s_IwAssertIgnoreThis
	.section	.bss._ZZN8CIwArrayIi12CIwAllocatorIi15CIwMallocRouterIiEE17ReallocateDefaultIiS3_EE12set_capacityEjE21_s_IwAssertIgnoreThis,"awG",%nobits,_ZZN8CIwArrayIi12CIwAllocatorIi15CIwMallocRouterIiEE17ReallocateDefaultIiS3_EE12set_capacityEjE21_s_IwAssertIgnoreThis,comdat
	.type	_ZZN8CIwArrayIi12CIwAllocatorIi15CIwMallocRouterIiEE17ReallocateDefaultIiS3_EE12set_capacityEjE21_s_IwAssertIgnoreThis, %object
	.size	_ZZN8CIwArrayIi12CIwAllocatorIi15CIwMallocRouterIiEE17ReallocateDefaultIiS3_EE12set_capacityEjE21_s_IwAssertIgnoreThis, 1
_ZZN8CIwArrayIi12CIwAllocatorIi15CIwMallocRouterIiEE17ReallocateDefaultIiS3_EE12set_capacityEjE21_s_IwAssertIgnoreThis:
	.space	1
	.hidden	_ZZN8CIwArrayIi12CIwAllocatorIi15CIwMallocRouterIiEE17ReallocateDefaultIiS3_EE12set_capacityEjE21_s_IwAssertIgnoreThis_0
	.weak	_ZZN8CIwArrayIi12CIwAllocatorIi15CIwMallocRouterIiEE17ReallocateDefaultIiS3_EE12set_capacityEjE21_s_IwAssertIgnoreThis_0
	.section	.bss._ZZN8CIwArrayIi12CIwAllocatorIi15CIwMallocRouterIiEE17ReallocateDefaultIiS3_EE12set_capacityEjE21_s_IwAssertIgnoreThis_0,"awG",%nobits,_ZZN8CIwArrayIi12CIwAllocatorIi15CIwMallocRouterIiEE17ReallocateDefaultIiS3_EE12set_capacityEjE21_s_IwAssertIgnoreThis_0,comdat
	.type	_ZZN8CIwArrayIi12CIwAllocatorIi15CIwMallocRouterIiEE17ReallocateDefaultIiS3_EE12set_capacityEjE21_s_IwAssertIgnoreThis_0, %object
	.size	_ZZN8CIwArrayIi12CIwAllocatorIi15CIwMallocRouterIiEE17ReallocateDefaultIiS3_EE12set_capacityEjE21_s_IwAssertIgnoreThis_0, 1
_ZZN8CIwArrayIi12CIwAllocatorIi15CIwMallocRouterIiEE17ReallocateDefaultIiS3_EE12set_capacityEjE21_s_IwAssertIgnoreThis_0:
	.space	1
	.hidden	_ZZN8CIwArrayIi12CIwAllocatorIi15CIwMallocRouterIiEE17ReallocateDefaultIiS3_EE12set_capacityEjE21_s_IwAssertIgnoreThis_1
	.weak	_ZZN8CIwArrayIi12CIwAllocatorIi15CIwMallocRouterIiEE17ReallocateDefaultIiS3_EE12set_capacityEjE21_s_IwAssertIgnoreThis_1
	.section	.bss._ZZN8CIwArrayIi12CIwAllocatorIi15CIwMallocRouterIiEE17ReallocateDefaultIiS3_EE12set_capacityEjE21_s_IwAssertIgnoreThis_1,"awG",%nobits,_ZZN8CIwArrayIi12CIwAllocatorIi15CIwMallocRouterIiEE17ReallocateDefaultIiS3_EE12set_capacityEjE21_s_IwAssertIgnoreThis_1,comdat
	.type	_ZZN8CIwArrayIi12CIwAllocatorIi15CIwMallocRouterIiEE17ReallocateDefaultIiS3_EE12set_capacityEjE21_s_IwAssertIgnoreThis_1, %object
	.size	_ZZN8CIwArrayIi12CIwAllocatorIi15CIwMallocRouterIiEE17ReallocateDefaultIiS3_EE12set_capacityEjE21_s_IwAssertIgnoreThis_1, 1
_ZZN8CIwArrayIi12CIwAllocatorIi15CIwMallocRouterIiEE17ReallocateDefaultIiS3_EE12set_capacityEjE21_s_IwAssertIgnoreThis_1:
	.space	1
	.hidden	_ZZN8CIwArrayI8PathNode12CIwAllocatorIS0_15CIwMallocRouterIS0_EE17ReallocateDefaultIS0_S4_EE8truncateEjE21_s_IwAssertIgnoreThis
	.weak	_ZZN8CIwArrayI8PathNode12CIwAllocatorIS0_15CIwMallocRouterIS0_EE17ReallocateDefaultIS0_S4_EE8truncateEjE21_s_IwAssertIgnoreThis
	.section	.bss._ZZN8CIwArrayI8PathNode12CIwAllocatorIS0_15CIwMallocRouterIS0_EE17ReallocateDefaultIS0_S4_EE8truncateEjE21_s_IwAssertIgnoreThis,"awG",%nobits,_ZZN8CIwArrayI8PathNode12CIwAllocatorIS0_15CIwMallocRouterIS0_EE17ReallocateDefaultIS0_S4_EE8truncateEjE21_s_IwAssertIgnoreThis,comdat
	.type	_ZZN8CIwArrayI8PathNode12CIwAllocatorIS0_15CIwMallocRouterIS0_EE17ReallocateDefaultIS0_S4_EE8truncateEjE21_s_IwAssertIgnoreThis, %object
	.size	_ZZN8CIwArrayI8PathNode12CIwAllocatorIS0_15CIwMallocRouterIS0_EE17ReallocateDefaultIS0_S4_EE8truncateEjE21_s_IwAssertIgnoreThis, 1
_ZZN8CIwArrayI8PathNode12CIwAllocatorIS0_15CIwMallocRouterIS0_EE17ReallocateDefaultIS0_S4_EE8truncateEjE21_s_IwAssertIgnoreThis:
	.space	1
	.text
.Letext0: