((dp0
S'arm_dbg_args'
p1
S'-via:"c:\\Users\\1106786\\Dropbox\\Dropbox\\PG life\\Project Impact\\Code\\Demos\\Demo_3_LoadTileInfo_Audio\\build_demo_3_loadtileinfo_audio_vc10\\Demo_3_LoadTileInfo_Audio_vc10_arm_debug.via" -qemu'
p2
sS'game-icf'
p3
S''
p4
sS'dist'
p5
NsS'module_path_append'
p6
NsS'global_path'
p7
S'c:\\users\\1106786\\dropbox\\dropbox\\pg life\\project impact\\code\\demos'
p8
sS'system_path'
p9
S'c:\\marmalade\\6.2\\s3e\\makefile_builder'
p10
sS'use_prebuilt'
p11
NsS'arm_rel_rtsm_args'
p12
S'-via:"c:\\Users\\1106786\\Dropbox\\Dropbox\\PG life\\Project Impact\\Code\\Demos\\Demo_3_LoadTileInfo_Audio\\build_demo_3_loadtileinfo_audio_vc10\\Demo_3_LoadTileInfo_Audio_vc10_arm_release.via" -qemu'
p13
sS'amd64'
p14
NsS'line-width'
p15
I80
sS'gcc_dbg_args'
p16
S'-via:"c:\\Users\\1106786\\Dropbox\\Dropbox\\PG life\\Project Impact\\Code\\Demos\\Demo_3_LoadTileInfo_Audio\\build_demo_3_loadtileinfo_audio_vc10\\Demo_3_LoadTileInfo_Audio_vc10_gcc_debug.via" -qemu'
p17
sS'x86_dbg_exe'
p18
S'c:/marmalade/6.2/s3e\\win32\\s3e_simulator_debug.exe'
p19
sS'disable-runtime-checks'
p20
NsS'release'
p21
NsS'no-make'
p22
NsS'optimise-size'
p23
NsS'output-name-debug'
p24
g4
sS'arm-fpu'
p25
S'vfp'
p26
sS'psp'
p27
NsS'proj_name'
p28
S'Demo_3_LoadTileInfo_Audio_vc10'
p29
sS'rvct-version'
p30
S'none'
p31
sS'compiler'
p32
g4
sS'execute'
p33
NsS'compile-static'
p34
NsS'msvc-project'
p35
NsS'buildenv'
p36
g4
sS'debug'
p37
NsS'module_path'
p38
NsS'use-release-std-libs'
p39
NsS'using_perforce'
p40
I00
sS'mips-s3e'
p41
NsS'shared-arm-lib'
p42
NsS'arm-cpu'
p43
g4
sS'compile-thumb'
p44
NsS'no-ide'
p45
NsS'msvc-version'
p46
S'6.0'
p47
sS'arm'
p48
NsS'builddir'
p49
g4
sS'compile-debug-as-release'
p50
I0
sS'brief'
p51
NsS'dll'
p52
NsS'buildenv-toolset'
p53
g4
sS'version'
p54
NsS'ccache'
p55
I0
sS'offline'
p56
NsS'ios-version'
p57
g4
sS'jobs'
p58
I0
sS'linkflags'
p59
NsS'quick'
p60
NsS'gcc_rel_rtsm_args'
p61
S'-via:"c:\\Users\\1106786\\Dropbox\\Dropbox\\PG life\\Project Impact\\Code\\Demos\\Demo_3_LoadTileInfo_Audio\\build_demo_3_loadtileinfo_audio_vc10\\Demo_3_LoadTileInfo_Audio_vc10_gcc_release.via" -qemu'
p62
sS'done_defaults'
p63
I1
sS'path'
p64
NsS's3e-data-dir'
p65
S'c:/Users/1106786/Dropbox/Dropbox/PG life/Project Impact/Code/Demos/Demo_3_LoadTileInfo_Audio\\data'
p66
sS'enable-exceptions'
p67
NsS'osx-dll'
p68
NsS'extension'
p69
g4
sS'no-vc6'
p70
NsS'non-interactive'
p71
NsS'win32-console'
p72
NsS'nds'
p73
NsS'dist-format'
p74
g4
sS's3e-force-arch'
p75
NsS'dump_defines'
p76
NsS'verbose'
p77
I0
sS'psp-minis'
p78
NsS'gcc-version'
p79
g4
sS'x86_dbg_args'
p80
S'-via:"c:\\Users\\1106786\\Dropbox\\Dropbox\\PG life\\Project Impact\\Code\\Demos\\Demo_3_LoadTileInfo_Audio\\build_demo_3_loadtileinfo_audio_vc10\\Demo_3_LoadTileInfo_Audio_vc10_debug.via"'
p81
sS'arm-debugger'
p82
g4
sS'use_temp_extension'
p83
NsS'log'
p84
NsS'no-strip'
p85
NsS'rebuild'
p86
NsS'win32-simulator-dll'
p87
NsS'strict'
p88
NsS'mips_dbg_args'
p89
S'../../tools/DeployTool/DeployTool.exe --dir "c:\\Users\\1106786\\Dropbox\\Dropbox\\PG life\\Project Impact\\Code\\Demos\\Demo_3_LoadTileInfo_Audio\\build_demo_3_loadtileinfo_audio_vc10"'
p90
sS'enable-global-path'
p91
NsS'iphone'
p92
NsS'cflags'
p93
NsS'dist-dir'
p94
g4
sS'jflags'
p95
NsS'distcc'
p96
NsS'external-compiler'
p97
NsS'no-distcc'
p98
NsS'preinclude'
p99
NsS'using_sdk'
p100
I01
sS'nologo'
p101
NsS'warn-level'
p102
I2
sS'mips_dbg_exe'
p103
S'c:\\marmalade\\6.2\\s3e\\makefile_builder\\tool_launcher.exe'
p104
sS'mkb_in'
p105
S'c:/Users/1106786/Dropbox/Dropbox/PG life/Project Impact/Code/Demos/Demo_3_LoadTileInfo_Audio/Demo_3_LoadTileInfo_Audio.mkb'
p106
sS'arm_dbg_exe'
p107
S'c:/marmalade/6.2/s3e\\bin\\armdebug.exe'
p108
sS'list-targets'
p109
NsS'arm_rel_exe'
p110
g104
sS'arm_rel_args'
p111
g90
sS'makedeps'
p112
NsS'default-buildenv'
p113
S'VC10'
p114
sS'x86_rel_exe'
p115
g19
sS'preprocess-java'
p116
NsS'mips_rel_args'
p117
g90
sS'defines'
p118
NsS'lib'
p119
NsS'global_argv'
p120
(lp121
S'C:\\Marmalade\\6.2\\s3e\\makefile_builder\\mkb.py'
p122
aS'C:\\Users\\1106786\\Dropbox\\Dropbox\\PG life\\Project Impact\\Code\\Demos\\Demo_3_LoadTileInfo_Audio\\Demo_3_LoadTileInfo_Audio.mkb'
p123
asS'make'
p124
NsS'optimise-speed'
p125
NsS'internal'
p126
NsS'enable-stdinc'
p127
NsS'deploy-only'
p128
NsS'x86'
p129
NsS'deploy'
p130
g4
sS'x86_run_exe'
p131
S'c:/marmalade/6.2/s3e\\win32\\s3e_console.exe'
p132
sS'x86_rel_args'
p133
S'-via:"c:\\Users\\1106786\\Dropbox\\Dropbox\\PG life\\Project Impact\\Code\\Demos\\Demo_3_LoadTileInfo_Audio\\build_demo_3_loadtileinfo_audio_vc10\\Demo_3_LoadTileInfo_Audio_vc10_release.via"'
p134
sS'gcc_rel_args'
p135
g90
sS'mips'
p136
NsS'incredibuild'
p137
NsS'strict-compile'
p138
NsS'use-auto-subdirs'
p139
NsS'mips_rel_exe'
p140
g104
sS'app-icf'
p141
g4
sS'deployargs'
p142
NsS'mkf_in'
p143
(lp144
S'c:\\marmalade\\6.2\\modules\\iw2d\\iw2d.mkf'
p145
aS'c:\\marmalade\\6.2\\modules\\iwgx\\iwgx.mkf'
p146
aS'c:\\marmalade\\6.2\\modules\\iwgeom\\iwgeom.mkf'
p147
aS'c:\\marmalade\\6.2\\modules\\iwutil\\iwutil.mkf'
p148
aVc:\u005cusers\u005c1106786\u005cappdata\u005croaming\u005cmarmalade\u005cpackages\u005c6.2.2\u005clibjpeg_6b\u005clibjpeg.mkf
p149
aVc:\u005cusers\u005c1106786\u005cappdata\u005croaming\u005cmarmalade\u005cpackages\u005c6.2.2\u005clibpng_1.2.34\u005clibpng.mkf
p150
aVc:\u005cusers\u005c1106786\u005cappdata\u005croaming\u005cmarmalade\u005cpackages\u005c6.2.2\u005czlib_1.2.4\u005czlib.mkf
p151
aS'c:\\marmalade\\6.2\\modules\\iwresmanager\\iwresmanager.mkf'
p152
aS'c:\\marmalade\\6.2\\modules\\iwgl\\iwgl.mkf'
p153
aS'c:\\marmalade\\6.2\\modules\\iwgxfont\\iwgxfont.mkf'
p154
aVc:\u005cusers\u005c1106786\u005cappdata\u005croaming\u005cmarmalade\u005cpackages\u005c6.2.2\u005ctiniconv_1.0.1\u005ctiniconv.mkf
p155
aS'c:\\users\\1106786\\dropbox\\dropbox\\pg life\\project impact\\code\\demos\\demo_3_loadtileinfo_audio\\demo_3_loadtileinfo_audio.mkf'
p156
asS'strict-mkb'
p157
NsS'executeargs'
p158
NsS'clean'
p159
NsS'no-asm'
p160
NsS'output-name'
p161
g4
sS'no-modules'
p162
NsS'find_define'
p163
g4
s(dp164
S'c:\\marmalade\\6.2\\s3e\\makefile_builder\\templates\\xcode_pbxuser.py'
p165
F1365595058.0
sS'c:\\marmalade\\6.2\\s3e\\makefile_builder\\templates'
p166
F1378901971.8745732
sS'c:\\marmalade\\6.2\\s3e\\makefile_builder\\plugins\\null.pyc'
p167
F1365605816.0
sS'c:\\marmalade\\6.2\\s3e\\makefile_builder\\plugins\\XcodeEmitter.pyc'
p168
F1380286836.0994766
sS'c:\\marmalade\\6.2\\s3e\\makefile_builder\\plugins'
p169
F1380286836.2464912
sS'c:\\marmalade\\6.2\\s3e\\makefile_builder\\extensions'
p170
F1378901971.8765736
sS'c:\\marmalade\\6.2\\s3e\\makefile_builder\\templates\\vc6_opt.pyc'
p171
F1365605816.0
sS'c:\\marmalade\\6.2\\s3e\\makefile_builder\\templates\\win32_vcxproj_filters.pyc'
p172
F1365605816.0
sS'c:\\marmalade\\6.2\\s3e\\makefile_builder\\mkb_parser.pyc'
p173
F1365605816.0
sS'c:\\marmalade\\6.2\\s3e\\makefile_builder\\plugins\\xcode4_schememanagement.pyc'
p174
F1380286836.1074774
sS'c:\\marmalade\\6.2\\s3e\\makefile_builder\\plugins\\win32_vc6.pyc'
p175
F1365605816.0
sS'c:\\marmalade\\6.2\\s3e\\makefile_builder\\templates\\template.suo'
p176
F1365595058.0
sS'c:\\marmalade\\6.2\\s3e\\makefile_builder\\plugins\\s3e_xcode.py'
p177
F1365595058.0
sS'c:\\marmalade\\6.2\\s3e\\makefile_builder\\templates\\make.py'
p178
F1365595058.0
sS'c:\\marmalade\\6.2\\s3e\\makefile_builder\\docs\\options.txt'
p179
F1365595058.0
sS'c:\\marmalade\\6.2\\s3e\\makefile_builder\\plugins\\linux_scons.pyc'
p180
F1365605816.0
sS'c:\\marmalade\\6.2\\s3e\\makefile_builder\\templates\\linker_script'
p181
F1365595058.0
sS'c:\\marmalade\\6.2\\s3e\\makefile_builder\\plugins\\s3e_scons.pyc'
p182
F1365605816.0
sS'c:\\marmalade\\6.2\\s3e\\makefile_builder\\templates\\xcode.py'
p183
F1365595058.0
sS'c:\\marmalade\\6.2\\s3e\\makefile_builder\\plugins\\java.pyc'
p184
F1365605816.0
sS'c:\\marmalade\\6.2\\s3e\\makefile_builder\\templates\\win32_dsw.pyc'
p185
F1365605816.0
sS'c:\\marmalade\\6.2\\s3e\\makefile_builder\\docs\\mkb.defines.txt'
p186
F1365595058.0
sS'c:\\marmalade\\6.2\\s3e\\makefile_builder\\docs\\deprecated.defines.txt'
p187
F1365595058.0
sS'c:\\marmalade\\6.2\\s3e\\makefile_builder\\templates\\win32_vcxproj.pyc'
p188
F1365605816.0
sS'c:\\marmalade\\6.2\\s3e\\makefile_builder\\deployment.pyc'
p189
F1365605816.0
sS'c:\\marmalade\\6.2\\s3e\\makefile_builder\\plugins\\s3e_qmake.py'
p190
F1365595058.0
sS'c:\\marmalade\\6.2\\s3e\\makefile_builder\\templates\\win32_sln.pyc'
p191
F1365605816.0
sS'c:\\marmalade\\6.2\\s3e\\makefile_builder\\tool_launcher.exe'
p192
F1365595808.0
sS'c:\\marmalade\\6.2\\s3e\\makefile_builder\\plugins\\Emitter.pyc'
p193
F1365605816.0
sS'c:\\marmalade\\6.2\\s3e\\makefile_builder\\docs\\deprecated.options.txt'
p194
F1365595058.0
sS'c:\\marmalade\\6.2\\s3e\\makefile_builder\\templates\\rvct_linker_script'
p195
F1365595058.0
sS'c:\\marmalade\\6.2\\s3e\\makefile_builder\\plugins\\vc6_utils.pyc'
p196
F1365605816.0
sS'c:\\marmalade\\6.2\\s3e\\makefile_builder\\mkb_main.pyc'
p197
F1365605816.0
sS'c:\\marmalade\\6.2\\s3e\\makefile_builder\\plugins\\iphone.pyc'
p198
F1365605816.0
sS'c:\\marmalade\\6.2\\s3e\\makefile_builder\\plugins\\S3EEmitter.pyc'
p199
F1365605816.0
sS'c:\\marmalade\\6.2\\s3e\\makefile_builder\\plugins\\xcode4_schememanagement.py'
p200
F1365595058.0
sS'c:\\marmalade\\6.2\\s3e\\makefile_builder\\templates\\xcode4_DeployTool.xcscheme'
p201
F1365595058.0
sS'c:\\marmalade\\6.2\\s3e\\makefile_builder\\mkb_util.pyc'
p202
F1365605816.0
sS'c:\\marmalade\\6.2\\s3e\\makefile_builder\\mkb_globals.pyc'
p203
F1365605816.0
sS'c:\\marmalade\\6.2\\s3e\\makefile_builder\\templates\\qmake_user.py'
p204
F1365595058.0
sS'c:\\marmalade\\6.2\\s3e\\makefile_builder\\plugins\\vc7_utils.pyc'
p205
F1365605816.0
sS'c:\\marmalade\\6.2\\s3e\\makefile_builder\\templates\\MainWindow.xib'
p206
F1365595058.0
sS'c:\\marmalade\\6.2\\s3e\\makefile_builder\\plugins\\s3e_make.pyc'
p207
F1365605816.0
sS'c:\\marmalade\\6.2\\s3e\\makefile_builder\\templates\\vc10_user.pyc'
p208
F1365605816.0
sS'c:\\marmalade\\6.2\\s3e\\makefile_builder\\templates\\Info.plist'
p209
F1365595058.0
sS'c:\\marmalade\\6.2\\s3e\\makefile_builder\\plugins\\SConsEmitter.pyc'
p210
F1365605816.0
sS'c:\\marmalade\\6.2\\s3e\\makefile_builder\\docs'
p211
F1378901971.9095769
sS'c:\\marmalade\\6.2\\s3e\\makefile_builder\\mkb_option.pyc'
p212
F1365605816.0
sS'c:\\marmalade\\6.2\\s3e\\makefile_builder\\docs\\parse_options.pyc'
p213
F1365605816.0
sS'c:\\marmalade\\6.2\\s3e\\makefile_builder\\plugins\\XcodeEmitter.py'
p214
F1365595058.0
sS'c:\\marmalade\\6.2\\s3e\\makefile_builder\\mkb_launcher.exe'
p215
F1365595806.0
sS'c:\\marmalade\\6.2\\s3e\\makefile_builder\\templates\\vc8_user.pyc'
p216
F1365605816.0
sS'c:\\marmalade\\6.2\\s3e\\makefile_builder\\templates\\win32_dsp.pyc'
p217
F1365605816.0
sS'c:\\marmalade\\6.2\\s3e\\makefile_builder\\templates\\mips_linker_script'
p218
F1365595058.0
sS'c:\\marmalade\\6.2\\s3e\\makefile_builder\\mkb.py'
p219
F1365595058.0
sS'c:\\marmalade\\6.2\\s3e\\makefile_builder\\plugins\\osx_scons.pyc'
p220
F1365605816.0
sS'c:\\marmalade\\6.2\\s3e\\makefile_builder\\plugins\\deploy.pyc'
p221
F1365605816.0
sS'c:\\marmalade\\6.2\\s3e\\makefile_builder\\plugins\\VisualStudioEmitter.pyc'
p222
F1365605816.0
sS'c:\\marmalade\\6.2\\s3e\\makefile_builder\\plugins\\s3e_qmake.pyc'
p223
F1380286836.202487
sS'c:\\marmalade\\6.2\\s3e\\makefile_builder\\plugins\\s3e_xcode.pyc'
p224
F1380286836.2464912
sS'c:\\marmalade\\6.2\\s3e\\makefile_builder\\docs\\deployment_options.txt'
p225
F1365595058.0
sS'c:\\marmalade\\6.2\\s3e\\makefile_builder\\plugins\\s3e_web.pyc'
p226
F1365605816.0
sS'c:\\marmalade\\6.2\\s3e\\makefile_builder\\templates\\template.opt'
p227
F1365595058.0
sS'c:\\marmalade\\6.2\\s3e\\makefile_builder\\templates\\scons.pyc'
p228
F1365605816.0
sS'c:\\marmalade\\6.2\\s3e\\makefile_builder\\templates\\xcode4.xcscheme'
p229
F1365595058.0
sS'c:\\marmalade\\6.2\\s3e\\makefile_builder\\templates\\vc7_suo.pyc'
p230
F1365605816.0
sS'c:\\marmalade\\6.2\\s3e\\makefile_builder\\plugins\\MakeEmitter.pyc'
p231
F1365605816.0
sS'c:\\marmalade\\6.2\\s3e\\makefile_builder\\templates\\qmake.py'
p232
F1365595058.0
sS'c:\\marmalade\\6.2\\s3e\\makefile_builder\\templates\\win32_vcproj.pyc'
p233
F1365605816.0
sS'c:\\marmalade\\6.2\\s3e\\makefile_builder\\templates\\gdb_start.txt'
p234
F1365595058.0
sS'c:\\marmalade\\6.2\\s3e\\makefile_builder\\plugins\\s3e_vc6.pyc'
p235
F1365605816.0
sS'c:\\marmalade\\6.2\\s3e\\makefile_builder\\plugins\\osx_xcode.pyc'
p236
F1365605816.0
sS'c:\\marmalade\\6.2\\s3e\\makefile_builder\\extensions\\make_dist.py'
p237
F1365595058.0
sccopy_reg
_reconstructor
p238
(cmkb_main
MkbFile
p239
c__builtin__
object
p240
Ntp241
Rp242
(dp243
g5
(lp244
sS'target_name'
p245
S'Demo_3_LoadTileInfo_Audio'
p246
sS'current_file'
p247
g106
sS'package_path'
p248
(lp249
VC:\u005cUsers\u005c1106786\u005cAppData\u005cRoaming\u005cMarmalade\u005cpackages\u005c6.2.2\u005clibjpeg_6b
p250
aVC:\u005cUsers\u005c1106786\u005cAppData\u005cRoaming\u005cMarmalade\u005cpackages\u005c6.2.2\u005clibpng_1.2.34
p251
aVC:\u005cUsers\u005c1106786\u005cAppData\u005cRoaming\u005cMarmalade\u005cpackages\u005c6.2.2\u005czlib_1.2.4
p252
aVC:\u005cUsers\u005c1106786\u005cAppData\u005cRoaming\u005cMarmalade\u005cpackages\u005c6.2.2\u005ctiniconv_1.0.1
p253
asS'post_build'
p254
(lp255
(lp256
S'c:/marmalade/6.2/s3e/tools'
p257
aS'C:\\Marmalade\\6.2\\s3e\\python\\python.exe .\\process_map.py "$(TargetPath)"'
p258
aa(S'c:\\marmalade\\6.2\\s3e'
p259
S'"c:\\marmalade\\6.2\\s3e\\bin\\s3e_plink" -l "$(TargetPath)"'
p260
g129
tp261
asS'librarys'
p262
(lp263
g238
(cmkb_main
Library
p264
g240
Ntp265
Rp266
(dp267
S'name'
p268
S'vc6_compat.lib'
p269
sS'expand_name'
p270
I00
sS'include_spec_rvct_objs'
p271
(lp272
sS'include_all_objs'
p273
I00
sS'share_arm'
p274
I00
sS'arch'
p275
S'x86'
p276
sS'nodebug'
p277
I00
sg32
Nsbag238
(g264
g240
Ntp278
Rp279
(dp280
g268
S'jpeg'
p281
sg270
I01
sg271
(lp282
sg273
I00
sg274
Nsg275
Nsg277
I00
sg32
Nsbag238
(g264
g240
Ntp283
Rp284
(dp285
g268
S'z'
p286
sg270
I01
sg271
g282
sg273
I00
sg274
Nsg275
Nsg277
I00
sg32
Nsbag238
(g264
g240
Ntp287
Rp288
(dp289
g268
S'png'
p290
sg270
I01
sg271
g282
sg273
I00
sg274
Nsg275
Nsg277
I00
sg32
Nsbag238
(g264
g240
Ntp291
Rp292
(dp293
g268
S'iwutil'
p294
sg270
I01
sg271
g282
sg273
I00
sg274
I01
sg275
Nsg277
I00
sg32
Nsbag238
(g264
g240
Ntp295
Rp296
(dp297
g268
S'iwgeom'
p298
sg270
I01
sg271
g282
sg273
I00
sg274
I01
sg275
Nsg277
I00
sg32
Nsbag238
(g264
g240
Ntp299
Rp300
(dp301
g268
S'iwresmanager'
p302
sg270
I01
sg271
g282
sg273
I00
sg274
I01
sg275
Nsg277
I00
sg32
Nsbag238
(g264
g240
Ntp303
Rp304
(dp305
g268
S'ATI_Compress_MT_VC7.lib'
p306
sg270
I00
sg271
g282
sg273
I00
sg274
Nsg275
S'x86'
p307
sg277
I00
sg32
Nsbag238
(g264
g240
Ntp308
Rp309
(dp310
g268
S'iwgx'
p311
sg270
I01
sg271
g282
sg273
I00
sg274
I01
sg275
Nsg277
I00
sg32
Nsbag238
(g264
g240
Ntp312
Rp313
(dp314
g268
S'iwgl'
p315
sg270
I01
sg271
g282
sg273
I00
sg274
Nsg275
Nsg277
I00
sg32
Nsbag238
(g264
g240
Ntp316
Rp317
(dp318
g268
S'iwgxfont'
p319
sg270
I01
sg271
g282
sg273
I00
sg274
I01
sg275
Nsg277
I00
sg32
Nsbag238
(g264
g240
Ntp320
Rp321
(dp322
g268
S'tiniconv'
p323
sg270
I01
sg271
g282
sg273
I00
sg274
Nsg275
Nsg277
I00
sg32
Nsbag238
(g264
g240
Ntp324
Rp325
(dp326
g268
S'iw2d'
p327
sg270
I01
sg271
g282
sg273
I00
sg274
I01
sg275
Nsg277
I00
sg32
Nsbag238
(g264
g240
Ntp328
Rp329
(dp330
g268
S's3e_cpp'
p331
sg270
I01
sg271
g272
sg273
I00
sg274
I00
sg275
Nsg277
I00
sg32
Nsbag238
(g264
g240
Ntp332
Rp333
(dp334
g268
S's3e'
p335
sg270
I01
sg271
(lp336
S'iwcrt.o'
p337
asg273
I00
sg274
I00
sg275
Nsg277
I00
sg32
Nsbag238
(g264
g240
Ntp338
Rp339
(dp340
g268
S's3e_api'
p341
sg270
I01
sg271
g272
sg273
I00
sg274
I00
sg275
Nsg277
I1
sg32
Nsbag238
(g264
g240
Ntp342
Rp343
(dp344
g268
S's3e_api'
p345
sg270
I00
sg271
g272
sg273
I00
sg274
I00
sg275
S'arm'
p346
sg277
I00
sg32
S'gcc'
p347
sbag238
(g264
g240
Ntp348
Rp349
(dp350
g268
S'stdc++'
p351
sg270
I00
sg271
g272
sg273
I00
sg274
I00
sg275
S'mips'
p352
sg277
I00
sg32
Nsbag238
(g264
g240
Ntp353
Rp354
(dp355
g268
S'c'
p356
sg270
I00
sg271
g272
sg273
I00
sg274
I00
sg275
S'mips'
p357
sg277
I00
sg32
Nsbag238
(g264
g240
Ntp358
Rp359
(dp360
g268
S'm'
p361
sg270
I00
sg271
g272
sg273
I00
sg274
I00
sg275
S'mips'
p362
sg277
I00
sg32
Nsbag238
(g264
g240
Ntp363
Rp364
(dp365
g268
S'gcc'
p366
sg270
I00
sg271
g272
sg273
I00
sg274
I00
sg275
S'mips'
p367
sg277
I00
sg32
NsbasS'library_paths'
p368
(lp369
g238
(cmkb_main
LibraryPath
p370
g240
Ntp371
Rp372
(dp373
S'expand_path'
p374
I01
sS'add_cpu_variant'
p375
I00
sg268
Vc:/users/1106786/appdata/roaming/marmalade/packages/6.2.2/libjpeg_6b
p376
sbag238
(g370
g240
Ntp377
Rp378
(dp379
g374
I01
sg375
I00
sg268
Vc:/users/1106786/appdata/roaming/marmalade/packages/6.2.2/zlib_1.2.4
p380
sbag238
(g370
g240
Ntp381
Rp382
(dp383
g374
I01
sg375
I00
sg268
Vc:/users/1106786/appdata/roaming/marmalade/packages/6.2.2/libpng_1.2.34
p384
sbag238
(g370
g240
Ntp385
Rp386
(dp387
g374
I01
sg375
I00
sg268
S'c:/marmalade/6.2/modules/iwutil'
p388
sbag238
(g370
g240
Ntp389
Rp390
(dp391
g374
I01
sg375
I00
sg268
S'c:/marmalade/6.2/modules/iwgeom'
p392
sbag238
(g370
g240
Ntp393
Rp394
(dp395
g374
I01
sg375
I00
sg268
S'c:/marmalade/6.2/modules/iwresmanager'
p396
sbag238
(g370
g240
Ntp397
Rp398
(dp399
g374
I00
sg375
I00
sg268
S'c:/marmalade/6.2/modules/iwgx/atitools'
p400
sbag238
(g370
g240
Ntp401
Rp402
(dp403
g374
I01
sg375
I00
sg268
S'c:/marmalade/6.2/modules/iwgx'
p404
sbag238
(g370
g240
Ntp405
Rp406
(dp407
g374
I01
sg375
I00
sg268
S'c:/marmalade/6.2/modules/iwgl'
p408
sbag238
(g370
g240
Ntp409
Rp410
(dp411
g374
I01
sg375
I00
sg268
S'c:/marmalade/6.2/modules/iwgxfont'
p412
sbag238
(g370
g240
Ntp413
Rp414
(dp415
g374
I01
sg375
I00
sg268
Vc:/users/1106786/appdata/roaming/marmalade/packages/6.2.2/tiniconv_1.0.1
p416
sbag238
(g370
g240
Ntp417
Rp418
(dp419
g374
I01
sg375
I00
sg268
S'c:/marmalade/6.2/modules/iw2d'
p420
sbag238
(g370
g240
Ntp421
Rp422
(dp423
g374
I01
sg375
I00
sg268
S'c:/marmalade/6.2/s3e'
p424
sbasS'macros'
p425
(dp426
S'IW_USE_CALLSTACK'
p427
NsS'IW_SDK'
p428
NsS'I3D_PLATFORM_S3E'
p429
NsS'IW_MKF_LIBJPEG'
p430
NsS'I3D_OS_S3E'
p431
NsS'IW_MKF_DEMO_3_LOADTILEINFO_AUDIO'
p432
NsS'IW_MKF_TINICONV'
p433
NsS'IW_APP_VERSION'
p434
S'"1.0"'
p435
sS'IW_MKF_IWRESMANAGER'
p436
NsS'IW_MKF_IWUTIL'
p437
NsS'IW_MKF_IWGEOM'
p438
NsS'IW_ASSERTION_CHANNEL_2D'
p439
S'1'
p440
sS'IW_APP_NAME'
p441
S'"Demo_3_LoadTileInfo_Audio"'
p442
sS'IW_MKF_IWGXFONT'
p443
NsS'IW_PLATFORM_S3E'
p444
NsS'IW_MKF_ZLIB'
p445
NsS'IW_MKF_IWGX'
p446
NsS'IW_USE_ASSERTIONS'
p447
NsS'_CRT_SECURE_NO_DEPRECATE'
p448
NsS'IW_MKF_IWGL'
p449
NsS'IW_MKF_LIBPNG'
p450
NsS'IW_DEBUG'
p451
NsS'IW_USE_TRACING'
p452
NsS'S3E_INCLUDE_LEGACY'
p453
NsS'__S3E__'
p454
NsS'IW_MKF_IW2D'
p455
NssS'done_warnings'
p456
(dp457
sS'subprojects'
p458
(dp459
g152
S'iwresmanager'
p460
sVc:\u005cusers\u005c1106786\u005cappdata\u005croaming\u005cmarmalade\u005cpackages\u005c6.2.2\u005czlib_1.2.4\u005czlib.mkf
p461
S'zlib'
p462
sg148
S'iwutil'
p463
sVc:\u005cusers\u005c1106786\u005cappdata\u005croaming\u005cmarmalade\u005cpackages\u005c6.2.2\u005clibjpeg_6b\u005clibjpeg.mkf
p464
S'libjpeg'
p465
sg147
S'iwgeom'
p466
sg156
S'Demo_3_LoadTileInfo_Audio'
p467
sVc:\u005cusers\u005c1106786\u005cappdata\u005croaming\u005cmarmalade\u005cpackages\u005c6.2.2\u005clibpng_1.2.34\u005clibpng.mkf
p468
S'libpng'
p469
sg146
S'iwgx'
p470
sg154
S'iwgxfont'
p471
sg153
S'iwgl'
p472
sg145
S'iw2d'
p473
sVc:\u005cusers\u005c1106786\u005cappdata\u005croaming\u005cmarmalade\u005cpackages\u005c6.2.2\u005ctiniconv_1.0.1\u005ctiniconv.mkf
p474
S'tiniconv'
p475
ssS'deployments'
p476
(dp477
S'Default'
p478
g238
(cdeployment
Deployment
p479
g240
Ntp480
Rp481
(dp482
S'got_version'
p483
I0
sS'assets'
p484
g478
sS'mkb'
p485
g242
sS'target'
p486
Nsg275
(lp487
sS'options'
p488
(dp489
S'iphone-link-lib'
p490
(lp491
sS'game-icf'
p492
NsS'iphone-icon-high-res'
p493
NsS'win32-pref-windowposy'
p494
NsS'win32-pref-windowposx'
p495
NsS'bada-appsecret'
p496
NsS'playbook-author'
p497
NsS'winmobile-icon32'
p498
NsS'linux-ext-lib'
p499
(lp500
sS'target-folder'
p501
NsS'iphone-splashscreen-landscape'
p502
NsS'psp-discversion'
p503
NsS'lgtv-use-drm'
p504
NsS'nds-bannertitle-sp'
p505
NsS'symbian-platsecflags'
p506
NsS'psp-producer'
p507
NsS'blackberry-playbook-icon'
p508
NsS'iphone-icon-ipad-search-high-res'
p509
NsS'iphone-provisioning-profile'
p510
NsS'copyright'
p511
NsS'winmobile-png45'
p512
NsS'iphone-link-libdir'
p513
(lp514
sS'symbian-cert'
p515
NsS'nds-bannertitle-hn'
p516
NsS'brew-depends'
p517
NsS'winmobile-png60'
p518
NsS'winmobile-nouninstall'
p519
NsS'android-icon-hdpi'
p520
NsS'iphone-ipad-only'
p521
NsS'iphone-splash-full-orient'
p522
NsS'iphone-bundle-url-name'
p523
NsS'android-aliasname'
p524
NsS'iphone-splash-retina-generate'
p525
NsS'psp-dlgmanual'
p526
NsS'iphone-backgroundmode-audio'
p527
NsS'android-pkgname'
p528
NsS'webos-memory'
p529
NsS'brew-uid'
p530
NsS'android-keypass'
p531
NsS'symbian-locationsupport'
p532
NsS'iphone-signing-host'
p533
NsS'nds-bannertitle-jp'
p534
NsS'name'
p535
NsS'osx-info-plist'
p536
NsS'symbian-icon1-format'
p537
NsS'uiq3-uid'
p538
NsS'psp-dlgcontentid'
p539
NsS'auto-derbh'
p540
NsS'bada-use-partner-privileges'
p541
NsS'nds-bannertitle-it'
p542
NsS'blackberry-authorid'
p543
NsS'nds-publicsavedatasize'
p544
NsS'splashscreen'
p545
NsS'brew-mif'
p546
NsS'symbian-icon2-format'
p547
NsS'long-caption'
p548
NsS'iphone-icon-settings-high-res'
p549
NsS'android-manifest'
p550
NsS'winmobile-icon16'
p551
NsS's3e-compression'
p552
NsS'blackberry-cskpass'
p553
NsS'iphone-link-opts'
p554
(lp555
sS'iphone-region'
p556
NsS'uiq3-icon3-mask'
p557
NsS'winmobile-start-menu-folder'
p558
NsS'brew-clsid'
p559
NsS'brew-encoding'
p560
NsS'symbian-icon1'
p561
NsS'symbian-icon2'
p562
NsS'psp-parentallevel'
p563
NsS'osx-ext-dll'
p564
(lp565
sS'version'
p566
NsS'bada-manifest'
p567
NsS'provider'
p568
NsS'iphone-prerendered-icon'
p569
NsS'iphone-appid'
p570
NsS'playbook-keystore'
p571
NsS'nds-initialcode'
p572
NsS'symbian8-uid'
p573
NsS'symbian-osexecsupport'
p574
NsS'winmobile-icon64'
p575
NsS'iphone-persistent-wifi'
p576
NsS'symbian7-uid'
p577
NsS'winmobile-setup-dll'
p578
NsS'android-external-jars'
p579
(lp580
sS'android-install-location'
p581
NsS'olddeploytoolstyle'
p582
NsS'nds-privatesavedatasize'
p583
NsS'symbian9-uid'
p584
NsS'nds-bannertitle-cn'
p585
NsS'winmobile-trace-file'
p586
NsS'playbook-storepass'
p587
NsS'android-icon-ldpi'
p588
NsS'psp-appversion'
p589
NsS'networking'
p590
NsS'winmobile-install-folder'
p591
NsS'arch'
p592
NsS'android-external-res'
p593
(lp594
sS'manufacturer'
p595
NsS'android-icon-gallery'
p596
NsS'bada-signed'
p597
NsS'android-supports-gl-texture'
p598
(lp599
sS'iphone-apple-wwdr-cert'
p600
NsS'psp-snd0'
p601
NsS'iphone-extra-sections'
p602
NsS'blackberry-keystore'
p603
NsS'iphone-nosign'
p604
NsS'caption'
p605
NsS'winmobile-ampd-part-number'
p606
NsS'iphone-icon-large'
p607
NsS'android-storepass'
p608
NsS'iphone-info-plist'
p609
NsS'win32-icon'
p610
NsS'android-extra-manifest'
p611
(lp612
sS'iphone-icon-ipad-search'
p613
NsS'android-custom-activity'
p614
NsS'version-minor'
p615
NsS'iphone-icon-ipad'
p616
NsS'bada-appid'
p617
NsS'iphone-distribution-key'
p618
NsS'iphone-link-libdirs'
p619
(lp620
sS'psp-copyright'
p621
NsS'symbian-maxheapsize'
p622
NsS'embed-icf'
p623
NsS'psp-titlename'
p624
NsS'symbian-icon1-mask'
p625
NsS'nds-makercode'
p626
NsS'psp-icon1'
p627
NsS'priv-sign-key'
p628
NsS'webos-appinfo'
p629
NsS'symbian-cert-key'
p630
NsS'android-icon'
p631
NsS'webos-appid'
p632
NsS'android-icon-nonstandard'
p633
NsS'android-extra-application-manifest'
p634
(lp635
sS'iphone-icon-settings'
p636
NsS'iphone-distribution-cert'
p637
NsS'osx-icon'
p638
NsS'nds-titlename'
p639
NsS'splashscreen-auto-onblack'
p640
NsS'icon'
p641
NsS'nds-romheadertemplate'
p642
NsS'webos-icon'
p643
NsS'nds-bannertitle-en'
p644
NsS'win32-ext-dll'
p645
(lp646
sS'psp-dlgicon0'
p647
NsS'iphone-development-key'
p648
NsS'psp-discid'
p649
NsS'winmobile-icon48'
p650
NsS'uiq3-icon1-mask'
p651
NsS'playbook-cskpass'
p652
NsS'android-so'
p653
(lp654
sS'itunes-artwork'
p655
NsS'bada-splash'
p656
NsS'version-revision'
p657
NsS'android-icon-mdpi'
p658
NsS'android-keystore'
p659
NsS'uiq3-icon2-format'
p660
NsS'version-string'
p661
NsS'winmobile-png90'
p662
NsS'iphone-icon-ipad-high-res'
p663
NsS'iphone-disable-ipad'
p664
NsS'uiq3-icon1-format'
p665
NsS'iphone-bundle-url-schemes'
p666
NsS'nds-icon'
p667
NsS'iphone-development-cert'
p668
NsS'playbook-authorid'
p669
NsS'android_extra_strings'
p670
NsS'playbook-icon'
p671
NsS'uid'
p672
NsS'iphone-signing-identity'
p673
NsS'brew-icon-medium'
p674
NsS'blackberry-phone-icon'
p675
NsS'iphone-enable-4inch-retina'
p676
NsS'pkguid-as-uid'
p677
NsS'symbian-icon1-mask-black'
p678
NsS'uiq3-icon2'
p679
NsS'pub-sign-key'
p680
NsS'nds-bannertitle-fr'
p681
NsS'win32-pref-windowtitle'
p682
NsS'symbian-disable-ecompxl'
p683
NsS'symbian-soundrecordsupport'
p684
NsS'splashscreen-use-all'
p685
NsS'android-unsigned'
p686
NsS'brew-priviledges'
p687
NsS'brew-icon-small'
p688
NsS'psp-dlgpic2'
p689
NsS'bada-icon'
p690
NsS'psp-dlgpic0'
p691
NsS'lgtv_l9-use-drm'
p692
NsS'psp-pic0'
p693
NsS'psp-pic1'
p694
NsS'iphone-icon'
p695
NsS'psp-icon0'
p696
NsS'blackberry-permissions-access-shared'
p697
NsS'uiq3-icon3-format'
p698
NsS'version-major'
p699
NsS'iphone_bundle_localisations'
p700
NsS'winmobile-icon'
p701
NsS'blackberry-author'
p702
NsS'symbian-keypwd'
p703
NsS'iphone-no-splash'
p704
NsS'playbook-access-shared'
p705
NsS'psp-dlghealthwarning'
p706
NsS'iphone-link-libs'
p707
(lp708
sS'iphone-splash'
p709
NsS'nds-bannertitle-ge'
p710
NsS'android_icon_gallery'
p711
NsS'brew-icon-large'
p712
NsS'iphone-app-fonts'
p713
NsS'symbian-icon2-mask'
p714
NsS'iphone-sign-for-distribution'
p715
NsS'psp-dlgprotectdocument'
p716
NsS'winmobile-cab-compress'
p717
NsS'uiq3-icon3'
p718
NsS'uiq3-icon1'
p719
NsS'symbian-run-on-install'
p720
NsS'assets'
p721
NsS'symbian-key'
p722
NsS'app-icf'
p723
NsS'blackberry-storepass'
p724
NsS'brew-compress-loader'
p725
NsS'uiq3-icon2-mask'
p726
NsS'symbian-icon2-mask-black'
p727
NsS'symbian-icon-svg'
p728
NsS'android-extra-strings'
p729
NsS'iphone-splashscreen-portrait'
p730
NsS'iphone-bundle-localisations'
p731
Nssg268
g478
sbssS'platform'
p732
S'S3E'
p733
sg54
S'1.0'
p734
sS'arcade_platform'
p735
g4
sS'extensions'
p736
(dp737
sS'source_groups_tree'
p738
(dp739
S'(libpng)'
p740
(dp741
Vc:/users/1106786/appdata/roaming/marmalade/packages/6.2.2/libpng_1.2.34/libpng.mkf
p742
(lp743
I1
a(dp744
asVc:/users/1106786/appdata/roaming/marmalade/packages/6.2.2/libpng_1.2.34/h/png.h
p745
(lp746
I1
a(dp747
asVc:/users/1106786/appdata/roaming/marmalade/packages/6.2.2/libpng_1.2.34/h/pngconf.h
p748
(lp749
I1
ag747
assS'(libjpeg)'
p750
(dp751
Vc:/users/1106786/appdata/roaming/marmalade/packages/6.2.2/libjpeg_6b/h/jmemsys.h
p752
(lp753
I1
a(dp754
asVc:/users/1106786/appdata/roaming/marmalade/packages/6.2.2/libjpeg_6b/h/jpegint.h
p755
(lp756
I1
ag754
asVc:/users/1106786/appdata/roaming/marmalade/packages/6.2.2/libjpeg_6b/h/jconfig.h
p757
(lp758
I1
ag754
asVc:/users/1106786/appdata/roaming/marmalade/packages/6.2.2/libjpeg_6b/h/cderror.h
p759
(lp760
I1
ag754
asVc:/users/1106786/appdata/roaming/marmalade/packages/6.2.2/libjpeg_6b/h/jerror.h
p761
(lp762
I1
ag754
asVc:/users/1106786/appdata/roaming/marmalade/packages/6.2.2/libjpeg_6b/libjpeg.mkf
p763
(lp764
I1
a(dp765
asVc:/users/1106786/appdata/roaming/marmalade/packages/6.2.2/libjpeg_6b/h/cdjpeg.h
p766
(lp767
I1
ag754
asVc:/users/1106786/appdata/roaming/marmalade/packages/6.2.2/libjpeg_6b/h/jversion.h
p768
(lp769
I1
ag754
asVc:/users/1106786/appdata/roaming/marmalade/packages/6.2.2/libjpeg_6b/h/jinclude.h
p770
(lp771
I1
ag754
asVc:/users/1106786/appdata/roaming/marmalade/packages/6.2.2/libjpeg_6b/h/jdct.h
p772
(lp773
I1
ag754
asVc:/users/1106786/appdata/roaming/marmalade/packages/6.2.2/libjpeg_6b/h/jpeglib.h
p774
(lp775
I1
ag754
asVc:/users/1106786/appdata/roaming/marmalade/packages/6.2.2/libjpeg_6b/h/jdhuff.h
p776
(lp777
I1
ag754
asVc:/users/1106786/appdata/roaming/marmalade/packages/6.2.2/libjpeg_6b/h/transupp.h
p778
(lp779
I1
ag754
asVc:/users/1106786/appdata/roaming/marmalade/packages/6.2.2/libjpeg_6b/h/jchuff.h
p780
(lp781
I1
ag754
asVc:/users/1106786/appdata/roaming/marmalade/packages/6.2.2/libjpeg_6b/h/jmorecfg.h
p782
(lp783
I1
ag754
assS'(tiniconv)'
p784
(dp785
Vc:/users/1106786/appdata/roaming/marmalade/packages/6.2.2/tiniconv_1.0.1/tiniconv.mkf
p786
(lp787
I1
a(dp788
asVc:/users/1106786/appdata/roaming/marmalade/packages/6.2.2/tiniconv_1.0.1/h/tiniconv.h
p789
(lp790
I1
a(dp791
asVc:/users/1106786/appdata/roaming/marmalade/packages/6.2.2/tiniconv_1.0.1/h/tiniconv_int.h
p792
(lp793
I1
ag791
assS"'Marmalade Studio'"
p794
(dp795
S'iwgl'
p796
(dp797
S'c:/marmalade/6.2/modules/iwgl/h/IwGLExt.h'
p798
(lp799
I1
a(dp800
asS'c:/marmalade/6.2/modules/iwgl/docs/iwgl.config.txt'
p801
(lp802
I1
ag800
asS'c:/marmalade/6.2/modules/iwgl/h/IwGL.h'
p803
(lp804
I1
ag800
asS'c:/marmalade/6.2/modules/iwgl/iwgl.mkf'
p805
(lp806
I1
a(dp807
assS'iw2d'
p808
(dp809
S'c:/marmalade/6.2/modules/iw2d/h/Iw2D.h'
p810
(lp811
I1
a(dp812
asS'c:/marmalade/6.2/modules/iw2d/docs/iw2d_public.defines.txt'
p813
(lp814
I1
ag812
asS'c:/marmalade/6.2/modules/iw2d/docs/iw2d.config.txt'
p815
(lp816
I1
ag812
asS'c:/marmalade/6.2/modules/iw2d/iw2d.mkf'
p817
(lp818
I1
a(dp819
assS'iwgxfont'
p820
(dp821
S'c:/marmalade/6.2/modules/iwgxfont/docs/iwgxfont_public.defines.txt'
p822
(lp823
I1
a(dp824
asS'c:/marmalade/6.2/modules/iwgxfont/iwgxfont.mkf'
p825
(lp826
I1
a(dp827
asS'c:/marmalade/6.2/modules/iwgxfont/h/IwGxFontState.h'
p828
(lp829
I1
ag824
asS'c:/marmalade/6.2/modules/iwgxfont/h/IwGxFontGlyph.h'
p830
(lp831
I1
ag824
asS'c:/marmalade/6.2/modules/iwgxfont/h/IwGxFontPreparedData.h'
p832
(lp833
I1
ag824
asS'c:/marmalade/6.2/modules/iwgxfont/h/IwGxFontContainer.h'
p834
(lp835
I1
ag824
asS'c:/marmalade/6.2/modules/iwgxfont/h/IwGxFontTypes.h'
p836
(lp837
I1
ag824
asS'c:/marmalade/6.2/modules/iwgxfont/docs/iwgxfont.config.txt'
p838
(lp839
I1
ag824
asS'c:/marmalade/6.2/modules/iwgxfont/h/IwGxFont.h'
p840
(lp841
I1
ag824
assS'iwgeom'
p842
(dp843
S'c:/marmalade/6.2/modules/iwgeom/h/IwGeomMenu.h'
p844
(lp845
I1
a(dp846
asS'c:/marmalade/6.2/modules/iwgeom/h/IwGeomFVec3.h'
p847
(lp848
I1
ag846
asS'c:/marmalade/6.2/modules/iwgeom/h/IwGeom.h'
p849
(lp850
I1
ag846
asS'c:/marmalade/6.2/modules/iwgeom/h/IwGeomFVec4.h'
p851
(lp852
I1
ag846
asS'c:/marmalade/6.2/modules/iwgeom/h/IwGeomVec2.h'
p853
(lp854
I1
ag846
asS'c:/marmalade/6.2/modules/iwgeom/h/IwGeomIntersect.h'
p855
(lp856
I1
ag846
asS'c:/marmalade/6.2/modules/iwgeom/h/IwGeomFBBox.h'
p857
(lp858
I1
ag846
asS'c:/marmalade/6.2/modules/iwgeom/h/IwGeomLegacy.h'
p859
(lp860
I1
ag846
asS'c:/marmalade/6.2/modules/iwgeom/h/IwGeomSqrt.h'
p861
(lp862
I1
ag846
asS'c:/marmalade/6.2/modules/iwgeom/h/IwGeomFIntersect.h'
p863
(lp864
I1
ag846
asS'c:/marmalade/6.2/modules/iwgeom/h/IwGeomSVec4.h'
p865
(lp866
I1
ag846
asS'c:/marmalade/6.2/modules/iwgeom/h/IwGeomCore.h'
p867
(lp868
I1
ag846
asS'c:/marmalade/6.2/modules/iwgeom/h/IwGeomBBox.h'
p869
(lp870
I1
ag846
asS'c:/marmalade/6.2/modules/iwgeom/h/IwGeomVec4.h'
p871
(lp872
I1
ag846
asS'c:/marmalade/6.2/modules/iwgeom/h/IwGeomFPlane.h'
p873
(lp874
I1
ag846
asS'c:/marmalade/6.2/modules/iwgeom/docs/iwgeom.config.txt'
p875
(lp876
I1
ag846
asS'c:/marmalade/6.2/modules/iwgeom/h/IwGeomSQuat.h'
p877
(lp878
I1
ag846
asS'c:/marmalade/6.2/modules/iwgeom/iwgeom.mkf'
p879
(lp880
I1
a(dp881
asS'c:/marmalade/6.2/modules/iwgeom/h/IwGeomQuat.h'
p882
(lp883
I1
ag846
asS'c:/marmalade/6.2/modules/iwgeom/h/IwGeomMat2D.h'
p884
(lp885
I1
ag846
asS'c:/marmalade/6.2/modules/iwgeom/h/IwGeomFSphere.h'
p886
(lp887
I1
ag846
asS'c:/marmalade/6.2/modules/iwgeom/h/IwGeomSVec3.h'
p888
(lp889
I1
ag846
asS'c:/marmalade/6.2/modules/iwgeom/h/IwGeomSVec2.h'
p890
(lp891
I1
ag846
asS'c:/marmalade/6.2/modules/iwgeom/h/IwGeomSphere.h'
p892
(lp893
I1
ag846
asS'c:/marmalade/6.2/modules/iwgeom/h/IwGeomPlane.h'
p894
(lp895
I1
ag846
asS'c:/marmalade/6.2/modules/iwgeom/h/IwGeomFMat.h'
p896
(lp897
I1
ag846
asS'c:/marmalade/6.2/modules/iwgeom/h/IwGeomFVec2.h'
p898
(lp899
I1
ag846
asS'c:/marmalade/6.2/modules/iwgeom/h/IwGeomMat.h'
p900
(lp901
I1
ag846
asS'c:/marmalade/6.2/modules/iwgeom/h/IwGeomFQuat.h'
p902
(lp903
I1
ag846
asS'c:/marmalade/6.2/modules/iwgeom/h/IwGeomFMat2D.h'
p904
(lp905
I1
ag846
asS'c:/marmalade/6.2/modules/iwgeom/h/IwGeomVec.h'
p906
(lp907
I1
ag846
asS'c:/marmalade/6.2/modules/iwgeom/h/IwGeomVec3.h'
p908
(lp909
I1
ag846
assS'iwresmanager'
p910
(dp911
S'c:/marmalade/6.2/modules/iwresmanager/h/IwResSerialise.h'
p912
(lp913
I1
a(dp914
asS'c:/marmalade/6.2/modules/iwresmanager/h/IwResHandlerGROUP.h'
p915
(lp916
I1
ag914
asS'c:/marmalade/6.2/modules/iwresmanager/h/IwResManagerClass.h'
p917
(lp918
I1
ag914
asS'c:/marmalade/6.2/modules/iwresmanager/h/IwResHandlerImage.h'
p919
(lp920
I1
ag914
asS'c:/marmalade/6.2/modules/iwresmanager/docs/iwresmanager.config.txt'
p921
(lp922
I1
ag914
asS'c:/marmalade/6.2/modules/iwresmanager/h/IwResHandler.h'
p923
(lp924
I1
ag914
asS'c:/marmalade/6.2/modules/iwresmanager/iwresmanager.mkf'
p925
(lp926
I1
a(dp927
asS'c:/marmalade/6.2/modules/iwresmanager/h/IwResGroup.h'
p928
(lp929
I1
ag914
asS'c:/marmalade/6.2/modules/iwresmanager/h/IwResManager.h'
p930
(lp931
I1
ag914
asS'c:/marmalade/6.2/modules/iwresmanager/h/IwResHandlerITX.h'
p932
(lp933
I1
ag914
assS'iwgx'
p934
(dp935
S'c:/marmalade/6.2/modules/iwgx/h/IwGxFuncTable.h'
p936
(lp937
I1
a(dp938
asS'c:/marmalade/6.2/modules/iwgx/h/IwClip.inl'
p939
(lp940
I1
ag938
asS'c:/marmalade/6.2/modules/iwgx/h/IwGxTypes.h'
p941
(lp942
I1
ag938
asS'c:/marmalade/6.2/modules/iwgx/h/IwGxTransformSW.h'
p943
(lp944
I1
ag938
asS'c:/marmalade/6.2/modules/iwgx/docs/iwgx_public.defines.txt'
p945
(lp946
I1
ag938
asS'c:/marmalade/6.2/modules/iwgx/h/IwDebugPrim.h'
p947
(lp948
I1
ag938
asS'c:/marmalade/6.2/modules/iwgx/h/IwResHandlerMTL.h'
p949
(lp950
I1
ag938
asS'c:/marmalade/6.2/modules/iwgx/docs/iwgx.config.txt'
p951
(lp952
I1
ag938
asS'c:/marmalade/6.2/modules/iwgx/h/IwGxDebug.h'
p953
(lp954
I1
ag938
asS'c:/marmalade/6.2/modules/iwgx/h/IwTexture.h'
p955
(lp956
I1
ag938
asS'c:/marmalade/6.2/modules/iwgx/h/IwFColour.h'
p957
(lp958
I1
ag938
asS'c:/marmalade/6.2/modules/iwgx/h/IwGxError.h'
p959
(lp960
I1
ag938
asS'c:/marmalade/6.2/modules/iwgx/h/IwColour.h'
p961
(lp962
I1
ag938
asS'c:/marmalade/6.2/modules/iwgx/h/IwMaterial.h'
p963
(lp964
I1
ag938
asS'c:/marmalade/6.2/modules/iwgx/h/IwGxPrint.h'
p965
(lp966
I1
ag938
asS'c:/marmalade/6.2/modules/iwgx/h/IwTPage.h'
p967
(lp968
I1
ag938
asS'c:/marmalade/6.2/modules/iwgx/iwgx.mkf'
p969
(lp970
I1
a(dp971
asS'c:/marmalade/6.2/modules/iwgx/h/IwGxMetrics.h'
p972
(lp973
I1
ag938
asS'c:/marmalade/6.2/modules/iwgx/h/IwGxSurface.h'
p974
(lp975
I1
ag938
asS'c:/marmalade/6.2/modules/iwgx/h/IwGx.h'
p976
(lp977
I1
ag938
asS'c:/marmalade/6.2/modules/iwgx/h/IwGxShaderTechnique.h'
p978
(lp979
I1
ag938
asS'c:/marmalade/6.2/modules/iwgx/h/IwGxStream.h'
p980
(lp981
I1
ag938
asS'c:/marmalade/6.2/modules/iwgx/h/IwMatAnim.h'
p982
(lp983
I1
ag938
asS'c:/marmalade/6.2/modules/iwgx/h/IwClip.h'
p984
(lp985
I1
ag938
asS'c:/marmalade/6.2/modules/iwgx/h/IwGxState.h'
p986
(lp987
I1
ag938
assS'iwutil'
p988
(dp989
S'c:/marmalade/6.2/modules/iwutil/h/IwBuffer.h'
p990
(lp991
I1
a(dp992
asS'c:/marmalade/6.2/modules/iwutil/h/IwResource.h'
p993
(lp994
I1
ag992
asS'c:/marmalade/6.2/modules/iwutil/h/IwFile.h'
p995
(lp996
I1
ag992
asS'c:/marmalade/6.2/modules/iwutil/docs/iwutil.config.txt'
p997
(lp998
I1
ag992
asS'c:/marmalade/6.2/modules/iwutil/h/IwCore.h'
p999
(lp1000
I1
ag992
asS'c:/marmalade/6.2/modules/iwutil/h/IwOptimiseSpeed.h'
p1001
(lp1002
I1
ag992
asS'c:/marmalade/6.2/modules/iwutil/h/IwSerialise.h'
p1003
(lp1004
I1
ag992
asS'c:/marmalade/6.2/modules/iwutil/h/IwPath.h'
p1005
(lp1006
I1
ag992
asS'c:/marmalade/6.2/modules/iwutil/h/IwImage.h'
p1007
(lp1008
I1
ag992
asS'c:/marmalade/6.2/modules/iwutil/h/IwCopyingPtr.h'
p1009
(lp1010
I1
ag992
asS'c:/marmalade/6.2/modules/iwutil/h/IwUtilInitTerm.h'
p1011
(lp1012
I1
ag992
asS'c:/marmalade/6.2/modules/iwutil/h/IwOptimiseARM.h'
p1013
(lp1014
I1
ag992
asS'c:/marmalade/6.2/modules/iwutil/h/IwMath.h'
p1015
(lp1016
I1
ag992
asS'c:/marmalade/6.2/modules/iwutil/iwutil.mkf'
p1017
(lp1018
I1
a(dp1019
asS'c:/marmalade/6.2/modules/iwutil/h/IwUncopyable.h'
p1020
(lp1021
I1
ag992
asS'c:/marmalade/6.2/modules/iwutil/h/IwDebug.h'
p1022
(lp1023
I1
ag992
asS'c:/marmalade/6.2/modules/iwutil/h/IwSingleton.h'
p1024
(lp1025
I1
ag992
asS'c:/marmalade/6.2/modules/iwutil/h/IwRandom.h'
p1026
(lp1027
I1
ag992
asS'c:/marmalade/6.2/modules/iwutil/h/IwMemManagerDL.h'
p1028
(lp1029
I1
ag992
asS'c:/marmalade/6.2/modules/iwutil/h/IwMemory.h'
p1030
(lp1031
I1
ag992
asS'c:/marmalade/6.2/modules/iwutil/h/IwUtil.h'
p1032
(lp1033
I1
ag992
asS'c:/marmalade/6.2/modules/iwutil/h/IwManagedList.h'
p1034
(lp1035
I1
ag992
asS'c:/marmalade/6.2/modules/iwutil/h/IwMenu.h'
p1036
(lp1037
I1
ag992
asS'c:/marmalade/6.2/modules/iwutil/h/IwArray.h'
p1038
(lp1039
I1
ag992
asS'c:/marmalade/6.2/modules/iwutil/h/IwOptimiseSize.h'
p1040
(lp1041
I1
ag992
asS'c:/marmalade/6.2/modules/iwutil/h/IwString.h'
p1042
(lp1043
I1
ag992
asS'c:/marmalade/6.2/modules/iwutil/h/IwProfileMenu.h'
p1044
(lp1045
I1
ag992
asS'c:/marmalade/6.2/modules/iwutil/h/IwKeymap.h'
p1046
(lp1047
I1
ag992
asS'c:/marmalade/6.2/modules/iwutil/h/IwMemBucket.h'
p1048
(lp1049
I1
ag992
asS'c:/marmalade/6.2/modules/iwutil/h/IwUTF8.h'
p1050
(lp1051
I1
ag992
asS'c:/marmalade/6.2/modules/iwutil/h/IwRuntime.h'
p1052
(lp1053
I1
ag992
asS'c:/marmalade/6.2/modules/iwutil/h/IwVariableBitField.h'
p1054
(lp1055
I1
ag992
asS'c:/marmalade/6.2/modules/iwutil/h/IwOptimiseThumb.h'
p1056
(lp1057
I1
ag992
asS'c:/marmalade/6.2/modules/iwutil/h/IwList.h'
p1058
(lp1059
I1
ag992
asS'c:/marmalade/6.2/modules/iwutil/h/IwDivTable.h'
p1060
(lp1061
I1
ag992
asS'c:/marmalade/6.2/modules/iwutil/h/IwMemBucketHelpers.h'
p1062
(lp1063
I1
ag992
asS'c:/marmalade/6.2/modules/iwutil/h/IwClassFactory.h'
p1064
(lp1065
I1
ag992
asS'c:/marmalade/6.2/modules/iwutil/h/IwAutoFile.h'
p1066
(lp1067
I1
ag992
asS'c:/marmalade/6.2/modules/iwutil/h/IwAllocator.h'
p1068
(lp1069
I1
ag992
asS'c:/marmalade/6.2/modules/iwutil/h/IwImageHelper.h'
p1070
(lp1071
I1
ag992
asS'c:/marmalade/6.2/modules/iwutil/h/IwTextParserITX.h'
p1072
(lp1073
I1
ag992
asS'c:/marmalade/6.2/modules/iwutil/h/IwTextParser.h'
p1074
(lp1075
I1
ag992
asS'c:/marmalade/6.2/modules/iwutil/h/IwTextParseable.h'
p1076
(lp1077
I1
ag992
asS'c:/marmalade/6.2/modules/iwutil/h/IwDivide.h'
p1078
(lp1079
I1
ag992
asS'c:/marmalade/6.2/modules/iwutil/h/IwHashString.h'
p1080
(lp1081
I1
ag992
asS'c:/marmalade/6.2/modules/iwutil/h/IwTypes.h'
p1082
(lp1083
I1
ag992
asS'c:/marmalade/6.2/modules/iwutil/h/IwManaged.h'
p1084
(lp1085
I1
ag992
asS'c:/marmalade/6.2/modules/iwutil/h/IwEvent.h'
p1086
(lp1087
I1
ag992
asS'c:/marmalade/6.2/modules/iwutil/h/IwChar.h'
p1088
(lp1089
I1
ag992
asS'c:/marmalade/6.2/modules/iwutil/h/IwFibre.h'
p1090
(lp1091
I1
ag992
asssS'(zlib)'
p1092
(dp1093
Vc:/users/1106786/appdata/roaming/marmalade/packages/6.2.2/zlib_1.2.4/h/zconf.h
p1094
(lp1095
I1
a(dp1096
asVc:/users/1106786/appdata/roaming/marmalade/packages/6.2.2/zlib_1.2.4/h/zlib.h
p1097
(lp1098
I1
ag1096
asVc:/users/1106786/appdata/roaming/marmalade/packages/6.2.2/zlib_1.2.4/zlib.mkf
p1099
(lp1100
I1
a(dp1101
assS'(Demo_3_LoadTileInfo_Audio)'
p1102
(dp1103
S'src'
p1104
(dp1105
S'c:/users/1106786/dropbox/dropbox/pg life/project impact/code/demos/demo_3_loadtileinfo_audio/src/map.cpp'
p1106
(lp1107
I1
a(dp1108
asS'c:/users/1106786/dropbox/dropbox/pg life/project impact/code/demos/demo_3_loadtileinfo_audio/h/input.h'
p1109
(lp1110
I1
ag1108
asS'c:/users/1106786/dropbox/dropbox/pg life/project impact/code/demos/demo_3_loadtileinfo_audio/h/maze.h'
p1111
(lp1112
I1
ag1108
asS'c:/users/1106786/dropbox/dropbox/pg life/project impact/code/demos/demo_3_loadtileinfo_audio/src/obstacle.cpp'
p1113
(lp1114
I1
ag1108
asS'c:/users/1106786/dropbox/dropbox/pg life/project impact/code/demos/demo_3_loadtileinfo_audio/h/character.h'
p1115
(lp1116
I1
ag1108
asS'c:/users/1106786/dropbox/dropbox/pg life/project impact/code/demos/demo_3_loadtileinfo_audio/src/input.cpp'
p1117
(lp1118
I1
ag1108
asS'c:/users/1106786/dropbox/dropbox/pg life/project impact/code/demos/demo_3_loadtileinfo_audio/src/main.cpp'
p1119
(lp1120
I1
ag1108
asS'c:/users/1106786/dropbox/dropbox/pg life/project impact/code/demos/demo_3_loadtileinfo_audio/h/map.h'
p1121
(lp1122
I1
ag1108
asS'c:/users/1106786/dropbox/dropbox/pg life/project impact/code/demos/demo_3_loadtileinfo_audio/h/obstacle.h'
p1123
(lp1124
I1
ag1108
asS'c:/users/1106786/dropbox/dropbox/pg life/project impact/code/demos/demo_3_loadtileinfo_audio/h/tiles.h'
p1125
(lp1126
I1
ag1108
asS'c:/users/1106786/dropbox/dropbox/pg life/project impact/code/demos/demo_3_loadtileinfo_audio/h/game.h'
p1127
(lp1128
I1
ag1108
asS'c:/users/1106786/dropbox/dropbox/pg life/project impact/code/demos/demo_3_loadtileinfo_audio/src/tile.cpp'
p1129
(lp1130
I1
ag1108
asS'c:/users/1106786/dropbox/dropbox/pg life/project impact/code/demos/demo_3_loadtileinfo_audio/h/tile.h'
p1131
(lp1132
I1
ag1108
asS'c:/users/1106786/dropbox/dropbox/pg life/project impact/code/demos/demo_3_loadtileinfo_audio/src/character.cpp'
p1133
(lp1134
I1
ag1108
asS'c:/users/1106786/dropbox/dropbox/pg life/project impact/code/demos/demo_3_loadtileinfo_audio/src/tiles.cpp'
p1135
(lp1136
I1
ag1108
asS'c:/users/1106786/dropbox/dropbox/pg life/project impact/code/demos/demo_3_loadtileinfo_audio/src/maze.cpp'
p1137
(lp1138
I1
ag1108
asS'c:/users/1106786/dropbox/dropbox/pg life/project impact/code/demos/demo_3_loadtileinfo_audio/src/game.cpp'
p1139
(lp1140
I1
ag1108
assS'Data'
p1141
(dp1142
S'c:/users/1106786/dropbox/dropbox/pg life/project impact/code/demos/demo_3_loadtileinfo_audio/data/audio.group'
p1143
(lp1144
I1
ag1108
asS'c:/users/1106786/dropbox/dropbox/pg life/project impact/code/demos/demo_3_loadtileinfo_audio/data/imgs.group'
p1145
(lp1146
I1
ag1108
assS'c:/users/1106786/dropbox/dropbox/pg life/project impact/code/demos/demo_3_loadtileinfo_audio/demo_3_loadtileinfo_audio.mkf'
p1147
(lp1148
I1
a(dp1149
asssS'files'
p1150
(dp1151
S'IwGxFontPreparedData.h'
p1152
g238
(cmkb_main
File
p1153
g240
Ntp1154
Rp1155
(dp1156
S'flags'
p1157
g824
sS'group'
p1158
(lp1159
S"'Marmalade Studio'"
p1160
ag820
asg268
g832
sbsS'iterator'
p1161
g238
(g1153
g240
Ntp1162
Rp1163
(dp1164
g1157
(dp1165
sg1158
(lp1166
S"'Marmalade System (S3E)'"
p1167
aS'stdc headers'
p1168
aS'c++'
p1169
asg268
S'c:/marmalade/6.2/s3e/h/std/c++/iterator'
p1170
sbsS'IwGeomPlane.h'
p1171
g238
(g1153
g240
Ntp1172
Rp1173
(dp1174
g1157
g846
sg1158
(lp1175
S"'Marmalade Studio'"
p1176
ag842
asg268
g894
sbsS'audio.group'
p1177
g238
(g1153
g240
Ntp1178
Rp1179
(dp1180
g1157
g1108
sg1158
(lp1181
g1102
ag1141
asg268
g1143
sbsS's3e.h'
p1182
g238
(g1153
g240
Ntp1183
Rp1184
(dp1185
g1157
g1165
sg1158
(lp1186
g1167
asg268
S'c:/marmalade/6.2/s3e/h/s3e.h'
p1187
sbsS'errno.h'
p1188
g238
(g1153
g240
Ntp1189
Rp1190
(dp1191
g1157
g1165
sg1158
(lp1192
g1167
aS'stdc headers'
p1193
asg268
S'c:/marmalade/6.2/s3e/h/std/errno.h'
p1194
sbsS'IwSingleton.h'
p1195
g238
(g1153
g240
Ntp1196
Rp1197
(dp1198
g1157
g992
sg1158
(lp1199
S"'Marmalade Studio'"
p1200
ag988
asg268
g1024
sbsS'dlfcn.h'
p1201
g238
(g1153
g240
Ntp1202
Rp1203
(dp1204
g1157
g1165
sg1158
g1192
sg268
S'c:/marmalade/6.2/s3e/h/std/dlfcn.h'
p1205
sbsS'stdio_streambuf'
p1206
g238
(g1153
g240
Ntp1207
Rp1208
(dp1209
g1157
g1165
sg1158
g1166
sg268
S'c:/marmalade/6.2/s3e/h/std/c++/stdio_streambuf'
p1210
sbsS'sched.h'
p1211
g238
(g1153
g240
Ntp1212
Rp1213
(dp1214
g1157
g1165
sg1158
g1192
sg268
S'c:/marmalade/6.2/s3e/h/std/sched.h'
p1215
sbsS'IwGeomFMat2D.h'
p1216
g238
(g1153
g240
Ntp1217
Rp1218
(dp1219
g1157
g846
sg1158
g1175
sg268
g904
sbsS's3eExt.h'
p1220
g238
(g1153
g240
Ntp1221
Rp1222
(dp1223
g1157
g1165
sg1158
g1186
sg268
S'c:/marmalade/6.2/s3e/h/s3eExt.h'
p1224
sbsS'grp.h'
p1225
g238
(g1153
g240
Ntp1226
Rp1227
(dp1228
g1157
g1165
sg1158
g1192
sg268
S'c:/marmalade/6.2/s3e/h/std/grp.h'
p1229
sbsS'list'
p1230
g238
(g1153
g240
Ntp1231
Rp1232
(dp1233
g1157
g1165
sg1158
g1166
sg268
S'c:/marmalade/6.2/s3e/h/std/c++/list'
p1234
sbsS'istream'
p1235
g238
(g1153
g240
Ntp1236
Rp1237
(dp1238
g1157
g1165
sg1158
g1166
sg268
S'c:/marmalade/6.2/s3e/h/std/c++/istream'
p1239
sbsVjpeglib.h
p1240
g238
(g1153
g240
Ntp1241
Rp1242
(dp1243
g1157
g754
sg1158
(lp1244
g750
asg268
g774
sbsS'iw2d_public.defines.txt'
p1245
g238
(g1153
g240
Ntp1246
Rp1247
(dp1248
g1157
g812
sg1158
(lp1249
S"'Marmalade Studio'"
p1250
ag808
asg268
g813
sbsS'iostream.h'
p1251
g238
(g1153
g240
Ntp1252
Rp1253
(dp1254
g1157
g1165
sg1158
g1166
sg268
S'c:/marmalade/6.2/s3e/h/std/c++/iostream.h'
p1255
sbsS'string'
p1256
g238
(g1153
g240
Ntp1257
Rp1258
(dp1259
g1157
g1165
sg1158
g1166
sg268
S'c:/marmalade/6.2/s3e/h/std/c++/string'
p1260
sbsS'IwMemory.h'
p1261
g238
(g1153
g240
Ntp1262
Rp1263
(dp1264
g1157
g992
sg1158
g1199
sg268
g1030
sbsS'IwGL.h'
p1265
g238
(g1153
g240
Ntp1266
Rp1267
(dp1268
g1157
g800
sg1158
(lp1269
S"'Marmalade Studio'"
p1270
ag796
asg268
g803
sbsS'iw2d.config.txt'
p1271
g238
(g1153
g240
Ntp1272
Rp1273
(dp1274
g1157
g812
sg1158
g1249
sg268
g815
sbsS'iomanip'
p1275
g238
(g1153
g240
Ntp1276
Rp1277
(dp1278
g1157
g1165
sg1158
g1166
sg268
S'c:/marmalade/6.2/s3e/h/std/c++/iomanip'
p1279
sbsS'iwgeom.mkf'
p1280
g238
(g1153
g240
Ntp1281
Rp1282
(dp1283
g1157
g881
sg1158
g1175
sg268
g879
sbsS'IwGxError.h'
p1284
g238
(g1153
g240
Ntp1285
Rp1286
(dp1287
g1157
g938
sg1158
(lp1288
S"'Marmalade Studio'"
p1289
ag934
asg268
g959
sbsS'IwGeom.h'
p1290
g238
(g1153
g240
Ntp1291
Rp1292
(dp1293
g1157
g846
sg1158
g1175
sg268
g849
sbsS'demo_3_loadtileinfo_audio.mkf'
p1294
g238
(g1153
g240
Ntp1295
Rp1296
(dp1297
g1157
g1149
sg1158
(lp1298
g1102
asg268
g1147
sbsS'IwGeomVec4.h'
p1299
g238
(g1153
g240
Ntp1300
Rp1301
(dp1302
g1157
g846
sg1158
g1175
sg268
g871
sbsS'dir.h'
p1303
g238
(g1153
g240
Ntp1304
Rp1305
(dp1306
g1157
g1165
sg1158
(lp1307
g1167
aS'stdc headers'
p1308
aS'sys'
p1309
asg268
S'c:/marmalade/6.2/s3e/h/std/sys/dir.h'
p1310
sbsS'locale.h'
p1311
g238
(g1153
g240
Ntp1312
Rp1313
(dp1314
g1157
g1165
sg1158
g1192
sg268
S'c:/marmalade/6.2/s3e/h/std/locale.h'
p1315
sbsS'vector'
p1316
g238
(g1153
g240
Ntp1317
Rp1318
(dp1319
g1157
g1165
sg1158
g1166
sg268
S'c:/marmalade/6.2/s3e/h/std/c++/vector'
p1320
sbsS'IwManaged.h'
p1321
g238
(g1153
g240
Ntp1322
Rp1323
(dp1324
g1157
g992
sg1158
g1199
sg268
g1084
sbsS's3eCompass.h'
p1325
g238
(g1153
g240
Ntp1326
Rp1327
(dp1328
g1157
g1165
sg1158
g1186
sg268
S'c:/marmalade/6.2/s3e/h/s3eCompass.h'
p1329
sbsVcderror.h
p1330
g238
(g1153
g240
Ntp1331
Rp1332
(dp1333
g1157
g754
sg1158
g1244
sg268
g759
sbsS'climits'
p1334
g238
(g1153
g240
Ntp1335
Rp1336
(dp1337
g1157
g1165
sg1158
g1166
sg268
S'c:/marmalade/6.2/s3e/h/std/c++/climits'
p1338
sbsS's3eVibra.h'
p1339
g238
(g1153
g240
Ntp1340
Rp1341
(dp1342
g1157
g1165
sg1158
g1186
sg268
S'c:/marmalade/6.2/s3e/h/s3eVibra.h'
p1343
sbsVjversion.h
p1344
g238
(g1153
g240
Ntp1345
Rp1346
(dp1347
g1157
g754
sg1158
g1244
sg268
g768
sbsS'fnmatch.h'
p1348
g238
(g1153
g240
Ntp1349
Rp1350
(dp1351
g1157
g1165
sg1158
g1192
sg268
S'c:/marmalade/6.2/s3e/h/std/fnmatch.h'
p1352
sbsS'IwGxState.h'
p1353
g238
(g1153
g240
Ntp1354
Rp1355
(dp1356
g1157
g938
sg1158
g1288
sg268
g986
sbsS's3eAudio.h'
p1357
g238
(g1153
g240
Ntp1358
Rp1359
(dp1360
g1157
g1165
sg1158
g1186
sg268
S'c:/marmalade/6.2/s3e/h/s3eAudio.h'
p1361
sbsS's3eSurface.h'
p1362
g238
(g1153
g240
Ntp1363
Rp1364
(dp1365
g1157
g1165
sg1158
g1186
sg268
S'c:/marmalade/6.2/s3e/h/s3eSurface.h'
p1366
sbsS'new'
p1367
g238
(g1153
g240
Ntp1368
Rp1369
(dp1370
g1157
g1165
sg1158
g1166
sg268
S'c:/marmalade/6.2/s3e/h/std/c++/new'
p1371
sbsS's3eWindow.h'
p1372
g238
(g1153
g240
Ntp1373
Rp1374
(dp1375
g1157
g1165
sg1158
(lp1376
g1167
aS'Extensions'
p1377
asg268
S'c:/marmalade/6.2/s3e/h/ext/s3eWindow.h'
p1378
sbsS'IwBuffer.h'
p1379
g238
(g1153
g240
Ntp1380
Rp1381
(dp1382
g1157
g992
sg1158
g1199
sg268
g990
sbsS's3eOSExec.h'
p1383
g238
(g1153
g240
Ntp1384
Rp1385
(dp1386
g1157
g1165
sg1158
g1376
sg268
S'c:/marmalade/6.2/s3e/h/ext/s3eOSExec.h'
p1387
sbsS'IwGxTransformSW.h'
p1388
g238
(g1153
g240
Ntp1389
Rp1390
(dp1391
g1157
g938
sg1158
g1288
sg268
g943
sbsS'maze.cpp'
p1392
g238
(g1153
g240
Ntp1393
Rp1394
(dp1395
g1157
g1108
sg1158
(lp1396
g1102
ag1104
asg268
g1137
sbsS'imgs.group'
p1397
g238
(g1153
g240
Ntp1398
Rp1399
(dp1400
g1157
g1108
sg1158
g1181
sg268
g1145
sbsS'unistd.h'
p1401
g238
(g1153
g240
Ntp1402
Rp1403
(dp1404
g1157
g1165
sg1158
g1192
sg268
S'c:/marmalade/6.2/s3e/h/std/unistd.h'
p1405
sbsS'iwgxfont.config.txt'
p1406
g238
(g1153
g240
Ntp1407
Rp1408
(dp1409
g1157
g824
sg1158
g1159
sg268
g838
sbsS'gl2platform.h'
p1410
g238
(g1153
g240
Ntp1411
Rp1412
(dp1413
g1157
g1165
sg1158
(lp1414
g1167
aS'GL'
p1415
aS'GLES 2.0'
p1416
asg268
S'c:/marmalade/6.2/s3e/h/GLES2/gl2platform.h'
p1417
sbsS'IwResManagerClass.h'
p1418
g238
(g1153
g240
Ntp1419
Rp1420
(dp1421
g1157
g914
sg1158
(lp1422
g794
ag910
asg268
g917
sbsS'queue'
p1423
g238
(g1153
g240
Ntp1424
Rp1425
(dp1426
g1157
g1165
sg1158
g1166
sg268
S'c:/marmalade/6.2/s3e/h/std/c++/queue'
p1427
sbsS'time_1.h'
p1428
g238
(g1153
g240
Ntp1429
Rp1430
(dp1431
g1157
g1165
sg1158
g1307
sg268
S'c:/marmalade/6.2/s3e/h/std/sys/time.h'
p1432
sbsS'Iw2D.h'
p1433
g238
(g1153
g240
Ntp1434
Rp1435
(dp1436
g1157
g812
sg1158
g1249
sg268
g810
sbsS'IwGeomVec2.h'
p1437
g238
(g1153
g240
Ntp1438
Rp1439
(dp1440
g1157
g846
sg1158
g1175
sg268
g853
sbsS's3eDevice.h'
p1441
g238
(g1153
g240
Ntp1442
Rp1443
(dp1444
g1157
g1165
sg1158
g1186
sg268
S'c:/marmalade/6.2/s3e/h/s3eDevice.h'
p1445
sbsS'malloc.h'
p1446
g238
(g1153
g240
Ntp1447
Rp1448
(dp1449
g1157
g1165
sg1158
g1192
sg268
S'c:/marmalade/6.2/s3e/h/std/malloc.h'
p1450
sbsS'stdarg.h'
p1451
g238
(g1153
g240
Ntp1452
Rp1453
(dp1454
g1157
g1165
sg1158
g1192
sg268
S'c:/marmalade/6.2/s3e/h/std/stdarg.h'
p1455
sbsS'IwGeomCore.h'
p1456
g238
(g1153
g240
Ntp1457
Rp1458
(dp1459
g1157
g846
sg1158
g1175
sg268
g867
sbsS'endian.h'
p1460
g238
(g1153
g240
Ntp1461
Rp1462
(dp1463
g1157
g1165
sg1158
g1192
sg268
S'c:/marmalade/6.2/s3e/h/std/endian.h'
p1464
sbsS'glob.h'
p1465
g238
(g1153
g240
Ntp1466
Rp1467
(dp1468
g1157
g1165
sg1158
g1192
sg268
S'c:/marmalade/6.2/s3e/h/std/glob.h'
p1469
sbsS'fstream'
p1470
g238
(g1153
g240
Ntp1471
Rp1472
(dp1473
g1157
g1165
sg1158
g1166
sg268
S'c:/marmalade/6.2/s3e/h/std/c++/fstream'
p1474
sbsS's3eCamera.h'
p1475
g238
(g1153
g240
Ntp1476
Rp1477
(dp1478
g1157
g1165
sg1158
g1186
sg268
S'c:/marmalade/6.2/s3e/h/s3eCamera.h'
p1479
sbsVjconfig.h
p1480
g238
(g1153
g240
Ntp1481
Rp1482
(dp1483
g1157
g754
sg1158
g1244
sg268
g757
sbsS'memory'
p1484
g238
(g1153
g240
Ntp1485
Rp1486
(dp1487
g1157
g1165
sg1158
g1166
sg268
S'c:/marmalade/6.2/s3e/h/std/c++/memory'
p1488
sbsS'egl.h'
p1489
g238
(g1153
g240
Ntp1490
Rp1491
(dp1492
g1157
g1165
sg1158
(lp1493
g1167
aS'GL'
p1494
aS'EGL'
p1495
asg268
S'c:/marmalade/6.2/s3e/h/EGL/egl.h'
p1496
sbsS'IwClip.inl'
p1497
g238
(g1153
g240
Ntp1498
Rp1499
(dp1500
g1157
g938
sg1158
g1288
sg268
g939
sbsS'IwMemManagerDL.h'
p1501
g238
(g1153
g240
Ntp1502
Rp1503
(dp1504
g1157
g992
sg1158
g1199
sg268
g1028
sbsS'deque'
p1505
g238
(g1153
g240
Ntp1506
Rp1507
(dp1508
g1157
g1165
sg1158
g1166
sg268
S'c:/marmalade/6.2/s3e/h/std/c++/deque'
p1509
sbsS'IwString.h'
p1510
g238
(g1153
g240
Ntp1511
Rp1512
(dp1513
g1157
g992
sg1158
g1199
sg268
g1042
sbsS'cwchar'
p1514
g238
(g1153
g240
Ntp1515
Rp1516
(dp1517
g1157
g1165
sg1158
g1166
sg268
S'c:/marmalade/6.2/s3e/h/std/c++/cwchar'
p1518
sbsS'iwutil.mkf'
p1519
g238
(g1153
g240
Ntp1520
Rp1521
(dp1522
g1157
g1019
sg1158
g1199
sg268
g1017
sbsS'csignal'
p1523
g238
(g1153
g240
Ntp1524
Rp1525
(dp1526
g1157
g1165
sg1158
g1166
sg268
S'c:/marmalade/6.2/s3e/h/std/c++/csignal'
p1527
sbsS'float.h'
p1528
g238
(g1153
g240
Ntp1529
Rp1530
(dp1531
g1157
g1165
sg1158
g1192
sg268
S'c:/marmalade/6.2/s3e/h/std/float.h'
p1532
sbsS'pthread_alloc'
p1533
g238
(g1153
g240
Ntp1534
Rp1535
(dp1536
g1157
g1165
sg1158
g1166
sg268
S'c:/marmalade/6.2/s3e/h/std/c++/pthread_alloc'
p1537
sbsS'getopt.h'
p1538
g238
(g1153
g240
Ntp1539
Rp1540
(dp1541
g1157
g1165
sg1158
g1192
sg268
S'c:/marmalade/6.2/s3e/h/std/getopt.h'
p1542
sbsS'IwOptimiseARM.h'
p1543
g238
(g1153
g240
Ntp1544
Rp1545
(dp1546
g1157
g992
sg1158
g1199
sg268
g1013
sbsS'times.h'
p1547
g238
(g1153
g240
Ntp1548
Rp1549
(dp1550
g1157
g1165
sg1158
g1307
sg268
S'c:/marmalade/6.2/s3e/h/std/sys/times.h'
p1551
sbsS'IwGeomFSphere.h'
p1552
g238
(g1153
g240
Ntp1553
Rp1554
(dp1555
g1157
g846
sg1158
g1175
sg268
g886
sbsS'game.h'
p1556
g238
(g1153
g240
Ntp1557
Rp1558
(dp1559
g1157
g1108
sg1158
g1396
sg268
g1127
sbsS'functional'
p1560
g238
(g1153
g240
Ntp1561
Rp1562
(dp1563
g1157
g1165
sg1158
g1166
sg268
S'c:/marmalade/6.2/s3e/h/std/c++/functional'
p1564
sbsS'IwTypes.h'
p1565
g238
(g1153
g240
Ntp1566
Rp1567
(dp1568
g1157
g992
sg1158
g1199
sg268
g1082
sbsS'IwGxMetrics.h'
p1569
g238
(g1153
g240
Ntp1570
Rp1571
(dp1572
g1157
g938
sg1158
g1288
sg268
g972
sbsS's3eCompression.h'
p1573
g238
(g1153
g240
Ntp1574
Rp1575
(dp1576
g1157
g1165
sg1158
g1186
sg268
S'c:/marmalade/6.2/s3e/h/s3eCompression.h'
p1577
sbsS'langinfo.h'
p1578
g238
(g1153
g240
Ntp1579
Rp1580
(dp1581
g1157
g1165
sg1158
g1192
sg268
S'c:/marmalade/6.2/s3e/h/std/langinfo.h'
p1582
sbsS's3edebugHeap.h'
p1583
g238
(g1153
g240
Ntp1584
Rp1585
(dp1586
g1157
g1165
sg1158
g1376
sg268
S'c:/marmalade/6.2/s3e/h/ext/s3edebugHeap.h'
p1587
sbsS'AirplayVersion.h'
p1588
g238
(g1153
g240
Ntp1589
Rp1590
(dp1591
g1157
g1165
sg1158
g1186
sg268
S'c:/marmalade/6.2/s3e/h/AirplayVersion.h'
p1592
sbsS'gl2extimg.h'
p1593
g238
(g1153
g240
Ntp1594
Rp1595
(dp1596
g1157
g1165
sg1158
g1414
sg268
S'c:/marmalade/6.2/s3e/h/GLES2/gl2extimg.h'
p1597
sbsS'app.config.txt'
p1598
g238
(g1153
g240
Ntp1599
Rp1600
(dp1601
g1157
(dp1602
sg1158
g4
sg268
S'c:/Users/1106786/Dropbox/Dropbox/PG life/Project Impact/Code/Demos/Demo_3_LoadTileInfo_Audio/data/app.config.txt'
p1603
sbsS'IwGeomSqrt.h'
p1604
g238
(g1153
g240
Ntp1605
Rp1606
(dp1607
g1157
g846
sg1158
g1175
sg268
g861
sbsVtiniconv_int.h
p1608
g238
(g1153
g240
Ntp1609
Rp1610
(dp1611
g1157
g791
sg1158
(lp1612
g784
asg268
g792
sbsS'syslog.h'
p1613
g238
(g1153
g240
Ntp1614
Rp1615
(dp1616
g1157
g1165
sg1158
g1192
sg268
S'c:/marmalade/6.2/s3e/h/std/syslog.h'
p1617
sbsS'IwGxFontTypes.h'
p1618
g238
(g1153
g240
Ntp1619
Rp1620
(dp1621
g1157
g824
sg1158
g1159
sg268
g836
sbsS'IwGeomFIntersect.h'
p1622
g238
(g1153
g240
Ntp1623
Rp1624
(dp1625
g1157
g846
sg1158
g1175
sg268
g863
sbsS'hash_map'
p1626
g238
(g1153
g240
Ntp1627
Rp1628
(dp1629
g1157
g1165
sg1158
g1166
sg268
S'c:/marmalade/6.2/s3e/h/std/c++/hash_map'
p1630
sbsS's3e.mkf'
p1631
g238
(g1153
g240
Ntp1632
Rp1633
(dp1634
g1157
(dp1635
sg1158
g1186
sg268
S'c:/marmalade/6.2/s3e/s3e.mkf'
p1636
sbsS's3eOSReadString.h'
p1637
g238
(g1153
g240
Ntp1638
Rp1639
(dp1640
g1157
g1165
sg1158
g1376
sg268
S'c:/marmalade/6.2/s3e/h/ext/s3eOSReadString.h'
p1641
sbsS'map'
p1642
g238
(g1153
g240
Ntp1643
Rp1644
(dp1645
g1157
g1165
sg1158
g1166
sg268
S'c:/marmalade/6.2/s3e/h/std/c++/map'
p1646
sbsS'IwOptimiseSpeed.h'
p1647
g238
(g1153
g240
Ntp1648
Rp1649
(dp1650
g1157
g992
sg1158
g1199
sg268
g1001
sbsS'msl_string.h'
p1651
g238
(g1153
g240
Ntp1652
Rp1653
(dp1654
g1157
g1165
sg1158
g1166
sg268
S'c:/marmalade/6.2/s3e/h/std/c++/msl_string.h'
p1655
sbsS'select.h'
p1656
g238
(g1153
g240
Ntp1657
Rp1658
(dp1659
g1157
g1165
sg1158
g1307
sg268
S'c:/marmalade/6.2/s3e/h/std/sys/select.h'
p1660
sbsVzlib.mkf
p1661
g238
(g1153
g240
Ntp1662
Rp1663
(dp1664
g1157
g1101
sg1158
(lp1665
g1092
asg268
g1099
sbsS'signal.h'
p1666
g238
(g1153
g240
Ntp1667
Rp1668
(dp1669
g1157
g1165
sg1158
g1192
sg268
S'c:/marmalade/6.2/s3e/h/std/signal.h'
p1670
sbsS'sigcontext.h'
p1671
g238
(g1153
g240
Ntp1672
Rp1673
(dp1674
g1157
g1165
sg1158
g1192
sg268
S'c:/marmalade/6.2/s3e/h/std/sigcontext.h'
p1675
sbsVlibpng.mkf
p1676
g238
(g1153
g240
Ntp1677
Rp1678
(dp1679
g1157
g744
sg1158
(lp1680
g740
asg268
g742
sbsS's3eClipboard.h'
p1681
g238
(g1153
g240
Ntp1682
Rp1683
(dp1684
g1157
g1165
sg1158
g1186
sg268
S'c:/marmalade/6.2/s3e/h/s3eClipboard.h'
p1685
sbsS'IwGxFuncTable.h'
p1686
g238
(g1153
g240
Ntp1687
Rp1688
(dp1689
g1157
g938
sg1158
g1288
sg268
g936
sbsS'IwResHandlerGROUP.h'
p1690
g238
(g1153
g240
Ntp1691
Rp1692
(dp1693
g1157
g914
sg1158
g1422
sg268
g915
sbsS's3eDebug.h'
p1694
g238
(g1153
g240
Ntp1695
Rp1696
(dp1697
g1157
g1165
sg1158
g1186
sg268
S'c:/marmalade/6.2/s3e/h/s3eDebug.h'
p1698
sbsS'socket.h'
p1699
g238
(g1153
g240
Ntp1700
Rp1701
(dp1702
g1157
g1165
sg1158
g1307
sg268
S'c:/marmalade/6.2/s3e/h/std/sys/socket.h'
p1703
sbsS'glext.h'
p1704
g238
(g1153
g240
Ntp1705
Rp1706
(dp1707
g1157
g1165
sg1158
(lp1708
g1167
aS'GL'
p1709
aS'GLES 1.x'
p1710
asg268
S'c:/marmalade/6.2/s3e/h/GLES/glext.h'
p1711
sbsS'typeinfo.h'
p1712
g238
(g1153
g240
Ntp1713
Rp1714
(dp1715
g1157
g1165
sg1158
g1166
sg268
S'c:/marmalade/6.2/s3e/h/std/c++/typeinfo.h'
p1716
sbsS'typeinfo'
p1717
g238
(g1153
g240
Ntp1718
Rp1719
(dp1720
g1157
g1165
sg1158
g1166
sg268
S'c:/marmalade/6.2/s3e/h/std/c++/typeinfo'
p1721
sbsS'fstream.h'
p1722
g238
(g1153
g240
Ntp1723
Rp1724
(dp1725
g1157
g1165
sg1158
g1166
sg268
S'c:/marmalade/6.2/s3e/h/std/c++/fstream.h'
p1726
sbsS's3ePointer.h'
p1727
g238
(g1153
g240
Ntp1728
Rp1729
(dp1730
g1157
g1165
sg1158
g1186
sg268
S'c:/marmalade/6.2/s3e/h/s3ePointer.h'
p1731
sbsS'iw2d.mkf'
p1732
g238
(g1153
g240
Ntp1733
Rp1734
(dp1735
g1157
g819
sg1158
g1249
sg268
g817
sbsS's3eGL.h'
p1736
g238
(g1153
g240
Ntp1737
Rp1738
(dp1739
g1157
g1165
sg1158
g1186
sg268
S'c:/marmalade/6.2/s3e/h/s3eGL.h'
p1740
sbsS'IwGeomFVec2.h'
p1741
g238
(g1153
g240
Ntp1742
Rp1743
(dp1744
g1157
g846
sg1158
g1175
sg268
g898
sbsS'IwGeomSVec4.h'
p1745
g238
(g1153
g240
Ntp1746
Rp1747
(dp1748
g1157
g846
sg1158
g1175
sg268
g865
sbsS'poll.h'
p1749
g238
(g1153
g240
Ntp1750
Rp1751
(dp1752
g1157
g1165
sg1158
g1192
sg268
S'c:/marmalade/6.2/s3e/h/std/poll.h'
p1753
sbsS'IwMatAnim.h'
p1754
g238
(g1153
g240
Ntp1755
Rp1756
(dp1757
g1157
g938
sg1158
g1288
sg268
g982
sbsS'IwGeomFVec4.h'
p1758
g238
(g1153
g240
Ntp1759
Rp1760
(dp1761
g1157
g846
sg1158
g1175
sg268
g851
sbsS'IwGx.h'
p1762
g238
(g1153
g240
Ntp1763
Rp1764
(dp1765
g1157
g938
sg1158
g1288
sg268
g976
sbsS'valarray'
p1766
g238
(g1153
g240
Ntp1767
Rp1768
(dp1769
g1157
g1165
sg1158
g1166
sg268
S'c:/marmalade/6.2/s3e/h/std/c++/valarray'
p1770
sbsS'iosfwd'
p1771
g238
(g1153
g240
Ntp1772
Rp1773
(dp1774
g1157
g1165
sg1158
g1166
sg268
S'c:/marmalade/6.2/s3e/h/std/c++/iosfwd'
p1775
sbsS'gl2.h'
p1776
g238
(g1153
g240
Ntp1777
Rp1778
(dp1779
g1157
g1165
sg1158
g1414
sg268
S'c:/marmalade/6.2/s3e/h/GLES2/gl2.h'
p1780
sbsS'IwManagedList.h'
p1781
g238
(g1153
g240
Ntp1782
Rp1783
(dp1784
g1157
g992
sg1158
g1199
sg268
g1034
sbsS'stdiostream.h'
p1785
g238
(g1153
g240
Ntp1786
Rp1787
(dp1788
g1157
g1165
sg1158
g1166
sg268
S'c:/marmalade/6.2/s3e/h/std/c++/stdiostream.h'
p1789
sbsS'mem.h'
p1790
g238
(g1153
g240
Ntp1791
Rp1792
(dp1793
g1157
g1165
sg1158
g1166
sg268
S'c:/marmalade/6.2/s3e/h/std/c++/mem.h'
p1794
sbsVjerror.h
p1795
g238
(g1153
g240
Ntp1796
Rp1797
(dp1798
g1157
g754
sg1158
g1244
sg268
g761
sbsVzconf.h
p1799
g238
(g1153
g240
Ntp1800
Rp1801
(dp1802
g1157
g1096
sg1158
g1665
sg268
g1094
sbsS's3e.config.txt'
p1803
g238
(g1153
g240
Ntp1804
Rp1805
(dp1806
g1157
g1165
sg1158
g1186
sg268
S'c:/marmalade/6.2/s3e/s3e.config.txt'
p1807
sbsS'numeric'
p1808
g238
(g1153
g240
Ntp1809
Rp1810
(dp1811
g1157
g1165
sg1158
g1166
sg268
S'c:/marmalade/6.2/s3e/h/std/c++/numeric'
p1812
sbsS'utime.h'
p1813
g238
(g1153
g240
Ntp1814
Rp1815
(dp1816
g1157
g1165
sg1158
g1192
sg268
S'c:/marmalade/6.2/s3e/h/std/utime.h'
p1817
sbsVjdhuff.h
p1818
g238
(g1153
g240
Ntp1819
Rp1820
(dp1821
g1157
g754
sg1158
g1244
sg268
g776
sbsS'tiles.h'
p1822
g238
(g1153
g240
Ntp1823
Rp1824
(dp1825
g1157
g1108
sg1158
g1396
sg268
g1125
sbsS'character.h'
p1826
g238
(g1153
g240
Ntp1827
Rp1828
(dp1829
g1157
g1108
sg1158
g1396
sg268
g1115
sbsS'IwGxStream.h'
p1830
g238
(g1153
g240
Ntp1831
Rp1832
(dp1833
g1157
g938
sg1158
g1288
sg268
g980
sbsS'IwImage.h'
p1834
g238
(g1153
g240
Ntp1835
Rp1836
(dp1837
g1157
g992
sg1158
g1199
sg268
g1007
sbsS's3eImagePicker.h'
p1838
g238
(g1153
g240
Ntp1839
Rp1840
(dp1841
g1157
g1165
sg1158
g1376
sg268
S'c:/marmalade/6.2/s3e/h/ext/s3eImagePicker.h'
p1842
sbsS'IwTextParserITX.h'
p1843
g238
(g1153
g240
Ntp1844
Rp1845
(dp1846
g1157
g992
sg1158
g1199
sg268
g1072
sbsS'stdlib.h'
p1847
g238
(g1153
g240
Ntp1848
Rp1849
(dp1850
g1157
g1165
sg1158
g1192
sg268
S'c:/marmalade/6.2/s3e/h/std/stdlib.h'
p1851
sbsS'IwCopyingPtr.h'
p1852
g238
(g1153
g240
Ntp1853
Rp1854
(dp1855
g1157
g992
sg1158
g1199
sg268
g1009
sbsS'iostream'
p1856
g238
(g1153
g240
Ntp1857
Rp1858
(dp1859
g1157
g1165
sg1158
g1166
sg268
S'c:/marmalade/6.2/s3e/h/std/c++/iostream'
p1860
sbsVpng.h
p1861
g238
(g1153
g240
Ntp1862
Rp1863
(dp1864
g1157
g747
sg1158
g1680
sg268
g745
sbsS'stddef.h'
p1865
g238
(g1153
g240
Ntp1866
Rp1867
(dp1868
g1157
g1165
sg1158
g1192
sg268
S'c:/marmalade/6.2/s3e/h/std/stddef.h'
p1869
sbsS'character.cpp'
p1870
g238
(g1153
g240
Ntp1871
Rp1872
(dp1873
g1157
g1108
sg1158
g1396
sg268
g1133
sbsS'setjmp_win32.h'
p1874
g238
(g1153
g240
Ntp1875
Rp1876
(dp1877
g1157
g1165
sg1158
g1192
sg268
S'c:/marmalade/6.2/s3e/h/std/setjmp_win32.h'
p1878
sbsS'IwGxPrint.h'
p1879
g238
(g1153
g240
Ntp1880
Rp1881
(dp1882
g1157
g938
sg1158
g1288
sg268
g965
sbsS'IwGeomSVec2.h'
p1883
g238
(g1153
g240
Ntp1884
Rp1885
(dp1886
g1157
g846
sg1158
g1175
sg268
g890
sbsS'streambuf.h'
p1887
g238
(g1153
g240
Ntp1888
Rp1889
(dp1890
g1157
g1165
sg1158
g1166
sg268
S'c:/marmalade/6.2/s3e/h/std/c++/streambuf.h'
p1891
sbsS'IwGeomFPlane.h'
p1892
g238
(g1153
g240
Ntp1893
Rp1894
(dp1895
g1157
g846
sg1158
g1175
sg268
g873
sbsS'wchar.h'
p1896
g238
(g1153
g240
Ntp1897
Rp1898
(dp1899
g1157
g1165
sg1158
g1192
sg268
S'c:/marmalade/6.2/s3e/h/std/wchar.h'
p1900
sbsS's3eCameraCapture.h'
p1901
g238
(g1153
g240
Ntp1902
Rp1903
(dp1904
g1157
g1165
sg1158
g1376
sg268
S'c:/marmalade/6.2/s3e/h/ext/s3eCameraCapture.h'
p1905
sbsS'eglext.h'
p1906
g238
(g1153
g240
Ntp1907
Rp1908
(dp1909
g1157
g1165
sg1158
g1493
sg268
S'c:/marmalade/6.2/s3e/h/EGL/eglext.h'
p1910
sbsS'IwResHandlerImage.h'
p1911
g238
(g1153
g240
Ntp1912
Rp1913
(dp1914
g1157
g914
sg1158
g1422
sg268
g919
sbsS'strstream.h'
p1915
g238
(g1153
g240
Ntp1916
Rp1917
(dp1918
g1157
g1165
sg1158
g1166
sg268
S'c:/marmalade/6.2/s3e/h/std/c++/strstream.h'
p1919
sbsVtiniconv.h
p1920
g238
(g1153
g240
Ntp1921
Rp1922
(dp1923
g1157
g791
sg1158
g1612
sg268
g789
sbsS'IwGLExt.h'
p1924
g238
(g1153
g240
Ntp1925
Rp1926
(dp1927
g1157
g800
sg1158
g1269
sg268
g798
sbsS'app.icf'
p1928
g238
(g1153
g240
Ntp1929
Rp1930
(dp1931
g1157
(dp1932
sg1158
g4
sg268
S'c:/Users/1106786/Dropbox/Dropbox/PG life/Project Impact/Code/Demos/Demo_3_LoadTileInfo_Audio/data/app.icf'
p1933
sbsS'IwClassFactory.h'
p1934
g238
(g1153
g240
Ntp1935
Rp1936
(dp1937
g1157
g992
sg1158
g1199
sg268
g1064
sbsS'file.h'
p1938
g238
(g1153
g240
Ntp1939
Rp1940
(dp1941
g1157
g1165
sg1158
g1307
sg268
S'c:/marmalade/6.2/s3e/h/std/sys/file.h'
p1942
sbsS'cstring'
p1943
g238
(g1153
g240
Ntp1944
Rp1945
(dp1946
g1157
g1165
sg1158
g1166
sg268
S'c:/marmalade/6.2/s3e/h/std/c++/cstring'
p1947
sbsS'iwutil.config.txt'
p1948
g238
(g1153
g240
Ntp1949
Rp1950
(dp1951
g1157
g992
sg1158
g1199
sg268
g997
sbsS's3eSMS.h'
p1952
g238
(g1153
g240
Ntp1953
Rp1954
(dp1955
g1157
g1165
sg1158
g1376
sg268
S'c:/marmalade/6.2/s3e/h/ext/s3eSMS.h'
p1956
sbsS'limits.h'
p1957
g238
(g1153
g240
Ntp1958
Rp1959
(dp1960
g1157
g1165
sg1158
g1192
sg268
S'c:/marmalade/6.2/s3e/h/std/limits.h'
p1961
sbsS'iwgl.config.txt'
p1962
g238
(g1153
g240
Ntp1963
Rp1964
(dp1965
g1157
g800
sg1158
g1269
sg268
g801
sbsS'iwgx_public.defines.txt'
p1966
g238
(g1153
g240
Ntp1967
Rp1968
(dp1969
g1157
g938
sg1158
g1288
sg268
g945
sbsS'IwMaterial.h'
p1970
g238
(g1153
g240
Ntp1971
Rp1972
(dp1973
g1157
g938
sg1158
g1288
sg268
g963
sbsS'IwGxSurface.h'
p1974
g238
(g1153
g240
Ntp1975
Rp1976
(dp1977
g1157
g938
sg1158
g1288
sg268
g974
sbsS's3eSocket.h'
p1978
g238
(g1153
g240
Ntp1979
Rp1980
(dp1981
g1157
g1165
sg1158
g1186
sg268
S'c:/marmalade/6.2/s3e/h/s3eSocket.h'
p1982
sbsS'IwAutoFile.h'
p1983
g238
(g1153
g240
Ntp1984
Rp1985
(dp1986
g1157
g992
sg1158
g1199
sg268
g1066
sbsS'ipc.h'
p1987
g238
(g1153
g240
Ntp1988
Rp1989
(dp1990
g1157
g1165
sg1158
g1307
sg268
S'c:/marmalade/6.2/s3e/h/std/sys/ipc.h'
p1991
sbsS'poll_1.h'
p1992
g238
(g1153
g240
Ntp1993
Rp1994
(dp1995
g1157
g1165
sg1158
g1307
sg268
S'c:/marmalade/6.2/s3e/h/std/sys/poll.h'
p1996
sbsS's3eThread.h'
p1997
g238
(g1153
g240
Ntp1998
Rp1999
(dp2000
g1157
g1165
sg1158
g1186
sg268
S'c:/marmalade/6.2/s3e/h/s3eThread.h'
p2001
sbsS'ucontext.h'
p2002
g238
(g1153
g240
Ntp2003
Rp2004
(dp2005
g1157
g1165
sg1158
g1192
sg268
S'c:/marmalade/6.2/s3e/h/std/ucontext.h'
p2006
sbsS'time.h'
p2007
g238
(g1153
g240
Ntp2008
Rp2009
(dp2010
g1157
g1165
sg1158
g1192
sg268
S'c:/marmalade/6.2/s3e/h/std/time.h'
p2011
sbsVjchuff.h
p2012
g238
(g1153
g240
Ntp2013
Rp2014
(dp2015
g1157
g754
sg1158
g1244
sg268
g780
sbsS's3eSoundRecord.h'
p2016
g238
(g1153
g240
Ntp2017
Rp2018
(dp2019
g1157
g1165
sg1158
g1186
sg268
S'c:/marmalade/6.2/s3e/h/s3eSoundRecord.h'
p2020
sbsS'IwFibre.h'
p2021
g238
(g1153
g240
Ntp2022
Rp2023
(dp2024
g1157
g992
sg1158
g1199
sg268
g1090
sbsS's3eVersion.h'
p2025
g238
(g1153
g240
Ntp2026
Rp2027
(dp2028
g1157
g1165
sg1158
g1186
sg268
S'c:/marmalade/6.2/s3e/h/s3eVersion.h'
p2029
sbsS'input.cpp'
p2030
g238
(g1153
g240
Ntp2031
Rp2032
(dp2033
g1157
g1108
sg1158
g1396
sg268
g1117
sbsS'IwGxFontGlyph.h'
p2034
g238
(g1153
g240
Ntp2035
Rp2036
(dp2037
g1157
g824
sg1158
g1159
sg268
g830
sbsS's3eTypes.h'
p2038
g238
(g1153
g240
Ntp2039
Rp2040
(dp2041
g1157
g1165
sg1158
g1186
sg268
S'c:/marmalade/6.2/s3e/h/s3eTypes.h'
p2042
sbsS'signal_2.h'
p2043
g238
(g1153
g240
Ntp2044
Rp2045
(dp2046
g1157
g1165
sg1158
g1166
sg268
S'c:/marmalade/6.2/s3e/h/std/c++/signal.h'
p2047
sbsS'termios.h'
p2048
g238
(g1153
g240
Ntp2049
Rp2050
(dp2051
g1157
g1165
sg1158
g1192
sg268
S'c:/marmalade/6.2/s3e/h/std/termios.h'
p2052
sbsS'slist'
p2053
g238
(g1153
g240
Ntp2054
Rp2055
(dp2056
g1157
g1165
sg1158
g1166
sg268
S'c:/marmalade/6.2/s3e/h/std/c++/slist'
p2057
sbsS'cstdlib'
p2058
g238
(g1153
g240
Ntp2059
Rp2060
(dp2061
g1157
g1165
sg1158
g1166
sg268
S'c:/marmalade/6.2/s3e/h/std/c++/cstdlib'
p2062
sbsS's3eLocation.h'
p2063
g238
(g1153
g240
Ntp2064
Rp2065
(dp2066
g1157
g1165
sg1158
g1186
sg268
S'c:/marmalade/6.2/s3e/h/s3eLocation.h'
p2067
sbsS'IwMemBucketHelpers.h'
p2068
g238
(g1153
g240
Ntp2069
Rp2070
(dp2071
g1157
g992
sg1158
g1199
sg268
g1062
sbsS's3eHash.h'
p2072
g238
(g1153
g240
Ntp2073
Rp2074
(dp2075
g1157
g1165
sg1158
g1186
sg268
S'c:/marmalade/6.2/s3e/h/s3eHash.h'
p2076
sbsS'IwGeomFMat.h'
p2077
g238
(g1153
g240
Ntp2078
Rp2079
(dp2080
g1157
g846
sg1158
g1175
sg268
g896
sbsS'type_traits.h'
p2081
g238
(g1153
g240
Ntp2082
Rp2083
(dp2084
g1157
g1165
sg1158
g1166
sg268
S'c:/marmalade/6.2/s3e/h/std/c++/type_traits.h'
p2085
sbsS'IwMenu.h'
p2086
g238
(g1153
g240
Ntp2087
Rp2088
(dp2089
g1157
g992
sg1158
g1199
sg268
g1036
sbsS'IwResHandlerITX.h'
p2090
g238
(g1153
g240
Ntp2091
Rp2092
(dp2093
g1157
g914
sg1158
g1422
sg268
g932
sbsS'IwArray.h'
p2094
g238
(g1153
g240
Ntp2095
Rp2096
(dp2097
g1157
g992
sg1158
g1199
sg268
g1038
sbsS'IwUTF8.h'
p2098
g238
(g1153
g240
Ntp2099
Rp2100
(dp2101
g1157
g992
sg1158
g1199
sg268
g1050
sbsS'math_rvct.h'
p2102
g238
(g1153
g240
Ntp2103
Rp2104
(dp2105
g1157
g1165
sg1158
g1192
sg268
S'c:/marmalade/6.2/s3e/h/std/math_rvct.h'
p2106
sbsS'IwUtil.h'
p2107
g238
(g1153
g240
Ntp2108
Rp2109
(dp2110
g1157
g992
sg1158
g1199
sg268
g1032
sbsS'IwGeomVec3.h'
p2111
g238
(g1153
g240
Ntp2112
Rp2113
(dp2114
g1157
g846
sg1158
g1175
sg268
g908
sbsS'wctype.h'
p2115
g238
(g1153
g240
Ntp2116
Rp2117
(dp2118
g1157
g1165
sg1158
g1192
sg268
S'c:/marmalade/6.2/s3e/h/std/wctype.h'
p2119
sbsS'cstddef'
p2120
g238
(g1153
g240
Ntp2121
Rp2122
(dp2123
g1157
g1165
sg1158
g1166
sg268
S'c:/marmalade/6.2/s3e/h/std/c++/cstddef'
p2124
sbsS'assert.h'
p2125
g238
(g1153
g240
Ntp2126
Rp2127
(dp2128
g1157
g1165
sg1158
g1192
sg268
S'c:/marmalade/6.2/s3e/h/std/assert.h'
p2129
sbsS'mman.h'
p2130
g238
(g1153
g240
Ntp2131
Rp2132
(dp2133
g1157
g1165
sg1158
g1307
sg268
S'c:/marmalade/6.2/s3e/h/std/sys/mman.h'
p2134
sbsS'IwRandom.h'
p2135
g238
(g1153
g240
Ntp2136
Rp2137
(dp2138
g1157
g992
sg1158
g1199
sg268
g1026
sbsS'libgen.h'
p2139
g238
(g1153
g240
Ntp2140
Rp2141
(dp2142
g1157
g1165
sg1158
g1192
sg268
S'c:/marmalade/6.2/s3e/h/std/libgen.h'
p2143
sbsS'utsname.h'
p2144
g238
(g1153
g240
Ntp2145
Rp2146
(dp2147
g1157
g1165
sg1158
g1307
sg268
S'c:/marmalade/6.2/s3e/h/std/sys/utsname.h'
p2148
sbsS'wait.h'
p2149
g238
(g1153
g240
Ntp2150
Rp2151
(dp2152
g1157
g1165
sg1158
g1307
sg268
S'c:/marmalade/6.2/s3e/h/std/sys/wait.h'
p2153
sbsS'param.h'
p2154
g238
(g1153
g240
Ntp2155
Rp2156
(dp2157
g1157
g1165
sg1158
g1307
sg268
S'c:/marmalade/6.2/s3e/h/std/sys/param.h'
p2158
sbsS'IwDivide.h'
p2159
g238
(g1153
g240
Ntp2160
Rp2161
(dp2162
g1157
g992
sg1158
g1199
sg268
g1078
sbsS'IwResManager.h'
p2163
g238
(g1153
g240
Ntp2164
Rp2165
(dp2166
g1157
g914
sg1158
g1422
sg268
g930
sbsS'ostream'
p2167
g238
(g1153
g240
Ntp2168
Rp2169
(dp2170
g1157
g1165
sg1158
g1166
sg268
S'c:/marmalade/6.2/s3e/h/std/c++/ostream'
p2171
sbsS'cwctype'
p2172
g238
(g1153
g240
Ntp2173
Rp2174
(dp2175
g1157
g1165
sg1158
g1166
sg268
S'c:/marmalade/6.2/s3e/h/std/c++/cwctype'
p2176
sbsS'set'
p2177
g238
(g1153
g240
Ntp2178
Rp2179
(dp2180
g1157
g1165
sg1158
g1166
sg268
S'c:/marmalade/6.2/s3e/h/std/c++/set'
p2181
sbsS'IwGeomSQuat.h'
p2182
g238
(g1153
g240
Ntp2183
Rp2184
(dp2185
g1157
g846
sg1158
g1175
sg268
g877
sbsS'locale'
p2186
g238
(g1153
g240
Ntp2187
Rp2188
(dp2189
g1157
g1165
sg1158
g1166
sg268
S'c:/marmalade/6.2/s3e/h/std/c++/locale'
p2190
sbsS'cstdio'
p2191
g238
(g1153
g240
Ntp2192
Rp2193
(dp2194
g1157
g1165
sg1158
g1166
sg268
S'c:/marmalade/6.2/s3e/h/std/c++/cstdio'
p2195
sbsVcdjpeg.h
p2196
g238
(g1153
g240
Ntp2197
Rp2198
(dp2199
g1157
g754
sg1158
g1244
sg268
g766
sbsS'IwList.h'
p2200
g238
(g1153
g240
Ntp2201
Rp2202
(dp2203
g1157
g992
sg1158
g1199
sg268
g1058
sbsS'inttypes.h'
p2204
g238
(g1153
g240
Ntp2205
Rp2206
(dp2207
g1157
g1165
sg1158
g1192
sg268
S'c:/marmalade/6.2/s3e/h/std/inttypes.h'
p2208
sbsS'maze.h'
p2209
g238
(g1153
g240
Ntp2210
Rp2211
(dp2212
g1157
g1108
sg1158
g1396
sg268
g1111
sbsS'dirent.h'
p2213
g238
(g1153
g240
Ntp2214
Rp2215
(dp2216
g1157
g1165
sg1158
g1192
sg268
S'c:/marmalade/6.2/s3e/h/std/dirent.h'
p2217
sbsS'IwFColour.h'
p2218
g238
(g1153
g240
Ntp2219
Rp2220
(dp2221
g1157
g938
sg1158
g1288
sg268
g957
sbsVtransupp.h
p2222
g238
(g1153
g240
Ntp2223
Rp2224
(dp2225
g1157
g754
sg1158
g1244
sg268
g778
sbsS'IwMath.h'
p2226
g238
(g1153
g240
Ntp2227
Rp2228
(dp2229
g1157
g992
sg1158
g1199
sg268
g1015
sbsS'IwGeomQuat.h'
p2230
g238
(g1153
g240
Ntp2231
Rp2232
(dp2233
g1157
g846
sg1158
g1175
sg268
g882
sbsS'glplatform.h'
p2234
g238
(g1153
g240
Ntp2235
Rp2236
(dp2237
g1157
g1165
sg1158
g1708
sg268
S'c:/marmalade/6.2/s3e/h/GLES/glplatform.h'
p2238
sbsS'bitset'
p2239
g238
(g1153
g240
Ntp2240
Rp2241
(dp2242
g1157
g1165
sg1158
g1166
sg268
S'c:/marmalade/6.2/s3e/h/std/c++/bitset'
p2243
sbsS'alloca.h'
p2244
g238
(g1153
g240
Ntp2245
Rp2246
(dp2247
g1157
g1165
sg1158
g1192
sg268
S'c:/marmalade/6.2/s3e/h/std/alloca.h'
p2248
sbsS'IwResHandler.h'
p2249
g238
(g1153
g240
Ntp2250
Rp2251
(dp2252
g1157
g914
sg1158
g1422
sg268
g923
sbsS'IwResHandlerMTL.h'
p2253
g238
(g1153
g240
Ntp2254
Rp2255
(dp2256
g1157
g938
sg1158
g1288
sg268
g949
sbsS'IwRuntime.h'
p2257
g238
(g1153
g240
Ntp2258
Rp2259
(dp2260
g1157
g992
sg1158
g1199
sg268
g1052
sbsS'limits'
p2261
g238
(g1153
g240
Ntp2262
Rp2263
(dp2264
g1157
g1165
sg1158
g1166
sg268
S'c:/marmalade/6.2/s3e/h/std/c++/limits'
p2265
sbsS'IwGeomBBox.h'
p2266
g238
(g1153
g240
Ntp2267
Rp2268
(dp2269
g1157
g846
sg1158
g1175
sg268
g869
sbsS's3eContacts.h'
p2270
g238
(g1153
g240
Ntp2271
Rp2272
(dp2273
g1157
g1165
sg1158
g1186
sg268
S'c:/marmalade/6.2/s3e/h/s3eContacts.h'
p2274
sbsS's3eLicense.h'
p2275
g238
(g1153
g240
Ntp2276
Rp2277
(dp2278
g1157
g1165
sg1158
g1186
sg268
S'c:/marmalade/6.2/s3e/h/s3eLicense.h'
p2279
sbsS'iwgx.config.txt'
p2280
g238
(g1153
g240
Ntp2281
Rp2282
(dp2283
g1157
g938
sg1158
g1288
sg268
g951
sbsS'IwTextParser.h'
p2284
g238
(g1153
g240
Ntp2285
Rp2286
(dp2287
g1157
g992
sg1158
g1199
sg268
g1074
sbsS's3eTimer.h'
p2288
g238
(g1153
g240
Ntp2289
Rp2290
(dp2291
g1157
g1165
sg1158
g1186
sg268
S'c:/marmalade/6.2/s3e/h/s3eTimer.h'
p2292
sbsS'IwGeomVec.h'
p2293
g238
(g1153
g240
Ntp2294
Rp2295
(dp2296
g1157
g846
sg1158
g1175
sg268
g906
sbsS'IwSerialise.h'
p2297
g238
(g1153
g240
Ntp2298
Rp2299
(dp2300
g1157
g992
sg1158
g1199
sg268
g1003
sbsS'obstacle.cpp'
p2301
g238
(g1153
g240
Ntp2302
Rp2303
(dp2304
g1157
g1108
sg1158
g1396
sg268
g1113
sbsS'gl2ext.h'
p2305
g238
(g1153
g240
Ntp2306
Rp2307
(dp2308
g1157
g1165
sg1158
g1414
sg268
S'c:/marmalade/6.2/s3e/h/GLES2/gl2ext.h'
p2309
sbsS'IwChar.h'
p2310
g238
(g1153
g240
Ntp2311
Rp2312
(dp2313
g1157
g992
sg1158
g1199
sg268
g1088
sbsS's3eSound.h'
p2314
g238
(g1153
g240
Ntp2315
Rp2316
(dp2317
g1157
g1165
sg1158
g1186
sg268
S'c:/marmalade/6.2/s3e/h/s3eSound.h'
p2318
sbsS'IwOptimiseThumb.h'
p2319
g238
(g1153
g240
Ntp2320
Rp2321
(dp2322
g1157
g992
sg1158
g1199
sg268
g1056
sbsS'exception.h'
p2323
g238
(g1153
g240
Ntp2324
Rp2325
(dp2326
g1157
g1165
sg1158
g1166
sg268
S'c:/marmalade/6.2/s3e/h/std/c++/exception.h'
p2327
sbsS'iwgeom.config.txt'
p2328
g238
(g1153
g240
Ntp2329
Rp2330
(dp2331
g1157
g846
sg1158
g1175
sg268
g875
sbsS'iwgx.mkf'
p2332
g238
(g1153
g240
Ntp2333
Rp2334
(dp2335
g1157
g971
sg1158
g1288
sg268
g969
sbsS'gl.h'
p2336
g238
(g1153
g240
Ntp2337
Rp2338
(dp2339
g1157
g1165
sg1158
g1708
sg268
S'c:/marmalade/6.2/s3e/h/GLES/gl.h'
p2340
sbsVzlib.h
p2341
g238
(g1153
g240
Ntp2342
Rp2343
(dp2344
g1157
g1096
sg1158
g1665
sg268
g1097
sbsS'iwgl.mkf'
p2345
g238
(g1153
g240
Ntp2346
Rp2347
(dp2348
g1157
g807
sg1158
g1269
sg268
g805
sbsS'IwColour.h'
p2349
g238
(g1153
g240
Ntp2350
Rp2351
(dp2352
g1157
g938
sg1158
g1288
sg268
g961
sbsS's3eLibrary.h'
p2353
g238
(g1153
g240
Ntp2354
Rp2355
(dp2356
g1157
g1165
sg1158
g1376
sg268
S'c:/marmalade/6.2/s3e/h/ext/s3eLibrary.h'
p2357
sbsS'types.h'
p2358
g238
(g1153
g240
Ntp2359
Rp2360
(dp2361
g1157
g1165
sg1158
g1307
sg268
S'c:/marmalade/6.2/s3e/h/std/sys/types.h'
p2362
sbsS'ifaddrs.h'
p2363
g238
(g1153
g240
Ntp2364
Rp2365
(dp2366
g1157
g1165
sg1158
g1192
sg268
S'c:/marmalade/6.2/s3e/h/std/ifaddrs.h'
p2367
sbsS'strstream'
p2368
g238
(g1153
g240
Ntp2369
Rp2370
(dp2371
g1157
g1165
sg1158
g1166
sg268
S'c:/marmalade/6.2/s3e/h/std/c++/strstream'
p2372
sbsS'exception'
p2373
g238
(g1153
g240
Ntp2374
Rp2375
(dp2376
g1157
g1165
sg1158
g1166
sg268
S'c:/marmalade/6.2/s3e/h/std/c++/exception'
p2377
sbsS'rlocks.h'
p2378
g238
(g1153
g240
Ntp2379
Rp2380
(dp2381
g1157
g1165
sg1158
g1166
sg268
S'c:/marmalade/6.2/s3e/h/std/c++/rlocks.h'
p2382
sbsS'ioctl.h'
p2383
g238
(g1153
g240
Ntp2384
Rp2385
(dp2386
g1157
g1165
sg1158
g1307
sg268
S'c:/marmalade/6.2/s3e/h/std/sys/ioctl.h'
p2387
sbsS'rope'
p2388
g238
(g1153
g240
Ntp2389
Rp2390
(dp2391
g1157
g1165
sg1158
g1166
sg268
S'c:/marmalade/6.2/s3e/h/std/c++/rope'
p2392
sbsVjinclude.h
p2393
g238
(g1153
g240
Ntp2394
Rp2395
(dp2396
g1157
g754
sg1158
g1244
sg268
g770
sbsS'IwEvent.h'
p2397
g238
(g1153
g240
Ntp2398
Rp2399
(dp2400
g1157
g992
sg1158
g1199
sg268
g1086
sbsS'IwOptimiseSize.h'
p2401
g238
(g1153
g240
Ntp2402
Rp2403
(dp2404
g1157
g992
sg1158
g1199
sg268
g1040
sbsS'iwgxfont_public.defines.txt'
p2405
g238
(g1153
g240
Ntp2406
Rp2407
(dp2408
g1157
g824
sg1158
g1159
sg268
g822
sbsS'iconv.h'
p2409
g238
(g1153
g240
Ntp2410
Rp2411
(dp2412
g1157
g1165
sg1158
g1192
sg268
S'c:/marmalade/6.2/s3e/h/std/iconv.h'
p2413
sbsS'sendfile.h'
p2414
g238
(g1153
g240
Ntp2415
Rp2416
(dp2417
g1157
g1165
sg1158
g1307
sg268
S'c:/marmalade/6.2/s3e/h/std/sys/sendfile.h'
p2418
sbsS'IwGeomSphere.h'
p2419
g238
(g1153
g240
Ntp2420
Rp2421
(dp2422
g1157
g846
sg1158
g1175
sg268
g892
sbsVtiniconv.mkf
p2423
g238
(g1153
g240
Ntp2424
Rp2425
(dp2426
g1157
g788
sg1158
g1612
sg268
g786
sbsVjdct.h
p2427
g238
(g1153
g240
Ntp2428
Rp2429
(dp2430
g1157
g754
sg1158
g1244
sg268
g772
sbsS'cctype'
p2431
g238
(g1153
g240
Ntp2432
Rp2433
(dp2434
g1157
g1165
sg1158
g1166
sg268
S'c:/marmalade/6.2/s3e/h/std/c++/cctype'
p2435
sbsS's3eConfig.h'
p2436
g238
(g1153
g240
Ntp2437
Rp2438
(dp2439
g1157
g1165
sg1158
g1186
sg268
S'c:/marmalade/6.2/s3e/h/s3eConfig.h'
p2440
sbsS'IwHashString.h'
p2441
g238
(g1153
g240
Ntp2442
Rp2443
(dp2444
g1157
g992
sg1158
g1199
sg268
g1080
sbsS'stat.h'
p2445
g238
(g1153
g240
Ntp2446
Rp2447
(dp2448
g1157
g1165
sg1158
g1307
sg268
S'c:/marmalade/6.2/s3e/h/std/sys/stat.h'
p2449
sbsS'byteswap.h'
p2450
g238
(g1153
g240
Ntp2451
Rp2452
(dp2453
g1157
g1165
sg1158
g1192
sg268
S'c:/marmalade/6.2/s3e/h/std/byteswap.h'
p2454
sbsS'iwresmanager.mkf'
p2455
g238
(g1153
g240
Ntp2456
Rp2457
(dp2458
g1157
g927
sg1158
g1422
sg268
g925
sbsS'IwUtilInitTerm.h'
p2459
g238
(g1153
g240
Ntp2460
Rp2461
(dp2462
g1157
g992
sg1158
g1199
sg268
g1011
sbsS'pthread_1.h'
p2463
g238
(g1153
g240
Ntp2464
Rp2465
(dp2466
g1157
g1165
sg1158
g1166
sg268
S'c:/marmalade/6.2/s3e/h/std/c++/pthread.h'
p2467
sbsS'IwMemBucket.h'
p2468
g238
(g1153
g240
Ntp2469
Rp2470
(dp2471
g1157
g992
sg1158
g1199
sg268
g1048
sbsS'complex'
p2472
g238
(g1153
g240
Ntp2473
Rp2474
(dp2475
g1157
g1165
sg1158
g1166
sg268
S'c:/marmalade/6.2/s3e/h/std/c++/complex'
p2476
sbsS'game.cpp'
p2477
g238
(g1153
g240
Ntp2478
Rp2479
(dp2480
g1157
g1108
sg1158
g1396
sg268
g1139
sbsS's3e.icf'
p2481
g238
(g1153
g240
Ntp2482
Rp2483
(dp2484
g1157
g1165
sg1158
g1186
sg268
S'c:/marmalade/6.2/s3e/s3e.icf'
p2485
sbsS'IwVariableBitField.h'
p2486
g238
(g1153
g240
Ntp2487
Rp2488
(dp2489
g1157
g992
sg1158
g1199
sg268
g1054
sbsS'sem.h'
p2490
g238
(g1153
g240
Ntp2491
Rp2492
(dp2493
g1157
g1165
sg1158
g1307
sg268
S'c:/marmalade/6.2/s3e/h/std/sys/sem.h'
p2494
sbsS'IwGxFontState.h'
p2495
g238
(g1153
g240
Ntp2496
Rp2497
(dp2498
g1157
g824
sg1158
g1159
sg268
g828
sbsS'stdio.h'
p2499
g238
(g1153
g240
Ntp2500
Rp2501
(dp2502
g1157
g1165
sg1158
g1192
sg268
S'c:/marmalade/6.2/s3e/h/std/stdio.h'
p2503
sbsVjmemsys.h
p2504
g238
(g1153
g240
Ntp2505
Rp2506
(dp2507
g1157
g754
sg1158
g1244
sg268
g752
sbsS'ios'
p2508
g238
(g1153
g240
Ntp2509
Rp2510
(dp2511
g1157
g1165
sg1158
g1166
sg268
S'c:/marmalade/6.2/s3e/h/std/c++/ios'
p2512
sbsS'stack'
p2513
g238
(g1153
g240
Ntp2514
Rp2515
(dp2516
g1157
g1165
sg1158
g1166
sg268
S'c:/marmalade/6.2/s3e/h/std/c++/stack'
p2517
sbsS'new.h'
p2518
g238
(g1153
g240
Ntp2519
Rp2520
(dp2521
g1157
g1165
sg1158
g1166
sg268
S'c:/marmalade/6.2/s3e/h/std/c++/new.h'
p2522
sbsS's3eEMail.h'
p2523
g238
(g1153
g240
Ntp2524
Rp2525
(dp2526
g1157
g1165
sg1158
g1376
sg268
S'c:/marmalade/6.2/s3e/h/ext/s3eEMail.h'
p2527
sbsS's3eVideo.h'
p2528
g238
(g1153
g240
Ntp2529
Rp2530
(dp2531
g1157
g1165
sg1158
g1186
sg268
S'c:/marmalade/6.2/s3e/h/s3eVideo.h'
p2532
sbsS'IwFile.h'
p2533
g238
(g1153
g240
Ntp2534
Rp2535
(dp2536
g1157
g992
sg1158
g1199
sg268
g995
sbsS'pwd.h'
p2537
g238
(g1153
g240
Ntp2538
Rp2539
(dp2540
g1157
g1165
sg1158
g1192
sg268
S'c:/marmalade/6.2/s3e/h/std/pwd.h'
p2541
sbsS'IwClip.h'
p2542
g238
(g1153
g240
Ntp2543
Rp2544
(dp2545
g1157
g938
sg1158
g1288
sg268
g984
sbsS'iwresmanager.config.txt'
p2546
g238
(g1153
g240
Ntp2547
Rp2548
(dp2549
g1157
g914
sg1158
g1422
sg268
g921
sbsS'IwGxShaderTechnique.h'
p2550
g238
(g1153
g240
Ntp2551
Rp2552
(dp2553
g1157
g938
sg1158
g1288
sg268
g978
sbsS'IwCore.h'
p2554
g238
(g1153
g240
Ntp2555
Rp2556
(dp2557
g1157
g992
sg1158
g1199
sg268
g999
sbsS'cfloat'
p2558
g238
(g1153
g240
Ntp2559
Rp2560
(dp2561
g1157
g1165
sg1158
g1166
sg268
S'c:/marmalade/6.2/s3e/h/std/c++/cfloat'
p2562
sbsS'IwGeomMat2D.h'
p2563
g238
(g1153
g240
Ntp2564
Rp2565
(dp2566
g1157
g846
sg1158
g1175
sg268
g884
sbsS'IwAllocator.h'
p2567
g238
(g1153
g240
Ntp2568
Rp2569
(dp2570
g1157
g992
sg1158
g1199
sg268
g1068
sbsS'IwPath.h'
p2571
g238
(g1153
g240
Ntp2572
Rp2573
(dp2574
g1157
g992
sg1158
g1199
sg268
g1005
sbsS'tiles.cpp'
p2575
g238
(g1153
g240
Ntp2576
Rp2577
(dp2578
g1157
g1108
sg1158
g1396
sg268
g1135
sbsS'iwgxfont.mkf'
p2579
g238
(g1153
g240
Ntp2580
Rp2581
(dp2582
g1157
g827
sg1158
g1159
sg268
g825
sbsS'IwTexture.h'
p2583
g238
(g1153
g240
Ntp2584
Rp2585
(dp2586
g1157
g938
sg1158
g1288
sg268
g955
sbsS's3eAccelerometer.h'
p2587
g238
(g1153
g240
Ntp2588
Rp2589
(dp2590
g1157
g1165
sg1158
g1186
sg268
S'c:/marmalade/6.2/s3e/h/s3eAccelerometer.h'
p2591
sbsS'setjmp.h'
p2592
g238
(g1153
g240
Ntp2593
Rp2594
(dp2595
g1157
g1165
sg1158
g1192
sg268
S'c:/marmalade/6.2/s3e/h/std/setjmp.h'
p2596
sbsS'cstdarg'
p2597
g238
(g1153
g240
Ntp2598
Rp2599
(dp2600
g1157
g1165
sg1158
g1166
sg268
S'c:/marmalade/6.2/s3e/h/std/c++/cstdarg'
p2601
sbsVpngconf.h
p2602
g238
(g1153
g240
Ntp2603
Rp2604
(dp2605
g1157
g747
sg1158
g1680
sg268
g748
sbsS'IwTextParseable.h'
p2606
g238
(g1153
g240
Ntp2607
Rp2608
(dp2609
g1157
g992
sg1158
g1199
sg268
g1076
sbsS'istream.h'
p2610
g238
(g1153
g240
Ntp2611
Rp2612
(dp2613
g1157
g1165
sg1158
g1166
sg268
S'c:/marmalade/6.2/s3e/h/std/c++/istream.h'
p2614
sbsS'stdint.h'
p2615
g238
(g1153
g240
Ntp2616
Rp2617
(dp2618
g1157
g1165
sg1158
g1192
sg268
S'c:/marmalade/6.2/s3e/h/std/stdint.h'
p2619
sbsS'semaphore.h'
p2620
g238
(g1153
g240
Ntp2621
Rp2622
(dp2623
g1157
g1165
sg1158
g1192
sg268
S'c:/marmalade/6.2/s3e/h/std/semaphore.h'
p2624
sbsS'ctime'
p2625
g238
(g1153
g240
Ntp2626
Rp2627
(dp2628
g1157
g1165
sg1158
g1166
sg268
S'c:/marmalade/6.2/s3e/h/std/c++/ctime'
p2629
sbsS'sstream'
p2630
g238
(g1153
g240
Ntp2631
Rp2632
(dp2633
g1157
g1165
sg1158
g1166
sg268
S'c:/marmalade/6.2/s3e/h/std/c++/sstream'
p2634
sbsS'IwGeomFBBox.h'
p2635
g238
(g1153
g240
Ntp2636
Rp2637
(dp2638
g1157
g846
sg1158
g1175
sg268
g857
sbsS'IwDebugPrim.h'
p2639
g238
(g1153
g240
Ntp2640
Rp2641
(dp2642
g1157
g938
sg1158
g1288
sg268
g947
sbsS'IwGxFontContainer.h'
p2643
g238
(g1153
g240
Ntp2644
Rp2645
(dp2646
g1157
g824
sg1158
g1159
sg268
g834
sbsS'obstacle.h'
p2647
g238
(g1153
g240
Ntp2648
Rp2649
(dp2650
g1157
g1108
sg1158
g1396
sg268
g1123
sbsS'tile.h'
p2651
g238
(g1153
g240
Ntp2652
Rp2653
(dp2654
g1157
g1108
sg1158
g1396
sg268
g1131
sbsS'IwGeomSVec3.h'
p2655
g238
(g1153
g240
Ntp2656
Rp2657
(dp2658
g1157
g846
sg1158
g1175
sg268
g888
sbsS'cassert'
p2659
g238
(g1153
g240
Ntp2660
Rp2661
(dp2662
g1157
g1165
sg1158
g1166
sg268
S'c:/marmalade/6.2/s3e/h/std/c++/cassert'
p2663
sbsS'IwGeomFVec3.h'
p2664
g238
(g1153
g240
Ntp2665
Rp2666
(dp2667
g1157
g846
sg1158
g1175
sg268
g847
sbsS'streambuf'
p2668
g238
(g1153
g240
Ntp2669
Rp2670
(dp2671
g1157
g1165
sg1158
g1166
sg268
S'c:/marmalade/6.2/s3e/h/std/c++/streambuf'
p2672
sbsS's3eMetrics.h'
p2673
g238
(g1153
g240
Ntp2674
Rp2675
(dp2676
g1157
g1165
sg1158
g1376
sg268
S'c:/marmalade/6.2/s3e/h/ext/s3eMetrics.h'
p2677
sbsS'IwGxFont.h'
p2678
g238
(g1153
g240
Ntp2679
Rp2680
(dp2681
g1157
g824
sg1158
g1159
sg268
g840
sbsS's3eSecureStorage.h'
p2682
g238
(g1153
g240
Ntp2683
Rp2684
(dp2685
g1157
g1165
sg1158
g1186
sg268
S'c:/marmalade/6.2/s3e/h/s3eSecureStorage.h'
p2686
sbsS'map.cpp'
p2687
g238
(g1153
g240
Ntp2688
Rp2689
(dp2690
g1157
g1108
sg1158
g1396
sg268
g1106
sbsS'string.h'
p2691
g238
(g1153
g240
Ntp2692
Rp2693
(dp2694
g1157
g1165
sg1158
g1192
sg268
S'c:/marmalade/6.2/s3e/h/std/string.h'
p2695
sbsS'IwResource.h'
p2696
g238
(g1153
g240
Ntp2697
Rp2698
(dp2699
g1157
g992
sg1158
g1199
sg268
g993
sbsVlibjpeg.mkf
p2700
g238
(g1153
g240
Ntp2701
Rp2702
(dp2703
g1157
g765
sg1158
g1244
sg268
g763
sbsS'IwGxDebug.h'
p2704
g238
(g1153
g240
Ntp2705
Rp2706
(dp2707
g1157
g938
sg1158
g1288
sg268
g953
sbsS'pthread_types.h'
p2708
g238
(g1153
g240
Ntp2709
Rp2710
(dp2711
g1157
g1165
sg1158
g1192
sg268
S'c:/marmalade/6.2/s3e/h/std/pthread_types.h'
p2712
sbsS'iomanip.h'
p2713
g238
(g1153
g240
Ntp2714
Rp2715
(dp2716
g1157
g1165
sg1158
g1166
sg268
S'c:/marmalade/6.2/s3e/h/std/c++/iomanip.h'
p2717
sbsS'IwKeymap.h'
p2718
g238
(g1153
g240
Ntp2719
Rp2720
(dp2721
g1157
g992
sg1158
g1199
sg268
g1046
sbsS'IwDebug.h'
p2722
g238
(g1153
g240
Ntp2723
Rp2724
(dp2725
g1157
g992
sg1158
g1199
sg268
g1022
sbsS's3eIOSBackgroundAudio.h'
p2726
g238
(g1153
g240
Ntp2727
Rp2728
(dp2729
g1157
g1165
sg1158
g1376
sg268
S'c:/marmalade/6.2/s3e/h/ext/s3eIOSBackgroundAudio.h'
p2730
sbsS'IwGeomMenu.h'
p2731
g238
(g1153
g240
Ntp2732
Rp2733
(dp2734
g1157
g846
sg1158
g1175
sg268
g844
sbsS'IwDivTable.h'
p2735
g238
(g1153
g240
Ntp2736
Rp2737
(dp2738
g1157
g992
sg1158
g1199
sg268
g1060
sbsS'ctype.h'
p2739
g238
(g1153
g240
Ntp2740
Rp2741
(dp2742
g1157
g1165
sg1158
g1192
sg268
S'c:/marmalade/6.2/s3e/h/std/ctype.h'
p2743
sbsS'IwGeomMat.h'
p2744
g238
(g1153
g240
Ntp2745
Rp2746
(dp2747
g1157
g846
sg1158
g1175
sg268
g900
sbsS'IwResGroup.h'
p2748
g238
(g1153
g240
Ntp2749
Rp2750
(dp2751
g1157
g914
sg1158
g1422
sg268
g928
sbsS'signal_1.h'
p2752
g238
(g1153
g240
Ntp2753
Rp2754
(dp2755
g1157
g1165
sg1158
g1307
sg268
S'c:/marmalade/6.2/s3e/h/std/sys/signal.h'
p2756
sbsS'main.cpp'
p2757
g238
(g1153
g240
Ntp2758
Rp2759
(dp2760
g1157
g1108
sg1158
g1396
sg268
g1119
sbsS'shm.h'
p2761
g238
(g1153
g240
Ntp2762
Rp2763
(dp2764
g1157
g1165
sg1158
g1307
sg268
S'c:/marmalade/6.2/s3e/h/std/sys/shm.h'
p2765
sbsVjpegint.h
p2766
g238
(g1153
g240
Ntp2767
Rp2768
(dp2769
g1157
g754
sg1158
g1244
sg268
g755
sbsS'prctl.h'
p2770
g238
(g1153
g240
Ntp2771
Rp2772
(dp2773
g1157
g1165
sg1158
g1307
sg268
S'c:/marmalade/6.2/s3e/h/std/sys/prctl.h'
p2774
sbsS'un.h'
p2775
g238
(g1153
g240
Ntp2776
Rp2777
(dp2778
g1157
g1165
sg1158
g1307
sg268
S'c:/marmalade/6.2/s3e/h/std/sys/un.h'
p2779
sbsS'tile.cpp'
p2780
g238
(g1153
g240
Ntp2781
Rp2782
(dp2783
g1157
g1108
sg1158
g1396
sg268
g1129
sbsS'utility'
p2784
g238
(g1153
g240
Ntp2785
Rp2786
(dp2787
g1157
g1165
sg1158
g1166
sg268
S'c:/marmalade/6.2/s3e/h/std/c++/utility'
p2788
sbsS'input.h'
p2789
g238
(g1153
g240
Ntp2790
Rp2791
(dp2792
g1157
g1108
sg1158
g1396
sg268
g1109
sbsS'IwGeomLegacy.h'
p2793
g238
(g1153
g240
Ntp2794
Rp2795
(dp2796
g1157
g846
sg1158
g1175
sg268
g859
sbsS'IwTPage.h'
p2797
g238
(g1153
g240
Ntp2798
Rp2799
(dp2800
g1157
g938
sg1158
g1288
sg268
g967
sbsS'IwResSerialise.h'
p2801
g238
(g1153
g240
Ntp2802
Rp2803
(dp2804
g1157
g914
sg1158
g1422
sg268
g912
sbsS's3eCrypto.h'
p2805
g238
(g1153
g240
Ntp2806
Rp2807
(dp2808
g1157
g1165
sg1158
g1186
sg268
S'c:/marmalade/6.2/s3e/h/s3eCrypto.h'
p2809
sbsS's3eKeyboard.h'
p2810
g238
(g1153
g240
Ntp2811
Rp2812
(dp2813
g1157
g1165
sg1158
g1186
sg268
S'c:/marmalade/6.2/s3e/h/s3eKeyboard.h'
p2814
sbsS'fcntl.h'
p2815
g238
(g1153
g240
Ntp2816
Rp2817
(dp2818
g1157
g1165
sg1158
g1192
sg268
S'c:/marmalade/6.2/s3e/h/std/fcntl.h'
p2819
sbsS'memory.h'
p2820
g238
(g1153
g240
Ntp2821
Rp2822
(dp2823
g1157
g1165
sg1158
g1192
sg268
S'c:/marmalade/6.2/s3e/h/std/memory.h'
p2824
sbsS'pthread.h'
p2825
g238
(g1153
g240
Ntp2826
Rp2827
(dp2828
g1157
g1165
sg1158
g1192
sg268
S'c:/marmalade/6.2/s3e/h/std/pthread.h'
p2829
sbsS'IwGeomIntersect.h'
p2830
g238
(g1153
g240
Ntp2831
Rp2832
(dp2833
g1157
g846
sg1158
g1175
sg268
g855
sbsS'algorithm'
p2834
g238
(g1153
g240
Ntp2835
Rp2836
(dp2837
g1157
g1165
sg1158
g1166
sg268
S'c:/marmalade/6.2/s3e/h/std/c++/algorithm'
p2838
sbsS'egl_1.h'
p2839
g238
(g1153
g240
Ntp2840
Rp2841
(dp2842
g1157
g1165
sg1158
g1708
sg268
S'c:/marmalade/6.2/s3e/h/GLES/egl.h'
p2843
sbsS'ostream.h'
p2844
g238
(g1153
g240
Ntp2845
Rp2846
(dp2847
g1157
g1165
sg1158
g1166
sg268
S'c:/marmalade/6.2/s3e/h/std/c++/ostream.h'
p2848
sbsS'stl_user_config.h'
p2849
g238
(g1153
g240
Ntp2850
Rp2851
(dp2852
g1157
g1165
sg1158
g1166
sg268
S'c:/marmalade/6.2/s3e/h/std/c++/stl_user_config.h'
p2853
sbsS'IwProfileMenu.h'
p2854
g238
(g1153
g240
Ntp2855
Rp2856
(dp2857
g1157
g992
sg1158
g1199
sg268
g1044
sbsS'MarmaladeVersion.h'
p2858
g238
(g1153
g240
Ntp2859
Rp2860
(dp2861
g1157
g1165
sg1158
g1186
sg268
S'c:/marmalade/6.2/s3e/h/MarmaladeVersion.h'
p2862
sbsS'ios.h'
p2863
g238
(g1153
g240
Ntp2864
Rp2865
(dp2866
g1157
g1165
sg1158
g1166
sg268
S'c:/marmalade/6.2/s3e/h/std/c++/ios.h'
p2867
sbsS'IwImageHelper.h'
p2868
g238
(g1153
g240
Ntp2869
Rp2870
(dp2871
g1157
g992
sg1158
g1199
sg268
g1070
sbsS'hash_set'
p2872
g238
(g1153
g240
Ntp2873
Rp2874
(dp2875
g1157
g1165
sg1158
g1166
sg268
S'c:/marmalade/6.2/s3e/h/std/c++/hash_set'
p2876
sbsS'IwGeomFQuat.h'
p2877
g238
(g1153
g240
Ntp2878
Rp2879
(dp2880
g1157
g846
sg1158
g1175
sg268
g902
sbsVjmorecfg.h
p2881
g238
(g1153
g240
Ntp2882
Rp2883
(dp2884
g1157
g754
sg1158
g1244
sg268
g782
sbsS'eglplatform.h'
p2885
g238
(g1153
g240
Ntp2886
Rp2887
(dp2888
g1157
g1165
sg1158
g1493
sg268
S'c:/marmalade/6.2/s3e/h/EGL/eglplatform.h'
p2889
sbsS'cmath'
p2890
g238
(g1153
g240
Ntp2891
Rp2892
(dp2893
g1157
g1165
sg1158
g1166
sg268
S'c:/marmalade/6.2/s3e/h/std/c++/cmath'
p2894
sbsS'math_gcc.h'
p2895
g238
(g1153
g240
Ntp2896
Rp2897
(dp2898
g1157
g1165
sg1158
g1192
sg268
S'c:/marmalade/6.2/s3e/h/std/math_gcc.h'
p2899
sbsS's3eMemory.h'
p2900
g238
(g1153
g240
Ntp2901
Rp2902
(dp2903
g1157
g1165
sg1158
g1186
sg268
S'c:/marmalade/6.2/s3e/h/s3eMemory.h'
p2904
sbsS'strings.h'
p2905
g238
(g1153
g240
Ntp2906
Rp2907
(dp2908
g1157
g1165
sg1158
g1192
sg268
S'c:/marmalade/6.2/s3e/h/std/strings.h'
p2909
sbsS's3eFile.h'
p2910
g238
(g1153
g240
Ntp2911
Rp2912
(dp2913
g1157
g1165
sg1158
g1186
sg268
S'c:/marmalade/6.2/s3e/h/s3eFile.h'
p2914
sbsS'IwGxTypes.h'
p2915
g238
(g1153
g240
Ntp2916
Rp2917
(dp2918
g1157
g938
sg1158
g1288
sg268
g941
sbsS'cerrno'
p2919
g238
(g1153
g240
Ntp2920
Rp2921
(dp2922
g1157
g1165
sg1158
g1166
sg268
S'c:/marmalade/6.2/s3e/h/std/c++/cerrno'
p2923
sbsS'map.h'
p2924
g238
(g1153
g240
Ntp2925
Rp2926
(dp2927
g1157
g1108
sg1158
g1396
sg268
g1121
sbsS'resource.h'
p2928
g238
(g1153
g240
Ntp2929
Rp2930
(dp2931
g1157
g1165
sg1158
g1307
sg268
S'c:/marmalade/6.2/s3e/h/std/sys/resource.h'
p2932
sbsS'clocale'
p2933
g238
(g1153
g240
Ntp2934
Rp2935
(dp2936
g1157
g1165
sg1158
g1166
sg268
S'c:/marmalade/6.2/s3e/h/std/c++/clocale'
p2937
sbsS'csetjmp'
p2938
g238
(g1153
g240
Ntp2939
Rp2940
(dp2941
g1157
g1165
sg1158
g1166
sg268
S'c:/marmalade/6.2/s3e/h/std/c++/csetjmp'
p2942
sbsS'netdb.h'
p2943
g238
(g1153
g240
Ntp2944
Rp2945
(dp2946
g1157
g1165
sg1158
g1192
sg268
S'c:/marmalade/6.2/s3e/h/std/netdb.h'
p2947
sbsS's3eAndroidJNI.h'
p2948
g238
(g1153
g240
Ntp2949
Rp2950
(dp2951
g1157
g1165
sg1158
g1376
sg268
S'c:/marmalade/6.2/s3e/h/ext/s3eAndroidJNI.h'
p2952
sbsS'stdexcept'
p2953
g238
(g1153
g240
Ntp2954
Rp2955
(dp2956
g1157
g1165
sg1158
g1166
sg268
S'c:/marmalade/6.2/s3e/h/std/c++/stdexcept'
p2957
sbsS'math.h'
p2958
g238
(g1153
g240
Ntp2959
Rp2960
(dp2961
g1157
g1165
sg1158
g1192
sg268
S'c:/marmalade/6.2/s3e/h/std/math.h'
p2962
sbsS'stdbool.h'
p2963
g238
(g1153
g240
Ntp2964
Rp2965
(dp2966
g1157
g1165
sg1158
g1192
sg268
S'c:/marmalade/6.2/s3e/h/std/stdbool.h'
p2967
sbsS'uio.h'
p2968
g238
(g1153
g240
Ntp2969
Rp2970
(dp2971
g1157
g1165
sg1158
g1307
sg268
S'c:/marmalade/6.2/s3e/h/std/sys/uio.h'
p2972
sbsS'IwUncopyable.h'
p2973
g238
(g1153
g240
Ntp2974
Rp2975
(dp2976
g1157
g992
sg1158
g1199
sg268
g1020
sbssS'tests'
p2977
(lp2978
sS'project_name'
p2979
g246
sS'root_file'
p2980
g106
sS'current_root'
p2981
S'c:/Users/1106786/Dropbox/Dropbox/PG life/Project Impact/Code/Demos/Demo_3_LoadTileInfo_Audio'
p2982
sS'dependencies'
p2983
(lp2984
sS'include_paths'
p2985
(lp2986
Vc:/users/1106786/appdata/roaming/marmalade/packages/6.2.2/libjpeg_6b/h
p2987
aVc:/users/1106786/appdata/roaming/marmalade/packages/6.2.2/zlib_1.2.4/h
p2988
aVc:/users/1106786/appdata/roaming/marmalade/packages/6.2.2/libpng_1.2.34/h
p2989
aS'c:/marmalade/6.2/modules/iwutil/h'
p2990
aS'c:/marmalade/6.2/modules/iwgeom/h'
p2991
aS'c:/marmalade/6.2/modules/iwresmanager/h'
p2992
aS'c:/marmalade/6.2/modules/iwgl/h'
p2993
aS'c:/marmalade/6.2/modules/iwgx/h'
p2994
aVc:/users/1106786/appdata/roaming/marmalade/packages/6.2.2/tiniconv_1.0.1/h
p2995
aS'c:/marmalade/6.2/modules/iwgxfont/h'
p2996
aS'c:/marmalade/6.2/modules/iw2d/h'
p2997
aS'c:/users/1106786/dropbox/dropbox/pg life/project impact/code/demos/demo_3_loadtileinfo_audio/h'
p2998
aS'c:/marmalade/6.2/s3e/h'
p2999
aS'c:/marmalade/6.2/s3e/h/ext'
p3000
aS'c:/marmalade/6.2/s3e/h/std'
p3001
aS'c:/marmalade/6.2/s3e/h/std/c++'
p3002
aS'c:/marmalade/6.2/s3e/h/ext_legacy'
p3003
aS'c:/marmalade/6.2/s3e/h/legacy'
p3004
asS'weak_frameworks'
p3005
(lp3006
sS'extprojects'
p3007
(dp3008
sg484
(dp3009
g478
(lp3010
(g66
S'.'
p3011
I0
tp3012
asS'default'
p3013
(lp3014
(S'c:/users/1106786/dropbox/dropbox/pg life/project impact/code/demos/demo_3_loadtileinfo_audio/data/splashscreen.jpg'
p3015
S'splashscreen.jpg'
p3016
I0
tp3017
a(S'c:/users/1106786/dropbox/dropbox/pg life/project impact/code/demos/demo_3_loadtileinfo_audio/data-ram/data-gles1/imgs.group.bin,c:/users/1106786/dropbox/dropbox/pg life/project impact/code/demos/demo_3_loadtileinfo_audio/data/imgs.group.bin'
p3018
S'imgs.group.bin'
p3019
I0
tp3020
asS'artbuild'
p3021
(lp3022
(S'c:/users/1106786/dropbox/dropbox/pg life/project impact/code/demos/demo_3_loadtileinfo_audio/data'
p3023
g3011
I0
tp3024
assS'macro_types'
p3025
(dp3026
g427
I1
sg428
I0
sg429
I0
sg430
I0
sg431
I0
sg432
I0
sg433
I0
sg434
I0
sg436
I0
sg437
I0
sg438
I0
sg439
I0
sg441
I0
sg443
I0
sg444
I0
sg445
I0
sg446
I0
sg447
I1
sg448
I0
sg449
I0
sg450
I0
sg451
I01
sg452
I1
sg453
I0
sg454
I0
sg455
I0
ssS'commands'
p3027
(lp3028
sg486
(g733
S'VC10'
p3029
S'X86ARM'
p3030
tp3031
sS'subprojectOptions'
p3032
(dp3033
g490
(lp3034
sg492
Nsg493
Nsg494
Nsg495
Nsg496
Nsg497
Nsg498
Nsg499
(lp3035
sg501
Nsg616
Nsg504
Nsg505
Nsg506
Nsg507
Nsg508
Nsg509
Nsg510
Nsg511
Nsg512
Nsg513
(lp3036
sg693
Nsg516
Nsg517
Nsg694
Nsg689
Nsg519
Nsg520
Nsg521
Nsg522
Nsg523
Nsg524
Nsg697
Nsg526
Nsg527
Nsg688
Nsg528
Nsg529
Nsg530
Nsg531
Nsg532
Nsg533
Nsg571
Nsg535
Nsg536
Nsg537
Nsg539
Nsg540
Nsg541
Nsg542
Nsg543
Nsg544
Nsg545
Nsg546
Nsg621
Nsg547
Nsg549
Nsg550
Nsg551
Nsg552
Nsg553
Nsg554
(lp3037
sg556
Nsg557
Nsg558
Nsg559
Nsg560
Nsg561
Nsg562
Nsg626
Nsg564
(lp3038
sg566
Nsg567
Nsg568
Nsg569
Nsg570
Nsg534
Nsg572
Nsg628
Nsg574
Nsg575
Nsg576
Nsg577
Nsg578
Nsg579
(lp3039
sg581
Nsg710
Nsg583
Nsg584
Nsg585
Nsg586
Nsg587
Nsg588
Nsg589
Nsg630
Nsg591
Nsg593
(lp3040
sg595
Nsg596
Nsg711
Nsg598
(lp3041
sg600
Nsg601
Nsg602
Nsg603
Nsg604
Nsg605
Nsg631
Nsg607
Nsg608
Nsg609
Nsg610
Nsg611
(lp3042
sg613
Nsg614
Nsg615
Nsg503
Nsg617
Nsg618
Nsg619
(lp3043
sg502
Nsg622
Nsg623
Nsg624
Nsg625
Nsg563
Nsg573
Nsg629
Nsg590
Nsg606
Nsg632
Nsg633
Nsg679
Nsg636
Nsg637
Nsg638
Nsg639
Nsg640
Nsg719
Nsg642
Nsg643
Nsg644
Nsg645
(lp3044
sg647
Nsg648
Nsg649
Nsg650
Nsg651
Nsg652
Nsg653
(lp3045
sg655
Nsg656
Nsg657
Nsg658
Nsg659
Nsg660
Nsg661
Nsg662
Nsg663
Nsg664
Nsg722
Nsg666
Nsg667
Nsg675
Nsg668
Nsg677
Nsg670
Nsg671
Nsg672
Nsg678
Nsg674
Nsg717
Nsg634
(lp3046
sg676
Nsg669
Nsg673
Nsg725
Nsg681
Nsg682
Nsg683
Nsg716
Nsg684
Nsg685
Nsg686
Nsg687
Nsg538
Nsg525
Nsg690
Nsg691
Nsg692
Nsg515
Nsg518
Nsg695
Nsg696
Nsg627
Nsg698
Nsg699
Nsg700
Nsg701
Nsg702
Nsg703
Nsg704
Nsg705
Nsg706
Nsg707
(lp3047
sg709
Nsg582
Nsg597
Nsg712
Nsg713
Nsg714
Nsg715
Nsg548
Nsg592
Nsg718
Nsg641
Nsg730
Nsg721
Nsg665
Nsg723
Nsg724
Nsg680
Nsg726
Nsg727
Nsg728
Nsg729
Nsg720
Nsg731
NssS'build_libs'
p3048
(dp3049
sS'frameworks'
p3050
(lp3051
sS'environ'
p3052
(dp3053
sS'target_name_debug'
p3054
g246
sS'builders'
p3055
(dp3056
S'.S'
p3057
(dp3058
S'rvct'
p3059
(lp3060
S'.obj'
p3061
aS'echo ARM Assembling(RVCT) ${SOURCE}...'
p3062
aS'c:/marmalade/6.2/s3e\\rvct\\bin\\armasm -o ${TARGET} ${SOURCE}'
p3063
asg347
(lp3064
g3061
aS'echo ARM Assembling(GCC) ${SOURCE}...'
p3065
aS'c:/marmalade/6.2/s3e\\gcc\\bin\\arm-none-eabi-gcc -c -o ${TARGET} ${SOURCE}'
p3066
asS'ppu'
p3067
(lp3068
S'.a'
p3069
aS'echo PPU Assembling(SNC) ${SOURCE}...'
p3070
aS'c:/marmalade/6.2/s3e\\rvct\\bin\\armasm -o ${TARGET} ${SOURCE}'
p3071
assS'.s'
p3072
g3058
sS'.vp'
p3073
(lp3074
NaS'"C:/Marmalade/6.2/s3e/python/python.exe" "c:/marmalade/6.2/modules/iwgx/tools/compile_shaders.py" ${SOURCE}'
p3075
assg488
g0
sbtp3076
.