((dp0
S'arm_dbg_args'
p1
S'-via:"c:\\Users\\1106786\\Dropbox\\Dropbox\\PG life\\Project Impact\\Code\\Demos\\Demo_2_Collision\\build_demo_2_collision_vc10\\Demo_2_Collision_vc10_arm_debug.via" -qemu'
p2
sS'game-icf'
p3
S''
p4
sS'dist'
p5
NsS'module_path_append'
p6
NsS'global_path'
p7
S'c:\\users\\1106786\\dropbox\\dropbox\\pg life\\project impact\\code\\demos'
p8
sS'system_path'
p9
S'c:\\marmalade\\6.2\\s3e\\makefile_builder'
p10
sS'use_prebuilt'
p11
NsS'arm_rel_rtsm_args'
p12
S'-via:"c:\\Users\\1106786\\Dropbox\\Dropbox\\PG life\\Project Impact\\Code\\Demos\\Demo_2_Collision\\build_demo_2_collision_vc10\\Demo_2_Collision_vc10_arm_release.via" -qemu'
p13
sS'amd64'
p14
NsS'line-width'
p15
I80
sS'gcc_dbg_args'
p16
S'-via:"c:\\Users\\1106786\\Dropbox\\Dropbox\\PG life\\Project Impact\\Code\\Demos\\Demo_2_Collision\\build_demo_2_collision_vc10\\Demo_2_Collision_vc10_gcc_debug.via" -qemu'
p17
sS'x86_dbg_exe'
p18
S'c:/marmalade/6.2/s3e\\win32\\s3e_simulator_debug.exe'
p19
sS'disable-runtime-checks'
p20
NsS'release'
p21
NsS'no-make'
p22
NsS'optimise-size'
p23
NsS'output-name-debug'
p24
g4
sS'arm-fpu'
p25
S'vfp'
p26
sS'psp'
p27
NsS'proj_name'
p28
S'Demo_2_Collision_vc10'
p29
sS'rvct-version'
p30
S'none'
p31
sS'compiler'
p32
g4
sS'execute'
p33
NsS'compile-static'
p34
NsS'msvc-project'
p35
I01
sS'buildenv'
p36
g4
sS'debug'
p37
NsS'module_path'
p38
NsS'use-release-std-libs'
p39
NsS'using_perforce'
p40
I00
sS'mips-s3e'
p41
NsS'shared-arm-lib'
p42
NsS'arm-cpu'
p43
g4
sS'compile-thumb'
p44
NsS'no-ide'
p45
NsS'msvc-version'
p46
S'6.0'
p47
sS'arm'
p48
NsS'builddir'
p49
g4
sS'compile-debug-as-release'
p50
I0
sS'brief'
p51
NsS'dll'
p52
NsS'buildenv-toolset'
p53
g4
sS'version'
p54
NsS'ccache'
p55
I0
sS'offline'
p56
NsS'ios-version'
p57
g4
sS'jobs'
p58
I0
sS'linkflags'
p59
NsS'quick'
p60
NsS'gcc_rel_rtsm_args'
p61
S'-via:"c:\\Users\\1106786\\Dropbox\\Dropbox\\PG life\\Project Impact\\Code\\Demos\\Demo_2_Collision\\build_demo_2_collision_vc10\\Demo_2_Collision_vc10_gcc_release.via" -qemu'
p62
sS'done_defaults'
p63
I1
sS'path'
p64
NsS's3e-data-dir'
p65
S'c:/Users/1106786/Dropbox/Dropbox/PG life/Project Impact/Code/Demos/Demo_2_Collision\\data'
p66
sS'enable-exceptions'
p67
NsS'osx-dll'
p68
NsS'extension'
p69
g4
sS'no-vc6'
p70
NsS'non-interactive'
p71
NsS'win32-console'
p72
NsS'nds'
p73
NsS'dist-format'
p74
g4
sS's3e-force-arch'
p75
NsS'dump_defines'
p76
NsS'verbose'
p77
I0
sS'psp-minis'
p78
NsS'gcc-version'
p79
g4
sS'x86_dbg_args'
p80
S'-via:"c:\\Users\\1106786\\Dropbox\\Dropbox\\PG life\\Project Impact\\Code\\Demos\\Demo_2_Collision\\build_demo_2_collision_vc10\\Demo_2_Collision_vc10_debug.via"'
p81
sS'arm-debugger'
p82
g4
sS'use_temp_extension'
p83
NsS'log'
p84
NsS'no-strip'
p85
NsS'rebuild'
p86
NsS'win32-simulator-dll'
p87
NsS'strict'
p88
NsS'mips_dbg_args'
p89
S'../../tools/DeployTool/DeployTool.exe --dir "c:\\Users\\1106786\\Dropbox\\Dropbox\\PG life\\Project Impact\\Code\\Demos\\Demo_2_Collision\\build_demo_2_collision_vc10"'
p90
sS'enable-global-path'
p91
NsS'iphone'
p92
NsS'cflags'
p93
NsS'dist-dir'
p94
g4
sS'jflags'
p95
NsS'distcc'
p96
NsS'external-compiler'
p97
NsS'no-distcc'
p98
NsS'preinclude'
p99
NsS'using_sdk'
p100
I01
sS'nologo'
p101
NsS'warn-level'
p102
I2
sS'mips_dbg_exe'
p103
S'c:\\marmalade\\6.2\\s3e\\makefile_builder\\tool_launcher.exe'
p104
sS'mkb_in'
p105
S'c:/Users/1106786/Dropbox/Dropbox/PG life/Project Impact/Code/Demos/Demo_2_Collision/Demo_2_Collision.mkb'
p106
sS'arm_dbg_exe'
p107
S'c:/marmalade/6.2/s3e\\bin\\armdebug.exe'
p108
sS'list-targets'
p109
NsS'arm_rel_exe'
p110
g104
sS'arm_rel_args'
p111
g90
sS'makedeps'
p112
NsS'default-buildenv'
p113
S'vc10'
p114
sS'x86_rel_exe'
p115
g19
sS'preprocess-java'
p116
NsS'mips_rel_args'
p117
g90
sS'defines'
p118
NsS'lib'
p119
NsS'global_argv'
p120
(lp121
S'C:\\Marmalade\\6.2\\s3e\\makefile_builder\\mkb.py'
p122
aS'c:/Users/1106786/Dropbox/Dropbox/PG life/Project Impact/Code/Demos/Demo_2_Collision/Demo_2_Collision.mkb'
p123
aS'--default-buildenv=vc10'
p124
aS'--msvc-project'
p125
asS'make'
p126
NsS'optimise-speed'
p127
NsS'internal'
p128
NsS'enable-stdinc'
p129
NsS'deploy-only'
p130
NsS'x86'
p131
NsS'deploy'
p132
g4
sS'x86_run_exe'
p133
S'c:/marmalade/6.2/s3e\\win32\\s3e_console.exe'
p134
sS'x86_rel_args'
p135
S'-via:"c:\\Users\\1106786\\Dropbox\\Dropbox\\PG life\\Project Impact\\Code\\Demos\\Demo_2_Collision\\build_demo_2_collision_vc10\\Demo_2_Collision_vc10_release.via"'
p136
sS'gcc_rel_args'
p137
g90
sS'mips'
p138
NsS'incredibuild'
p139
NsS'strict-compile'
p140
NsS'use-auto-subdirs'
p141
NsS'mips_rel_exe'
p142
g104
sS'app-icf'
p143
g4
sS'deployargs'
p144
NsS'mkf_in'
p145
(lp146
S'c:\\marmalade\\6.2\\modules\\iw2d\\iw2d.mkf'
p147
aS'c:\\marmalade\\6.2\\modules\\iwgx\\iwgx.mkf'
p148
aS'c:\\marmalade\\6.2\\modules\\iwgeom\\iwgeom.mkf'
p149
aS'c:\\marmalade\\6.2\\modules\\iwutil\\iwutil.mkf'
p150
aVc:\u005cusers\u005c1106786\u005cappdata\u005croaming\u005cmarmalade\u005cpackages\u005c6.2.2\u005clibjpeg_6b\u005clibjpeg.mkf
p151
aVc:\u005cusers\u005c1106786\u005cappdata\u005croaming\u005cmarmalade\u005cpackages\u005c6.2.2\u005clibpng_1.2.34\u005clibpng.mkf
p152
aVc:\u005cusers\u005c1106786\u005cappdata\u005croaming\u005cmarmalade\u005cpackages\u005c6.2.2\u005czlib_1.2.4\u005czlib.mkf
p153
aS'c:\\marmalade\\6.2\\modules\\iwresmanager\\iwresmanager.mkf'
p154
aS'c:\\marmalade\\6.2\\modules\\iwgl\\iwgl.mkf'
p155
aS'c:\\marmalade\\6.2\\modules\\iwgxfont\\iwgxfont.mkf'
p156
aVc:\u005cusers\u005c1106786\u005cappdata\u005croaming\u005cmarmalade\u005cpackages\u005c6.2.2\u005ctiniconv_1.0.1\u005ctiniconv.mkf
p157
aS'c:\\users\\1106786\\dropbox\\dropbox\\pg life\\project impact\\code\\demos\\demo_2_collision\\demo_2_collision.mkf'
p158
asS'strict-mkb'
p159
NsS'executeargs'
p160
NsS'clean'
p161
NsS'no-asm'
p162
NsS'output-name'
p163
g4
sS'no-modules'
p164
NsS'find_define'
p165
g4
s(dp166
S'c:\\marmalade\\6.2\\s3e\\makefile_builder\\templates\\xcode_pbxuser.py'
p167
F1365595058.0
sS'c:\\marmalade\\6.2\\s3e\\makefile_builder\\templates'
p168
F1378901971.8745732
sS'c:\\marmalade\\6.2\\s3e\\makefile_builder\\plugins\\null.pyc'
p169
F1365605816.0
sS'c:\\marmalade\\6.2\\s3e\\makefile_builder\\plugins\\XcodeEmitter.pyc'
p170
F1380286836.0994766
sS'c:\\marmalade\\6.2\\s3e\\makefile_builder\\plugins'
p171
F1380286836.2464912
sS'c:\\marmalade\\6.2\\s3e\\makefile_builder\\extensions'
p172
F1378901971.8765736
sS'c:\\marmalade\\6.2\\s3e\\makefile_builder\\templates\\vc6_opt.pyc'
p173
F1365605816.0
sS'c:\\marmalade\\6.2\\s3e\\makefile_builder\\templates\\win32_vcxproj_filters.pyc'
p174
F1365605816.0
sS'c:\\marmalade\\6.2\\s3e\\makefile_builder\\mkb_parser.pyc'
p175
F1365605816.0
sS'c:\\marmalade\\6.2\\s3e\\makefile_builder\\plugins\\xcode4_schememanagement.pyc'
p176
F1380286836.1074774
sS'c:\\marmalade\\6.2\\s3e\\makefile_builder\\plugins\\win32_vc6.pyc'
p177
F1365605816.0
sS'c:\\marmalade\\6.2\\s3e\\makefile_builder\\templates\\template.suo'
p178
F1365595058.0
sS'c:\\marmalade\\6.2\\s3e\\makefile_builder\\plugins\\s3e_xcode.py'
p179
F1365595058.0
sS'c:\\marmalade\\6.2\\s3e\\makefile_builder\\templates\\make.py'
p180
F1365595058.0
sS'c:\\marmalade\\6.2\\s3e\\makefile_builder\\docs\\options.txt'
p181
F1365595058.0
sS'c:\\marmalade\\6.2\\s3e\\makefile_builder\\plugins\\linux_scons.pyc'
p182
F1365605816.0
sS'c:\\marmalade\\6.2\\s3e\\makefile_builder\\templates\\linker_script'
p183
F1365595058.0
sS'c:\\marmalade\\6.2\\s3e\\makefile_builder\\plugins\\s3e_scons.pyc'
p184
F1365605816.0
sS'c:\\marmalade\\6.2\\s3e\\makefile_builder\\templates\\xcode.py'
p185
F1365595058.0
sS'c:\\marmalade\\6.2\\s3e\\makefile_builder\\plugins\\java.pyc'
p186
F1365605816.0
sS'c:\\marmalade\\6.2\\s3e\\makefile_builder\\templates\\win32_dsw.pyc'
p187
F1365605816.0
sS'c:\\marmalade\\6.2\\s3e\\makefile_builder\\docs\\mkb.defines.txt'
p188
F1365595058.0
sS'c:\\marmalade\\6.2\\s3e\\makefile_builder\\docs\\deprecated.defines.txt'
p189
F1365595058.0
sS'c:\\marmalade\\6.2\\s3e\\makefile_builder\\templates\\win32_vcxproj.pyc'
p190
F1365605816.0
sS'c:\\marmalade\\6.2\\s3e\\makefile_builder\\deployment.pyc'
p191
F1365605816.0
sS'c:\\marmalade\\6.2\\s3e\\makefile_builder\\plugins\\s3e_qmake.py'
p192
F1365595058.0
sS'c:\\marmalade\\6.2\\s3e\\makefile_builder\\templates\\win32_sln.pyc'
p193
F1365605816.0
sS'c:\\marmalade\\6.2\\s3e\\makefile_builder\\tool_launcher.exe'
p194
F1365595808.0
sS'c:\\marmalade\\6.2\\s3e\\makefile_builder\\plugins\\Emitter.pyc'
p195
F1365605816.0
sS'c:\\marmalade\\6.2\\s3e\\makefile_builder\\docs\\deprecated.options.txt'
p196
F1365595058.0
sS'c:\\marmalade\\6.2\\s3e\\makefile_builder\\templates\\rvct_linker_script'
p197
F1365595058.0
sS'c:\\marmalade\\6.2\\s3e\\makefile_builder\\plugins\\vc6_utils.pyc'
p198
F1365605816.0
sS'c:\\marmalade\\6.2\\s3e\\makefile_builder\\mkb_main.pyc'
p199
F1365605816.0
sS'c:\\marmalade\\6.2\\s3e\\makefile_builder\\plugins\\iphone.pyc'
p200
F1365605816.0
sS'c:\\marmalade\\6.2\\s3e\\makefile_builder\\plugins\\S3EEmitter.pyc'
p201
F1365605816.0
sS'c:\\marmalade\\6.2\\s3e\\makefile_builder\\plugins\\xcode4_schememanagement.py'
p202
F1365595058.0
sS'c:\\marmalade\\6.2\\s3e\\makefile_builder\\templates\\xcode4_DeployTool.xcscheme'
p203
F1365595058.0
sS'c:\\marmalade\\6.2\\s3e\\makefile_builder\\mkb_util.pyc'
p204
F1365605816.0
sS'c:\\marmalade\\6.2\\s3e\\makefile_builder\\mkb_globals.pyc'
p205
F1365605816.0
sS'c:\\marmalade\\6.2\\s3e\\makefile_builder\\templates\\qmake_user.py'
p206
F1365595058.0
sS'c:\\marmalade\\6.2\\s3e\\makefile_builder\\plugins\\vc7_utils.pyc'
p207
F1365605816.0
sS'c:\\marmalade\\6.2\\s3e\\makefile_builder\\templates\\MainWindow.xib'
p208
F1365595058.0
sS'c:\\marmalade\\6.2\\s3e\\makefile_builder\\plugins\\s3e_make.pyc'
p209
F1365605816.0
sS'c:\\marmalade\\6.2\\s3e\\makefile_builder\\templates\\vc10_user.pyc'
p210
F1365605816.0
sS'c:\\marmalade\\6.2\\s3e\\makefile_builder\\templates\\Info.plist'
p211
F1365595058.0
sS'c:\\marmalade\\6.2\\s3e\\makefile_builder\\plugins\\SConsEmitter.pyc'
p212
F1365605816.0
sS'c:\\marmalade\\6.2\\s3e\\makefile_builder\\docs'
p213
F1378901971.9095769
sS'c:\\marmalade\\6.2\\s3e\\makefile_builder\\mkb_option.pyc'
p214
F1365605816.0
sS'c:\\marmalade\\6.2\\s3e\\makefile_builder\\docs\\parse_options.pyc'
p215
F1365605816.0
sS'c:\\marmalade\\6.2\\s3e\\makefile_builder\\plugins\\XcodeEmitter.py'
p216
F1365595058.0
sS'c:\\marmalade\\6.2\\s3e\\makefile_builder\\mkb_launcher.exe'
p217
F1365595806.0
sS'c:\\marmalade\\6.2\\s3e\\makefile_builder\\templates\\vc8_user.pyc'
p218
F1365605816.0
sS'c:\\marmalade\\6.2\\s3e\\makefile_builder\\templates\\win32_dsp.pyc'
p219
F1365605816.0
sS'c:\\marmalade\\6.2\\s3e\\makefile_builder\\templates\\mips_linker_script'
p220
F1365595058.0
sS'c:\\marmalade\\6.2\\s3e\\makefile_builder\\mkb.py'
p221
F1365595058.0
sS'c:\\marmalade\\6.2\\s3e\\makefile_builder\\plugins\\osx_scons.pyc'
p222
F1365605816.0
sS'c:\\marmalade\\6.2\\s3e\\makefile_builder\\plugins\\deploy.pyc'
p223
F1365605816.0
sS'c:\\marmalade\\6.2\\s3e\\makefile_builder\\plugins\\VisualStudioEmitter.pyc'
p224
F1365605816.0
sS'c:\\marmalade\\6.2\\s3e\\makefile_builder\\plugins\\s3e_qmake.pyc'
p225
F1380286836.202487
sS'c:\\marmalade\\6.2\\s3e\\makefile_builder\\plugins\\s3e_xcode.pyc'
p226
F1380286836.2464912
sS'c:\\marmalade\\6.2\\s3e\\makefile_builder\\docs\\deployment_options.txt'
p227
F1365595058.0
sS'c:\\marmalade\\6.2\\s3e\\makefile_builder\\plugins\\s3e_web.pyc'
p228
F1365605816.0
sS'c:\\marmalade\\6.2\\s3e\\makefile_builder\\templates\\template.opt'
p229
F1365595058.0
sS'c:\\marmalade\\6.2\\s3e\\makefile_builder\\templates\\scons.pyc'
p230
F1365605816.0
sS'c:\\marmalade\\6.2\\s3e\\makefile_builder\\templates\\xcode4.xcscheme'
p231
F1365595058.0
sS'c:\\marmalade\\6.2\\s3e\\makefile_builder\\templates\\vc7_suo.pyc'
p232
F1365605816.0
sS'c:\\marmalade\\6.2\\s3e\\makefile_builder\\plugins\\MakeEmitter.pyc'
p233
F1365605816.0
sS'c:\\marmalade\\6.2\\s3e\\makefile_builder\\templates\\qmake.py'
p234
F1365595058.0
sS'c:\\marmalade\\6.2\\s3e\\makefile_builder\\templates\\win32_vcproj.pyc'
p235
F1365605816.0
sS'c:\\marmalade\\6.2\\s3e\\makefile_builder\\templates\\gdb_start.txt'
p236
F1365595058.0
sS'c:\\marmalade\\6.2\\s3e\\makefile_builder\\plugins\\s3e_vc6.pyc'
p237
F1365605816.0
sS'c:\\marmalade\\6.2\\s3e\\makefile_builder\\plugins\\osx_xcode.pyc'
p238
F1365605816.0
sS'c:\\marmalade\\6.2\\s3e\\makefile_builder\\extensions\\make_dist.py'
p239
F1365595058.0
sccopy_reg
_reconstructor
p240
(cmkb_main
MkbFile
p241
c__builtin__
object
p242
Ntp243
Rp244
(dp245
g5
(lp246
sS'target_name'
p247
S'Demo_2_Collision'
p248
sS'current_file'
p249
g106
sS'package_path'
p250
(lp251
VC:\u005cUsers\u005c1106786\u005cAppData\u005cRoaming\u005cMarmalade\u005cpackages\u005c6.2.2\u005clibjpeg_6b
p252
aVC:\u005cUsers\u005c1106786\u005cAppData\u005cRoaming\u005cMarmalade\u005cpackages\u005c6.2.2\u005clibpng_1.2.34
p253
aVC:\u005cUsers\u005c1106786\u005cAppData\u005cRoaming\u005cMarmalade\u005cpackages\u005c6.2.2\u005czlib_1.2.4
p254
aVC:\u005cUsers\u005c1106786\u005cAppData\u005cRoaming\u005cMarmalade\u005cpackages\u005c6.2.2\u005ctiniconv_1.0.1
p255
asS'post_build'
p256
(lp257
(lp258
S'c:/marmalade/6.2/s3e/tools'
p259
aS'C:\\Marmalade\\6.2\\s3e\\python\\python.exe .\\process_map.py "$(TargetPath)"'
p260
aa(S'c:\\marmalade\\6.2\\s3e'
p261
S'"c:\\marmalade\\6.2\\s3e\\bin\\s3e_plink" -l "$(TargetPath)"'
p262
g131
tp263
asS'librarys'
p264
(lp265
g240
(cmkb_main
Library
p266
g242
Ntp267
Rp268
(dp269
S'name'
p270
S'vc6_compat.lib'
p271
sS'expand_name'
p272
I00
sS'include_spec_rvct_objs'
p273
(lp274
sS'include_all_objs'
p275
I00
sS'share_arm'
p276
I00
sS'arch'
p277
S'x86'
p278
sS'nodebug'
p279
I00
sg32
Nsbag240
(g266
g242
Ntp280
Rp281
(dp282
g270
S'jpeg'
p283
sg272
I01
sg273
(lp284
sg275
I00
sg276
Nsg277
Nsg279
I00
sg32
Nsbag240
(g266
g242
Ntp285
Rp286
(dp287
g270
S'z'
p288
sg272
I01
sg273
g284
sg275
I00
sg276
Nsg277
Nsg279
I00
sg32
Nsbag240
(g266
g242
Ntp289
Rp290
(dp291
g270
S'png'
p292
sg272
I01
sg273
g284
sg275
I00
sg276
Nsg277
Nsg279
I00
sg32
Nsbag240
(g266
g242
Ntp293
Rp294
(dp295
g270
S'iwutil'
p296
sg272
I01
sg273
g284
sg275
I00
sg276
I01
sg277
Nsg279
I00
sg32
Nsbag240
(g266
g242
Ntp297
Rp298
(dp299
g270
S'iwgeom'
p300
sg272
I01
sg273
g284
sg275
I00
sg276
I01
sg277
Nsg279
I00
sg32
Nsbag240
(g266
g242
Ntp301
Rp302
(dp303
g270
S'iwresmanager'
p304
sg272
I01
sg273
g284
sg275
I00
sg276
I01
sg277
Nsg279
I00
sg32
Nsbag240
(g266
g242
Ntp305
Rp306
(dp307
g270
S'ATI_Compress_MT_VC7.lib'
p308
sg272
I00
sg273
g284
sg275
I00
sg276
Nsg277
S'x86'
p309
sg279
I00
sg32
Nsbag240
(g266
g242
Ntp310
Rp311
(dp312
g270
S'iwgx'
p313
sg272
I01
sg273
g284
sg275
I00
sg276
I01
sg277
Nsg279
I00
sg32
Nsbag240
(g266
g242
Ntp314
Rp315
(dp316
g270
S'iwgl'
p317
sg272
I01
sg273
g284
sg275
I00
sg276
Nsg277
Nsg279
I00
sg32
Nsbag240
(g266
g242
Ntp318
Rp319
(dp320
g270
S'iwgxfont'
p321
sg272
I01
sg273
g284
sg275
I00
sg276
I01
sg277
Nsg279
I00
sg32
Nsbag240
(g266
g242
Ntp322
Rp323
(dp324
g270
S'tiniconv'
p325
sg272
I01
sg273
g284
sg275
I00
sg276
Nsg277
Nsg279
I00
sg32
Nsbag240
(g266
g242
Ntp326
Rp327
(dp328
g270
S'iw2d'
p329
sg272
I01
sg273
g284
sg275
I00
sg276
I01
sg277
Nsg279
I00
sg32
Nsbag240
(g266
g242
Ntp330
Rp331
(dp332
g270
S's3e_cpp'
p333
sg272
I01
sg273
g274
sg275
I00
sg276
I00
sg277
Nsg279
I00
sg32
Nsbag240
(g266
g242
Ntp334
Rp335
(dp336
g270
S's3e'
p337
sg272
I01
sg273
(lp338
S'iwcrt.o'
p339
asg275
I00
sg276
I00
sg277
Nsg279
I00
sg32
Nsbag240
(g266
g242
Ntp340
Rp341
(dp342
g270
S's3e_api'
p343
sg272
I01
sg273
g274
sg275
I00
sg276
I00
sg277
Nsg279
I1
sg32
Nsbag240
(g266
g242
Ntp344
Rp345
(dp346
g270
S's3e_api'
p347
sg272
I00
sg273
g274
sg275
I00
sg276
I00
sg277
S'arm'
p348
sg279
I00
sg32
S'gcc'
p349
sbag240
(g266
g242
Ntp350
Rp351
(dp352
g270
S'stdc++'
p353
sg272
I00
sg273
g274
sg275
I00
sg276
I00
sg277
S'mips'
p354
sg279
I00
sg32
Nsbag240
(g266
g242
Ntp355
Rp356
(dp357
g270
S'c'
p358
sg272
I00
sg273
g274
sg275
I00
sg276
I00
sg277
S'mips'
p359
sg279
I00
sg32
Nsbag240
(g266
g242
Ntp360
Rp361
(dp362
g270
S'm'
p363
sg272
I00
sg273
g274
sg275
I00
sg276
I00
sg277
S'mips'
p364
sg279
I00
sg32
Nsbag240
(g266
g242
Ntp365
Rp366
(dp367
g270
S'gcc'
p368
sg272
I00
sg273
g274
sg275
I00
sg276
I00
sg277
S'mips'
p369
sg279
I00
sg32
NsbasS'library_paths'
p370
(lp371
g240
(cmkb_main
LibraryPath
p372
g242
Ntp373
Rp374
(dp375
S'expand_path'
p376
I01
sS'add_cpu_variant'
p377
I00
sg270
Vc:/users/1106786/appdata/roaming/marmalade/packages/6.2.2/libjpeg_6b
p378
sbag240
(g372
g242
Ntp379
Rp380
(dp381
g376
I01
sg377
I00
sg270
Vc:/users/1106786/appdata/roaming/marmalade/packages/6.2.2/zlib_1.2.4
p382
sbag240
(g372
g242
Ntp383
Rp384
(dp385
g376
I01
sg377
I00
sg270
Vc:/users/1106786/appdata/roaming/marmalade/packages/6.2.2/libpng_1.2.34
p386
sbag240
(g372
g242
Ntp387
Rp388
(dp389
g376
I01
sg377
I00
sg270
S'c:/marmalade/6.2/modules/iwutil'
p390
sbag240
(g372
g242
Ntp391
Rp392
(dp393
g376
I01
sg377
I00
sg270
S'c:/marmalade/6.2/modules/iwgeom'
p394
sbag240
(g372
g242
Ntp395
Rp396
(dp397
g376
I01
sg377
I00
sg270
S'c:/marmalade/6.2/modules/iwresmanager'
p398
sbag240
(g372
g242
Ntp399
Rp400
(dp401
g376
I00
sg377
I00
sg270
S'c:/marmalade/6.2/modules/iwgx/atitools'
p402
sbag240
(g372
g242
Ntp403
Rp404
(dp405
g376
I01
sg377
I00
sg270
S'c:/marmalade/6.2/modules/iwgx'
p406
sbag240
(g372
g242
Ntp407
Rp408
(dp409
g376
I01
sg377
I00
sg270
S'c:/marmalade/6.2/modules/iwgl'
p410
sbag240
(g372
g242
Ntp411
Rp412
(dp413
g376
I01
sg377
I00
sg270
S'c:/marmalade/6.2/modules/iwgxfont'
p414
sbag240
(g372
g242
Ntp415
Rp416
(dp417
g376
I01
sg377
I00
sg270
Vc:/users/1106786/appdata/roaming/marmalade/packages/6.2.2/tiniconv_1.0.1
p418
sbag240
(g372
g242
Ntp419
Rp420
(dp421
g376
I01
sg377
I00
sg270
S'c:/marmalade/6.2/modules/iw2d'
p422
sbag240
(g372
g242
Ntp423
Rp424
(dp425
g376
I01
sg377
I00
sg270
S'c:/marmalade/6.2/s3e'
p426
sbasS'macros'
p427
(dp428
S'IW_USE_CALLSTACK'
p429
NsS'IW_SDK'
p430
NsS'I3D_PLATFORM_S3E'
p431
NsS'IW_MKF_LIBJPEG'
p432
NsS'I3D_OS_S3E'
p433
NsS'IW_MKF_TINICONV'
p434
NsS'IW_APP_VERSION'
p435
S'"1.0"'
p436
sS'IW_MKF_IWRESMANAGER'
p437
NsS'IW_MKF_IWUTIL'
p438
NsS'IW_MKF_IWGEOM'
p439
NsS'IW_ASSERTION_CHANNEL_2D'
p440
S'1'
p441
sS'IW_APP_NAME'
p442
S'"Demo_2_Collision"'
p443
sS'IW_MKF_IWGXFONT'
p444
NsS'IW_PLATFORM_S3E'
p445
NsS'IW_MKF_ZLIB'
p446
NsS'IW_MKF_IWGX'
p447
NsS'IW_USE_ASSERTIONS'
p448
NsS'_CRT_SECURE_NO_DEPRECATE'
p449
NsS'IW_MKF_IWGL'
p450
NsS'IW_MKF_LIBPNG'
p451
NsS'IW_DEBUG'
p452
NsS'IW_USE_TRACING'
p453
NsS'S3E_INCLUDE_LEGACY'
p454
NsS'__S3E__'
p455
NsS'IW_MKF_DEMO_2_COLLISION'
p456
NsS'IW_MKF_IW2D'
p457
NssS'done_warnings'
p458
(dp459
sS'subprojects'
p460
(dp461
g154
S'iwresmanager'
p462
sVc:\u005cusers\u005c1106786\u005cappdata\u005croaming\u005cmarmalade\u005cpackages\u005c6.2.2\u005czlib_1.2.4\u005czlib.mkf
p463
S'zlib'
p464
sg150
S'iwutil'
p465
sVc:\u005cusers\u005c1106786\u005cappdata\u005croaming\u005cmarmalade\u005cpackages\u005c6.2.2\u005clibjpeg_6b\u005clibjpeg.mkf
p466
S'libjpeg'
p467
sg149
S'iwgeom'
p468
sg148
S'iwgx'
p469
sVc:\u005cusers\u005c1106786\u005cappdata\u005croaming\u005cmarmalade\u005cpackages\u005c6.2.2\u005clibpng_1.2.34\u005clibpng.mkf
p470
S'libpng'
p471
sg156
S'iwgxfont'
p472
sg155
S'iwgl'
p473
sg147
S'iw2d'
p474
sg158
S'Demo_2_Collision'
p475
sVc:\u005cusers\u005c1106786\u005cappdata\u005croaming\u005cmarmalade\u005cpackages\u005c6.2.2\u005ctiniconv_1.0.1\u005ctiniconv.mkf
p476
S'tiniconv'
p477
ssS'deployments'
p478
(dp479
S'Default'
p480
g240
(cdeployment
Deployment
p481
g242
Ntp482
Rp483
(dp484
S'got_version'
p485
I0
sS'assets'
p486
g480
sS'mkb'
p487
g244
sS'target'
p488
Nsg277
(lp489
sS'options'
p490
(dp491
S'iphone-link-lib'
p492
(lp493
sS'game-icf'
p494
NsS'iphone-icon-high-res'
p495
NsS'win32-pref-windowposy'
p496
NsS'win32-pref-windowposx'
p497
NsS'bada-appsecret'
p498
NsS'playbook-author'
p499
NsS'winmobile-icon32'
p500
NsS'linux-ext-lib'
p501
(lp502
sS'target-folder'
p503
NsS'iphone-splashscreen-landscape'
p504
NsS'psp-discversion'
p505
NsS'lgtv-use-drm'
p506
NsS'nds-bannertitle-sp'
p507
NsS'symbian-platsecflags'
p508
NsS'psp-producer'
p509
NsS'blackberry-playbook-icon'
p510
NsS'iphone-icon-ipad-search-high-res'
p511
NsS'iphone-provisioning-profile'
p512
NsS'copyright'
p513
NsS'winmobile-png45'
p514
NsS'iphone-link-libdir'
p515
(lp516
sS'symbian-cert'
p517
NsS'nds-bannertitle-hn'
p518
NsS'brew-depends'
p519
NsS'winmobile-png60'
p520
NsS'winmobile-nouninstall'
p521
NsS'android-icon-hdpi'
p522
NsS'iphone-ipad-only'
p523
NsS'iphone-splash-full-orient'
p524
NsS'iphone-bundle-url-name'
p525
NsS'android-aliasname'
p526
NsS'iphone-splash-retina-generate'
p527
NsS'psp-dlgmanual'
p528
NsS'iphone-backgroundmode-audio'
p529
NsS'android-pkgname'
p530
NsS'webos-memory'
p531
NsS'brew-uid'
p532
NsS'android-keypass'
p533
NsS'symbian-locationsupport'
p534
NsS'iphone-signing-host'
p535
NsS'nds-bannertitle-jp'
p536
NsS'name'
p537
NsS'osx-info-plist'
p538
NsS'symbian-icon1-format'
p539
NsS'uiq3-uid'
p540
NsS'psp-dlgcontentid'
p541
NsS'auto-derbh'
p542
NsS'bada-use-partner-privileges'
p543
NsS'nds-bannertitle-it'
p544
NsS'blackberry-authorid'
p545
NsS'nds-publicsavedatasize'
p546
NsS'splashscreen'
p547
NsS'brew-mif'
p548
NsS'symbian-icon2-format'
p549
NsS'long-caption'
p550
NsS'iphone-icon-settings-high-res'
p551
NsS'android-manifest'
p552
NsS'winmobile-icon16'
p553
NsS's3e-compression'
p554
NsS'blackberry-cskpass'
p555
NsS'iphone-link-opts'
p556
(lp557
sS'iphone-region'
p558
NsS'uiq3-icon3-mask'
p559
NsS'winmobile-start-menu-folder'
p560
NsS'brew-clsid'
p561
NsS'brew-encoding'
p562
NsS'symbian-icon1'
p563
NsS'symbian-icon2'
p564
NsS'psp-parentallevel'
p565
NsS'osx-ext-dll'
p566
(lp567
sS'version'
p568
NsS'bada-manifest'
p569
NsS'provider'
p570
NsS'iphone-prerendered-icon'
p571
NsS'iphone-appid'
p572
NsS'playbook-keystore'
p573
NsS'nds-initialcode'
p574
NsS'symbian8-uid'
p575
NsS'symbian-osexecsupport'
p576
NsS'winmobile-icon64'
p577
NsS'iphone-persistent-wifi'
p578
NsS'symbian7-uid'
p579
NsS'winmobile-setup-dll'
p580
NsS'android-external-jars'
p581
(lp582
sS'android-install-location'
p583
NsS'olddeploytoolstyle'
p584
NsS'nds-privatesavedatasize'
p585
NsS'symbian9-uid'
p586
NsS'nds-bannertitle-cn'
p587
NsS'winmobile-trace-file'
p588
NsS'playbook-storepass'
p589
NsS'android-icon-ldpi'
p590
NsS'psp-appversion'
p591
NsS'networking'
p592
NsS'winmobile-install-folder'
p593
NsS'arch'
p594
NsS'android-external-res'
p595
(lp596
sS'manufacturer'
p597
NsS'android-icon-gallery'
p598
NsS'bada-signed'
p599
NsS'android-supports-gl-texture'
p600
(lp601
sS'iphone-apple-wwdr-cert'
p602
NsS'psp-snd0'
p603
NsS'iphone-extra-sections'
p604
NsS'blackberry-keystore'
p605
NsS'iphone-nosign'
p606
NsS'caption'
p607
NsS'winmobile-ampd-part-number'
p608
NsS'iphone-icon-large'
p609
NsS'android-storepass'
p610
NsS'iphone-info-plist'
p611
NsS'win32-icon'
p612
NsS'android-extra-manifest'
p613
(lp614
sS'iphone-icon-ipad-search'
p615
NsS'android-custom-activity'
p616
NsS'version-minor'
p617
NsS'iphone-icon-ipad'
p618
NsS'bada-appid'
p619
NsS'iphone-distribution-key'
p620
NsS'iphone-link-libdirs'
p621
(lp622
sS'psp-copyright'
p623
NsS'symbian-maxheapsize'
p624
NsS'embed-icf'
p625
NsS'psp-titlename'
p626
NsS'symbian-icon1-mask'
p627
NsS'nds-makercode'
p628
NsS'psp-icon1'
p629
NsS'priv-sign-key'
p630
NsS'webos-appinfo'
p631
NsS'symbian-cert-key'
p632
NsS'android-icon'
p633
NsS'webos-appid'
p634
NsS'android-icon-nonstandard'
p635
NsS'android-extra-application-manifest'
p636
(lp637
sS'iphone-icon-settings'
p638
NsS'iphone-distribution-cert'
p639
NsS'osx-icon'
p640
NsS'nds-titlename'
p641
NsS'splashscreen-auto-onblack'
p642
NsS'icon'
p643
NsS'nds-romheadertemplate'
p644
NsS'webos-icon'
p645
NsS'nds-bannertitle-en'
p646
NsS'win32-ext-dll'
p647
(lp648
sS'psp-dlgicon0'
p649
NsS'iphone-development-key'
p650
NsS'psp-discid'
p651
NsS'winmobile-icon48'
p652
NsS'uiq3-icon1-mask'
p653
NsS'playbook-cskpass'
p654
NsS'android-so'
p655
(lp656
sS'itunes-artwork'
p657
NsS'bada-splash'
p658
NsS'version-revision'
p659
NsS'android-icon-mdpi'
p660
NsS'android-keystore'
p661
NsS'uiq3-icon2-format'
p662
NsS'version-string'
p663
NsS'winmobile-png90'
p664
NsS'iphone-icon-ipad-high-res'
p665
NsS'iphone-disable-ipad'
p666
NsS'uiq3-icon1-format'
p667
NsS'iphone-bundle-url-schemes'
p668
NsS'nds-icon'
p669
NsS'iphone-development-cert'
p670
NsS'playbook-authorid'
p671
NsS'android_extra_strings'
p672
NsS'playbook-icon'
p673
NsS'uid'
p674
NsS'iphone-signing-identity'
p675
NsS'brew-icon-medium'
p676
NsS'blackberry-phone-icon'
p677
NsS'iphone-enable-4inch-retina'
p678
NsS'pkguid-as-uid'
p679
NsS'symbian-icon1-mask-black'
p680
NsS'uiq3-icon2'
p681
NsS'pub-sign-key'
p682
NsS'nds-bannertitle-fr'
p683
NsS'win32-pref-windowtitle'
p684
NsS'symbian-disable-ecompxl'
p685
NsS'symbian-soundrecordsupport'
p686
NsS'splashscreen-use-all'
p687
NsS'android-unsigned'
p688
NsS'brew-priviledges'
p689
NsS'brew-icon-small'
p690
NsS'psp-dlgpic2'
p691
NsS'bada-icon'
p692
NsS'psp-dlgpic0'
p693
NsS'lgtv_l9-use-drm'
p694
NsS'psp-pic0'
p695
NsS'psp-pic1'
p696
NsS'iphone-icon'
p697
NsS'psp-icon0'
p698
NsS'blackberry-permissions-access-shared'
p699
NsS'uiq3-icon3-format'
p700
NsS'version-major'
p701
NsS'iphone_bundle_localisations'
p702
NsS'winmobile-icon'
p703
NsS'blackberry-author'
p704
NsS'symbian-keypwd'
p705
NsS'iphone-no-splash'
p706
NsS'playbook-access-shared'
p707
NsS'psp-dlghealthwarning'
p708
NsS'iphone-link-libs'
p709
(lp710
sS'iphone-splash'
p711
NsS'nds-bannertitle-ge'
p712
NsS'android_icon_gallery'
p713
NsS'brew-icon-large'
p714
NsS'iphone-app-fonts'
p715
NsS'symbian-icon2-mask'
p716
NsS'iphone-sign-for-distribution'
p717
NsS'psp-dlgprotectdocument'
p718
NsS'winmobile-cab-compress'
p719
NsS'uiq3-icon3'
p720
NsS'uiq3-icon1'
p721
NsS'symbian-run-on-install'
p722
NsS'assets'
p723
NsS'symbian-key'
p724
NsS'app-icf'
p725
NsS'blackberry-storepass'
p726
NsS'brew-compress-loader'
p727
NsS'uiq3-icon2-mask'
p728
NsS'symbian-icon2-mask-black'
p729
NsS'symbian-icon-svg'
p730
NsS'android-extra-strings'
p731
NsS'iphone-splashscreen-portrait'
p732
NsS'iphone-bundle-localisations'
p733
Nssg270
g480
sbssS'platform'
p734
S'S3E'
p735
sg54
S'1.0'
p736
sS'arcade_platform'
p737
g4
sS'extensions'
p738
(dp739
sS'source_groups_tree'
p740
(dp741
S'(libpng)'
p742
(dp743
Vc:/users/1106786/appdata/roaming/marmalade/packages/6.2.2/libpng_1.2.34/libpng.mkf
p744
(lp745
I1
a(dp746
asVc:/users/1106786/appdata/roaming/marmalade/packages/6.2.2/libpng_1.2.34/h/png.h
p747
(lp748
I1
a(dp749
asVc:/users/1106786/appdata/roaming/marmalade/packages/6.2.2/libpng_1.2.34/h/pngconf.h
p750
(lp751
I1
ag749
assS'(libjpeg)'
p752
(dp753
Vc:/users/1106786/appdata/roaming/marmalade/packages/6.2.2/libjpeg_6b/h/jmemsys.h
p754
(lp755
I1
a(dp756
asVc:/users/1106786/appdata/roaming/marmalade/packages/6.2.2/libjpeg_6b/h/jpegint.h
p757
(lp758
I1
ag756
asVc:/users/1106786/appdata/roaming/marmalade/packages/6.2.2/libjpeg_6b/h/jconfig.h
p759
(lp760
I1
ag756
asVc:/users/1106786/appdata/roaming/marmalade/packages/6.2.2/libjpeg_6b/h/cderror.h
p761
(lp762
I1
ag756
asVc:/users/1106786/appdata/roaming/marmalade/packages/6.2.2/libjpeg_6b/h/jerror.h
p763
(lp764
I1
ag756
asVc:/users/1106786/appdata/roaming/marmalade/packages/6.2.2/libjpeg_6b/libjpeg.mkf
p765
(lp766
I1
a(dp767
asVc:/users/1106786/appdata/roaming/marmalade/packages/6.2.2/libjpeg_6b/h/cdjpeg.h
p768
(lp769
I1
ag756
asVc:/users/1106786/appdata/roaming/marmalade/packages/6.2.2/libjpeg_6b/h/jversion.h
p770
(lp771
I1
ag756
asVc:/users/1106786/appdata/roaming/marmalade/packages/6.2.2/libjpeg_6b/h/jinclude.h
p772
(lp773
I1
ag756
asVc:/users/1106786/appdata/roaming/marmalade/packages/6.2.2/libjpeg_6b/h/jdct.h
p774
(lp775
I1
ag756
asVc:/users/1106786/appdata/roaming/marmalade/packages/6.2.2/libjpeg_6b/h/jpeglib.h
p776
(lp777
I1
ag756
asVc:/users/1106786/appdata/roaming/marmalade/packages/6.2.2/libjpeg_6b/h/jdhuff.h
p778
(lp779
I1
ag756
asVc:/users/1106786/appdata/roaming/marmalade/packages/6.2.2/libjpeg_6b/h/transupp.h
p780
(lp781
I1
ag756
asVc:/users/1106786/appdata/roaming/marmalade/packages/6.2.2/libjpeg_6b/h/jchuff.h
p782
(lp783
I1
ag756
asVc:/users/1106786/appdata/roaming/marmalade/packages/6.2.2/libjpeg_6b/h/jmorecfg.h
p784
(lp785
I1
ag756
assS'(Demo_2_Collision)'
p786
(dp787
S'src'
p788
(dp789
S'c:/users/1106786/dropbox/dropbox/pg life/project impact/code/demos/demo_2_collision/h/map.h'
p790
(lp791
I1
a(dp792
asS'c:/users/1106786/dropbox/dropbox/pg life/project impact/code/demos/demo_2_collision/h/character.h'
p793
(lp794
I1
ag792
asS'c:/users/1106786/dropbox/dropbox/pg life/project impact/code/demos/demo_2_collision/h/game.h'
p795
(lp796
I1
ag792
asS'c:/users/1106786/dropbox/dropbox/pg life/project impact/code/demos/demo_2_collision/h/maze.h'
p797
(lp798
I1
ag792
asS'c:/users/1106786/dropbox/dropbox/pg life/project impact/code/demos/demo_2_collision/src/input.cpp'
p799
(lp800
I1
ag792
asS'c:/users/1106786/dropbox/dropbox/pg life/project impact/code/demos/demo_2_collision/src/character.cpp'
p801
(lp802
I1
ag792
asS'c:/users/1106786/dropbox/dropbox/pg life/project impact/code/demos/demo_2_collision/h/tiles.h'
p803
(lp804
I1
ag792
asS'c:/users/1106786/dropbox/dropbox/pg life/project impact/code/demos/demo_2_collision/src/map.cpp'
p805
(lp806
I1
ag792
asS'c:/users/1106786/dropbox/dropbox/pg life/project impact/code/demos/demo_2_collision/src/obstacle.cpp'
p807
(lp808
I1
ag792
asS'c:/users/1106786/dropbox/dropbox/pg life/project impact/code/demos/demo_2_collision/h/obstacle.h'
p809
(lp810
I1
ag792
asS'c:/users/1106786/dropbox/dropbox/pg life/project impact/code/demos/demo_2_collision/src/tile.cpp'
p811
(lp812
I1
ag792
asS'c:/users/1106786/dropbox/dropbox/pg life/project impact/code/demos/demo_2_collision/src/maze.cpp'
p813
(lp814
I1
ag792
asS'c:/users/1106786/dropbox/dropbox/pg life/project impact/code/demos/demo_2_collision/src/game.cpp'
p815
(lp816
I1
ag792
asS'c:/users/1106786/dropbox/dropbox/pg life/project impact/code/demos/demo_2_collision/h/tile.h'
p817
(lp818
I1
ag792
asS'c:/users/1106786/dropbox/dropbox/pg life/project impact/code/demos/demo_2_collision/h/input.h'
p819
(lp820
I1
ag792
asS'c:/users/1106786/dropbox/dropbox/pg life/project impact/code/demos/demo_2_collision/src/main.cpp'
p821
(lp822
I1
ag792
asS'c:/users/1106786/dropbox/dropbox/pg life/project impact/code/demos/demo_2_collision/src/tiles.cpp'
p823
(lp824
I1
ag792
assS'Data'
p825
(dp826
S'c:/users/1106786/dropbox/dropbox/pg life/project impact/code/demos/demo_2_collision/data/imgs.group'
p827
(lp828
I1
ag792
assS'c:/users/1106786/dropbox/dropbox/pg life/project impact/code/demos/demo_2_collision/demo_2_collision.mkf'
p829
(lp830
I1
a(dp831
assS'(tiniconv)'
p832
(dp833
Vc:/users/1106786/appdata/roaming/marmalade/packages/6.2.2/tiniconv_1.0.1/tiniconv.mkf
p834
(lp835
I1
a(dp836
asVc:/users/1106786/appdata/roaming/marmalade/packages/6.2.2/tiniconv_1.0.1/h/tiniconv.h
p837
(lp838
I1
a(dp839
asVc:/users/1106786/appdata/roaming/marmalade/packages/6.2.2/tiniconv_1.0.1/h/tiniconv_int.h
p840
(lp841
I1
ag839
assS"'Marmalade Studio'"
p842
(dp843
S'iwgl'
p844
(dp845
S'c:/marmalade/6.2/modules/iwgl/h/IwGLExt.h'
p846
(lp847
I1
a(dp848
asS'c:/marmalade/6.2/modules/iwgl/docs/iwgl.config.txt'
p849
(lp850
I1
ag848
asS'c:/marmalade/6.2/modules/iwgl/h/IwGL.h'
p851
(lp852
I1
ag848
asS'c:/marmalade/6.2/modules/iwgl/iwgl.mkf'
p853
(lp854
I1
a(dp855
assS'iw2d'
p856
(dp857
S'c:/marmalade/6.2/modules/iw2d/h/Iw2D.h'
p858
(lp859
I1
a(dp860
asS'c:/marmalade/6.2/modules/iw2d/docs/iw2d_public.defines.txt'
p861
(lp862
I1
ag860
asS'c:/marmalade/6.2/modules/iw2d/docs/iw2d.config.txt'
p863
(lp864
I1
ag860
asS'c:/marmalade/6.2/modules/iw2d/iw2d.mkf'
p865
(lp866
I1
a(dp867
assS'iwgxfont'
p868
(dp869
S'c:/marmalade/6.2/modules/iwgxfont/docs/iwgxfont_public.defines.txt'
p870
(lp871
I1
a(dp872
asS'c:/marmalade/6.2/modules/iwgxfont/iwgxfont.mkf'
p873
(lp874
I1
a(dp875
asS'c:/marmalade/6.2/modules/iwgxfont/h/IwGxFontState.h'
p876
(lp877
I1
ag872
asS'c:/marmalade/6.2/modules/iwgxfont/h/IwGxFontGlyph.h'
p878
(lp879
I1
ag872
asS'c:/marmalade/6.2/modules/iwgxfont/h/IwGxFontPreparedData.h'
p880
(lp881
I1
ag872
asS'c:/marmalade/6.2/modules/iwgxfont/h/IwGxFontContainer.h'
p882
(lp883
I1
ag872
asS'c:/marmalade/6.2/modules/iwgxfont/h/IwGxFontTypes.h'
p884
(lp885
I1
ag872
asS'c:/marmalade/6.2/modules/iwgxfont/docs/iwgxfont.config.txt'
p886
(lp887
I1
ag872
asS'c:/marmalade/6.2/modules/iwgxfont/h/IwGxFont.h'
p888
(lp889
I1
ag872
assS'iwgeom'
p890
(dp891
S'c:/marmalade/6.2/modules/iwgeom/h/IwGeomMenu.h'
p892
(lp893
I1
a(dp894
asS'c:/marmalade/6.2/modules/iwgeom/h/IwGeomFVec3.h'
p895
(lp896
I1
ag894
asS'c:/marmalade/6.2/modules/iwgeom/h/IwGeom.h'
p897
(lp898
I1
ag894
asS'c:/marmalade/6.2/modules/iwgeom/h/IwGeomFVec4.h'
p899
(lp900
I1
ag894
asS'c:/marmalade/6.2/modules/iwgeom/h/IwGeomVec2.h'
p901
(lp902
I1
ag894
asS'c:/marmalade/6.2/modules/iwgeom/h/IwGeomIntersect.h'
p903
(lp904
I1
ag894
asS'c:/marmalade/6.2/modules/iwgeom/h/IwGeomFBBox.h'
p905
(lp906
I1
ag894
asS'c:/marmalade/6.2/modules/iwgeom/h/IwGeomLegacy.h'
p907
(lp908
I1
ag894
asS'c:/marmalade/6.2/modules/iwgeom/h/IwGeomSqrt.h'
p909
(lp910
I1
ag894
asS'c:/marmalade/6.2/modules/iwgeom/h/IwGeomFIntersect.h'
p911
(lp912
I1
ag894
asS'c:/marmalade/6.2/modules/iwgeom/h/IwGeomSVec4.h'
p913
(lp914
I1
ag894
asS'c:/marmalade/6.2/modules/iwgeom/h/IwGeomCore.h'
p915
(lp916
I1
ag894
asS'c:/marmalade/6.2/modules/iwgeom/h/IwGeomBBox.h'
p917
(lp918
I1
ag894
asS'c:/marmalade/6.2/modules/iwgeom/h/IwGeomVec4.h'
p919
(lp920
I1
ag894
asS'c:/marmalade/6.2/modules/iwgeom/h/IwGeomFPlane.h'
p921
(lp922
I1
ag894
asS'c:/marmalade/6.2/modules/iwgeom/docs/iwgeom.config.txt'
p923
(lp924
I1
ag894
asS'c:/marmalade/6.2/modules/iwgeom/h/IwGeomSQuat.h'
p925
(lp926
I1
ag894
asS'c:/marmalade/6.2/modules/iwgeom/iwgeom.mkf'
p927
(lp928
I1
a(dp929
asS'c:/marmalade/6.2/modules/iwgeom/h/IwGeomQuat.h'
p930
(lp931
I1
ag894
asS'c:/marmalade/6.2/modules/iwgeom/h/IwGeomMat2D.h'
p932
(lp933
I1
ag894
asS'c:/marmalade/6.2/modules/iwgeom/h/IwGeomFSphere.h'
p934
(lp935
I1
ag894
asS'c:/marmalade/6.2/modules/iwgeom/h/IwGeomSVec3.h'
p936
(lp937
I1
ag894
asS'c:/marmalade/6.2/modules/iwgeom/h/IwGeomSVec2.h'
p938
(lp939
I1
ag894
asS'c:/marmalade/6.2/modules/iwgeom/h/IwGeomSphere.h'
p940
(lp941
I1
ag894
asS'c:/marmalade/6.2/modules/iwgeom/h/IwGeomPlane.h'
p942
(lp943
I1
ag894
asS'c:/marmalade/6.2/modules/iwgeom/h/IwGeomFMat.h'
p944
(lp945
I1
ag894
asS'c:/marmalade/6.2/modules/iwgeom/h/IwGeomFVec2.h'
p946
(lp947
I1
ag894
asS'c:/marmalade/6.2/modules/iwgeom/h/IwGeomMat.h'
p948
(lp949
I1
ag894
asS'c:/marmalade/6.2/modules/iwgeom/h/IwGeomFQuat.h'
p950
(lp951
I1
ag894
asS'c:/marmalade/6.2/modules/iwgeom/h/IwGeomFMat2D.h'
p952
(lp953
I1
ag894
asS'c:/marmalade/6.2/modules/iwgeom/h/IwGeomVec.h'
p954
(lp955
I1
ag894
asS'c:/marmalade/6.2/modules/iwgeom/h/IwGeomVec3.h'
p956
(lp957
I1
ag894
assS'iwresmanager'
p958
(dp959
S'c:/marmalade/6.2/modules/iwresmanager/h/IwResSerialise.h'
p960
(lp961
I1
a(dp962
asS'c:/marmalade/6.2/modules/iwresmanager/h/IwResHandlerGROUP.h'
p963
(lp964
I1
ag962
asS'c:/marmalade/6.2/modules/iwresmanager/h/IwResManagerClass.h'
p965
(lp966
I1
ag962
asS'c:/marmalade/6.2/modules/iwresmanager/h/IwResHandlerImage.h'
p967
(lp968
I1
ag962
asS'c:/marmalade/6.2/modules/iwresmanager/docs/iwresmanager.config.txt'
p969
(lp970
I1
ag962
asS'c:/marmalade/6.2/modules/iwresmanager/h/IwResHandler.h'
p971
(lp972
I1
ag962
asS'c:/marmalade/6.2/modules/iwresmanager/iwresmanager.mkf'
p973
(lp974
I1
a(dp975
asS'c:/marmalade/6.2/modules/iwresmanager/h/IwResGroup.h'
p976
(lp977
I1
ag962
asS'c:/marmalade/6.2/modules/iwresmanager/h/IwResManager.h'
p978
(lp979
I1
ag962
asS'c:/marmalade/6.2/modules/iwresmanager/h/IwResHandlerITX.h'
p980
(lp981
I1
ag962
assS'iwgx'
p982
(dp983
S'c:/marmalade/6.2/modules/iwgx/h/IwGxFuncTable.h'
p984
(lp985
I1
a(dp986
asS'c:/marmalade/6.2/modules/iwgx/h/IwClip.inl'
p987
(lp988
I1
ag986
asS'c:/marmalade/6.2/modules/iwgx/h/IwGxTypes.h'
p989
(lp990
I1
ag986
asS'c:/marmalade/6.2/modules/iwgx/h/IwGxTransformSW.h'
p991
(lp992
I1
ag986
asS'c:/marmalade/6.2/modules/iwgx/docs/iwgx_public.defines.txt'
p993
(lp994
I1
ag986
asS'c:/marmalade/6.2/modules/iwgx/h/IwDebugPrim.h'
p995
(lp996
I1
ag986
asS'c:/marmalade/6.2/modules/iwgx/h/IwResHandlerMTL.h'
p997
(lp998
I1
ag986
asS'c:/marmalade/6.2/modules/iwgx/docs/iwgx.config.txt'
p999
(lp1000
I1
ag986
asS'c:/marmalade/6.2/modules/iwgx/h/IwGxDebug.h'
p1001
(lp1002
I1
ag986
asS'c:/marmalade/6.2/modules/iwgx/h/IwTexture.h'
p1003
(lp1004
I1
ag986
asS'c:/marmalade/6.2/modules/iwgx/h/IwFColour.h'
p1005
(lp1006
I1
ag986
asS'c:/marmalade/6.2/modules/iwgx/h/IwGxError.h'
p1007
(lp1008
I1
ag986
asS'c:/marmalade/6.2/modules/iwgx/h/IwColour.h'
p1009
(lp1010
I1
ag986
asS'c:/marmalade/6.2/modules/iwgx/h/IwMaterial.h'
p1011
(lp1012
I1
ag986
asS'c:/marmalade/6.2/modules/iwgx/h/IwGxPrint.h'
p1013
(lp1014
I1
ag986
asS'c:/marmalade/6.2/modules/iwgx/h/IwTPage.h'
p1015
(lp1016
I1
ag986
asS'c:/marmalade/6.2/modules/iwgx/iwgx.mkf'
p1017
(lp1018
I1
a(dp1019
asS'c:/marmalade/6.2/modules/iwgx/h/IwGxMetrics.h'
p1020
(lp1021
I1
ag986
asS'c:/marmalade/6.2/modules/iwgx/h/IwGxSurface.h'
p1022
(lp1023
I1
ag986
asS'c:/marmalade/6.2/modules/iwgx/h/IwGx.h'
p1024
(lp1025
I1
ag986
asS'c:/marmalade/6.2/modules/iwgx/h/IwGxShaderTechnique.h'
p1026
(lp1027
I1
ag986
asS'c:/marmalade/6.2/modules/iwgx/h/IwGxStream.h'
p1028
(lp1029
I1
ag986
asS'c:/marmalade/6.2/modules/iwgx/h/IwMatAnim.h'
p1030
(lp1031
I1
ag986
asS'c:/marmalade/6.2/modules/iwgx/h/IwClip.h'
p1032
(lp1033
I1
ag986
asS'c:/marmalade/6.2/modules/iwgx/h/IwGxState.h'
p1034
(lp1035
I1
ag986
assS'iwutil'
p1036
(dp1037
S'c:/marmalade/6.2/modules/iwutil/h/IwBuffer.h'
p1038
(lp1039
I1
a(dp1040
asS'c:/marmalade/6.2/modules/iwutil/h/IwResource.h'
p1041
(lp1042
I1
ag1040
asS'c:/marmalade/6.2/modules/iwutil/h/IwFile.h'
p1043
(lp1044
I1
ag1040
asS'c:/marmalade/6.2/modules/iwutil/docs/iwutil.config.txt'
p1045
(lp1046
I1
ag1040
asS'c:/marmalade/6.2/modules/iwutil/h/IwCore.h'
p1047
(lp1048
I1
ag1040
asS'c:/marmalade/6.2/modules/iwutil/h/IwOptimiseSpeed.h'
p1049
(lp1050
I1
ag1040
asS'c:/marmalade/6.2/modules/iwutil/h/IwSerialise.h'
p1051
(lp1052
I1
ag1040
asS'c:/marmalade/6.2/modules/iwutil/h/IwPath.h'
p1053
(lp1054
I1
ag1040
asS'c:/marmalade/6.2/modules/iwutil/h/IwImage.h'
p1055
(lp1056
I1
ag1040
asS'c:/marmalade/6.2/modules/iwutil/h/IwCopyingPtr.h'
p1057
(lp1058
I1
ag1040
asS'c:/marmalade/6.2/modules/iwutil/h/IwUtilInitTerm.h'
p1059
(lp1060
I1
ag1040
asS'c:/marmalade/6.2/modules/iwutil/h/IwOptimiseARM.h'
p1061
(lp1062
I1
ag1040
asS'c:/marmalade/6.2/modules/iwutil/h/IwMath.h'
p1063
(lp1064
I1
ag1040
asS'c:/marmalade/6.2/modules/iwutil/iwutil.mkf'
p1065
(lp1066
I1
a(dp1067
asS'c:/marmalade/6.2/modules/iwutil/h/IwUncopyable.h'
p1068
(lp1069
I1
ag1040
asS'c:/marmalade/6.2/modules/iwutil/h/IwDebug.h'
p1070
(lp1071
I1
ag1040
asS'c:/marmalade/6.2/modules/iwutil/h/IwSingleton.h'
p1072
(lp1073
I1
ag1040
asS'c:/marmalade/6.2/modules/iwutil/h/IwRandom.h'
p1074
(lp1075
I1
ag1040
asS'c:/marmalade/6.2/modules/iwutil/h/IwMemManagerDL.h'
p1076
(lp1077
I1
ag1040
asS'c:/marmalade/6.2/modules/iwutil/h/IwMemory.h'
p1078
(lp1079
I1
ag1040
asS'c:/marmalade/6.2/modules/iwutil/h/IwUtil.h'
p1080
(lp1081
I1
ag1040
asS'c:/marmalade/6.2/modules/iwutil/h/IwManagedList.h'
p1082
(lp1083
I1
ag1040
asS'c:/marmalade/6.2/modules/iwutil/h/IwMenu.h'
p1084
(lp1085
I1
ag1040
asS'c:/marmalade/6.2/modules/iwutil/h/IwArray.h'
p1086
(lp1087
I1
ag1040
asS'c:/marmalade/6.2/modules/iwutil/h/IwOptimiseSize.h'
p1088
(lp1089
I1
ag1040
asS'c:/marmalade/6.2/modules/iwutil/h/IwString.h'
p1090
(lp1091
I1
ag1040
asS'c:/marmalade/6.2/modules/iwutil/h/IwProfileMenu.h'
p1092
(lp1093
I1
ag1040
asS'c:/marmalade/6.2/modules/iwutil/h/IwKeymap.h'
p1094
(lp1095
I1
ag1040
asS'c:/marmalade/6.2/modules/iwutil/h/IwMemBucket.h'
p1096
(lp1097
I1
ag1040
asS'c:/marmalade/6.2/modules/iwutil/h/IwUTF8.h'
p1098
(lp1099
I1
ag1040
asS'c:/marmalade/6.2/modules/iwutil/h/IwRuntime.h'
p1100
(lp1101
I1
ag1040
asS'c:/marmalade/6.2/modules/iwutil/h/IwVariableBitField.h'
p1102
(lp1103
I1
ag1040
asS'c:/marmalade/6.2/modules/iwutil/h/IwOptimiseThumb.h'
p1104
(lp1105
I1
ag1040
asS'c:/marmalade/6.2/modules/iwutil/h/IwList.h'
p1106
(lp1107
I1
ag1040
asS'c:/marmalade/6.2/modules/iwutil/h/IwDivTable.h'
p1108
(lp1109
I1
ag1040
asS'c:/marmalade/6.2/modules/iwutil/h/IwMemBucketHelpers.h'
p1110
(lp1111
I1
ag1040
asS'c:/marmalade/6.2/modules/iwutil/h/IwClassFactory.h'
p1112
(lp1113
I1
ag1040
asS'c:/marmalade/6.2/modules/iwutil/h/IwAutoFile.h'
p1114
(lp1115
I1
ag1040
asS'c:/marmalade/6.2/modules/iwutil/h/IwAllocator.h'
p1116
(lp1117
I1
ag1040
asS'c:/marmalade/6.2/modules/iwutil/h/IwImageHelper.h'
p1118
(lp1119
I1
ag1040
asS'c:/marmalade/6.2/modules/iwutil/h/IwTextParserITX.h'
p1120
(lp1121
I1
ag1040
asS'c:/marmalade/6.2/modules/iwutil/h/IwTextParser.h'
p1122
(lp1123
I1
ag1040
asS'c:/marmalade/6.2/modules/iwutil/h/IwTextParseable.h'
p1124
(lp1125
I1
ag1040
asS'c:/marmalade/6.2/modules/iwutil/h/IwDivide.h'
p1126
(lp1127
I1
ag1040
asS'c:/marmalade/6.2/modules/iwutil/h/IwHashString.h'
p1128
(lp1129
I1
ag1040
asS'c:/marmalade/6.2/modules/iwutil/h/IwTypes.h'
p1130
(lp1131
I1
ag1040
asS'c:/marmalade/6.2/modules/iwutil/h/IwManaged.h'
p1132
(lp1133
I1
ag1040
asS'c:/marmalade/6.2/modules/iwutil/h/IwEvent.h'
p1134
(lp1135
I1
ag1040
asS'c:/marmalade/6.2/modules/iwutil/h/IwChar.h'
p1136
(lp1137
I1
ag1040
asS'c:/marmalade/6.2/modules/iwutil/h/IwFibre.h'
p1138
(lp1139
I1
ag1040
asssS'(zlib)'
p1140
(dp1141
Vc:/users/1106786/appdata/roaming/marmalade/packages/6.2.2/zlib_1.2.4/h/zconf.h
p1142
(lp1143
I1
a(dp1144
asVc:/users/1106786/appdata/roaming/marmalade/packages/6.2.2/zlib_1.2.4/h/zlib.h
p1145
(lp1146
I1
ag1144
asVc:/users/1106786/appdata/roaming/marmalade/packages/6.2.2/zlib_1.2.4/zlib.mkf
p1147
(lp1148
I1
a(dp1149
asssS'files'
p1150
(dp1151
S'IwGxFontPreparedData.h'
p1152
g240
(cmkb_main
File
p1153
g242
Ntp1154
Rp1155
(dp1156
S'flags'
p1157
g872
sS'group'
p1158
(lp1159
S"'Marmalade Studio'"
p1160
ag868
asg270
g880
sbsS'iterator'
p1161
g240
(g1153
g242
Ntp1162
Rp1163
(dp1164
g1157
(dp1165
sg1158
(lp1166
S"'Marmalade System (S3E)'"
p1167
aS'stdc headers'
p1168
aS'c++'
p1169
asg270
S'c:/marmalade/6.2/s3e/h/std/c++/iterator'
p1170
sbsS'IwGeomPlane.h'
p1171
g240
(g1153
g242
Ntp1172
Rp1173
(dp1174
g1157
g894
sg1158
(lp1175
S"'Marmalade Studio'"
p1176
ag890
asg270
g942
sbsS's3e.h'
p1177
g240
(g1153
g242
Ntp1178
Rp1179
(dp1180
g1157
g1165
sg1158
(lp1181
g1167
asg270
S'c:/marmalade/6.2/s3e/h/s3e.h'
p1182
sbsS'errno.h'
p1183
g240
(g1153
g242
Ntp1184
Rp1185
(dp1186
g1157
g1165
sg1158
(lp1187
g1167
aS'stdc headers'
p1188
asg270
S'c:/marmalade/6.2/s3e/h/std/errno.h'
p1189
sbsS'IwSingleton.h'
p1190
g240
(g1153
g242
Ntp1191
Rp1192
(dp1193
g1157
g1040
sg1158
(lp1194
S"'Marmalade Studio'"
p1195
ag1036
asg270
g1072
sbsS'dlfcn.h'
p1196
g240
(g1153
g242
Ntp1197
Rp1198
(dp1199
g1157
g1165
sg1158
g1187
sg270
S'c:/marmalade/6.2/s3e/h/std/dlfcn.h'
p1200
sbsS'stdio_streambuf'
p1201
g240
(g1153
g242
Ntp1202
Rp1203
(dp1204
g1157
g1165
sg1158
g1166
sg270
S'c:/marmalade/6.2/s3e/h/std/c++/stdio_streambuf'
p1205
sbsS'sched.h'
p1206
g240
(g1153
g242
Ntp1207
Rp1208
(dp1209
g1157
g1165
sg1158
g1187
sg270
S'c:/marmalade/6.2/s3e/h/std/sched.h'
p1210
sbsS'IwGeomFMat2D.h'
p1211
g240
(g1153
g242
Ntp1212
Rp1213
(dp1214
g1157
g894
sg1158
g1175
sg270
g952
sbsS's3eExt.h'
p1215
g240
(g1153
g242
Ntp1216
Rp1217
(dp1218
g1157
g1165
sg1158
g1181
sg270
S'c:/marmalade/6.2/s3e/h/s3eExt.h'
p1219
sbsS'grp.h'
p1220
g240
(g1153
g242
Ntp1221
Rp1222
(dp1223
g1157
g1165
sg1158
g1187
sg270
S'c:/marmalade/6.2/s3e/h/std/grp.h'
p1224
sbsS'list'
p1225
g240
(g1153
g242
Ntp1226
Rp1227
(dp1228
g1157
g1165
sg1158
g1166
sg270
S'c:/marmalade/6.2/s3e/h/std/c++/list'
p1229
sbsS'istream'
p1230
g240
(g1153
g242
Ntp1231
Rp1232
(dp1233
g1157
g1165
sg1158
g1166
sg270
S'c:/marmalade/6.2/s3e/h/std/c++/istream'
p1234
sbsVjpeglib.h
p1235
g240
(g1153
g242
Ntp1236
Rp1237
(dp1238
g1157
g756
sg1158
(lp1239
g752
asg270
g776
sbsS'iw2d_public.defines.txt'
p1240
g240
(g1153
g242
Ntp1241
Rp1242
(dp1243
g1157
g860
sg1158
(lp1244
S"'Marmalade Studio'"
p1245
ag856
asg270
g861
sbsS'iostream.h'
p1246
g240
(g1153
g242
Ntp1247
Rp1248
(dp1249
g1157
g1165
sg1158
g1166
sg270
S'c:/marmalade/6.2/s3e/h/std/c++/iostream.h'
p1250
sbsS'string'
p1251
g240
(g1153
g242
Ntp1252
Rp1253
(dp1254
g1157
g1165
sg1158
g1166
sg270
S'c:/marmalade/6.2/s3e/h/std/c++/string'
p1255
sbsS'IwMemory.h'
p1256
g240
(g1153
g242
Ntp1257
Rp1258
(dp1259
g1157
g1040
sg1158
g1194
sg270
g1078
sbsS'IwGL.h'
p1260
g240
(g1153
g242
Ntp1261
Rp1262
(dp1263
g1157
g848
sg1158
(lp1264
S"'Marmalade Studio'"
p1265
ag844
asg270
g851
sbsS'iw2d.config.txt'
p1266
g240
(g1153
g242
Ntp1267
Rp1268
(dp1269
g1157
g860
sg1158
g1244
sg270
g863
sbsS'iomanip'
p1270
g240
(g1153
g242
Ntp1271
Rp1272
(dp1273
g1157
g1165
sg1158
g1166
sg270
S'c:/marmalade/6.2/s3e/h/std/c++/iomanip'
p1274
sbsS'iwgeom.mkf'
p1275
g240
(g1153
g242
Ntp1276
Rp1277
(dp1278
g1157
g929
sg1158
g1175
sg270
g927
sbsS'IwGxError.h'
p1279
g240
(g1153
g242
Ntp1280
Rp1281
(dp1282
g1157
g986
sg1158
(lp1283
S"'Marmalade Studio'"
p1284
ag982
asg270
g1007
sbsS'IwGeom.h'
p1285
g240
(g1153
g242
Ntp1286
Rp1287
(dp1288
g1157
g894
sg1158
g1175
sg270
g897
sbsS'IwGeomVec4.h'
p1289
g240
(g1153
g242
Ntp1290
Rp1291
(dp1292
g1157
g894
sg1158
g1175
sg270
g919
sbsS'dir.h'
p1293
g240
(g1153
g242
Ntp1294
Rp1295
(dp1296
g1157
g1165
sg1158
(lp1297
g1167
aS'stdc headers'
p1298
aS'sys'
p1299
asg270
S'c:/marmalade/6.2/s3e/h/std/sys/dir.h'
p1300
sbsS'locale.h'
p1301
g240
(g1153
g242
Ntp1302
Rp1303
(dp1304
g1157
g1165
sg1158
g1187
sg270
S'c:/marmalade/6.2/s3e/h/std/locale.h'
p1305
sbsS'vector'
p1306
g240
(g1153
g242
Ntp1307
Rp1308
(dp1309
g1157
g1165
sg1158
g1166
sg270
S'c:/marmalade/6.2/s3e/h/std/c++/vector'
p1310
sbsS'IwManaged.h'
p1311
g240
(g1153
g242
Ntp1312
Rp1313
(dp1314
g1157
g1040
sg1158
g1194
sg270
g1132
sbsS's3eCompass.h'
p1315
g240
(g1153
g242
Ntp1316
Rp1317
(dp1318
g1157
g1165
sg1158
g1181
sg270
S'c:/marmalade/6.2/s3e/h/s3eCompass.h'
p1319
sbsVcderror.h
p1320
g240
(g1153
g242
Ntp1321
Rp1322
(dp1323
g1157
g756
sg1158
g1239
sg270
g761
sbsS'climits'
p1324
g240
(g1153
g242
Ntp1325
Rp1326
(dp1327
g1157
g1165
sg1158
g1166
sg270
S'c:/marmalade/6.2/s3e/h/std/c++/climits'
p1328
sbsS's3eVibra.h'
p1329
g240
(g1153
g242
Ntp1330
Rp1331
(dp1332
g1157
g1165
sg1158
g1181
sg270
S'c:/marmalade/6.2/s3e/h/s3eVibra.h'
p1333
sbsVjversion.h
p1334
g240
(g1153
g242
Ntp1335
Rp1336
(dp1337
g1157
g756
sg1158
g1239
sg270
g770
sbsS'fnmatch.h'
p1338
g240
(g1153
g242
Ntp1339
Rp1340
(dp1341
g1157
g1165
sg1158
g1187
sg270
S'c:/marmalade/6.2/s3e/h/std/fnmatch.h'
p1342
sbsS'IwGxState.h'
p1343
g240
(g1153
g242
Ntp1344
Rp1345
(dp1346
g1157
g986
sg1158
g1283
sg270
g1034
sbsS's3eAudio.h'
p1347
g240
(g1153
g242
Ntp1348
Rp1349
(dp1350
g1157
g1165
sg1158
g1181
sg270
S'c:/marmalade/6.2/s3e/h/s3eAudio.h'
p1351
sbsS's3eSurface.h'
p1352
g240
(g1153
g242
Ntp1353
Rp1354
(dp1355
g1157
g1165
sg1158
g1181
sg270
S'c:/marmalade/6.2/s3e/h/s3eSurface.h'
p1356
sbsS'new'
p1357
g240
(g1153
g242
Ntp1358
Rp1359
(dp1360
g1157
g1165
sg1158
g1166
sg270
S'c:/marmalade/6.2/s3e/h/std/c++/new'
p1361
sbsS's3eWindow.h'
p1362
g240
(g1153
g242
Ntp1363
Rp1364
(dp1365
g1157
g1165
sg1158
(lp1366
g1167
aS'Extensions'
p1367
asg270
S'c:/marmalade/6.2/s3e/h/ext/s3eWindow.h'
p1368
sbsS'IwBuffer.h'
p1369
g240
(g1153
g242
Ntp1370
Rp1371
(dp1372
g1157
g1040
sg1158
g1194
sg270
g1038
sbsS's3eOSExec.h'
p1373
g240
(g1153
g242
Ntp1374
Rp1375
(dp1376
g1157
g1165
sg1158
g1366
sg270
S'c:/marmalade/6.2/s3e/h/ext/s3eOSExec.h'
p1377
sbsS'IwGxTransformSW.h'
p1378
g240
(g1153
g242
Ntp1379
Rp1380
(dp1381
g1157
g986
sg1158
g1283
sg270
g991
sbsS'maze.cpp'
p1382
g240
(g1153
g242
Ntp1383
Rp1384
(dp1385
g1157
g792
sg1158
(lp1386
g786
ag788
asg270
g813
sbsS'imgs.group'
p1387
g240
(g1153
g242
Ntp1388
Rp1389
(dp1390
g1157
g792
sg1158
(lp1391
g786
ag825
asg270
g827
sbsS'unistd.h'
p1392
g240
(g1153
g242
Ntp1393
Rp1394
(dp1395
g1157
g1165
sg1158
g1187
sg270
S'c:/marmalade/6.2/s3e/h/std/unistd.h'
p1396
sbsS'iwgxfont.config.txt'
p1397
g240
(g1153
g242
Ntp1398
Rp1399
(dp1400
g1157
g872
sg1158
g1159
sg270
g886
sbsS'gl2platform.h'
p1401
g240
(g1153
g242
Ntp1402
Rp1403
(dp1404
g1157
g1165
sg1158
(lp1405
g1167
aS'GL'
p1406
aS'GLES 2.0'
p1407
asg270
S'c:/marmalade/6.2/s3e/h/GLES2/gl2platform.h'
p1408
sbsS'IwResManagerClass.h'
p1409
g240
(g1153
g242
Ntp1410
Rp1411
(dp1412
g1157
g962
sg1158
(lp1413
g842
ag958
asg270
g965
sbsS'queue'
p1414
g240
(g1153
g242
Ntp1415
Rp1416
(dp1417
g1157
g1165
sg1158
g1166
sg270
S'c:/marmalade/6.2/s3e/h/std/c++/queue'
p1418
sbsS'time_1.h'
p1419
g240
(g1153
g242
Ntp1420
Rp1421
(dp1422
g1157
g1165
sg1158
g1297
sg270
S'c:/marmalade/6.2/s3e/h/std/sys/time.h'
p1423
sbsS'Iw2D.h'
p1424
g240
(g1153
g242
Ntp1425
Rp1426
(dp1427
g1157
g860
sg1158
g1244
sg270
g858
sbsS'IwGeomVec2.h'
p1428
g240
(g1153
g242
Ntp1429
Rp1430
(dp1431
g1157
g894
sg1158
g1175
sg270
g901
sbsS's3eDevice.h'
p1432
g240
(g1153
g242
Ntp1433
Rp1434
(dp1435
g1157
g1165
sg1158
g1181
sg270
S'c:/marmalade/6.2/s3e/h/s3eDevice.h'
p1436
sbsS'malloc.h'
p1437
g240
(g1153
g242
Ntp1438
Rp1439
(dp1440
g1157
g1165
sg1158
g1187
sg270
S'c:/marmalade/6.2/s3e/h/std/malloc.h'
p1441
sbsS'stdarg.h'
p1442
g240
(g1153
g242
Ntp1443
Rp1444
(dp1445
g1157
g1165
sg1158
g1187
sg270
S'c:/marmalade/6.2/s3e/h/std/stdarg.h'
p1446
sbsS'IwGeomCore.h'
p1447
g240
(g1153
g242
Ntp1448
Rp1449
(dp1450
g1157
g894
sg1158
g1175
sg270
g915
sbsS'endian.h'
p1451
g240
(g1153
g242
Ntp1452
Rp1453
(dp1454
g1157
g1165
sg1158
g1187
sg270
S'c:/marmalade/6.2/s3e/h/std/endian.h'
p1455
sbsS'glob.h'
p1456
g240
(g1153
g242
Ntp1457
Rp1458
(dp1459
g1157
g1165
sg1158
g1187
sg270
S'c:/marmalade/6.2/s3e/h/std/glob.h'
p1460
sbsS'fstream'
p1461
g240
(g1153
g242
Ntp1462
Rp1463
(dp1464
g1157
g1165
sg1158
g1166
sg270
S'c:/marmalade/6.2/s3e/h/std/c++/fstream'
p1465
sbsS's3eCamera.h'
p1466
g240
(g1153
g242
Ntp1467
Rp1468
(dp1469
g1157
g1165
sg1158
g1181
sg270
S'c:/marmalade/6.2/s3e/h/s3eCamera.h'
p1470
sbsVjconfig.h
p1471
g240
(g1153
g242
Ntp1472
Rp1473
(dp1474
g1157
g756
sg1158
g1239
sg270
g759
sbsS'memory'
p1475
g240
(g1153
g242
Ntp1476
Rp1477
(dp1478
g1157
g1165
sg1158
g1166
sg270
S'c:/marmalade/6.2/s3e/h/std/c++/memory'
p1479
sbsS'egl.h'
p1480
g240
(g1153
g242
Ntp1481
Rp1482
(dp1483
g1157
g1165
sg1158
(lp1484
g1167
aS'GL'
p1485
aS'EGL'
p1486
asg270
S'c:/marmalade/6.2/s3e/h/EGL/egl.h'
p1487
sbsS'IwClip.inl'
p1488
g240
(g1153
g242
Ntp1489
Rp1490
(dp1491
g1157
g986
sg1158
g1283
sg270
g987
sbsS'IwMemManagerDL.h'
p1492
g240
(g1153
g242
Ntp1493
Rp1494
(dp1495
g1157
g1040
sg1158
g1194
sg270
g1076
sbsS'deque'
p1496
g240
(g1153
g242
Ntp1497
Rp1498
(dp1499
g1157
g1165
sg1158
g1166
sg270
S'c:/marmalade/6.2/s3e/h/std/c++/deque'
p1500
sbsS'IwString.h'
p1501
g240
(g1153
g242
Ntp1502
Rp1503
(dp1504
g1157
g1040
sg1158
g1194
sg270
g1090
sbsS'cwchar'
p1505
g240
(g1153
g242
Ntp1506
Rp1507
(dp1508
g1157
g1165
sg1158
g1166
sg270
S'c:/marmalade/6.2/s3e/h/std/c++/cwchar'
p1509
sbsS'iwutil.mkf'
p1510
g240
(g1153
g242
Ntp1511
Rp1512
(dp1513
g1157
g1067
sg1158
g1194
sg270
g1065
sbsS'csignal'
p1514
g240
(g1153
g242
Ntp1515
Rp1516
(dp1517
g1157
g1165
sg1158
g1166
sg270
S'c:/marmalade/6.2/s3e/h/std/c++/csignal'
p1518
sbsS'float.h'
p1519
g240
(g1153
g242
Ntp1520
Rp1521
(dp1522
g1157
g1165
sg1158
g1187
sg270
S'c:/marmalade/6.2/s3e/h/std/float.h'
p1523
sbsS'pthread_alloc'
p1524
g240
(g1153
g242
Ntp1525
Rp1526
(dp1527
g1157
g1165
sg1158
g1166
sg270
S'c:/marmalade/6.2/s3e/h/std/c++/pthread_alloc'
p1528
sbsS'getopt.h'
p1529
g240
(g1153
g242
Ntp1530
Rp1531
(dp1532
g1157
g1165
sg1158
g1187
sg270
S'c:/marmalade/6.2/s3e/h/std/getopt.h'
p1533
sbsS'IwOptimiseARM.h'
p1534
g240
(g1153
g242
Ntp1535
Rp1536
(dp1537
g1157
g1040
sg1158
g1194
sg270
g1061
sbsS'times.h'
p1538
g240
(g1153
g242
Ntp1539
Rp1540
(dp1541
g1157
g1165
sg1158
g1297
sg270
S'c:/marmalade/6.2/s3e/h/std/sys/times.h'
p1542
sbsS'IwGeomFSphere.h'
p1543
g240
(g1153
g242
Ntp1544
Rp1545
(dp1546
g1157
g894
sg1158
g1175
sg270
g934
sbsS'game.h'
p1547
g240
(g1153
g242
Ntp1548
Rp1549
(dp1550
g1157
g792
sg1158
g1386
sg270
g795
sbsS'functional'
p1551
g240
(g1153
g242
Ntp1552
Rp1553
(dp1554
g1157
g1165
sg1158
g1166
sg270
S'c:/marmalade/6.2/s3e/h/std/c++/functional'
p1555
sbsS'IwTypes.h'
p1556
g240
(g1153
g242
Ntp1557
Rp1558
(dp1559
g1157
g1040
sg1158
g1194
sg270
g1130
sbsS'IwGxMetrics.h'
p1560
g240
(g1153
g242
Ntp1561
Rp1562
(dp1563
g1157
g986
sg1158
g1283
sg270
g1020
sbsS's3eCompression.h'
p1564
g240
(g1153
g242
Ntp1565
Rp1566
(dp1567
g1157
g1165
sg1158
g1181
sg270
S'c:/marmalade/6.2/s3e/h/s3eCompression.h'
p1568
sbsS'langinfo.h'
p1569
g240
(g1153
g242
Ntp1570
Rp1571
(dp1572
g1157
g1165
sg1158
g1187
sg270
S'c:/marmalade/6.2/s3e/h/std/langinfo.h'
p1573
sbsS's3edebugHeap.h'
p1574
g240
(g1153
g242
Ntp1575
Rp1576
(dp1577
g1157
g1165
sg1158
g1366
sg270
S'c:/marmalade/6.2/s3e/h/ext/s3edebugHeap.h'
p1578
sbsS'AirplayVersion.h'
p1579
g240
(g1153
g242
Ntp1580
Rp1581
(dp1582
g1157
g1165
sg1158
g1181
sg270
S'c:/marmalade/6.2/s3e/h/AirplayVersion.h'
p1583
sbsS'gl2extimg.h'
p1584
g240
(g1153
g242
Ntp1585
Rp1586
(dp1587
g1157
g1165
sg1158
g1405
sg270
S'c:/marmalade/6.2/s3e/h/GLES2/gl2extimg.h'
p1588
sbsS'app.config.txt'
p1589
g240
(g1153
g242
Ntp1590
Rp1591
(dp1592
g1157
(dp1593
sg1158
g4
sg270
S'c:/Users/1106786/Dropbox/Dropbox/PG life/Project Impact/Code/Demos/Demo_2_Collision/data/app.config.txt'
p1594
sbsS'IwGeomSqrt.h'
p1595
g240
(g1153
g242
Ntp1596
Rp1597
(dp1598
g1157
g894
sg1158
g1175
sg270
g909
sbsVtiniconv_int.h
p1599
g240
(g1153
g242
Ntp1600
Rp1601
(dp1602
g1157
g839
sg1158
(lp1603
g832
asg270
g840
sbsS'syslog.h'
p1604
g240
(g1153
g242
Ntp1605
Rp1606
(dp1607
g1157
g1165
sg1158
g1187
sg270
S'c:/marmalade/6.2/s3e/h/std/syslog.h'
p1608
sbsS'IwGxFontTypes.h'
p1609
g240
(g1153
g242
Ntp1610
Rp1611
(dp1612
g1157
g872
sg1158
g1159
sg270
g884
sbsS'IwGeomFIntersect.h'
p1613
g240
(g1153
g242
Ntp1614
Rp1615
(dp1616
g1157
g894
sg1158
g1175
sg270
g911
sbsS'hash_map'
p1617
g240
(g1153
g242
Ntp1618
Rp1619
(dp1620
g1157
g1165
sg1158
g1166
sg270
S'c:/marmalade/6.2/s3e/h/std/c++/hash_map'
p1621
sbsS's3e.mkf'
p1622
g240
(g1153
g242
Ntp1623
Rp1624
(dp1625
g1157
(dp1626
sg1158
g1181
sg270
S'c:/marmalade/6.2/s3e/s3e.mkf'
p1627
sbsS's3eOSReadString.h'
p1628
g240
(g1153
g242
Ntp1629
Rp1630
(dp1631
g1157
g1165
sg1158
g1366
sg270
S'c:/marmalade/6.2/s3e/h/ext/s3eOSReadString.h'
p1632
sbsS'map'
p1633
g240
(g1153
g242
Ntp1634
Rp1635
(dp1636
g1157
g1165
sg1158
g1166
sg270
S'c:/marmalade/6.2/s3e/h/std/c++/map'
p1637
sbsS'IwOptimiseSpeed.h'
p1638
g240
(g1153
g242
Ntp1639
Rp1640
(dp1641
g1157
g1040
sg1158
g1194
sg270
g1049
sbsS'msl_string.h'
p1642
g240
(g1153
g242
Ntp1643
Rp1644
(dp1645
g1157
g1165
sg1158
g1166
sg270
S'c:/marmalade/6.2/s3e/h/std/c++/msl_string.h'
p1646
sbsS'select.h'
p1647
g240
(g1153
g242
Ntp1648
Rp1649
(dp1650
g1157
g1165
sg1158
g1297
sg270
S'c:/marmalade/6.2/s3e/h/std/sys/select.h'
p1651
sbsVzlib.mkf
p1652
g240
(g1153
g242
Ntp1653
Rp1654
(dp1655
g1157
g1149
sg1158
(lp1656
g1140
asg270
g1147
sbsS'signal.h'
p1657
g240
(g1153
g242
Ntp1658
Rp1659
(dp1660
g1157
g1165
sg1158
g1187
sg270
S'c:/marmalade/6.2/s3e/h/std/signal.h'
p1661
sbsS'sigcontext.h'
p1662
g240
(g1153
g242
Ntp1663
Rp1664
(dp1665
g1157
g1165
sg1158
g1187
sg270
S'c:/marmalade/6.2/s3e/h/std/sigcontext.h'
p1666
sbsVlibpng.mkf
p1667
g240
(g1153
g242
Ntp1668
Rp1669
(dp1670
g1157
g746
sg1158
(lp1671
g742
asg270
g744
sbsS's3eClipboard.h'
p1672
g240
(g1153
g242
Ntp1673
Rp1674
(dp1675
g1157
g1165
sg1158
g1181
sg270
S'c:/marmalade/6.2/s3e/h/s3eClipboard.h'
p1676
sbsS'IwGxFuncTable.h'
p1677
g240
(g1153
g242
Ntp1678
Rp1679
(dp1680
g1157
g986
sg1158
g1283
sg270
g984
sbsS'IwResHandlerGROUP.h'
p1681
g240
(g1153
g242
Ntp1682
Rp1683
(dp1684
g1157
g962
sg1158
g1413
sg270
g963
sbsS's3eDebug.h'
p1685
g240
(g1153
g242
Ntp1686
Rp1687
(dp1688
g1157
g1165
sg1158
g1181
sg270
S'c:/marmalade/6.2/s3e/h/s3eDebug.h'
p1689
sbsS'socket.h'
p1690
g240
(g1153
g242
Ntp1691
Rp1692
(dp1693
g1157
g1165
sg1158
g1297
sg270
S'c:/marmalade/6.2/s3e/h/std/sys/socket.h'
p1694
sbsS'glext.h'
p1695
g240
(g1153
g242
Ntp1696
Rp1697
(dp1698
g1157
g1165
sg1158
(lp1699
g1167
aS'GL'
p1700
aS'GLES 1.x'
p1701
asg270
S'c:/marmalade/6.2/s3e/h/GLES/glext.h'
p1702
sbsS'typeinfo.h'
p1703
g240
(g1153
g242
Ntp1704
Rp1705
(dp1706
g1157
g1165
sg1158
g1166
sg270
S'c:/marmalade/6.2/s3e/h/std/c++/typeinfo.h'
p1707
sbsS'typeinfo'
p1708
g240
(g1153
g242
Ntp1709
Rp1710
(dp1711
g1157
g1165
sg1158
g1166
sg270
S'c:/marmalade/6.2/s3e/h/std/c++/typeinfo'
p1712
sbsS'fstream.h'
p1713
g240
(g1153
g242
Ntp1714
Rp1715
(dp1716
g1157
g1165
sg1158
g1166
sg270
S'c:/marmalade/6.2/s3e/h/std/c++/fstream.h'
p1717
sbsS's3ePointer.h'
p1718
g240
(g1153
g242
Ntp1719
Rp1720
(dp1721
g1157
g1165
sg1158
g1181
sg270
S'c:/marmalade/6.2/s3e/h/s3ePointer.h'
p1722
sbsS'iw2d.mkf'
p1723
g240
(g1153
g242
Ntp1724
Rp1725
(dp1726
g1157
g867
sg1158
g1244
sg270
g865
sbsS's3eGL.h'
p1727
g240
(g1153
g242
Ntp1728
Rp1729
(dp1730
g1157
g1165
sg1158
g1181
sg270
S'c:/marmalade/6.2/s3e/h/s3eGL.h'
p1731
sbsS'IwGeomFVec2.h'
p1732
g240
(g1153
g242
Ntp1733
Rp1734
(dp1735
g1157
g894
sg1158
g1175
sg270
g946
sbsS'IwGeomSVec4.h'
p1736
g240
(g1153
g242
Ntp1737
Rp1738
(dp1739
g1157
g894
sg1158
g1175
sg270
g913
sbsS'poll.h'
p1740
g240
(g1153
g242
Ntp1741
Rp1742
(dp1743
g1157
g1165
sg1158
g1187
sg270
S'c:/marmalade/6.2/s3e/h/std/poll.h'
p1744
sbsS'IwMatAnim.h'
p1745
g240
(g1153
g242
Ntp1746
Rp1747
(dp1748
g1157
g986
sg1158
g1283
sg270
g1030
sbsS'IwGeomFVec4.h'
p1749
g240
(g1153
g242
Ntp1750
Rp1751
(dp1752
g1157
g894
sg1158
g1175
sg270
g899
sbsS'IwGx.h'
p1753
g240
(g1153
g242
Ntp1754
Rp1755
(dp1756
g1157
g986
sg1158
g1283
sg270
g1024
sbsS'valarray'
p1757
g240
(g1153
g242
Ntp1758
Rp1759
(dp1760
g1157
g1165
sg1158
g1166
sg270
S'c:/marmalade/6.2/s3e/h/std/c++/valarray'
p1761
sbsS'iosfwd'
p1762
g240
(g1153
g242
Ntp1763
Rp1764
(dp1765
g1157
g1165
sg1158
g1166
sg270
S'c:/marmalade/6.2/s3e/h/std/c++/iosfwd'
p1766
sbsS'gl2.h'
p1767
g240
(g1153
g242
Ntp1768
Rp1769
(dp1770
g1157
g1165
sg1158
g1405
sg270
S'c:/marmalade/6.2/s3e/h/GLES2/gl2.h'
p1771
sbsS'IwManagedList.h'
p1772
g240
(g1153
g242
Ntp1773
Rp1774
(dp1775
g1157
g1040
sg1158
g1194
sg270
g1082
sbsS'stdiostream.h'
p1776
g240
(g1153
g242
Ntp1777
Rp1778
(dp1779
g1157
g1165
sg1158
g1166
sg270
S'c:/marmalade/6.2/s3e/h/std/c++/stdiostream.h'
p1780
sbsS'mem.h'
p1781
g240
(g1153
g242
Ntp1782
Rp1783
(dp1784
g1157
g1165
sg1158
g1166
sg270
S'c:/marmalade/6.2/s3e/h/std/c++/mem.h'
p1785
sbsVjerror.h
p1786
g240
(g1153
g242
Ntp1787
Rp1788
(dp1789
g1157
g756
sg1158
g1239
sg270
g763
sbsVzconf.h
p1790
g240
(g1153
g242
Ntp1791
Rp1792
(dp1793
g1157
g1144
sg1158
g1656
sg270
g1142
sbsS's3e.config.txt'
p1794
g240
(g1153
g242
Ntp1795
Rp1796
(dp1797
g1157
g1165
sg1158
g1181
sg270
S'c:/marmalade/6.2/s3e/s3e.config.txt'
p1798
sbsS'numeric'
p1799
g240
(g1153
g242
Ntp1800
Rp1801
(dp1802
g1157
g1165
sg1158
g1166
sg270
S'c:/marmalade/6.2/s3e/h/std/c++/numeric'
p1803
sbsS'utime.h'
p1804
g240
(g1153
g242
Ntp1805
Rp1806
(dp1807
g1157
g1165
sg1158
g1187
sg270
S'c:/marmalade/6.2/s3e/h/std/utime.h'
p1808
sbsVjdhuff.h
p1809
g240
(g1153
g242
Ntp1810
Rp1811
(dp1812
g1157
g756
sg1158
g1239
sg270
g778
sbsS'tiles.h'
p1813
g240
(g1153
g242
Ntp1814
Rp1815
(dp1816
g1157
g792
sg1158
g1386
sg270
g803
sbsS'character.h'
p1817
g240
(g1153
g242
Ntp1818
Rp1819
(dp1820
g1157
g792
sg1158
g1386
sg270
g793
sbsS'IwGxStream.h'
p1821
g240
(g1153
g242
Ntp1822
Rp1823
(dp1824
g1157
g986
sg1158
g1283
sg270
g1028
sbsS'IwImage.h'
p1825
g240
(g1153
g242
Ntp1826
Rp1827
(dp1828
g1157
g1040
sg1158
g1194
sg270
g1055
sbsS's3eImagePicker.h'
p1829
g240
(g1153
g242
Ntp1830
Rp1831
(dp1832
g1157
g1165
sg1158
g1366
sg270
S'c:/marmalade/6.2/s3e/h/ext/s3eImagePicker.h'
p1833
sbsS'IwTextParserITX.h'
p1834
g240
(g1153
g242
Ntp1835
Rp1836
(dp1837
g1157
g1040
sg1158
g1194
sg270
g1120
sbsS'stdlib.h'
p1838
g240
(g1153
g242
Ntp1839
Rp1840
(dp1841
g1157
g1165
sg1158
g1187
sg270
S'c:/marmalade/6.2/s3e/h/std/stdlib.h'
p1842
sbsS'IwCopyingPtr.h'
p1843
g240
(g1153
g242
Ntp1844
Rp1845
(dp1846
g1157
g1040
sg1158
g1194
sg270
g1057
sbsS'iostream'
p1847
g240
(g1153
g242
Ntp1848
Rp1849
(dp1850
g1157
g1165
sg1158
g1166
sg270
S'c:/marmalade/6.2/s3e/h/std/c++/iostream'
p1851
sbsVpng.h
p1852
g240
(g1153
g242
Ntp1853
Rp1854
(dp1855
g1157
g749
sg1158
g1671
sg270
g747
sbsS'stddef.h'
p1856
g240
(g1153
g242
Ntp1857
Rp1858
(dp1859
g1157
g1165
sg1158
g1187
sg270
S'c:/marmalade/6.2/s3e/h/std/stddef.h'
p1860
sbsS'character.cpp'
p1861
g240
(g1153
g242
Ntp1862
Rp1863
(dp1864
g1157
g792
sg1158
g1386
sg270
g801
sbsS'setjmp_win32.h'
p1865
g240
(g1153
g242
Ntp1866
Rp1867
(dp1868
g1157
g1165
sg1158
g1187
sg270
S'c:/marmalade/6.2/s3e/h/std/setjmp_win32.h'
p1869
sbsS'IwGxPrint.h'
p1870
g240
(g1153
g242
Ntp1871
Rp1872
(dp1873
g1157
g986
sg1158
g1283
sg270
g1013
sbsS'IwGeomSVec2.h'
p1874
g240
(g1153
g242
Ntp1875
Rp1876
(dp1877
g1157
g894
sg1158
g1175
sg270
g938
sbsS'streambuf.h'
p1878
g240
(g1153
g242
Ntp1879
Rp1880
(dp1881
g1157
g1165
sg1158
g1166
sg270
S'c:/marmalade/6.2/s3e/h/std/c++/streambuf.h'
p1882
sbsS'IwGeomFPlane.h'
p1883
g240
(g1153
g242
Ntp1884
Rp1885
(dp1886
g1157
g894
sg1158
g1175
sg270
g921
sbsS'wchar.h'
p1887
g240
(g1153
g242
Ntp1888
Rp1889
(dp1890
g1157
g1165
sg1158
g1187
sg270
S'c:/marmalade/6.2/s3e/h/std/wchar.h'
p1891
sbsS's3eCameraCapture.h'
p1892
g240
(g1153
g242
Ntp1893
Rp1894
(dp1895
g1157
g1165
sg1158
g1366
sg270
S'c:/marmalade/6.2/s3e/h/ext/s3eCameraCapture.h'
p1896
sbsS'eglext.h'
p1897
g240
(g1153
g242
Ntp1898
Rp1899
(dp1900
g1157
g1165
sg1158
g1484
sg270
S'c:/marmalade/6.2/s3e/h/EGL/eglext.h'
p1901
sbsS'IwResHandlerImage.h'
p1902
g240
(g1153
g242
Ntp1903
Rp1904
(dp1905
g1157
g962
sg1158
g1413
sg270
g967
sbsS'demo_2_collision.mkf'
p1906
g240
(g1153
g242
Ntp1907
Rp1908
(dp1909
g1157
g831
sg1158
(lp1910
g786
asg270
g829
sbsS'strstream.h'
p1911
g240
(g1153
g242
Ntp1912
Rp1913
(dp1914
g1157
g1165
sg1158
g1166
sg270
S'c:/marmalade/6.2/s3e/h/std/c++/strstream.h'
p1915
sbsVtiniconv.h
p1916
g240
(g1153
g242
Ntp1917
Rp1918
(dp1919
g1157
g839
sg1158
g1603
sg270
g837
sbsS'IwGLExt.h'
p1920
g240
(g1153
g242
Ntp1921
Rp1922
(dp1923
g1157
g848
sg1158
g1264
sg270
g846
sbsS'app.icf'
p1924
g240
(g1153
g242
Ntp1925
Rp1926
(dp1927
g1157
(dp1928
sg1158
g4
sg270
S'c:/Users/1106786/Dropbox/Dropbox/PG life/Project Impact/Code/Demos/Demo_2_Collision/data/app.icf'
p1929
sbsS'IwClassFactory.h'
p1930
g240
(g1153
g242
Ntp1931
Rp1932
(dp1933
g1157
g1040
sg1158
g1194
sg270
g1112
sbsS'file.h'
p1934
g240
(g1153
g242
Ntp1935
Rp1936
(dp1937
g1157
g1165
sg1158
g1297
sg270
S'c:/marmalade/6.2/s3e/h/std/sys/file.h'
p1938
sbsS'cstring'
p1939
g240
(g1153
g242
Ntp1940
Rp1941
(dp1942
g1157
g1165
sg1158
g1166
sg270
S'c:/marmalade/6.2/s3e/h/std/c++/cstring'
p1943
sbsS'iwutil.config.txt'
p1944
g240
(g1153
g242
Ntp1945
Rp1946
(dp1947
g1157
g1040
sg1158
g1194
sg270
g1045
sbsS's3eSMS.h'
p1948
g240
(g1153
g242
Ntp1949
Rp1950
(dp1951
g1157
g1165
sg1158
g1366
sg270
S'c:/marmalade/6.2/s3e/h/ext/s3eSMS.h'
p1952
sbsS'limits.h'
p1953
g240
(g1153
g242
Ntp1954
Rp1955
(dp1956
g1157
g1165
sg1158
g1187
sg270
S'c:/marmalade/6.2/s3e/h/std/limits.h'
p1957
sbsS'iwgl.config.txt'
p1958
g240
(g1153
g242
Ntp1959
Rp1960
(dp1961
g1157
g848
sg1158
g1264
sg270
g849
sbsS'iwgx_public.defines.txt'
p1962
g240
(g1153
g242
Ntp1963
Rp1964
(dp1965
g1157
g986
sg1158
g1283
sg270
g993
sbsS'IwMaterial.h'
p1966
g240
(g1153
g242
Ntp1967
Rp1968
(dp1969
g1157
g986
sg1158
g1283
sg270
g1011
sbsS'IwGxSurface.h'
p1970
g240
(g1153
g242
Ntp1971
Rp1972
(dp1973
g1157
g986
sg1158
g1283
sg270
g1022
sbsS's3eSocket.h'
p1974
g240
(g1153
g242
Ntp1975
Rp1976
(dp1977
g1157
g1165
sg1158
g1181
sg270
S'c:/marmalade/6.2/s3e/h/s3eSocket.h'
p1978
sbsS'IwAutoFile.h'
p1979
g240
(g1153
g242
Ntp1980
Rp1981
(dp1982
g1157
g1040
sg1158
g1194
sg270
g1114
sbsS'ipc.h'
p1983
g240
(g1153
g242
Ntp1984
Rp1985
(dp1986
g1157
g1165
sg1158
g1297
sg270
S'c:/marmalade/6.2/s3e/h/std/sys/ipc.h'
p1987
sbsS'poll_1.h'
p1988
g240
(g1153
g242
Ntp1989
Rp1990
(dp1991
g1157
g1165
sg1158
g1297
sg270
S'c:/marmalade/6.2/s3e/h/std/sys/poll.h'
p1992
sbsS's3eThread.h'
p1993
g240
(g1153
g242
Ntp1994
Rp1995
(dp1996
g1157
g1165
sg1158
g1181
sg270
S'c:/marmalade/6.2/s3e/h/s3eThread.h'
p1997
sbsS'ucontext.h'
p1998
g240
(g1153
g242
Ntp1999
Rp2000
(dp2001
g1157
g1165
sg1158
g1187
sg270
S'c:/marmalade/6.2/s3e/h/std/ucontext.h'
p2002
sbsS'time.h'
p2003
g240
(g1153
g242
Ntp2004
Rp2005
(dp2006
g1157
g1165
sg1158
g1187
sg270
S'c:/marmalade/6.2/s3e/h/std/time.h'
p2007
sbsVjchuff.h
p2008
g240
(g1153
g242
Ntp2009
Rp2010
(dp2011
g1157
g756
sg1158
g1239
sg270
g782
sbsS's3eSoundRecord.h'
p2012
g240
(g1153
g242
Ntp2013
Rp2014
(dp2015
g1157
g1165
sg1158
g1181
sg270
S'c:/marmalade/6.2/s3e/h/s3eSoundRecord.h'
p2016
sbsS'IwFibre.h'
p2017
g240
(g1153
g242
Ntp2018
Rp2019
(dp2020
g1157
g1040
sg1158
g1194
sg270
g1138
sbsS's3eVersion.h'
p2021
g240
(g1153
g242
Ntp2022
Rp2023
(dp2024
g1157
g1165
sg1158
g1181
sg270
S'c:/marmalade/6.2/s3e/h/s3eVersion.h'
p2025
sbsS'input.cpp'
p2026
g240
(g1153
g242
Ntp2027
Rp2028
(dp2029
g1157
g792
sg1158
g1386
sg270
g799
sbsS'IwGxFontGlyph.h'
p2030
g240
(g1153
g242
Ntp2031
Rp2032
(dp2033
g1157
g872
sg1158
g1159
sg270
g878
sbsS's3eTypes.h'
p2034
g240
(g1153
g242
Ntp2035
Rp2036
(dp2037
g1157
g1165
sg1158
g1181
sg270
S'c:/marmalade/6.2/s3e/h/s3eTypes.h'
p2038
sbsS'signal_2.h'
p2039
g240
(g1153
g242
Ntp2040
Rp2041
(dp2042
g1157
g1165
sg1158
g1166
sg270
S'c:/marmalade/6.2/s3e/h/std/c++/signal.h'
p2043
sbsS'termios.h'
p2044
g240
(g1153
g242
Ntp2045
Rp2046
(dp2047
g1157
g1165
sg1158
g1187
sg270
S'c:/marmalade/6.2/s3e/h/std/termios.h'
p2048
sbsS'slist'
p2049
g240
(g1153
g242
Ntp2050
Rp2051
(dp2052
g1157
g1165
sg1158
g1166
sg270
S'c:/marmalade/6.2/s3e/h/std/c++/slist'
p2053
sbsS'cstdlib'
p2054
g240
(g1153
g242
Ntp2055
Rp2056
(dp2057
g1157
g1165
sg1158
g1166
sg270
S'c:/marmalade/6.2/s3e/h/std/c++/cstdlib'
p2058
sbsS's3eLocation.h'
p2059
g240
(g1153
g242
Ntp2060
Rp2061
(dp2062
g1157
g1165
sg1158
g1181
sg270
S'c:/marmalade/6.2/s3e/h/s3eLocation.h'
p2063
sbsS'IwMemBucketHelpers.h'
p2064
g240
(g1153
g242
Ntp2065
Rp2066
(dp2067
g1157
g1040
sg1158
g1194
sg270
g1110
sbsS's3eHash.h'
p2068
g240
(g1153
g242
Ntp2069
Rp2070
(dp2071
g1157
g1165
sg1158
g1181
sg270
S'c:/marmalade/6.2/s3e/h/s3eHash.h'
p2072
sbsS'IwGeomFMat.h'
p2073
g240
(g1153
g242
Ntp2074
Rp2075
(dp2076
g1157
g894
sg1158
g1175
sg270
g944
sbsS'type_traits.h'
p2077
g240
(g1153
g242
Ntp2078
Rp2079
(dp2080
g1157
g1165
sg1158
g1166
sg270
S'c:/marmalade/6.2/s3e/h/std/c++/type_traits.h'
p2081
sbsS'IwMenu.h'
p2082
g240
(g1153
g242
Ntp2083
Rp2084
(dp2085
g1157
g1040
sg1158
g1194
sg270
g1084
sbsS'IwResHandlerITX.h'
p2086
g240
(g1153
g242
Ntp2087
Rp2088
(dp2089
g1157
g962
sg1158
g1413
sg270
g980
sbsS'IwArray.h'
p2090
g240
(g1153
g242
Ntp2091
Rp2092
(dp2093
g1157
g1040
sg1158
g1194
sg270
g1086
sbsS'IwUTF8.h'
p2094
g240
(g1153
g242
Ntp2095
Rp2096
(dp2097
g1157
g1040
sg1158
g1194
sg270
g1098
sbsS'math_rvct.h'
p2098
g240
(g1153
g242
Ntp2099
Rp2100
(dp2101
g1157
g1165
sg1158
g1187
sg270
S'c:/marmalade/6.2/s3e/h/std/math_rvct.h'
p2102
sbsS'IwUtil.h'
p2103
g240
(g1153
g242
Ntp2104
Rp2105
(dp2106
g1157
g1040
sg1158
g1194
sg270
g1080
sbsS'IwGeomVec3.h'
p2107
g240
(g1153
g242
Ntp2108
Rp2109
(dp2110
g1157
g894
sg1158
g1175
sg270
g956
sbsS'wctype.h'
p2111
g240
(g1153
g242
Ntp2112
Rp2113
(dp2114
g1157
g1165
sg1158
g1187
sg270
S'c:/marmalade/6.2/s3e/h/std/wctype.h'
p2115
sbsS'cstddef'
p2116
g240
(g1153
g242
Ntp2117
Rp2118
(dp2119
g1157
g1165
sg1158
g1166
sg270
S'c:/marmalade/6.2/s3e/h/std/c++/cstddef'
p2120
sbsS'assert.h'
p2121
g240
(g1153
g242
Ntp2122
Rp2123
(dp2124
g1157
g1165
sg1158
g1187
sg270
S'c:/marmalade/6.2/s3e/h/std/assert.h'
p2125
sbsS'mman.h'
p2126
g240
(g1153
g242
Ntp2127
Rp2128
(dp2129
g1157
g1165
sg1158
g1297
sg270
S'c:/marmalade/6.2/s3e/h/std/sys/mman.h'
p2130
sbsS'IwRandom.h'
p2131
g240
(g1153
g242
Ntp2132
Rp2133
(dp2134
g1157
g1040
sg1158
g1194
sg270
g1074
sbsS'libgen.h'
p2135
g240
(g1153
g242
Ntp2136
Rp2137
(dp2138
g1157
g1165
sg1158
g1187
sg270
S'c:/marmalade/6.2/s3e/h/std/libgen.h'
p2139
sbsS'utsname.h'
p2140
g240
(g1153
g242
Ntp2141
Rp2142
(dp2143
g1157
g1165
sg1158
g1297
sg270
S'c:/marmalade/6.2/s3e/h/std/sys/utsname.h'
p2144
sbsS'wait.h'
p2145
g240
(g1153
g242
Ntp2146
Rp2147
(dp2148
g1157
g1165
sg1158
g1297
sg270
S'c:/marmalade/6.2/s3e/h/std/sys/wait.h'
p2149
sbsS'param.h'
p2150
g240
(g1153
g242
Ntp2151
Rp2152
(dp2153
g1157
g1165
sg1158
g1297
sg270
S'c:/marmalade/6.2/s3e/h/std/sys/param.h'
p2154
sbsS'IwDivide.h'
p2155
g240
(g1153
g242
Ntp2156
Rp2157
(dp2158
g1157
g1040
sg1158
g1194
sg270
g1126
sbsS'IwResManager.h'
p2159
g240
(g1153
g242
Ntp2160
Rp2161
(dp2162
g1157
g962
sg1158
g1413
sg270
g978
sbsS'ostream'
p2163
g240
(g1153
g242
Ntp2164
Rp2165
(dp2166
g1157
g1165
sg1158
g1166
sg270
S'c:/marmalade/6.2/s3e/h/std/c++/ostream'
p2167
sbsS'cwctype'
p2168
g240
(g1153
g242
Ntp2169
Rp2170
(dp2171
g1157
g1165
sg1158
g1166
sg270
S'c:/marmalade/6.2/s3e/h/std/c++/cwctype'
p2172
sbsS'set'
p2173
g240
(g1153
g242
Ntp2174
Rp2175
(dp2176
g1157
g1165
sg1158
g1166
sg270
S'c:/marmalade/6.2/s3e/h/std/c++/set'
p2177
sbsS'IwGeomSQuat.h'
p2178
g240
(g1153
g242
Ntp2179
Rp2180
(dp2181
g1157
g894
sg1158
g1175
sg270
g925
sbsS'locale'
p2182
g240
(g1153
g242
Ntp2183
Rp2184
(dp2185
g1157
g1165
sg1158
g1166
sg270
S'c:/marmalade/6.2/s3e/h/std/c++/locale'
p2186
sbsS'cstdio'
p2187
g240
(g1153
g242
Ntp2188
Rp2189
(dp2190
g1157
g1165
sg1158
g1166
sg270
S'c:/marmalade/6.2/s3e/h/std/c++/cstdio'
p2191
sbsVcdjpeg.h
p2192
g240
(g1153
g242
Ntp2193
Rp2194
(dp2195
g1157
g756
sg1158
g1239
sg270
g768
sbsS'IwList.h'
p2196
g240
(g1153
g242
Ntp2197
Rp2198
(dp2199
g1157
g1040
sg1158
g1194
sg270
g1106
sbsS'inttypes.h'
p2200
g240
(g1153
g242
Ntp2201
Rp2202
(dp2203
g1157
g1165
sg1158
g1187
sg270
S'c:/marmalade/6.2/s3e/h/std/inttypes.h'
p2204
sbsS'maze.h'
p2205
g240
(g1153
g242
Ntp2206
Rp2207
(dp2208
g1157
g792
sg1158
g1386
sg270
g797
sbsS'dirent.h'
p2209
g240
(g1153
g242
Ntp2210
Rp2211
(dp2212
g1157
g1165
sg1158
g1187
sg270
S'c:/marmalade/6.2/s3e/h/std/dirent.h'
p2213
sbsS'IwFColour.h'
p2214
g240
(g1153
g242
Ntp2215
Rp2216
(dp2217
g1157
g986
sg1158
g1283
sg270
g1005
sbsVtransupp.h
p2218
g240
(g1153
g242
Ntp2219
Rp2220
(dp2221
g1157
g756
sg1158
g1239
sg270
g780
sbsS'IwMath.h'
p2222
g240
(g1153
g242
Ntp2223
Rp2224
(dp2225
g1157
g1040
sg1158
g1194
sg270
g1063
sbsS'IwGeomQuat.h'
p2226
g240
(g1153
g242
Ntp2227
Rp2228
(dp2229
g1157
g894
sg1158
g1175
sg270
g930
sbsS'glplatform.h'
p2230
g240
(g1153
g242
Ntp2231
Rp2232
(dp2233
g1157
g1165
sg1158
g1699
sg270
S'c:/marmalade/6.2/s3e/h/GLES/glplatform.h'
p2234
sbsS'bitset'
p2235
g240
(g1153
g242
Ntp2236
Rp2237
(dp2238
g1157
g1165
sg1158
g1166
sg270
S'c:/marmalade/6.2/s3e/h/std/c++/bitset'
p2239
sbsS'alloca.h'
p2240
g240
(g1153
g242
Ntp2241
Rp2242
(dp2243
g1157
g1165
sg1158
g1187
sg270
S'c:/marmalade/6.2/s3e/h/std/alloca.h'
p2244
sbsS'IwResHandler.h'
p2245
g240
(g1153
g242
Ntp2246
Rp2247
(dp2248
g1157
g962
sg1158
g1413
sg270
g971
sbsS'IwResHandlerMTL.h'
p2249
g240
(g1153
g242
Ntp2250
Rp2251
(dp2252
g1157
g986
sg1158
g1283
sg270
g997
sbsS'IwRuntime.h'
p2253
g240
(g1153
g242
Ntp2254
Rp2255
(dp2256
g1157
g1040
sg1158
g1194
sg270
g1100
sbsS'limits'
p2257
g240
(g1153
g242
Ntp2258
Rp2259
(dp2260
g1157
g1165
sg1158
g1166
sg270
S'c:/marmalade/6.2/s3e/h/std/c++/limits'
p2261
sbsS'IwGeomBBox.h'
p2262
g240
(g1153
g242
Ntp2263
Rp2264
(dp2265
g1157
g894
sg1158
g1175
sg270
g917
sbsS's3eContacts.h'
p2266
g240
(g1153
g242
Ntp2267
Rp2268
(dp2269
g1157
g1165
sg1158
g1181
sg270
S'c:/marmalade/6.2/s3e/h/s3eContacts.h'
p2270
sbsS's3eLicense.h'
p2271
g240
(g1153
g242
Ntp2272
Rp2273
(dp2274
g1157
g1165
sg1158
g1181
sg270
S'c:/marmalade/6.2/s3e/h/s3eLicense.h'
p2275
sbsS'iwgx.config.txt'
p2276
g240
(g1153
g242
Ntp2277
Rp2278
(dp2279
g1157
g986
sg1158
g1283
sg270
g999
sbsS'IwTextParser.h'
p2280
g240
(g1153
g242
Ntp2281
Rp2282
(dp2283
g1157
g1040
sg1158
g1194
sg270
g1122
sbsS's3eTimer.h'
p2284
g240
(g1153
g242
Ntp2285
Rp2286
(dp2287
g1157
g1165
sg1158
g1181
sg270
S'c:/marmalade/6.2/s3e/h/s3eTimer.h'
p2288
sbsS'IwGeomVec.h'
p2289
g240
(g1153
g242
Ntp2290
Rp2291
(dp2292
g1157
g894
sg1158
g1175
sg270
g954
sbsS'IwSerialise.h'
p2293
g240
(g1153
g242
Ntp2294
Rp2295
(dp2296
g1157
g1040
sg1158
g1194
sg270
g1051
sbsS'obstacle.cpp'
p2297
g240
(g1153
g242
Ntp2298
Rp2299
(dp2300
g1157
g792
sg1158
g1386
sg270
g807
sbsS'gl2ext.h'
p2301
g240
(g1153
g242
Ntp2302
Rp2303
(dp2304
g1157
g1165
sg1158
g1405
sg270
S'c:/marmalade/6.2/s3e/h/GLES2/gl2ext.h'
p2305
sbsS'IwChar.h'
p2306
g240
(g1153
g242
Ntp2307
Rp2308
(dp2309
g1157
g1040
sg1158
g1194
sg270
g1136
sbsS's3eSound.h'
p2310
g240
(g1153
g242
Ntp2311
Rp2312
(dp2313
g1157
g1165
sg1158
g1181
sg270
S'c:/marmalade/6.2/s3e/h/s3eSound.h'
p2314
sbsS'IwOptimiseThumb.h'
p2315
g240
(g1153
g242
Ntp2316
Rp2317
(dp2318
g1157
g1040
sg1158
g1194
sg270
g1104
sbsS'exception.h'
p2319
g240
(g1153
g242
Ntp2320
Rp2321
(dp2322
g1157
g1165
sg1158
g1166
sg270
S'c:/marmalade/6.2/s3e/h/std/c++/exception.h'
p2323
sbsS'iwgeom.config.txt'
p2324
g240
(g1153
g242
Ntp2325
Rp2326
(dp2327
g1157
g894
sg1158
g1175
sg270
g923
sbsS'iwgx.mkf'
p2328
g240
(g1153
g242
Ntp2329
Rp2330
(dp2331
g1157
g1019
sg1158
g1283
sg270
g1017
sbsS'gl.h'
p2332
g240
(g1153
g242
Ntp2333
Rp2334
(dp2335
g1157
g1165
sg1158
g1699
sg270
S'c:/marmalade/6.2/s3e/h/GLES/gl.h'
p2336
sbsVzlib.h
p2337
g240
(g1153
g242
Ntp2338
Rp2339
(dp2340
g1157
g1144
sg1158
g1656
sg270
g1145
sbsS'iwgl.mkf'
p2341
g240
(g1153
g242
Ntp2342
Rp2343
(dp2344
g1157
g855
sg1158
g1264
sg270
g853
sbsS'IwColour.h'
p2345
g240
(g1153
g242
Ntp2346
Rp2347
(dp2348
g1157
g986
sg1158
g1283
sg270
g1009
sbsS's3eLibrary.h'
p2349
g240
(g1153
g242
Ntp2350
Rp2351
(dp2352
g1157
g1165
sg1158
g1366
sg270
S'c:/marmalade/6.2/s3e/h/ext/s3eLibrary.h'
p2353
sbsS'types.h'
p2354
g240
(g1153
g242
Ntp2355
Rp2356
(dp2357
g1157
g1165
sg1158
g1297
sg270
S'c:/marmalade/6.2/s3e/h/std/sys/types.h'
p2358
sbsS'ifaddrs.h'
p2359
g240
(g1153
g242
Ntp2360
Rp2361
(dp2362
g1157
g1165
sg1158
g1187
sg270
S'c:/marmalade/6.2/s3e/h/std/ifaddrs.h'
p2363
sbsS'strstream'
p2364
g240
(g1153
g242
Ntp2365
Rp2366
(dp2367
g1157
g1165
sg1158
g1166
sg270
S'c:/marmalade/6.2/s3e/h/std/c++/strstream'
p2368
sbsS'exception'
p2369
g240
(g1153
g242
Ntp2370
Rp2371
(dp2372
g1157
g1165
sg1158
g1166
sg270
S'c:/marmalade/6.2/s3e/h/std/c++/exception'
p2373
sbsS'rlocks.h'
p2374
g240
(g1153
g242
Ntp2375
Rp2376
(dp2377
g1157
g1165
sg1158
g1166
sg270
S'c:/marmalade/6.2/s3e/h/std/c++/rlocks.h'
p2378
sbsS'ioctl.h'
p2379
g240
(g1153
g242
Ntp2380
Rp2381
(dp2382
g1157
g1165
sg1158
g1297
sg270
S'c:/marmalade/6.2/s3e/h/std/sys/ioctl.h'
p2383
sbsS'rope'
p2384
g240
(g1153
g242
Ntp2385
Rp2386
(dp2387
g1157
g1165
sg1158
g1166
sg270
S'c:/marmalade/6.2/s3e/h/std/c++/rope'
p2388
sbsVjinclude.h
p2389
g240
(g1153
g242
Ntp2390
Rp2391
(dp2392
g1157
g756
sg1158
g1239
sg270
g772
sbsS'IwEvent.h'
p2393
g240
(g1153
g242
Ntp2394
Rp2395
(dp2396
g1157
g1040
sg1158
g1194
sg270
g1134
sbsS'IwOptimiseSize.h'
p2397
g240
(g1153
g242
Ntp2398
Rp2399
(dp2400
g1157
g1040
sg1158
g1194
sg270
g1088
sbsS'iwgxfont_public.defines.txt'
p2401
g240
(g1153
g242
Ntp2402
Rp2403
(dp2404
g1157
g872
sg1158
g1159
sg270
g870
sbsS'iconv.h'
p2405
g240
(g1153
g242
Ntp2406
Rp2407
(dp2408
g1157
g1165
sg1158
g1187
sg270
S'c:/marmalade/6.2/s3e/h/std/iconv.h'
p2409
sbsS'sendfile.h'
p2410
g240
(g1153
g242
Ntp2411
Rp2412
(dp2413
g1157
g1165
sg1158
g1297
sg270
S'c:/marmalade/6.2/s3e/h/std/sys/sendfile.h'
p2414
sbsS'IwGeomSphere.h'
p2415
g240
(g1153
g242
Ntp2416
Rp2417
(dp2418
g1157
g894
sg1158
g1175
sg270
g940
sbsVtiniconv.mkf
p2419
g240
(g1153
g242
Ntp2420
Rp2421
(dp2422
g1157
g836
sg1158
g1603
sg270
g834
sbsVjdct.h
p2423
g240
(g1153
g242
Ntp2424
Rp2425
(dp2426
g1157
g756
sg1158
g1239
sg270
g774
sbsS'cctype'
p2427
g240
(g1153
g242
Ntp2428
Rp2429
(dp2430
g1157
g1165
sg1158
g1166
sg270
S'c:/marmalade/6.2/s3e/h/std/c++/cctype'
p2431
sbsS's3eConfig.h'
p2432
g240
(g1153
g242
Ntp2433
Rp2434
(dp2435
g1157
g1165
sg1158
g1181
sg270
S'c:/marmalade/6.2/s3e/h/s3eConfig.h'
p2436
sbsS'IwHashString.h'
p2437
g240
(g1153
g242
Ntp2438
Rp2439
(dp2440
g1157
g1040
sg1158
g1194
sg270
g1128
sbsS'stat.h'
p2441
g240
(g1153
g242
Ntp2442
Rp2443
(dp2444
g1157
g1165
sg1158
g1297
sg270
S'c:/marmalade/6.2/s3e/h/std/sys/stat.h'
p2445
sbsS'byteswap.h'
p2446
g240
(g1153
g242
Ntp2447
Rp2448
(dp2449
g1157
g1165
sg1158
g1187
sg270
S'c:/marmalade/6.2/s3e/h/std/byteswap.h'
p2450
sbsS'iwresmanager.mkf'
p2451
g240
(g1153
g242
Ntp2452
Rp2453
(dp2454
g1157
g975
sg1158
g1413
sg270
g973
sbsS'IwUtilInitTerm.h'
p2455
g240
(g1153
g242
Ntp2456
Rp2457
(dp2458
g1157
g1040
sg1158
g1194
sg270
g1059
sbsS'pthread_1.h'
p2459
g240
(g1153
g242
Ntp2460
Rp2461
(dp2462
g1157
g1165
sg1158
g1166
sg270
S'c:/marmalade/6.2/s3e/h/std/c++/pthread.h'
p2463
sbsS'IwMemBucket.h'
p2464
g240
(g1153
g242
Ntp2465
Rp2466
(dp2467
g1157
g1040
sg1158
g1194
sg270
g1096
sbsS'complex'
p2468
g240
(g1153
g242
Ntp2469
Rp2470
(dp2471
g1157
g1165
sg1158
g1166
sg270
S'c:/marmalade/6.2/s3e/h/std/c++/complex'
p2472
sbsS'game.cpp'
p2473
g240
(g1153
g242
Ntp2474
Rp2475
(dp2476
g1157
g792
sg1158
g1386
sg270
g815
sbsS's3e.icf'
p2477
g240
(g1153
g242
Ntp2478
Rp2479
(dp2480
g1157
g1165
sg1158
g1181
sg270
S'c:/marmalade/6.2/s3e/s3e.icf'
p2481
sbsS'IwVariableBitField.h'
p2482
g240
(g1153
g242
Ntp2483
Rp2484
(dp2485
g1157
g1040
sg1158
g1194
sg270
g1102
sbsS'sem.h'
p2486
g240
(g1153
g242
Ntp2487
Rp2488
(dp2489
g1157
g1165
sg1158
g1297
sg270
S'c:/marmalade/6.2/s3e/h/std/sys/sem.h'
p2490
sbsS'IwGxFontState.h'
p2491
g240
(g1153
g242
Ntp2492
Rp2493
(dp2494
g1157
g872
sg1158
g1159
sg270
g876
sbsS'stdio.h'
p2495
g240
(g1153
g242
Ntp2496
Rp2497
(dp2498
g1157
g1165
sg1158
g1187
sg270
S'c:/marmalade/6.2/s3e/h/std/stdio.h'
p2499
sbsVjmemsys.h
p2500
g240
(g1153
g242
Ntp2501
Rp2502
(dp2503
g1157
g756
sg1158
g1239
sg270
g754
sbsS'ios'
p2504
g240
(g1153
g242
Ntp2505
Rp2506
(dp2507
g1157
g1165
sg1158
g1166
sg270
S'c:/marmalade/6.2/s3e/h/std/c++/ios'
p2508
sbsS'stack'
p2509
g240
(g1153
g242
Ntp2510
Rp2511
(dp2512
g1157
g1165
sg1158
g1166
sg270
S'c:/marmalade/6.2/s3e/h/std/c++/stack'
p2513
sbsS'new.h'
p2514
g240
(g1153
g242
Ntp2515
Rp2516
(dp2517
g1157
g1165
sg1158
g1166
sg270
S'c:/marmalade/6.2/s3e/h/std/c++/new.h'
p2518
sbsS's3eEMail.h'
p2519
g240
(g1153
g242
Ntp2520
Rp2521
(dp2522
g1157
g1165
sg1158
g1366
sg270
S'c:/marmalade/6.2/s3e/h/ext/s3eEMail.h'
p2523
sbsS's3eVideo.h'
p2524
g240
(g1153
g242
Ntp2525
Rp2526
(dp2527
g1157
g1165
sg1158
g1181
sg270
S'c:/marmalade/6.2/s3e/h/s3eVideo.h'
p2528
sbsS'IwFile.h'
p2529
g240
(g1153
g242
Ntp2530
Rp2531
(dp2532
g1157
g1040
sg1158
g1194
sg270
g1043
sbsS'pwd.h'
p2533
g240
(g1153
g242
Ntp2534
Rp2535
(dp2536
g1157
g1165
sg1158
g1187
sg270
S'c:/marmalade/6.2/s3e/h/std/pwd.h'
p2537
sbsS'IwClip.h'
p2538
g240
(g1153
g242
Ntp2539
Rp2540
(dp2541
g1157
g986
sg1158
g1283
sg270
g1032
sbsS'iwresmanager.config.txt'
p2542
g240
(g1153
g242
Ntp2543
Rp2544
(dp2545
g1157
g962
sg1158
g1413
sg270
g969
sbsS'IwGxShaderTechnique.h'
p2546
g240
(g1153
g242
Ntp2547
Rp2548
(dp2549
g1157
g986
sg1158
g1283
sg270
g1026
sbsS'IwCore.h'
p2550
g240
(g1153
g242
Ntp2551
Rp2552
(dp2553
g1157
g1040
sg1158
g1194
sg270
g1047
sbsS'cfloat'
p2554
g240
(g1153
g242
Ntp2555
Rp2556
(dp2557
g1157
g1165
sg1158
g1166
sg270
S'c:/marmalade/6.2/s3e/h/std/c++/cfloat'
p2558
sbsS'IwGeomMat2D.h'
p2559
g240
(g1153
g242
Ntp2560
Rp2561
(dp2562
g1157
g894
sg1158
g1175
sg270
g932
sbsS'IwAllocator.h'
p2563
g240
(g1153
g242
Ntp2564
Rp2565
(dp2566
g1157
g1040
sg1158
g1194
sg270
g1116
sbsS'IwPath.h'
p2567
g240
(g1153
g242
Ntp2568
Rp2569
(dp2570
g1157
g1040
sg1158
g1194
sg270
g1053
sbsS'tiles.cpp'
p2571
g240
(g1153
g242
Ntp2572
Rp2573
(dp2574
g1157
g792
sg1158
g1386
sg270
g823
sbsS'iwgxfont.mkf'
p2575
g240
(g1153
g242
Ntp2576
Rp2577
(dp2578
g1157
g875
sg1158
g1159
sg270
g873
sbsS'IwTexture.h'
p2579
g240
(g1153
g242
Ntp2580
Rp2581
(dp2582
g1157
g986
sg1158
g1283
sg270
g1003
sbsS's3eAccelerometer.h'
p2583
g240
(g1153
g242
Ntp2584
Rp2585
(dp2586
g1157
g1165
sg1158
g1181
sg270
S'c:/marmalade/6.2/s3e/h/s3eAccelerometer.h'
p2587
sbsS'setjmp.h'
p2588
g240
(g1153
g242
Ntp2589
Rp2590
(dp2591
g1157
g1165
sg1158
g1187
sg270
S'c:/marmalade/6.2/s3e/h/std/setjmp.h'
p2592
sbsS'cstdarg'
p2593
g240
(g1153
g242
Ntp2594
Rp2595
(dp2596
g1157
g1165
sg1158
g1166
sg270
S'c:/marmalade/6.2/s3e/h/std/c++/cstdarg'
p2597
sbsVpngconf.h
p2598
g240
(g1153
g242
Ntp2599
Rp2600
(dp2601
g1157
g749
sg1158
g1671
sg270
g750
sbsS'IwTextParseable.h'
p2602
g240
(g1153
g242
Ntp2603
Rp2604
(dp2605
g1157
g1040
sg1158
g1194
sg270
g1124
sbsS'istream.h'
p2606
g240
(g1153
g242
Ntp2607
Rp2608
(dp2609
g1157
g1165
sg1158
g1166
sg270
S'c:/marmalade/6.2/s3e/h/std/c++/istream.h'
p2610
sbsS'stdint.h'
p2611
g240
(g1153
g242
Ntp2612
Rp2613
(dp2614
g1157
g1165
sg1158
g1187
sg270
S'c:/marmalade/6.2/s3e/h/std/stdint.h'
p2615
sbsS'semaphore.h'
p2616
g240
(g1153
g242
Ntp2617
Rp2618
(dp2619
g1157
g1165
sg1158
g1187
sg270
S'c:/marmalade/6.2/s3e/h/std/semaphore.h'
p2620
sbsS'ctime'
p2621
g240
(g1153
g242
Ntp2622
Rp2623
(dp2624
g1157
g1165
sg1158
g1166
sg270
S'c:/marmalade/6.2/s3e/h/std/c++/ctime'
p2625
sbsS'sstream'
p2626
g240
(g1153
g242
Ntp2627
Rp2628
(dp2629
g1157
g1165
sg1158
g1166
sg270
S'c:/marmalade/6.2/s3e/h/std/c++/sstream'
p2630
sbsS'IwGeomFBBox.h'
p2631
g240
(g1153
g242
Ntp2632
Rp2633
(dp2634
g1157
g894
sg1158
g1175
sg270
g905
sbsS'IwDebugPrim.h'
p2635
g240
(g1153
g242
Ntp2636
Rp2637
(dp2638
g1157
g986
sg1158
g1283
sg270
g995
sbsS'IwGxFontContainer.h'
p2639
g240
(g1153
g242
Ntp2640
Rp2641
(dp2642
g1157
g872
sg1158
g1159
sg270
g882
sbsS'obstacle.h'
p2643
g240
(g1153
g242
Ntp2644
Rp2645
(dp2646
g1157
g792
sg1158
g1386
sg270
g809
sbsS'tile.h'
p2647
g240
(g1153
g242
Ntp2648
Rp2649
(dp2650
g1157
g792
sg1158
g1386
sg270
g817
sbsS'IwGeomSVec3.h'
p2651
g240
(g1153
g242
Ntp2652
Rp2653
(dp2654
g1157
g894
sg1158
g1175
sg270
g936
sbsS'cassert'
p2655
g240
(g1153
g242
Ntp2656
Rp2657
(dp2658
g1157
g1165
sg1158
g1166
sg270
S'c:/marmalade/6.2/s3e/h/std/c++/cassert'
p2659
sbsS'IwGeomFVec3.h'
p2660
g240
(g1153
g242
Ntp2661
Rp2662
(dp2663
g1157
g894
sg1158
g1175
sg270
g895
sbsS'streambuf'
p2664
g240
(g1153
g242
Ntp2665
Rp2666
(dp2667
g1157
g1165
sg1158
g1166
sg270
S'c:/marmalade/6.2/s3e/h/std/c++/streambuf'
p2668
sbsS's3eMetrics.h'
p2669
g240
(g1153
g242
Ntp2670
Rp2671
(dp2672
g1157
g1165
sg1158
g1366
sg270
S'c:/marmalade/6.2/s3e/h/ext/s3eMetrics.h'
p2673
sbsS'IwGxFont.h'
p2674
g240
(g1153
g242
Ntp2675
Rp2676
(dp2677
g1157
g872
sg1158
g1159
sg270
g888
sbsS's3eSecureStorage.h'
p2678
g240
(g1153
g242
Ntp2679
Rp2680
(dp2681
g1157
g1165
sg1158
g1181
sg270
S'c:/marmalade/6.2/s3e/h/s3eSecureStorage.h'
p2682
sbsS'map.cpp'
p2683
g240
(g1153
g242
Ntp2684
Rp2685
(dp2686
g1157
g792
sg1158
g1386
sg270
g805
sbsS'string.h'
p2687
g240
(g1153
g242
Ntp2688
Rp2689
(dp2690
g1157
g1165
sg1158
g1187
sg270
S'c:/marmalade/6.2/s3e/h/std/string.h'
p2691
sbsS'IwResource.h'
p2692
g240
(g1153
g242
Ntp2693
Rp2694
(dp2695
g1157
g1040
sg1158
g1194
sg270
g1041
sbsVlibjpeg.mkf
p2696
g240
(g1153
g242
Ntp2697
Rp2698
(dp2699
g1157
g767
sg1158
g1239
sg270
g765
sbsS'IwGxDebug.h'
p2700
g240
(g1153
g242
Ntp2701
Rp2702
(dp2703
g1157
g986
sg1158
g1283
sg270
g1001
sbsS'pthread_types.h'
p2704
g240
(g1153
g242
Ntp2705
Rp2706
(dp2707
g1157
g1165
sg1158
g1187
sg270
S'c:/marmalade/6.2/s3e/h/std/pthread_types.h'
p2708
sbsS'iomanip.h'
p2709
g240
(g1153
g242
Ntp2710
Rp2711
(dp2712
g1157
g1165
sg1158
g1166
sg270
S'c:/marmalade/6.2/s3e/h/std/c++/iomanip.h'
p2713
sbsS'IwKeymap.h'
p2714
g240
(g1153
g242
Ntp2715
Rp2716
(dp2717
g1157
g1040
sg1158
g1194
sg270
g1094
sbsS'IwDebug.h'
p2718
g240
(g1153
g242
Ntp2719
Rp2720
(dp2721
g1157
g1040
sg1158
g1194
sg270
g1070
sbsS's3eIOSBackgroundAudio.h'
p2722
g240
(g1153
g242
Ntp2723
Rp2724
(dp2725
g1157
g1165
sg1158
g1366
sg270
S'c:/marmalade/6.2/s3e/h/ext/s3eIOSBackgroundAudio.h'
p2726
sbsS'IwGeomMenu.h'
p2727
g240
(g1153
g242
Ntp2728
Rp2729
(dp2730
g1157
g894
sg1158
g1175
sg270
g892
sbsS'IwDivTable.h'
p2731
g240
(g1153
g242
Ntp2732
Rp2733
(dp2734
g1157
g1040
sg1158
g1194
sg270
g1108
sbsS'ctype.h'
p2735
g240
(g1153
g242
Ntp2736
Rp2737
(dp2738
g1157
g1165
sg1158
g1187
sg270
S'c:/marmalade/6.2/s3e/h/std/ctype.h'
p2739
sbsS'IwGeomMat.h'
p2740
g240
(g1153
g242
Ntp2741
Rp2742
(dp2743
g1157
g894
sg1158
g1175
sg270
g948
sbsS'IwResGroup.h'
p2744
g240
(g1153
g242
Ntp2745
Rp2746
(dp2747
g1157
g962
sg1158
g1413
sg270
g976
sbsS'signal_1.h'
p2748
g240
(g1153
g242
Ntp2749
Rp2750
(dp2751
g1157
g1165
sg1158
g1297
sg270
S'c:/marmalade/6.2/s3e/h/std/sys/signal.h'
p2752
sbsS'main.cpp'
p2753
g240
(g1153
g242
Ntp2754
Rp2755
(dp2756
g1157
g792
sg1158
g1386
sg270
g821
sbsS'shm.h'
p2757
g240
(g1153
g242
Ntp2758
Rp2759
(dp2760
g1157
g1165
sg1158
g1297
sg270
S'c:/marmalade/6.2/s3e/h/std/sys/shm.h'
p2761
sbsVjpegint.h
p2762
g240
(g1153
g242
Ntp2763
Rp2764
(dp2765
g1157
g756
sg1158
g1239
sg270
g757
sbsS'prctl.h'
p2766
g240
(g1153
g242
Ntp2767
Rp2768
(dp2769
g1157
g1165
sg1158
g1297
sg270
S'c:/marmalade/6.2/s3e/h/std/sys/prctl.h'
p2770
sbsS'un.h'
p2771
g240
(g1153
g242
Ntp2772
Rp2773
(dp2774
g1157
g1165
sg1158
g1297
sg270
S'c:/marmalade/6.2/s3e/h/std/sys/un.h'
p2775
sbsS'tile.cpp'
p2776
g240
(g1153
g242
Ntp2777
Rp2778
(dp2779
g1157
g792
sg1158
g1386
sg270
g811
sbsS'utility'
p2780
g240
(g1153
g242
Ntp2781
Rp2782
(dp2783
g1157
g1165
sg1158
g1166
sg270
S'c:/marmalade/6.2/s3e/h/std/c++/utility'
p2784
sbsS'input.h'
p2785
g240
(g1153
g242
Ntp2786
Rp2787
(dp2788
g1157
g792
sg1158
g1386
sg270
g819
sbsS'IwGeomLegacy.h'
p2789
g240
(g1153
g242
Ntp2790
Rp2791
(dp2792
g1157
g894
sg1158
g1175
sg270
g907
sbsS'IwTPage.h'
p2793
g240
(g1153
g242
Ntp2794
Rp2795
(dp2796
g1157
g986
sg1158
g1283
sg270
g1015
sbsS'IwResSerialise.h'
p2797
g240
(g1153
g242
Ntp2798
Rp2799
(dp2800
g1157
g962
sg1158
g1413
sg270
g960
sbsS's3eCrypto.h'
p2801
g240
(g1153
g242
Ntp2802
Rp2803
(dp2804
g1157
g1165
sg1158
g1181
sg270
S'c:/marmalade/6.2/s3e/h/s3eCrypto.h'
p2805
sbsS's3eKeyboard.h'
p2806
g240
(g1153
g242
Ntp2807
Rp2808
(dp2809
g1157
g1165
sg1158
g1181
sg270
S'c:/marmalade/6.2/s3e/h/s3eKeyboard.h'
p2810
sbsS'fcntl.h'
p2811
g240
(g1153
g242
Ntp2812
Rp2813
(dp2814
g1157
g1165
sg1158
g1187
sg270
S'c:/marmalade/6.2/s3e/h/std/fcntl.h'
p2815
sbsS'memory.h'
p2816
g240
(g1153
g242
Ntp2817
Rp2818
(dp2819
g1157
g1165
sg1158
g1187
sg270
S'c:/marmalade/6.2/s3e/h/std/memory.h'
p2820
sbsS'pthread.h'
p2821
g240
(g1153
g242
Ntp2822
Rp2823
(dp2824
g1157
g1165
sg1158
g1187
sg270
S'c:/marmalade/6.2/s3e/h/std/pthread.h'
p2825
sbsS'IwGeomIntersect.h'
p2826
g240
(g1153
g242
Ntp2827
Rp2828
(dp2829
g1157
g894
sg1158
g1175
sg270
g903
sbsS'algorithm'
p2830
g240
(g1153
g242
Ntp2831
Rp2832
(dp2833
g1157
g1165
sg1158
g1166
sg270
S'c:/marmalade/6.2/s3e/h/std/c++/algorithm'
p2834
sbsS'egl_1.h'
p2835
g240
(g1153
g242
Ntp2836
Rp2837
(dp2838
g1157
g1165
sg1158
g1699
sg270
S'c:/marmalade/6.2/s3e/h/GLES/egl.h'
p2839
sbsS'ostream.h'
p2840
g240
(g1153
g242
Ntp2841
Rp2842
(dp2843
g1157
g1165
sg1158
g1166
sg270
S'c:/marmalade/6.2/s3e/h/std/c++/ostream.h'
p2844
sbsS'stl_user_config.h'
p2845
g240
(g1153
g242
Ntp2846
Rp2847
(dp2848
g1157
g1165
sg1158
g1166
sg270
S'c:/marmalade/6.2/s3e/h/std/c++/stl_user_config.h'
p2849
sbsS'IwProfileMenu.h'
p2850
g240
(g1153
g242
Ntp2851
Rp2852
(dp2853
g1157
g1040
sg1158
g1194
sg270
g1092
sbsS'MarmaladeVersion.h'
p2854
g240
(g1153
g242
Ntp2855
Rp2856
(dp2857
g1157
g1165
sg1158
g1181
sg270
S'c:/marmalade/6.2/s3e/h/MarmaladeVersion.h'
p2858
sbsS'ios.h'
p2859
g240
(g1153
g242
Ntp2860
Rp2861
(dp2862
g1157
g1165
sg1158
g1166
sg270
S'c:/marmalade/6.2/s3e/h/std/c++/ios.h'
p2863
sbsS'IwImageHelper.h'
p2864
g240
(g1153
g242
Ntp2865
Rp2866
(dp2867
g1157
g1040
sg1158
g1194
sg270
g1118
sbsS'hash_set'
p2868
g240
(g1153
g242
Ntp2869
Rp2870
(dp2871
g1157
g1165
sg1158
g1166
sg270
S'c:/marmalade/6.2/s3e/h/std/c++/hash_set'
p2872
sbsS'IwGeomFQuat.h'
p2873
g240
(g1153
g242
Ntp2874
Rp2875
(dp2876
g1157
g894
sg1158
g1175
sg270
g950
sbsVjmorecfg.h
p2877
g240
(g1153
g242
Ntp2878
Rp2879
(dp2880
g1157
g756
sg1158
g1239
sg270
g784
sbsS'eglplatform.h'
p2881
g240
(g1153
g242
Ntp2882
Rp2883
(dp2884
g1157
g1165
sg1158
g1484
sg270
S'c:/marmalade/6.2/s3e/h/EGL/eglplatform.h'
p2885
sbsS'stdbool.h'
p2886
g240
(g1153
g242
Ntp2887
Rp2888
(dp2889
g1157
g1165
sg1158
g1187
sg270
S'c:/marmalade/6.2/s3e/h/std/stdbool.h'
p2890
sbsS'math_gcc.h'
p2891
g240
(g1153
g242
Ntp2892
Rp2893
(dp2894
g1157
g1165
sg1158
g1187
sg270
S'c:/marmalade/6.2/s3e/h/std/math_gcc.h'
p2895
sbsS's3eMemory.h'
p2896
g240
(g1153
g242
Ntp2897
Rp2898
(dp2899
g1157
g1165
sg1158
g1181
sg270
S'c:/marmalade/6.2/s3e/h/s3eMemory.h'
p2900
sbsS'strings.h'
p2901
g240
(g1153
g242
Ntp2902
Rp2903
(dp2904
g1157
g1165
sg1158
g1187
sg270
S'c:/marmalade/6.2/s3e/h/std/strings.h'
p2905
sbsS's3eFile.h'
p2906
g240
(g1153
g242
Ntp2907
Rp2908
(dp2909
g1157
g1165
sg1158
g1181
sg270
S'c:/marmalade/6.2/s3e/h/s3eFile.h'
p2910
sbsS'IwGxTypes.h'
p2911
g240
(g1153
g242
Ntp2912
Rp2913
(dp2914
g1157
g986
sg1158
g1283
sg270
g989
sbsS'cerrno'
p2915
g240
(g1153
g242
Ntp2916
Rp2917
(dp2918
g1157
g1165
sg1158
g1166
sg270
S'c:/marmalade/6.2/s3e/h/std/c++/cerrno'
p2919
sbsS'map.h'
p2920
g240
(g1153
g242
Ntp2921
Rp2922
(dp2923
g1157
g792
sg1158
g1386
sg270
g790
sbsS'resource.h'
p2924
g240
(g1153
g242
Ntp2925
Rp2926
(dp2927
g1157
g1165
sg1158
g1297
sg270
S'c:/marmalade/6.2/s3e/h/std/sys/resource.h'
p2928
sbsS'clocale'
p2929
g240
(g1153
g242
Ntp2930
Rp2931
(dp2932
g1157
g1165
sg1158
g1166
sg270
S'c:/marmalade/6.2/s3e/h/std/c++/clocale'
p2933
sbsS'csetjmp'
p2934
g240
(g1153
g242
Ntp2935
Rp2936
(dp2937
g1157
g1165
sg1158
g1166
sg270
S'c:/marmalade/6.2/s3e/h/std/c++/csetjmp'
p2938
sbsS'netdb.h'
p2939
g240
(g1153
g242
Ntp2940
Rp2941
(dp2942
g1157
g1165
sg1158
g1187
sg270
S'c:/marmalade/6.2/s3e/h/std/netdb.h'
p2943
sbsS's3eAndroidJNI.h'
p2944
g240
(g1153
g242
Ntp2945
Rp2946
(dp2947
g1157
g1165
sg1158
g1366
sg270
S'c:/marmalade/6.2/s3e/h/ext/s3eAndroidJNI.h'
p2948
sbsS'stdexcept'
p2949
g240
(g1153
g242
Ntp2950
Rp2951
(dp2952
g1157
g1165
sg1158
g1166
sg270
S'c:/marmalade/6.2/s3e/h/std/c++/stdexcept'
p2953
sbsS'math.h'
p2954
g240
(g1153
g242
Ntp2955
Rp2956
(dp2957
g1157
g1165
sg1158
g1187
sg270
S'c:/marmalade/6.2/s3e/h/std/math.h'
p2958
sbsS'cmath'
p2959
g240
(g1153
g242
Ntp2960
Rp2961
(dp2962
g1157
g1165
sg1158
g1166
sg270
S'c:/marmalade/6.2/s3e/h/std/c++/cmath'
p2963
sbsS'uio.h'
p2964
g240
(g1153
g242
Ntp2965
Rp2966
(dp2967
g1157
g1165
sg1158
g1297
sg270
S'c:/marmalade/6.2/s3e/h/std/sys/uio.h'
p2968
sbsS'IwUncopyable.h'
p2969
g240
(g1153
g242
Ntp2970
Rp2971
(dp2972
g1157
g1040
sg1158
g1194
sg270
g1068
sbssS'tests'
p2973
(lp2974
sS'project_name'
p2975
g248
sS'root_file'
p2976
g106
sS'current_root'
p2977
S'c:/Users/1106786/Dropbox/Dropbox/PG life/Project Impact/Code/Demos/Demo_2_Collision'
p2978
sS'dependencies'
p2979
(lp2980
sS'include_paths'
p2981
(lp2982
Vc:/users/1106786/appdata/roaming/marmalade/packages/6.2.2/libjpeg_6b/h
p2983
aVc:/users/1106786/appdata/roaming/marmalade/packages/6.2.2/zlib_1.2.4/h
p2984
aVc:/users/1106786/appdata/roaming/marmalade/packages/6.2.2/libpng_1.2.34/h
p2985
aS'c:/marmalade/6.2/modules/iwutil/h'
p2986
aS'c:/marmalade/6.2/modules/iwgeom/h'
p2987
aS'c:/marmalade/6.2/modules/iwresmanager/h'
p2988
aS'c:/marmalade/6.2/modules/iwgl/h'
p2989
aS'c:/marmalade/6.2/modules/iwgx/h'
p2990
aVc:/users/1106786/appdata/roaming/marmalade/packages/6.2.2/tiniconv_1.0.1/h
p2991
aS'c:/marmalade/6.2/modules/iwgxfont/h'
p2992
aS'c:/marmalade/6.2/modules/iw2d/h'
p2993
aS'c:/users/1106786/dropbox/dropbox/pg life/project impact/code/demos/demo_2_collision/h'
p2994
aS'c:/marmalade/6.2/s3e/h'
p2995
aS'c:/marmalade/6.2/s3e/h/ext'
p2996
aS'c:/marmalade/6.2/s3e/h/std'
p2997
aS'c:/marmalade/6.2/s3e/h/std/c++'
p2998
aS'c:/marmalade/6.2/s3e/h/ext_legacy'
p2999
aS'c:/marmalade/6.2/s3e/h/legacy'
p3000
asS'weak_frameworks'
p3001
(lp3002
sS'extprojects'
p3003
(dp3004
sg486
(dp3005
g480
(lp3006
(g66
S'.'
p3007
I0
tp3008
asS'default'
p3009
(lp3010
(S'c:/users/1106786/dropbox/dropbox/pg life/project impact/code/demos/demo_2_collision/data/splashscreen.jpg'
p3011
S'splashscreen.jpg'
p3012
I0
tp3013
a(S'c:/users/1106786/dropbox/dropbox/pg life/project impact/code/demos/demo_2_collision/data-ram/data-gles1/imgs.group.bin,c:/users/1106786/dropbox/dropbox/pg life/project impact/code/demos/demo_2_collision/data/imgs.group.bin'
p3014
S'imgs.group.bin'
p3015
I0
tp3016
asS'artbuild'
p3017
(lp3018
(S'c:/users/1106786/dropbox/dropbox/pg life/project impact/code/demos/demo_2_collision/data'
p3019
g3007
I0
tp3020
assS'macro_types'
p3021
(dp3022
g429
I1
sg430
I0
sg431
I0
sg432
I0
sg433
I0
sg434
I0
sg435
I0
sg437
I0
sg438
I0
sg439
I0
sg440
I0
sg442
I0
sg444
I0
sg445
I0
sg446
I0
sg447
I0
sg448
I1
sg449
I0
sg450
I0
sg451
I0
sg452
I01
sg453
I1
sg454
I0
sg455
I0
sg456
I0
sg457
I0
ssS'commands'
p3023
(lp3024
sg488
(g735
S'VC10'
p3025
S'X86ARM'
p3026
tp3027
sS'subprojectOptions'
p3028
(dp3029
g492
(lp3030
sg494
Nsg495
Nsg496
Nsg497
Nsg498
Nsg499
Nsg500
Nsg501
(lp3031
sg503
Nsg618
Nsg506
Nsg507
Nsg508
Nsg509
Nsg510
Nsg511
Nsg512
Nsg513
Nsg514
Nsg515
(lp3032
sg695
Nsg518
Nsg519
Nsg696
Nsg691
Nsg521
Nsg522
Nsg523
Nsg524
Nsg525
Nsg526
Nsg699
Nsg528
Nsg529
Nsg690
Nsg530
Nsg531
Nsg532
Nsg533
Nsg534
Nsg535
Nsg573
Nsg537
Nsg538
Nsg539
Nsg541
Nsg542
Nsg543
Nsg544
Nsg545
Nsg546
Nsg547
Nsg548
Nsg623
Nsg549
Nsg551
Nsg552
Nsg553
Nsg554
Nsg555
Nsg556
(lp3033
sg558
Nsg559
Nsg560
Nsg561
Nsg562
Nsg563
Nsg564
Nsg628
Nsg566
(lp3034
sg568
Nsg569
Nsg570
Nsg571
Nsg572
Nsg536
Nsg574
Nsg630
Nsg576
Nsg577
Nsg578
Nsg579
Nsg580
Nsg581
(lp3035
sg583
Nsg712
Nsg585
Nsg586
Nsg587
Nsg588
Nsg589
Nsg590
Nsg591
Nsg632
Nsg593
Nsg595
(lp3036
sg597
Nsg598
Nsg713
Nsg600
(lp3037
sg602
Nsg603
Nsg604
Nsg605
Nsg606
Nsg607
Nsg633
Nsg609
Nsg610
Nsg611
Nsg612
Nsg613
(lp3038
sg615
Nsg616
Nsg617
Nsg505
Nsg619
Nsg620
Nsg621
(lp3039
sg504
Nsg624
Nsg625
Nsg626
Nsg627
Nsg565
Nsg575
Nsg631
Nsg592
Nsg608
Nsg634
Nsg635
Nsg681
Nsg638
Nsg639
Nsg640
Nsg641
Nsg642
Nsg721
Nsg644
Nsg645
Nsg646
Nsg647
(lp3040
sg649
Nsg650
Nsg651
Nsg652
Nsg653
Nsg654
Nsg655
(lp3041
sg657
Nsg658
Nsg659
Nsg660
Nsg661
Nsg662
Nsg663
Nsg664
Nsg665
Nsg666
Nsg724
Nsg668
Nsg669
Nsg677
Nsg670
Nsg679
Nsg672
Nsg673
Nsg674
Nsg680
Nsg676
Nsg719
Nsg636
(lp3042
sg678
Nsg671
Nsg675
Nsg727
Nsg683
Nsg684
Nsg685
Nsg718
Nsg686
Nsg687
Nsg688
Nsg689
Nsg540
Nsg527
Nsg692
Nsg693
Nsg694
Nsg517
Nsg520
Nsg697
Nsg698
Nsg629
Nsg700
Nsg701
Nsg702
Nsg703
Nsg704
Nsg705
Nsg706
Nsg707
Nsg708
Nsg709
(lp3043
sg711
Nsg584
Nsg599
Nsg714
Nsg715
Nsg716
Nsg717
Nsg550
Nsg594
Nsg720
Nsg643
Nsg732
Nsg723
Nsg667
Nsg725
Nsg726
Nsg682
Nsg728
Nsg729
Nsg730
Nsg731
Nsg722
Nsg733
NssS'build_libs'
p3044
(dp3045
sS'frameworks'
p3046
(lp3047
sS'environ'
p3048
(dp3049
sS'target_name_debug'
p3050
g248
sS'builders'
p3051
(dp3052
S'.S'
p3053
(dp3054
S'rvct'
p3055
(lp3056
S'.obj'
p3057
aS'echo ARM Assembling(RVCT) ${SOURCE}...'
p3058
aS'c:/marmalade/6.2/s3e\\rvct\\bin\\armasm -o ${TARGET} ${SOURCE}'
p3059
asg349
(lp3060
g3057
aS'echo ARM Assembling(GCC) ${SOURCE}...'
p3061
aS'c:/marmalade/6.2/s3e\\gcc\\bin\\arm-none-eabi-gcc -c -o ${TARGET} ${SOURCE}'
p3062
asS'ppu'
p3063
(lp3064
S'.a'
p3065
aS'echo PPU Assembling(SNC) ${SOURCE}...'
p3066
aS'c:/marmalade/6.2/s3e\\rvct\\bin\\armasm -o ${TARGET} ${SOURCE}'
p3067
assS'.s'
p3068
g3054
sS'.vp'
p3069
(lp3070
NaS'"C:/Marmalade/6.2/s3e/python/python.exe" "c:/marmalade/6.2/modules/iwgx/tools/compile_shaders.py" ${SOURCE}'
p3071
assg490
g0
sbtp3072
.