((dp0
S'arm_dbg_args'
p1
S'-via:"c:\\Users\\1106786\\Dropbox\\Dropbox\\PG life\\Project Impact\\Code\\Demos\\Demo_2_Collision\\build_demo_2_collision_vc10\\Demo_2_Collision_vc10_arm_debug.via" -qemu'
p2
sS'game-icf'
p3
S''
p4
sS'dist'
p5
NsS'module_path_append'
p6
NsS'global_path'
p7
S'c:\\users\\1106786\\dropbox\\dropbox\\pg life\\project impact\\code\\demos'
p8
sS'system_path'
p9
S'c:\\marmalade\\6.2\\s3e\\makefile_builder'
p10
sS'use_prebuilt'
p11
NsS'arm_rel_rtsm_args'
p12
S'-via:"c:\\Users\\1106786\\Dropbox\\Dropbox\\PG life\\Project Impact\\Code\\Demos\\Demo_2_Collision\\build_demo_2_collision_vc10\\Demo_2_Collision_vc10_arm_release.via" -qemu'
p13
sS'amd64'
p14
NsS'line-width'
p15
I80
sS'gcc_dbg_args'
p16
S'-via:"c:\\Users\\1106786\\Dropbox\\Dropbox\\PG life\\Project Impact\\Code\\Demos\\Demo_2_Collision\\build_demo_2_collision_vc10\\Demo_2_Collision_vc10_gcc_debug.via" -qemu'
p17
sS'x86_dbg_exe'
p18
S'c:/marmalade/6.2/s3e\\win32\\s3e_simulator_debug.exe'
p19
sS'disable-runtime-checks'
p20
NsS'release'
p21
NsS'no-make'
p22
NsS'optimise-size'
p23
NsS'output-name-debug'
p24
g4
sS'arm-fpu'
p25
S'vfp'
p26
sS'psp'
p27
NsS'proj_name'
p28
S'Demo_2_Collision_vc10'
p29
sS'rvct-version'
p30
S'none'
p31
sS'compiler'
p32
g4
sS'execute'
p33
NsS'compile-static'
p34
NsS'msvc-project'
p35
NsS'buildenv'
p36
g4
sS'debug'
p37
NsS'module_path'
p38
NsS'use-release-std-libs'
p39
NsS'using_perforce'
p40
I00
sS'mips-s3e'
p41
NsS'shared-arm-lib'
p42
NsS'arm-cpu'
p43
g4
sS'compile-thumb'
p44
NsS'no-ide'
p45
NsS'msvc-version'
p46
S'6.0'
p47
sS'arm'
p48
NsS'builddir'
p49
g4
sS'compile-debug-as-release'
p50
I0
sS'brief'
p51
NsS'dll'
p52
NsS'buildenv-toolset'
p53
g4
sS'version'
p54
NsS'ccache'
p55
I0
sS'offline'
p56
NsS'ios-version'
p57
g4
sS'jobs'
p58
I0
sS'linkflags'
p59
NsS'quick'
p60
NsS'gcc_rel_rtsm_args'
p61
S'-via:"c:\\Users\\1106786\\Dropbox\\Dropbox\\PG life\\Project Impact\\Code\\Demos\\Demo_2_Collision\\build_demo_2_collision_vc10\\Demo_2_Collision_vc10_gcc_release.via" -qemu'
p62
sS'done_defaults'
p63
I1
sS'path'
p64
NsS's3e-data-dir'
p65
S'c:/Users/1106786/Dropbox/Dropbox/PG life/Project Impact/Code/Demos/Demo_2_Collision\\data'
p66
sS'enable-exceptions'
p67
NsS'osx-dll'
p68
NsS'extension'
p69
g4
sS'no-vc6'
p70
NsS'non-interactive'
p71
NsS'win32-console'
p72
NsS'nds'
p73
NsS'dist-format'
p74
g4
sS's3e-force-arch'
p75
NsS'dump_defines'
p76
NsS'verbose'
p77
I0
sS'psp-minis'
p78
NsS'gcc-version'
p79
g4
sS'x86_dbg_args'
p80
S'-via:"c:\\Users\\1106786\\Dropbox\\Dropbox\\PG life\\Project Impact\\Code\\Demos\\Demo_2_Collision\\build_demo_2_collision_vc10\\Demo_2_Collision_vc10_debug.via"'
p81
sS'arm-debugger'
p82
g4
sS'use_temp_extension'
p83
NsS'log'
p84
NsS'no-strip'
p85
NsS'rebuild'
p86
NsS'win32-simulator-dll'
p87
NsS'strict'
p88
NsS'mips_dbg_args'
p89
S'../../tools/DeployTool/DeployTool.exe --dir "c:\\Users\\1106786\\Dropbox\\Dropbox\\PG life\\Project Impact\\Code\\Demos\\Demo_2_Collision\\build_demo_2_collision_vc10"'
p90
sS'enable-global-path'
p91
NsS'iphone'
p92
NsS'cflags'
p93
NsS'dist-dir'
p94
g4
sS'jflags'
p95
NsS'distcc'
p96
NsS'external-compiler'
p97
NsS'no-distcc'
p98
NsS'preinclude'
p99
NsS'using_sdk'
p100
I01
sS'nologo'
p101
NsS'warn-level'
p102
I2
sS'mips_dbg_exe'
p103
S'c:\\marmalade\\6.2\\s3e\\makefile_builder\\tool_launcher.exe'
p104
sS'mkb_in'
p105
S'c:/Users/1106786/Dropbox/Dropbox/PG life/Project Impact/Code/Demos/Demo_2_Collision/Demo_2_Collision.mkb'
p106
sS'arm_dbg_exe'
p107
S'c:/marmalade/6.2/s3e\\bin\\armdebug.exe'
p108
sS'list-targets'
p109
NsS'arm_rel_exe'
p110
g104
sS'arm_rel_args'
p111
g90
sS'makedeps'
p112
NsS'default-buildenv'
p113
S'VC10'
p114
sS'x86_rel_exe'
p115
g19
sS'preprocess-java'
p116
NsS'mips_rel_args'
p117
g90
sS'defines'
p118
NsS'lib'
p119
NsS'global_argv'
p120
(lp121
S'C:\\Marmalade\\6.2\\s3e\\makefile_builder\\mkb.py'
p122
aS'C:\\Users\\1106786\\Dropbox\\Dropbox\\PG life\\Project Impact\\Code\\Demos\\Demo_2_Collision\\Demo_2_Collision.mkb'
p123
asS'make'
p124
NsS'optimise-speed'
p125
NsS'internal'
p126
NsS'enable-stdinc'
p127
NsS'deploy-only'
p128
NsS'x86'
p129
NsS'deploy'
p130
g4
sS'x86_run_exe'
p131
S'c:/marmalade/6.2/s3e\\win32\\s3e_console.exe'
p132
sS'x86_rel_args'
p133
S'-via:"c:\\Users\\1106786\\Dropbox\\Dropbox\\PG life\\Project Impact\\Code\\Demos\\Demo_2_Collision\\build_demo_2_collision_vc10\\Demo_2_Collision_vc10_release.via"'
p134
sS'gcc_rel_args'
p135
g90
sS'mips'
p136
NsS'incredibuild'
p137
NsS'strict-compile'
p138
NsS'use-auto-subdirs'
p139
NsS'mips_rel_exe'
p140
g104
sS'app-icf'
p141
g4
sS'deployargs'
p142
NsS'mkf_in'
p143
(lp144
S'c:\\marmalade\\6.2\\modules\\iw2d\\iw2d.mkf'
p145
aS'c:\\marmalade\\6.2\\modules\\iwgx\\iwgx.mkf'
p146
aS'c:\\marmalade\\6.2\\modules\\iwgeom\\iwgeom.mkf'
p147
aS'c:\\marmalade\\6.2\\modules\\iwutil\\iwutil.mkf'
p148
aVc:\u005cusers\u005c1106786\u005cappdata\u005croaming\u005cmarmalade\u005cpackages\u005c6.2.2\u005clibjpeg_6b\u005clibjpeg.mkf
p149
aVc:\u005cusers\u005c1106786\u005cappdata\u005croaming\u005cmarmalade\u005cpackages\u005c6.2.2\u005clibpng_1.2.34\u005clibpng.mkf
p150
aVc:\u005cusers\u005c1106786\u005cappdata\u005croaming\u005cmarmalade\u005cpackages\u005c6.2.2\u005czlib_1.2.4\u005czlib.mkf
p151
aS'c:\\marmalade\\6.2\\modules\\iwresmanager\\iwresmanager.mkf'
p152
aS'c:\\marmalade\\6.2\\modules\\iwgl\\iwgl.mkf'
p153
aS'c:\\marmalade\\6.2\\modules\\iwgxfont\\iwgxfont.mkf'
p154
aVc:\u005cusers\u005c1106786\u005cappdata\u005croaming\u005cmarmalade\u005cpackages\u005c6.2.2\u005ctiniconv_1.0.1\u005ctiniconv.mkf
p155
aS'c:\\users\\1106786\\dropbox\\dropbox\\pg life\\project impact\\code\\demos\\demo_2_collision\\demo_2_collision.mkf'
p156
asS'strict-mkb'
p157
NsS'executeargs'
p158
NsS'clean'
p159
NsS'no-asm'
p160
NsS'output-name'
p161
g4
sS'no-modules'
p162
NsS'find_define'
p163
g4
s(dp164
S'c:\\marmalade\\6.2\\s3e\\makefile_builder\\templates\\xcode_pbxuser.py'
p165
F1365595058.0
sS'c:\\marmalade\\6.2\\s3e\\makefile_builder\\templates'
p166
F1378901971.8745732
sS'c:\\marmalade\\6.2\\s3e\\makefile_builder\\plugins\\null.pyc'
p167
F1365605816.0
sS'c:\\marmalade\\6.2\\s3e\\makefile_builder\\plugins\\XcodeEmitter.pyc'
p168
F1380286836.0994766
sS'c:\\marmalade\\6.2\\s3e\\makefile_builder\\plugins'
p169
F1380286836.2464912
sS'c:\\marmalade\\6.2\\s3e\\makefile_builder\\extensions'
p170
F1378901971.8765736
sS'c:\\marmalade\\6.2\\s3e\\makefile_builder\\templates\\vc6_opt.pyc'
p171
F1365605816.0
sS'c:\\marmalade\\6.2\\s3e\\makefile_builder\\templates\\win32_vcxproj_filters.pyc'
p172
F1365605816.0
sS'c:\\marmalade\\6.2\\s3e\\makefile_builder\\mkb_parser.pyc'
p173
F1365605816.0
sS'c:\\marmalade\\6.2\\s3e\\makefile_builder\\plugins\\xcode4_schememanagement.pyc'
p174
F1380286836.1074774
sS'c:\\marmalade\\6.2\\s3e\\makefile_builder\\plugins\\win32_vc6.pyc'
p175
F1365605816.0
sS'c:\\marmalade\\6.2\\s3e\\makefile_builder\\templates\\template.suo'
p176
F1365595058.0
sS'c:\\marmalade\\6.2\\s3e\\makefile_builder\\plugins\\s3e_xcode.py'
p177
F1365595058.0
sS'c:\\marmalade\\6.2\\s3e\\makefile_builder\\templates\\make.py'
p178
F1365595058.0
sS'c:\\marmalade\\6.2\\s3e\\makefile_builder\\docs\\options.txt'
p179
F1365595058.0
sS'c:\\marmalade\\6.2\\s3e\\makefile_builder\\plugins\\linux_scons.pyc'
p180
F1365605816.0
sS'c:\\marmalade\\6.2\\s3e\\makefile_builder\\templates\\linker_script'
p181
F1365595058.0
sS'c:\\marmalade\\6.2\\s3e\\makefile_builder\\plugins\\s3e_scons.pyc'
p182
F1365605816.0
sS'c:\\marmalade\\6.2\\s3e\\makefile_builder\\templates\\xcode.py'
p183
F1365595058.0
sS'c:\\marmalade\\6.2\\s3e\\makefile_builder\\plugins\\java.pyc'
p184
F1365605816.0
sS'c:\\marmalade\\6.2\\s3e\\makefile_builder\\templates\\win32_dsw.pyc'
p185
F1365605816.0
sS'c:\\marmalade\\6.2\\s3e\\makefile_builder\\docs\\mkb.defines.txt'
p186
F1365595058.0
sS'c:\\marmalade\\6.2\\s3e\\makefile_builder\\docs\\deprecated.defines.txt'
p187
F1365595058.0
sS'c:\\marmalade\\6.2\\s3e\\makefile_builder\\templates\\win32_vcxproj.pyc'
p188
F1365605816.0
sS'c:\\marmalade\\6.2\\s3e\\makefile_builder\\deployment.pyc'
p189
F1365605816.0
sS'c:\\marmalade\\6.2\\s3e\\makefile_builder\\plugins\\s3e_qmake.py'
p190
F1365595058.0
sS'c:\\marmalade\\6.2\\s3e\\makefile_builder\\templates\\win32_sln.pyc'
p191
F1365605816.0
sS'c:\\marmalade\\6.2\\s3e\\makefile_builder\\tool_launcher.exe'
p192
F1365595808.0
sS'c:\\marmalade\\6.2\\s3e\\makefile_builder\\plugins\\Emitter.pyc'
p193
F1365605816.0
sS'c:\\marmalade\\6.2\\s3e\\makefile_builder\\docs\\deprecated.options.txt'
p194
F1365595058.0
sS'c:\\marmalade\\6.2\\s3e\\makefile_builder\\templates\\rvct_linker_script'
p195
F1365595058.0
sS'c:\\marmalade\\6.2\\s3e\\makefile_builder\\plugins\\vc6_utils.pyc'
p196
F1365605816.0
sS'c:\\marmalade\\6.2\\s3e\\makefile_builder\\mkb_main.pyc'
p197
F1365605816.0
sS'c:\\marmalade\\6.2\\s3e\\makefile_builder\\plugins\\iphone.pyc'
p198
F1365605816.0
sS'c:\\marmalade\\6.2\\s3e\\makefile_builder\\plugins\\S3EEmitter.pyc'
p199
F1365605816.0
sS'c:\\marmalade\\6.2\\s3e\\makefile_builder\\plugins\\xcode4_schememanagement.py'
p200
F1365595058.0
sS'c:\\marmalade\\6.2\\s3e\\makefile_builder\\templates\\xcode4_DeployTool.xcscheme'
p201
F1365595058.0
sS'c:\\marmalade\\6.2\\s3e\\makefile_builder\\mkb_util.pyc'
p202
F1365605816.0
sS'c:\\marmalade\\6.2\\s3e\\makefile_builder\\mkb_globals.pyc'
p203
F1365605816.0
sS'c:\\marmalade\\6.2\\s3e\\makefile_builder\\templates\\qmake_user.py'
p204
F1365595058.0
sS'c:\\marmalade\\6.2\\s3e\\makefile_builder\\plugins\\vc7_utils.pyc'
p205
F1365605816.0
sS'c:\\marmalade\\6.2\\s3e\\makefile_builder\\templates\\MainWindow.xib'
p206
F1365595058.0
sS'c:\\marmalade\\6.2\\s3e\\makefile_builder\\plugins\\s3e_make.pyc'
p207
F1365605816.0
sS'c:\\marmalade\\6.2\\s3e\\makefile_builder\\templates\\vc10_user.pyc'
p208
F1365605816.0
sS'c:\\marmalade\\6.2\\s3e\\makefile_builder\\templates\\Info.plist'
p209
F1365595058.0
sS'c:\\marmalade\\6.2\\s3e\\makefile_builder\\plugins\\SConsEmitter.pyc'
p210
F1365605816.0
sS'c:\\marmalade\\6.2\\s3e\\makefile_builder\\docs'
p211
F1378901971.9095769
sS'c:\\marmalade\\6.2\\s3e\\makefile_builder\\mkb_option.pyc'
p212
F1365605816.0
sS'c:\\marmalade\\6.2\\s3e\\makefile_builder\\docs\\parse_options.pyc'
p213
F1365605816.0
sS'c:\\marmalade\\6.2\\s3e\\makefile_builder\\plugins\\XcodeEmitter.py'
p214
F1365595058.0
sS'c:\\marmalade\\6.2\\s3e\\makefile_builder\\mkb_launcher.exe'
p215
F1365595806.0
sS'c:\\marmalade\\6.2\\s3e\\makefile_builder\\templates\\vc8_user.pyc'
p216
F1365605816.0
sS'c:\\marmalade\\6.2\\s3e\\makefile_builder\\templates\\win32_dsp.pyc'
p217
F1365605816.0
sS'c:\\marmalade\\6.2\\s3e\\makefile_builder\\templates\\mips_linker_script'
p218
F1365595058.0
sS'c:\\marmalade\\6.2\\s3e\\makefile_builder\\mkb.py'
p219
F1365595058.0
sS'c:\\marmalade\\6.2\\s3e\\makefile_builder\\plugins\\osx_scons.pyc'
p220
F1365605816.0
sS'c:\\marmalade\\6.2\\s3e\\makefile_builder\\plugins\\deploy.pyc'
p221
F1365605816.0
sS'c:\\marmalade\\6.2\\s3e\\makefile_builder\\plugins\\VisualStudioEmitter.pyc'
p222
F1365605816.0
sS'c:\\marmalade\\6.2\\s3e\\makefile_builder\\plugins\\s3e_qmake.pyc'
p223
F1380286836.202487
sS'c:\\marmalade\\6.2\\s3e\\makefile_builder\\plugins\\s3e_xcode.pyc'
p224
F1380286836.2464912
sS'c:\\marmalade\\6.2\\s3e\\makefile_builder\\docs\\deployment_options.txt'
p225
F1365595058.0
sS'c:\\marmalade\\6.2\\s3e\\makefile_builder\\plugins\\s3e_web.pyc'
p226
F1365605816.0
sS'c:\\marmalade\\6.2\\s3e\\makefile_builder\\templates\\template.opt'
p227
F1365595058.0
sS'c:\\marmalade\\6.2\\s3e\\makefile_builder\\templates\\scons.pyc'
p228
F1365605816.0
sS'c:\\marmalade\\6.2\\s3e\\makefile_builder\\templates\\xcode4.xcscheme'
p229
F1365595058.0
sS'c:\\marmalade\\6.2\\s3e\\makefile_builder\\templates\\vc7_suo.pyc'
p230
F1365605816.0
sS'c:\\marmalade\\6.2\\s3e\\makefile_builder\\plugins\\MakeEmitter.pyc'
p231
F1365605816.0
sS'c:\\marmalade\\6.2\\s3e\\makefile_builder\\templates\\qmake.py'
p232
F1365595058.0
sS'c:\\marmalade\\6.2\\s3e\\makefile_builder\\templates\\win32_vcproj.pyc'
p233
F1365605816.0
sS'c:\\marmalade\\6.2\\s3e\\makefile_builder\\templates\\gdb_start.txt'
p234
F1365595058.0
sS'c:\\marmalade\\6.2\\s3e\\makefile_builder\\plugins\\s3e_vc6.pyc'
p235
F1365605816.0
sS'c:\\marmalade\\6.2\\s3e\\makefile_builder\\plugins\\osx_xcode.pyc'
p236
F1365605816.0
sS'c:\\marmalade\\6.2\\s3e\\makefile_builder\\extensions\\make_dist.py'
p237
F1365595058.0
sccopy_reg
_reconstructor
p238
(cmkb_main
MkbFile
p239
c__builtin__
object
p240
Ntp241
Rp242
(dp243
g5
(lp244
sS'target_name'
p245
S'Demo_2_Collision'
p246
sS'current_file'
p247
g106
sS'package_path'
p248
(lp249
VC:\u005cUsers\u005c1106786\u005cAppData\u005cRoaming\u005cMarmalade\u005cpackages\u005c6.2.2\u005clibjpeg_6b
p250
aVC:\u005cUsers\u005c1106786\u005cAppData\u005cRoaming\u005cMarmalade\u005cpackages\u005c6.2.2\u005clibpng_1.2.34
p251
aVC:\u005cUsers\u005c1106786\u005cAppData\u005cRoaming\u005cMarmalade\u005cpackages\u005c6.2.2\u005czlib_1.2.4
p252
aVC:\u005cUsers\u005c1106786\u005cAppData\u005cRoaming\u005cMarmalade\u005cpackages\u005c6.2.2\u005ctiniconv_1.0.1
p253
asS'post_build'
p254
(lp255
(lp256
S'c:/marmalade/6.2/s3e/tools'
p257
aS'C:\\Marmalade\\6.2\\s3e\\python\\python.exe .\\process_map.py "$(TargetPath)"'
p258
aa(S'c:\\marmalade\\6.2\\s3e'
p259
S'"c:\\marmalade\\6.2\\s3e\\bin\\s3e_plink" -l "$(TargetPath)"'
p260
g129
tp261
asS'librarys'
p262
(lp263
g238
(cmkb_main
Library
p264
g240
Ntp265
Rp266
(dp267
S'name'
p268
S'vc6_compat.lib'
p269
sS'expand_name'
p270
I00
sS'include_spec_rvct_objs'
p271
(lp272
sS'include_all_objs'
p273
I00
sS'share_arm'
p274
I00
sS'arch'
p275
S'x86'
p276
sS'nodebug'
p277
I00
sg32
Nsbag238
(g264
g240
Ntp278
Rp279
(dp280
g268
S'jpeg'
p281
sg270
I01
sg271
(lp282
sg273
I00
sg274
Nsg275
Nsg277
I00
sg32
Nsbag238
(g264
g240
Ntp283
Rp284
(dp285
g268
S'z'
p286
sg270
I01
sg271
g282
sg273
I00
sg274
Nsg275
Nsg277
I00
sg32
Nsbag238
(g264
g240
Ntp287
Rp288
(dp289
g268
S'png'
p290
sg270
I01
sg271
g282
sg273
I00
sg274
Nsg275
Nsg277
I00
sg32
Nsbag238
(g264
g240
Ntp291
Rp292
(dp293
g268
S'iwutil'
p294
sg270
I01
sg271
g282
sg273
I00
sg274
I01
sg275
Nsg277
I00
sg32
Nsbag238
(g264
g240
Ntp295
Rp296
(dp297
g268
S'iwgeom'
p298
sg270
I01
sg271
g282
sg273
I00
sg274
I01
sg275
Nsg277
I00
sg32
Nsbag238
(g264
g240
Ntp299
Rp300
(dp301
g268
S'iwresmanager'
p302
sg270
I01
sg271
g282
sg273
I00
sg274
I01
sg275
Nsg277
I00
sg32
Nsbag238
(g264
g240
Ntp303
Rp304
(dp305
g268
S'ATI_Compress_MT_VC7.lib'
p306
sg270
I00
sg271
g282
sg273
I00
sg274
Nsg275
S'x86'
p307
sg277
I00
sg32
Nsbag238
(g264
g240
Ntp308
Rp309
(dp310
g268
S'iwgx'
p311
sg270
I01
sg271
g282
sg273
I00
sg274
I01
sg275
Nsg277
I00
sg32
Nsbag238
(g264
g240
Ntp312
Rp313
(dp314
g268
S'iwgl'
p315
sg270
I01
sg271
g282
sg273
I00
sg274
Nsg275
Nsg277
I00
sg32
Nsbag238
(g264
g240
Ntp316
Rp317
(dp318
g268
S'iwgxfont'
p319
sg270
I01
sg271
g282
sg273
I00
sg274
I01
sg275
Nsg277
I00
sg32
Nsbag238
(g264
g240
Ntp320
Rp321
(dp322
g268
S'tiniconv'
p323
sg270
I01
sg271
g282
sg273
I00
sg274
Nsg275
Nsg277
I00
sg32
Nsbag238
(g264
g240
Ntp324
Rp325
(dp326
g268
S'iw2d'
p327
sg270
I01
sg271
g282
sg273
I00
sg274
I01
sg275
Nsg277
I00
sg32
Nsbag238
(g264
g240
Ntp328
Rp329
(dp330
g268
S's3e_cpp'
p331
sg270
I01
sg271
g272
sg273
I00
sg274
I00
sg275
Nsg277
I00
sg32
Nsbag238
(g264
g240
Ntp332
Rp333
(dp334
g268
S's3e'
p335
sg270
I01
sg271
(lp336
S'iwcrt.o'
p337
asg273
I00
sg274
I00
sg275
Nsg277
I00
sg32
Nsbag238
(g264
g240
Ntp338
Rp339
(dp340
g268
S's3e_api'
p341
sg270
I01
sg271
g272
sg273
I00
sg274
I00
sg275
Nsg277
I1
sg32
Nsbag238
(g264
g240
Ntp342
Rp343
(dp344
g268
S's3e_api'
p345
sg270
I00
sg271
g272
sg273
I00
sg274
I00
sg275
S'arm'
p346
sg277
I00
sg32
S'gcc'
p347
sbag238
(g264
g240
Ntp348
Rp349
(dp350
g268
S'stdc++'
p351
sg270
I00
sg271
g272
sg273
I00
sg274
I00
sg275
S'mips'
p352
sg277
I00
sg32
Nsbag238
(g264
g240
Ntp353
Rp354
(dp355
g268
S'c'
p356
sg270
I00
sg271
g272
sg273
I00
sg274
I00
sg275
S'mips'
p357
sg277
I00
sg32
Nsbag238
(g264
g240
Ntp358
Rp359
(dp360
g268
S'm'
p361
sg270
I00
sg271
g272
sg273
I00
sg274
I00
sg275
S'mips'
p362
sg277
I00
sg32
Nsbag238
(g264
g240
Ntp363
Rp364
(dp365
g268
S'gcc'
p366
sg270
I00
sg271
g272
sg273
I00
sg274
I00
sg275
S'mips'
p367
sg277
I00
sg32
NsbasS'library_paths'
p368
(lp369
g238
(cmkb_main
LibraryPath
p370
g240
Ntp371
Rp372
(dp373
S'expand_path'
p374
I01
sS'add_cpu_variant'
p375
I00
sg268
Vc:/users/1106786/appdata/roaming/marmalade/packages/6.2.2/libjpeg_6b
p376
sbag238
(g370
g240
Ntp377
Rp378
(dp379
g374
I01
sg375
I00
sg268
Vc:/users/1106786/appdata/roaming/marmalade/packages/6.2.2/zlib_1.2.4
p380
sbag238
(g370
g240
Ntp381
Rp382
(dp383
g374
I01
sg375
I00
sg268
Vc:/users/1106786/appdata/roaming/marmalade/packages/6.2.2/libpng_1.2.34
p384
sbag238
(g370
g240
Ntp385
Rp386
(dp387
g374
I01
sg375
I00
sg268
S'c:/marmalade/6.2/modules/iwutil'
p388
sbag238
(g370
g240
Ntp389
Rp390
(dp391
g374
I01
sg375
I00
sg268
S'c:/marmalade/6.2/modules/iwgeom'
p392
sbag238
(g370
g240
Ntp393
Rp394
(dp395
g374
I01
sg375
I00
sg268
S'c:/marmalade/6.2/modules/iwresmanager'
p396
sbag238
(g370
g240
Ntp397
Rp398
(dp399
g374
I00
sg375
I00
sg268
S'c:/marmalade/6.2/modules/iwgx/atitools'
p400
sbag238
(g370
g240
Ntp401
Rp402
(dp403
g374
I01
sg375
I00
sg268
S'c:/marmalade/6.2/modules/iwgx'
p404
sbag238
(g370
g240
Ntp405
Rp406
(dp407
g374
I01
sg375
I00
sg268
S'c:/marmalade/6.2/modules/iwgl'
p408
sbag238
(g370
g240
Ntp409
Rp410
(dp411
g374
I01
sg375
I00
sg268
S'c:/marmalade/6.2/modules/iwgxfont'
p412
sbag238
(g370
g240
Ntp413
Rp414
(dp415
g374
I01
sg375
I00
sg268
Vc:/users/1106786/appdata/roaming/marmalade/packages/6.2.2/tiniconv_1.0.1
p416
sbag238
(g370
g240
Ntp417
Rp418
(dp419
g374
I01
sg375
I00
sg268
S'c:/marmalade/6.2/modules/iw2d'
p420
sbag238
(g370
g240
Ntp421
Rp422
(dp423
g374
I01
sg375
I00
sg268
S'c:/marmalade/6.2/s3e'
p424
sbasS'macros'
p425
(dp426
S'IW_USE_CALLSTACK'
p427
NsS'IW_SDK'
p428
NsS'I3D_PLATFORM_S3E'
p429
NsS'IW_MKF_LIBJPEG'
p430
NsS'I3D_OS_S3E'
p431
NsS'IW_MKF_TINICONV'
p432
NsS'IW_APP_VERSION'
p433
S'"1.0"'
p434
sS'IW_MKF_IWRESMANAGER'
p435
NsS'IW_MKF_IWUTIL'
p436
NsS'IW_MKF_IWGEOM'
p437
NsS'IW_ASSERTION_CHANNEL_2D'
p438
S'1'
p439
sS'IW_APP_NAME'
p440
S'"Demo_2_Collision"'
p441
sS'IW_MKF_IWGXFONT'
p442
NsS'IW_PLATFORM_S3E'
p443
NsS'IW_MKF_ZLIB'
p444
NsS'IW_MKF_IWGX'
p445
NsS'IW_USE_ASSERTIONS'
p446
NsS'_CRT_SECURE_NO_DEPRECATE'
p447
NsS'IW_MKF_IWGL'
p448
NsS'IW_MKF_LIBPNG'
p449
NsS'IW_DEBUG'
p450
NsS'IW_USE_TRACING'
p451
NsS'S3E_INCLUDE_LEGACY'
p452
NsS'__S3E__'
p453
NsS'IW_MKF_DEMO_2_COLLISION'
p454
NsS'IW_MKF_IW2D'
p455
NssS'done_warnings'
p456
(dp457
sS'subprojects'
p458
(dp459
g152
S'iwresmanager'
p460
sVc:\u005cusers\u005c1106786\u005cappdata\u005croaming\u005cmarmalade\u005cpackages\u005c6.2.2\u005czlib_1.2.4\u005czlib.mkf
p461
S'zlib'
p462
sg148
S'iwutil'
p463
sVc:\u005cusers\u005c1106786\u005cappdata\u005croaming\u005cmarmalade\u005cpackages\u005c6.2.2\u005clibjpeg_6b\u005clibjpeg.mkf
p464
S'libjpeg'
p465
sg147
S'iwgeom'
p466
sg146
S'iwgx'
p467
sVc:\u005cusers\u005c1106786\u005cappdata\u005croaming\u005cmarmalade\u005cpackages\u005c6.2.2\u005clibpng_1.2.34\u005clibpng.mkf
p468
S'libpng'
p469
sg154
S'iwgxfont'
p470
sg153
S'iwgl'
p471
sg145
S'iw2d'
p472
sg156
S'Demo_2_Collision'
p473
sVc:\u005cusers\u005c1106786\u005cappdata\u005croaming\u005cmarmalade\u005cpackages\u005c6.2.2\u005ctiniconv_1.0.1\u005ctiniconv.mkf
p474
S'tiniconv'
p475
ssS'deployments'
p476
(dp477
S'Default'
p478
g238
(cdeployment
Deployment
p479
g240
Ntp480
Rp481
(dp482
S'got_version'
p483
I0
sS'assets'
p484
g478
sS'mkb'
p485
g242
sS'target'
p486
Nsg275
(lp487
sS'options'
p488
(dp489
S'iphone-link-lib'
p490
(lp491
sS'game-icf'
p492
NsS'iphone-icon-high-res'
p493
NsS'win32-pref-windowposy'
p494
NsS'win32-pref-windowposx'
p495
NsS'bada-appsecret'
p496
NsS'playbook-author'
p497
NsS'winmobile-icon32'
p498
NsS'linux-ext-lib'
p499
(lp500
sS'target-folder'
p501
NsS'iphone-splashscreen-landscape'
p502
NsS'psp-discversion'
p503
NsS'lgtv-use-drm'
p504
NsS'nds-bannertitle-sp'
p505
NsS'symbian-platsecflags'
p506
NsS'psp-producer'
p507
NsS'blackberry-playbook-icon'
p508
NsS'iphone-icon-ipad-search-high-res'
p509
NsS'iphone-provisioning-profile'
p510
NsS'copyright'
p511
NsS'winmobile-png45'
p512
NsS'iphone-link-libdir'
p513
(lp514
sS'symbian-cert'
p515
NsS'nds-bannertitle-hn'
p516
NsS'brew-depends'
p517
NsS'winmobile-png60'
p518
NsS'winmobile-nouninstall'
p519
NsS'android-icon-hdpi'
p520
NsS'iphone-ipad-only'
p521
NsS'iphone-splash-full-orient'
p522
NsS'iphone-bundle-url-name'
p523
NsS'android-aliasname'
p524
NsS'iphone-splash-retina-generate'
p525
NsS'psp-dlgmanual'
p526
NsS'iphone-backgroundmode-audio'
p527
NsS'android-pkgname'
p528
NsS'webos-memory'
p529
NsS'brew-uid'
p530
NsS'android-keypass'
p531
NsS'symbian-locationsupport'
p532
NsS'iphone-signing-host'
p533
NsS'nds-bannertitle-jp'
p534
NsS'name'
p535
NsS'osx-info-plist'
p536
NsS'symbian-icon1-format'
p537
NsS'uiq3-uid'
p538
NsS'psp-dlgcontentid'
p539
NsS'auto-derbh'
p540
NsS'bada-use-partner-privileges'
p541
NsS'nds-bannertitle-it'
p542
NsS'blackberry-authorid'
p543
NsS'nds-publicsavedatasize'
p544
NsS'splashscreen'
p545
NsS'brew-mif'
p546
NsS'symbian-icon2-format'
p547
NsS'long-caption'
p548
NsS'iphone-icon-settings-high-res'
p549
NsS'android-manifest'
p550
NsS'winmobile-icon16'
p551
NsS's3e-compression'
p552
NsS'blackberry-cskpass'
p553
NsS'iphone-link-opts'
p554
(lp555
sS'iphone-region'
p556
NsS'uiq3-icon3-mask'
p557
NsS'winmobile-start-menu-folder'
p558
NsS'brew-clsid'
p559
NsS'brew-encoding'
p560
NsS'symbian-icon1'
p561
NsS'symbian-icon2'
p562
NsS'psp-parentallevel'
p563
NsS'osx-ext-dll'
p564
(lp565
sS'version'
p566
NsS'bada-manifest'
p567
NsS'provider'
p568
NsS'iphone-prerendered-icon'
p569
NsS'iphone-appid'
p570
NsS'playbook-keystore'
p571
NsS'nds-initialcode'
p572
NsS'symbian8-uid'
p573
NsS'symbian-osexecsupport'
p574
NsS'winmobile-icon64'
p575
NsS'iphone-persistent-wifi'
p576
NsS'symbian7-uid'
p577
NsS'winmobile-setup-dll'
p578
NsS'android-external-jars'
p579
(lp580
sS'android-install-location'
p581
NsS'olddeploytoolstyle'
p582
NsS'nds-privatesavedatasize'
p583
NsS'symbian9-uid'
p584
NsS'nds-bannertitle-cn'
p585
NsS'winmobile-trace-file'
p586
NsS'playbook-storepass'
p587
NsS'android-icon-ldpi'
p588
NsS'psp-appversion'
p589
NsS'networking'
p590
NsS'winmobile-install-folder'
p591
NsS'arch'
p592
NsS'android-external-res'
p593
(lp594
sS'manufacturer'
p595
NsS'android-icon-gallery'
p596
NsS'bada-signed'
p597
NsS'android-supports-gl-texture'
p598
(lp599
sS'iphone-apple-wwdr-cert'
p600
NsS'psp-snd0'
p601
NsS'iphone-extra-sections'
p602
NsS'blackberry-keystore'
p603
NsS'iphone-nosign'
p604
NsS'caption'
p605
NsS'winmobile-ampd-part-number'
p606
NsS'iphone-icon-large'
p607
NsS'android-storepass'
p608
NsS'iphone-info-plist'
p609
NsS'win32-icon'
p610
NsS'android-extra-manifest'
p611
(lp612
sS'iphone-icon-ipad-search'
p613
NsS'android-custom-activity'
p614
NsS'version-minor'
p615
NsS'iphone-icon-ipad'
p616
NsS'bada-appid'
p617
NsS'iphone-distribution-key'
p618
NsS'iphone-link-libdirs'
p619
(lp620
sS'psp-copyright'
p621
NsS'symbian-maxheapsize'
p622
NsS'embed-icf'
p623
NsS'psp-titlename'
p624
NsS'symbian-icon1-mask'
p625
NsS'nds-makercode'
p626
NsS'psp-icon1'
p627
NsS'priv-sign-key'
p628
NsS'webos-appinfo'
p629
NsS'symbian-cert-key'
p630
NsS'android-icon'
p631
NsS'webos-appid'
p632
NsS'android-icon-nonstandard'
p633
NsS'android-extra-application-manifest'
p634
(lp635
sS'iphone-icon-settings'
p636
NsS'iphone-distribution-cert'
p637
NsS'osx-icon'
p638
NsS'nds-titlename'
p639
NsS'splashscreen-auto-onblack'
p640
NsS'icon'
p641
NsS'nds-romheadertemplate'
p642
NsS'webos-icon'
p643
NsS'nds-bannertitle-en'
p644
NsS'win32-ext-dll'
p645
(lp646
sS'psp-dlgicon0'
p647
NsS'iphone-development-key'
p648
NsS'psp-discid'
p649
NsS'winmobile-icon48'
p650
NsS'uiq3-icon1-mask'
p651
NsS'playbook-cskpass'
p652
NsS'android-so'
p653
(lp654
sS'itunes-artwork'
p655
NsS'bada-splash'
p656
NsS'version-revision'
p657
NsS'android-icon-mdpi'
p658
NsS'android-keystore'
p659
NsS'uiq3-icon2-format'
p660
NsS'version-string'
p661
NsS'winmobile-png90'
p662
NsS'iphone-icon-ipad-high-res'
p663
NsS'iphone-disable-ipad'
p664
NsS'uiq3-icon1-format'
p665
NsS'iphone-bundle-url-schemes'
p666
NsS'nds-icon'
p667
NsS'iphone-development-cert'
p668
NsS'playbook-authorid'
p669
NsS'android_extra_strings'
p670
NsS'playbook-icon'
p671
NsS'uid'
p672
NsS'iphone-signing-identity'
p673
NsS'brew-icon-medium'
p674
NsS'blackberry-phone-icon'
p675
NsS'iphone-enable-4inch-retina'
p676
NsS'pkguid-as-uid'
p677
NsS'symbian-icon1-mask-black'
p678
NsS'uiq3-icon2'
p679
NsS'pub-sign-key'
p680
NsS'nds-bannertitle-fr'
p681
NsS'win32-pref-windowtitle'
p682
NsS'symbian-disable-ecompxl'
p683
NsS'symbian-soundrecordsupport'
p684
NsS'splashscreen-use-all'
p685
NsS'android-unsigned'
p686
NsS'brew-priviledges'
p687
NsS'brew-icon-small'
p688
NsS'psp-dlgpic2'
p689
NsS'bada-icon'
p690
NsS'psp-dlgpic0'
p691
NsS'lgtv_l9-use-drm'
p692
NsS'psp-pic0'
p693
NsS'psp-pic1'
p694
NsS'iphone-icon'
p695
NsS'psp-icon0'
p696
NsS'blackberry-permissions-access-shared'
p697
NsS'uiq3-icon3-format'
p698
NsS'version-major'
p699
NsS'iphone_bundle_localisations'
p700
NsS'winmobile-icon'
p701
NsS'blackberry-author'
p702
NsS'symbian-keypwd'
p703
NsS'iphone-no-splash'
p704
NsS'playbook-access-shared'
p705
NsS'psp-dlghealthwarning'
p706
NsS'iphone-link-libs'
p707
(lp708
sS'iphone-splash'
p709
NsS'nds-bannertitle-ge'
p710
NsS'android_icon_gallery'
p711
NsS'brew-icon-large'
p712
NsS'iphone-app-fonts'
p713
NsS'symbian-icon2-mask'
p714
NsS'iphone-sign-for-distribution'
p715
NsS'psp-dlgprotectdocument'
p716
NsS'winmobile-cab-compress'
p717
NsS'uiq3-icon3'
p718
NsS'uiq3-icon1'
p719
NsS'symbian-run-on-install'
p720
NsS'assets'
p721
NsS'symbian-key'
p722
NsS'app-icf'
p723
NsS'blackberry-storepass'
p724
NsS'brew-compress-loader'
p725
NsS'uiq3-icon2-mask'
p726
NsS'symbian-icon2-mask-black'
p727
NsS'symbian-icon-svg'
p728
NsS'android-extra-strings'
p729
NsS'iphone-splashscreen-portrait'
p730
NsS'iphone-bundle-localisations'
p731
Nssg268
g478
sbssS'platform'
p732
S'S3E'
p733
sg54
S'1.0'
p734
sS'arcade_platform'
p735
g4
sS'extensions'
p736
(dp737
sS'source_groups_tree'
p738
(dp739
S'(libpng)'
p740
(dp741
Vc:/users/1106786/appdata/roaming/marmalade/packages/6.2.2/libpng_1.2.34/libpng.mkf
p742
(lp743
I1
a(dp744
asVc:/users/1106786/appdata/roaming/marmalade/packages/6.2.2/libpng_1.2.34/h/png.h
p745
(lp746
I1
a(dp747
asVc:/users/1106786/appdata/roaming/marmalade/packages/6.2.2/libpng_1.2.34/h/pngconf.h
p748
(lp749
I1
ag747
assS'(libjpeg)'
p750
(dp751
Vc:/users/1106786/appdata/roaming/marmalade/packages/6.2.2/libjpeg_6b/h/jmemsys.h
p752
(lp753
I1
a(dp754
asVc:/users/1106786/appdata/roaming/marmalade/packages/6.2.2/libjpeg_6b/h/jpegint.h
p755
(lp756
I1
ag754
asVc:/users/1106786/appdata/roaming/marmalade/packages/6.2.2/libjpeg_6b/h/jconfig.h
p757
(lp758
I1
ag754
asVc:/users/1106786/appdata/roaming/marmalade/packages/6.2.2/libjpeg_6b/h/cderror.h
p759
(lp760
I1
ag754
asVc:/users/1106786/appdata/roaming/marmalade/packages/6.2.2/libjpeg_6b/h/jerror.h
p761
(lp762
I1
ag754
asVc:/users/1106786/appdata/roaming/marmalade/packages/6.2.2/libjpeg_6b/libjpeg.mkf
p763
(lp764
I1
a(dp765
asVc:/users/1106786/appdata/roaming/marmalade/packages/6.2.2/libjpeg_6b/h/cdjpeg.h
p766
(lp767
I1
ag754
asVc:/users/1106786/appdata/roaming/marmalade/packages/6.2.2/libjpeg_6b/h/jversion.h
p768
(lp769
I1
ag754
asVc:/users/1106786/appdata/roaming/marmalade/packages/6.2.2/libjpeg_6b/h/jinclude.h
p770
(lp771
I1
ag754
asVc:/users/1106786/appdata/roaming/marmalade/packages/6.2.2/libjpeg_6b/h/jdct.h
p772
(lp773
I1
ag754
asVc:/users/1106786/appdata/roaming/marmalade/packages/6.2.2/libjpeg_6b/h/jpeglib.h
p774
(lp775
I1
ag754
asVc:/users/1106786/appdata/roaming/marmalade/packages/6.2.2/libjpeg_6b/h/jdhuff.h
p776
(lp777
I1
ag754
asVc:/users/1106786/appdata/roaming/marmalade/packages/6.2.2/libjpeg_6b/h/transupp.h
p778
(lp779
I1
ag754
asVc:/users/1106786/appdata/roaming/marmalade/packages/6.2.2/libjpeg_6b/h/jchuff.h
p780
(lp781
I1
ag754
asVc:/users/1106786/appdata/roaming/marmalade/packages/6.2.2/libjpeg_6b/h/jmorecfg.h
p782
(lp783
I1
ag754
assS'(Demo_2_Collision)'
p784
(dp785
S'src'
p786
(dp787
S'c:/users/1106786/dropbox/dropbox/pg life/project impact/code/demos/demo_2_collision/h/map.h'
p788
(lp789
I1
a(dp790
asS'c:/users/1106786/dropbox/dropbox/pg life/project impact/code/demos/demo_2_collision/h/character.h'
p791
(lp792
I1
ag790
asS'c:/users/1106786/dropbox/dropbox/pg life/project impact/code/demos/demo_2_collision/h/game.h'
p793
(lp794
I1
ag790
asS'c:/users/1106786/dropbox/dropbox/pg life/project impact/code/demos/demo_2_collision/h/maze.h'
p795
(lp796
I1
ag790
asS'c:/users/1106786/dropbox/dropbox/pg life/project impact/code/demos/demo_2_collision/src/input.cpp'
p797
(lp798
I1
ag790
asS'c:/users/1106786/dropbox/dropbox/pg life/project impact/code/demos/demo_2_collision/src/character.cpp'
p799
(lp800
I1
ag790
asS'c:/users/1106786/dropbox/dropbox/pg life/project impact/code/demos/demo_2_collision/h/tiles.h'
p801
(lp802
I1
ag790
asS'c:/users/1106786/dropbox/dropbox/pg life/project impact/code/demos/demo_2_collision/src/map.cpp'
p803
(lp804
I1
ag790
asS'c:/users/1106786/dropbox/dropbox/pg life/project impact/code/demos/demo_2_collision/src/obstacle.cpp'
p805
(lp806
I1
ag790
asS'c:/users/1106786/dropbox/dropbox/pg life/project impact/code/demos/demo_2_collision/h/obstacle.h'
p807
(lp808
I1
ag790
asS'c:/users/1106786/dropbox/dropbox/pg life/project impact/code/demos/demo_2_collision/src/tile.cpp'
p809
(lp810
I1
ag790
asS'c:/users/1106786/dropbox/dropbox/pg life/project impact/code/demos/demo_2_collision/src/maze.cpp'
p811
(lp812
I1
ag790
asS'c:/users/1106786/dropbox/dropbox/pg life/project impact/code/demos/demo_2_collision/src/game.cpp'
p813
(lp814
I1
ag790
asS'c:/users/1106786/dropbox/dropbox/pg life/project impact/code/demos/demo_2_collision/h/tile.h'
p815
(lp816
I1
ag790
asS'c:/users/1106786/dropbox/dropbox/pg life/project impact/code/demos/demo_2_collision/h/input.h'
p817
(lp818
I1
ag790
asS'c:/users/1106786/dropbox/dropbox/pg life/project impact/code/demos/demo_2_collision/src/main.cpp'
p819
(lp820
I1
ag790
asS'c:/users/1106786/dropbox/dropbox/pg life/project impact/code/demos/demo_2_collision/src/tiles.cpp'
p821
(lp822
I1
ag790
assS'Data'
p823
(dp824
S'c:/users/1106786/dropbox/dropbox/pg life/project impact/code/demos/demo_2_collision/data/imgs.group'
p825
(lp826
I1
ag790
assS'c:/users/1106786/dropbox/dropbox/pg life/project impact/code/demos/demo_2_collision/demo_2_collision.mkf'
p827
(lp828
I1
a(dp829
assS'(tiniconv)'
p830
(dp831
Vc:/users/1106786/appdata/roaming/marmalade/packages/6.2.2/tiniconv_1.0.1/tiniconv.mkf
p832
(lp833
I1
a(dp834
asVc:/users/1106786/appdata/roaming/marmalade/packages/6.2.2/tiniconv_1.0.1/h/tiniconv.h
p835
(lp836
I1
a(dp837
asVc:/users/1106786/appdata/roaming/marmalade/packages/6.2.2/tiniconv_1.0.1/h/tiniconv_int.h
p838
(lp839
I1
ag837
assS"'Marmalade Studio'"
p840
(dp841
S'iwgl'
p842
(dp843
S'c:/marmalade/6.2/modules/iwgl/h/IwGLExt.h'
p844
(lp845
I1
a(dp846
asS'c:/marmalade/6.2/modules/iwgl/docs/iwgl.config.txt'
p847
(lp848
I1
ag846
asS'c:/marmalade/6.2/modules/iwgl/h/IwGL.h'
p849
(lp850
I1
ag846
asS'c:/marmalade/6.2/modules/iwgl/iwgl.mkf'
p851
(lp852
I1
a(dp853
assS'iw2d'
p854
(dp855
S'c:/marmalade/6.2/modules/iw2d/h/Iw2D.h'
p856
(lp857
I1
a(dp858
asS'c:/marmalade/6.2/modules/iw2d/docs/iw2d_public.defines.txt'
p859
(lp860
I1
ag858
asS'c:/marmalade/6.2/modules/iw2d/docs/iw2d.config.txt'
p861
(lp862
I1
ag858
asS'c:/marmalade/6.2/modules/iw2d/iw2d.mkf'
p863
(lp864
I1
a(dp865
assS'iwgxfont'
p866
(dp867
S'c:/marmalade/6.2/modules/iwgxfont/docs/iwgxfont_public.defines.txt'
p868
(lp869
I1
a(dp870
asS'c:/marmalade/6.2/modules/iwgxfont/iwgxfont.mkf'
p871
(lp872
I1
a(dp873
asS'c:/marmalade/6.2/modules/iwgxfont/h/IwGxFontState.h'
p874
(lp875
I1
ag870
asS'c:/marmalade/6.2/modules/iwgxfont/h/IwGxFontGlyph.h'
p876
(lp877
I1
ag870
asS'c:/marmalade/6.2/modules/iwgxfont/h/IwGxFontPreparedData.h'
p878
(lp879
I1
ag870
asS'c:/marmalade/6.2/modules/iwgxfont/h/IwGxFontContainer.h'
p880
(lp881
I1
ag870
asS'c:/marmalade/6.2/modules/iwgxfont/h/IwGxFontTypes.h'
p882
(lp883
I1
ag870
asS'c:/marmalade/6.2/modules/iwgxfont/docs/iwgxfont.config.txt'
p884
(lp885
I1
ag870
asS'c:/marmalade/6.2/modules/iwgxfont/h/IwGxFont.h'
p886
(lp887
I1
ag870
assS'iwgeom'
p888
(dp889
S'c:/marmalade/6.2/modules/iwgeom/h/IwGeomMenu.h'
p890
(lp891
I1
a(dp892
asS'c:/marmalade/6.2/modules/iwgeom/h/IwGeomFVec3.h'
p893
(lp894
I1
ag892
asS'c:/marmalade/6.2/modules/iwgeom/h/IwGeom.h'
p895
(lp896
I1
ag892
asS'c:/marmalade/6.2/modules/iwgeom/h/IwGeomFVec4.h'
p897
(lp898
I1
ag892
asS'c:/marmalade/6.2/modules/iwgeom/h/IwGeomVec2.h'
p899
(lp900
I1
ag892
asS'c:/marmalade/6.2/modules/iwgeom/h/IwGeomIntersect.h'
p901
(lp902
I1
ag892
asS'c:/marmalade/6.2/modules/iwgeom/h/IwGeomFBBox.h'
p903
(lp904
I1
ag892
asS'c:/marmalade/6.2/modules/iwgeom/h/IwGeomLegacy.h'
p905
(lp906
I1
ag892
asS'c:/marmalade/6.2/modules/iwgeom/h/IwGeomSqrt.h'
p907
(lp908
I1
ag892
asS'c:/marmalade/6.2/modules/iwgeom/h/IwGeomFIntersect.h'
p909
(lp910
I1
ag892
asS'c:/marmalade/6.2/modules/iwgeom/h/IwGeomSVec4.h'
p911
(lp912
I1
ag892
asS'c:/marmalade/6.2/modules/iwgeom/h/IwGeomCore.h'
p913
(lp914
I1
ag892
asS'c:/marmalade/6.2/modules/iwgeom/h/IwGeomBBox.h'
p915
(lp916
I1
ag892
asS'c:/marmalade/6.2/modules/iwgeom/h/IwGeomVec4.h'
p917
(lp918
I1
ag892
asS'c:/marmalade/6.2/modules/iwgeom/h/IwGeomFPlane.h'
p919
(lp920
I1
ag892
asS'c:/marmalade/6.2/modules/iwgeom/docs/iwgeom.config.txt'
p921
(lp922
I1
ag892
asS'c:/marmalade/6.2/modules/iwgeom/h/IwGeomSQuat.h'
p923
(lp924
I1
ag892
asS'c:/marmalade/6.2/modules/iwgeom/iwgeom.mkf'
p925
(lp926
I1
a(dp927
asS'c:/marmalade/6.2/modules/iwgeom/h/IwGeomQuat.h'
p928
(lp929
I1
ag892
asS'c:/marmalade/6.2/modules/iwgeom/h/IwGeomMat2D.h'
p930
(lp931
I1
ag892
asS'c:/marmalade/6.2/modules/iwgeom/h/IwGeomFSphere.h'
p932
(lp933
I1
ag892
asS'c:/marmalade/6.2/modules/iwgeom/h/IwGeomSVec3.h'
p934
(lp935
I1
ag892
asS'c:/marmalade/6.2/modules/iwgeom/h/IwGeomSVec2.h'
p936
(lp937
I1
ag892
asS'c:/marmalade/6.2/modules/iwgeom/h/IwGeomSphere.h'
p938
(lp939
I1
ag892
asS'c:/marmalade/6.2/modules/iwgeom/h/IwGeomPlane.h'
p940
(lp941
I1
ag892
asS'c:/marmalade/6.2/modules/iwgeom/h/IwGeomFMat.h'
p942
(lp943
I1
ag892
asS'c:/marmalade/6.2/modules/iwgeom/h/IwGeomFVec2.h'
p944
(lp945
I1
ag892
asS'c:/marmalade/6.2/modules/iwgeom/h/IwGeomMat.h'
p946
(lp947
I1
ag892
asS'c:/marmalade/6.2/modules/iwgeom/h/IwGeomFQuat.h'
p948
(lp949
I1
ag892
asS'c:/marmalade/6.2/modules/iwgeom/h/IwGeomFMat2D.h'
p950
(lp951
I1
ag892
asS'c:/marmalade/6.2/modules/iwgeom/h/IwGeomVec.h'
p952
(lp953
I1
ag892
asS'c:/marmalade/6.2/modules/iwgeom/h/IwGeomVec3.h'
p954
(lp955
I1
ag892
assS'iwresmanager'
p956
(dp957
S'c:/marmalade/6.2/modules/iwresmanager/h/IwResSerialise.h'
p958
(lp959
I1
a(dp960
asS'c:/marmalade/6.2/modules/iwresmanager/h/IwResHandlerGROUP.h'
p961
(lp962
I1
ag960
asS'c:/marmalade/6.2/modules/iwresmanager/h/IwResManagerClass.h'
p963
(lp964
I1
ag960
asS'c:/marmalade/6.2/modules/iwresmanager/h/IwResHandlerImage.h'
p965
(lp966
I1
ag960
asS'c:/marmalade/6.2/modules/iwresmanager/docs/iwresmanager.config.txt'
p967
(lp968
I1
ag960
asS'c:/marmalade/6.2/modules/iwresmanager/h/IwResHandler.h'
p969
(lp970
I1
ag960
asS'c:/marmalade/6.2/modules/iwresmanager/iwresmanager.mkf'
p971
(lp972
I1
a(dp973
asS'c:/marmalade/6.2/modules/iwresmanager/h/IwResGroup.h'
p974
(lp975
I1
ag960
asS'c:/marmalade/6.2/modules/iwresmanager/h/IwResManager.h'
p976
(lp977
I1
ag960
asS'c:/marmalade/6.2/modules/iwresmanager/h/IwResHandlerITX.h'
p978
(lp979
I1
ag960
assS'iwgx'
p980
(dp981
S'c:/marmalade/6.2/modules/iwgx/h/IwGxFuncTable.h'
p982
(lp983
I1
a(dp984
asS'c:/marmalade/6.2/modules/iwgx/h/IwClip.inl'
p985
(lp986
I1
ag984
asS'c:/marmalade/6.2/modules/iwgx/h/IwGxTypes.h'
p987
(lp988
I1
ag984
asS'c:/marmalade/6.2/modules/iwgx/h/IwGxTransformSW.h'
p989
(lp990
I1
ag984
asS'c:/marmalade/6.2/modules/iwgx/docs/iwgx_public.defines.txt'
p991
(lp992
I1
ag984
asS'c:/marmalade/6.2/modules/iwgx/h/IwDebugPrim.h'
p993
(lp994
I1
ag984
asS'c:/marmalade/6.2/modules/iwgx/h/IwResHandlerMTL.h'
p995
(lp996
I1
ag984
asS'c:/marmalade/6.2/modules/iwgx/docs/iwgx.config.txt'
p997
(lp998
I1
ag984
asS'c:/marmalade/6.2/modules/iwgx/h/IwGxDebug.h'
p999
(lp1000
I1
ag984
asS'c:/marmalade/6.2/modules/iwgx/h/IwTexture.h'
p1001
(lp1002
I1
ag984
asS'c:/marmalade/6.2/modules/iwgx/h/IwFColour.h'
p1003
(lp1004
I1
ag984
asS'c:/marmalade/6.2/modules/iwgx/h/IwGxError.h'
p1005
(lp1006
I1
ag984
asS'c:/marmalade/6.2/modules/iwgx/h/IwColour.h'
p1007
(lp1008
I1
ag984
asS'c:/marmalade/6.2/modules/iwgx/h/IwMaterial.h'
p1009
(lp1010
I1
ag984
asS'c:/marmalade/6.2/modules/iwgx/h/IwGxPrint.h'
p1011
(lp1012
I1
ag984
asS'c:/marmalade/6.2/modules/iwgx/h/IwTPage.h'
p1013
(lp1014
I1
ag984
asS'c:/marmalade/6.2/modules/iwgx/iwgx.mkf'
p1015
(lp1016
I1
a(dp1017
asS'c:/marmalade/6.2/modules/iwgx/h/IwGxMetrics.h'
p1018
(lp1019
I1
ag984
asS'c:/marmalade/6.2/modules/iwgx/h/IwGxSurface.h'
p1020
(lp1021
I1
ag984
asS'c:/marmalade/6.2/modules/iwgx/h/IwGx.h'
p1022
(lp1023
I1
ag984
asS'c:/marmalade/6.2/modules/iwgx/h/IwGxShaderTechnique.h'
p1024
(lp1025
I1
ag984
asS'c:/marmalade/6.2/modules/iwgx/h/IwGxStream.h'
p1026
(lp1027
I1
ag984
asS'c:/marmalade/6.2/modules/iwgx/h/IwMatAnim.h'
p1028
(lp1029
I1
ag984
asS'c:/marmalade/6.2/modules/iwgx/h/IwClip.h'
p1030
(lp1031
I1
ag984
asS'c:/marmalade/6.2/modules/iwgx/h/IwGxState.h'
p1032
(lp1033
I1
ag984
assS'iwutil'
p1034
(dp1035
S'c:/marmalade/6.2/modules/iwutil/h/IwBuffer.h'
p1036
(lp1037
I1
a(dp1038
asS'c:/marmalade/6.2/modules/iwutil/h/IwResource.h'
p1039
(lp1040
I1
ag1038
asS'c:/marmalade/6.2/modules/iwutil/h/IwFile.h'
p1041
(lp1042
I1
ag1038
asS'c:/marmalade/6.2/modules/iwutil/docs/iwutil.config.txt'
p1043
(lp1044
I1
ag1038
asS'c:/marmalade/6.2/modules/iwutil/h/IwCore.h'
p1045
(lp1046
I1
ag1038
asS'c:/marmalade/6.2/modules/iwutil/h/IwOptimiseSpeed.h'
p1047
(lp1048
I1
ag1038
asS'c:/marmalade/6.2/modules/iwutil/h/IwSerialise.h'
p1049
(lp1050
I1
ag1038
asS'c:/marmalade/6.2/modules/iwutil/h/IwPath.h'
p1051
(lp1052
I1
ag1038
asS'c:/marmalade/6.2/modules/iwutil/h/IwImage.h'
p1053
(lp1054
I1
ag1038
asS'c:/marmalade/6.2/modules/iwutil/h/IwCopyingPtr.h'
p1055
(lp1056
I1
ag1038
asS'c:/marmalade/6.2/modules/iwutil/h/IwUtilInitTerm.h'
p1057
(lp1058
I1
ag1038
asS'c:/marmalade/6.2/modules/iwutil/h/IwOptimiseARM.h'
p1059
(lp1060
I1
ag1038
asS'c:/marmalade/6.2/modules/iwutil/h/IwMath.h'
p1061
(lp1062
I1
ag1038
asS'c:/marmalade/6.2/modules/iwutil/iwutil.mkf'
p1063
(lp1064
I1
a(dp1065
asS'c:/marmalade/6.2/modules/iwutil/h/IwUncopyable.h'
p1066
(lp1067
I1
ag1038
asS'c:/marmalade/6.2/modules/iwutil/h/IwDebug.h'
p1068
(lp1069
I1
ag1038
asS'c:/marmalade/6.2/modules/iwutil/h/IwSingleton.h'
p1070
(lp1071
I1
ag1038
asS'c:/marmalade/6.2/modules/iwutil/h/IwRandom.h'
p1072
(lp1073
I1
ag1038
asS'c:/marmalade/6.2/modules/iwutil/h/IwMemManagerDL.h'
p1074
(lp1075
I1
ag1038
asS'c:/marmalade/6.2/modules/iwutil/h/IwMemory.h'
p1076
(lp1077
I1
ag1038
asS'c:/marmalade/6.2/modules/iwutil/h/IwUtil.h'
p1078
(lp1079
I1
ag1038
asS'c:/marmalade/6.2/modules/iwutil/h/IwManagedList.h'
p1080
(lp1081
I1
ag1038
asS'c:/marmalade/6.2/modules/iwutil/h/IwMenu.h'
p1082
(lp1083
I1
ag1038
asS'c:/marmalade/6.2/modules/iwutil/h/IwArray.h'
p1084
(lp1085
I1
ag1038
asS'c:/marmalade/6.2/modules/iwutil/h/IwOptimiseSize.h'
p1086
(lp1087
I1
ag1038
asS'c:/marmalade/6.2/modules/iwutil/h/IwString.h'
p1088
(lp1089
I1
ag1038
asS'c:/marmalade/6.2/modules/iwutil/h/IwProfileMenu.h'
p1090
(lp1091
I1
ag1038
asS'c:/marmalade/6.2/modules/iwutil/h/IwKeymap.h'
p1092
(lp1093
I1
ag1038
asS'c:/marmalade/6.2/modules/iwutil/h/IwMemBucket.h'
p1094
(lp1095
I1
ag1038
asS'c:/marmalade/6.2/modules/iwutil/h/IwUTF8.h'
p1096
(lp1097
I1
ag1038
asS'c:/marmalade/6.2/modules/iwutil/h/IwRuntime.h'
p1098
(lp1099
I1
ag1038
asS'c:/marmalade/6.2/modules/iwutil/h/IwVariableBitField.h'
p1100
(lp1101
I1
ag1038
asS'c:/marmalade/6.2/modules/iwutil/h/IwOptimiseThumb.h'
p1102
(lp1103
I1
ag1038
asS'c:/marmalade/6.2/modules/iwutil/h/IwList.h'
p1104
(lp1105
I1
ag1038
asS'c:/marmalade/6.2/modules/iwutil/h/IwDivTable.h'
p1106
(lp1107
I1
ag1038
asS'c:/marmalade/6.2/modules/iwutil/h/IwMemBucketHelpers.h'
p1108
(lp1109
I1
ag1038
asS'c:/marmalade/6.2/modules/iwutil/h/IwClassFactory.h'
p1110
(lp1111
I1
ag1038
asS'c:/marmalade/6.2/modules/iwutil/h/IwAutoFile.h'
p1112
(lp1113
I1
ag1038
asS'c:/marmalade/6.2/modules/iwutil/h/IwAllocator.h'
p1114
(lp1115
I1
ag1038
asS'c:/marmalade/6.2/modules/iwutil/h/IwImageHelper.h'
p1116
(lp1117
I1
ag1038
asS'c:/marmalade/6.2/modules/iwutil/h/IwTextParserITX.h'
p1118
(lp1119
I1
ag1038
asS'c:/marmalade/6.2/modules/iwutil/h/IwTextParser.h'
p1120
(lp1121
I1
ag1038
asS'c:/marmalade/6.2/modules/iwutil/h/IwTextParseable.h'
p1122
(lp1123
I1
ag1038
asS'c:/marmalade/6.2/modules/iwutil/h/IwDivide.h'
p1124
(lp1125
I1
ag1038
asS'c:/marmalade/6.2/modules/iwutil/h/IwHashString.h'
p1126
(lp1127
I1
ag1038
asS'c:/marmalade/6.2/modules/iwutil/h/IwTypes.h'
p1128
(lp1129
I1
ag1038
asS'c:/marmalade/6.2/modules/iwutil/h/IwManaged.h'
p1130
(lp1131
I1
ag1038
asS'c:/marmalade/6.2/modules/iwutil/h/IwEvent.h'
p1132
(lp1133
I1
ag1038
asS'c:/marmalade/6.2/modules/iwutil/h/IwChar.h'
p1134
(lp1135
I1
ag1038
asS'c:/marmalade/6.2/modules/iwutil/h/IwFibre.h'
p1136
(lp1137
I1
ag1038
asssS'(zlib)'
p1138
(dp1139
Vc:/users/1106786/appdata/roaming/marmalade/packages/6.2.2/zlib_1.2.4/h/zconf.h
p1140
(lp1141
I1
a(dp1142
asVc:/users/1106786/appdata/roaming/marmalade/packages/6.2.2/zlib_1.2.4/h/zlib.h
p1143
(lp1144
I1
ag1142
asVc:/users/1106786/appdata/roaming/marmalade/packages/6.2.2/zlib_1.2.4/zlib.mkf
p1145
(lp1146
I1
a(dp1147
asssS'files'
p1148
(dp1149
S'IwGxFontPreparedData.h'
p1150
g238
(cmkb_main
File
p1151
g240
Ntp1152
Rp1153
(dp1154
S'flags'
p1155
g870
sS'group'
p1156
(lp1157
S"'Marmalade Studio'"
p1158
ag866
asg268
g878
sbsS'iterator'
p1159
g238
(g1151
g240
Ntp1160
Rp1161
(dp1162
g1155
(dp1163
sg1156
(lp1164
S"'Marmalade System (S3E)'"
p1165
aS'stdc headers'
p1166
aS'c++'
p1167
asg268
S'c:/marmalade/6.2/s3e/h/std/c++/iterator'
p1168
sbsS'IwGeomPlane.h'
p1169
g238
(g1151
g240
Ntp1170
Rp1171
(dp1172
g1155
g892
sg1156
(lp1173
S"'Marmalade Studio'"
p1174
ag888
asg268
g940
sbsS's3e.h'
p1175
g238
(g1151
g240
Ntp1176
Rp1177
(dp1178
g1155
g1163
sg1156
(lp1179
g1165
asg268
S'c:/marmalade/6.2/s3e/h/s3e.h'
p1180
sbsS'errno.h'
p1181
g238
(g1151
g240
Ntp1182
Rp1183
(dp1184
g1155
g1163
sg1156
(lp1185
g1165
aS'stdc headers'
p1186
asg268
S'c:/marmalade/6.2/s3e/h/std/errno.h'
p1187
sbsS'IwSingleton.h'
p1188
g238
(g1151
g240
Ntp1189
Rp1190
(dp1191
g1155
g1038
sg1156
(lp1192
S"'Marmalade Studio'"
p1193
ag1034
asg268
g1070
sbsS'dlfcn.h'
p1194
g238
(g1151
g240
Ntp1195
Rp1196
(dp1197
g1155
g1163
sg1156
g1185
sg268
S'c:/marmalade/6.2/s3e/h/std/dlfcn.h'
p1198
sbsS'stdio_streambuf'
p1199
g238
(g1151
g240
Ntp1200
Rp1201
(dp1202
g1155
g1163
sg1156
g1164
sg268
S'c:/marmalade/6.2/s3e/h/std/c++/stdio_streambuf'
p1203
sbsS'sched.h'
p1204
g238
(g1151
g240
Ntp1205
Rp1206
(dp1207
g1155
g1163
sg1156
g1185
sg268
S'c:/marmalade/6.2/s3e/h/std/sched.h'
p1208
sbsS'IwGeomFMat2D.h'
p1209
g238
(g1151
g240
Ntp1210
Rp1211
(dp1212
g1155
g892
sg1156
g1173
sg268
g950
sbsS's3eExt.h'
p1213
g238
(g1151
g240
Ntp1214
Rp1215
(dp1216
g1155
g1163
sg1156
g1179
sg268
S'c:/marmalade/6.2/s3e/h/s3eExt.h'
p1217
sbsS'grp.h'
p1218
g238
(g1151
g240
Ntp1219
Rp1220
(dp1221
g1155
g1163
sg1156
g1185
sg268
S'c:/marmalade/6.2/s3e/h/std/grp.h'
p1222
sbsS'list'
p1223
g238
(g1151
g240
Ntp1224
Rp1225
(dp1226
g1155
g1163
sg1156
g1164
sg268
S'c:/marmalade/6.2/s3e/h/std/c++/list'
p1227
sbsS'istream'
p1228
g238
(g1151
g240
Ntp1229
Rp1230
(dp1231
g1155
g1163
sg1156
g1164
sg268
S'c:/marmalade/6.2/s3e/h/std/c++/istream'
p1232
sbsVjpeglib.h
p1233
g238
(g1151
g240
Ntp1234
Rp1235
(dp1236
g1155
g754
sg1156
(lp1237
g750
asg268
g774
sbsS'iw2d_public.defines.txt'
p1238
g238
(g1151
g240
Ntp1239
Rp1240
(dp1241
g1155
g858
sg1156
(lp1242
S"'Marmalade Studio'"
p1243
ag854
asg268
g859
sbsS'iostream.h'
p1244
g238
(g1151
g240
Ntp1245
Rp1246
(dp1247
g1155
g1163
sg1156
g1164
sg268
S'c:/marmalade/6.2/s3e/h/std/c++/iostream.h'
p1248
sbsS'string'
p1249
g238
(g1151
g240
Ntp1250
Rp1251
(dp1252
g1155
g1163
sg1156
g1164
sg268
S'c:/marmalade/6.2/s3e/h/std/c++/string'
p1253
sbsS'IwMemory.h'
p1254
g238
(g1151
g240
Ntp1255
Rp1256
(dp1257
g1155
g1038
sg1156
g1192
sg268
g1076
sbsS'IwGL.h'
p1258
g238
(g1151
g240
Ntp1259
Rp1260
(dp1261
g1155
g846
sg1156
(lp1262
S"'Marmalade Studio'"
p1263
ag842
asg268
g849
sbsS'iw2d.config.txt'
p1264
g238
(g1151
g240
Ntp1265
Rp1266
(dp1267
g1155
g858
sg1156
g1242
sg268
g861
sbsS'iomanip'
p1268
g238
(g1151
g240
Ntp1269
Rp1270
(dp1271
g1155
g1163
sg1156
g1164
sg268
S'c:/marmalade/6.2/s3e/h/std/c++/iomanip'
p1272
sbsS'iwgeom.mkf'
p1273
g238
(g1151
g240
Ntp1274
Rp1275
(dp1276
g1155
g927
sg1156
g1173
sg268
g925
sbsS'IwGxError.h'
p1277
g238
(g1151
g240
Ntp1278
Rp1279
(dp1280
g1155
g984
sg1156
(lp1281
S"'Marmalade Studio'"
p1282
ag980
asg268
g1005
sbsS'IwGeom.h'
p1283
g238
(g1151
g240
Ntp1284
Rp1285
(dp1286
g1155
g892
sg1156
g1173
sg268
g895
sbsS'IwGeomVec4.h'
p1287
g238
(g1151
g240
Ntp1288
Rp1289
(dp1290
g1155
g892
sg1156
g1173
sg268
g917
sbsS'dir.h'
p1291
g238
(g1151
g240
Ntp1292
Rp1293
(dp1294
g1155
g1163
sg1156
(lp1295
g1165
aS'stdc headers'
p1296
aS'sys'
p1297
asg268
S'c:/marmalade/6.2/s3e/h/std/sys/dir.h'
p1298
sbsS'locale.h'
p1299
g238
(g1151
g240
Ntp1300
Rp1301
(dp1302
g1155
g1163
sg1156
g1185
sg268
S'c:/marmalade/6.2/s3e/h/std/locale.h'
p1303
sbsS'vector'
p1304
g238
(g1151
g240
Ntp1305
Rp1306
(dp1307
g1155
g1163
sg1156
g1164
sg268
S'c:/marmalade/6.2/s3e/h/std/c++/vector'
p1308
sbsS'IwManaged.h'
p1309
g238
(g1151
g240
Ntp1310
Rp1311
(dp1312
g1155
g1038
sg1156
g1192
sg268
g1130
sbsS's3eCompass.h'
p1313
g238
(g1151
g240
Ntp1314
Rp1315
(dp1316
g1155
g1163
sg1156
g1179
sg268
S'c:/marmalade/6.2/s3e/h/s3eCompass.h'
p1317
sbsVcderror.h
p1318
g238
(g1151
g240
Ntp1319
Rp1320
(dp1321
g1155
g754
sg1156
g1237
sg268
g759
sbsS'climits'
p1322
g238
(g1151
g240
Ntp1323
Rp1324
(dp1325
g1155
g1163
sg1156
g1164
sg268
S'c:/marmalade/6.2/s3e/h/std/c++/climits'
p1326
sbsS's3eVibra.h'
p1327
g238
(g1151
g240
Ntp1328
Rp1329
(dp1330
g1155
g1163
sg1156
g1179
sg268
S'c:/marmalade/6.2/s3e/h/s3eVibra.h'
p1331
sbsVjversion.h
p1332
g238
(g1151
g240
Ntp1333
Rp1334
(dp1335
g1155
g754
sg1156
g1237
sg268
g768
sbsS'fnmatch.h'
p1336
g238
(g1151
g240
Ntp1337
Rp1338
(dp1339
g1155
g1163
sg1156
g1185
sg268
S'c:/marmalade/6.2/s3e/h/std/fnmatch.h'
p1340
sbsS'IwGxState.h'
p1341
g238
(g1151
g240
Ntp1342
Rp1343
(dp1344
g1155
g984
sg1156
g1281
sg268
g1032
sbsS's3eAudio.h'
p1345
g238
(g1151
g240
Ntp1346
Rp1347
(dp1348
g1155
g1163
sg1156
g1179
sg268
S'c:/marmalade/6.2/s3e/h/s3eAudio.h'
p1349
sbsS's3eSurface.h'
p1350
g238
(g1151
g240
Ntp1351
Rp1352
(dp1353
g1155
g1163
sg1156
g1179
sg268
S'c:/marmalade/6.2/s3e/h/s3eSurface.h'
p1354
sbsS'new'
p1355
g238
(g1151
g240
Ntp1356
Rp1357
(dp1358
g1155
g1163
sg1156
g1164
sg268
S'c:/marmalade/6.2/s3e/h/std/c++/new'
p1359
sbsS's3eWindow.h'
p1360
g238
(g1151
g240
Ntp1361
Rp1362
(dp1363
g1155
g1163
sg1156
(lp1364
g1165
aS'Extensions'
p1365
asg268
S'c:/marmalade/6.2/s3e/h/ext/s3eWindow.h'
p1366
sbsS'IwBuffer.h'
p1367
g238
(g1151
g240
Ntp1368
Rp1369
(dp1370
g1155
g1038
sg1156
g1192
sg268
g1036
sbsS's3eOSExec.h'
p1371
g238
(g1151
g240
Ntp1372
Rp1373
(dp1374
g1155
g1163
sg1156
g1364
sg268
S'c:/marmalade/6.2/s3e/h/ext/s3eOSExec.h'
p1375
sbsS'IwGxTransformSW.h'
p1376
g238
(g1151
g240
Ntp1377
Rp1378
(dp1379
g1155
g984
sg1156
g1281
sg268
g989
sbsS'maze.cpp'
p1380
g238
(g1151
g240
Ntp1381
Rp1382
(dp1383
g1155
g790
sg1156
(lp1384
g784
ag786
asg268
g811
sbsS'imgs.group'
p1385
g238
(g1151
g240
Ntp1386
Rp1387
(dp1388
g1155
g790
sg1156
(lp1389
g784
ag823
asg268
g825
sbsS'unistd.h'
p1390
g238
(g1151
g240
Ntp1391
Rp1392
(dp1393
g1155
g1163
sg1156
g1185
sg268
S'c:/marmalade/6.2/s3e/h/std/unistd.h'
p1394
sbsS'iwgxfont.config.txt'
p1395
g238
(g1151
g240
Ntp1396
Rp1397
(dp1398
g1155
g870
sg1156
g1157
sg268
g884
sbsS'gl2platform.h'
p1399
g238
(g1151
g240
Ntp1400
Rp1401
(dp1402
g1155
g1163
sg1156
(lp1403
g1165
aS'GL'
p1404
aS'GLES 2.0'
p1405
asg268
S'c:/marmalade/6.2/s3e/h/GLES2/gl2platform.h'
p1406
sbsS'IwResManagerClass.h'
p1407
g238
(g1151
g240
Ntp1408
Rp1409
(dp1410
g1155
g960
sg1156
(lp1411
g840
ag956
asg268
g963
sbsS'queue'
p1412
g238
(g1151
g240
Ntp1413
Rp1414
(dp1415
g1155
g1163
sg1156
g1164
sg268
S'c:/marmalade/6.2/s3e/h/std/c++/queue'
p1416
sbsS'time_1.h'
p1417
g238
(g1151
g240
Ntp1418
Rp1419
(dp1420
g1155
g1163
sg1156
g1295
sg268
S'c:/marmalade/6.2/s3e/h/std/sys/time.h'
p1421
sbsS'Iw2D.h'
p1422
g238
(g1151
g240
Ntp1423
Rp1424
(dp1425
g1155
g858
sg1156
g1242
sg268
g856
sbsS'IwGeomVec2.h'
p1426
g238
(g1151
g240
Ntp1427
Rp1428
(dp1429
g1155
g892
sg1156
g1173
sg268
g899
sbsS's3eDevice.h'
p1430
g238
(g1151
g240
Ntp1431
Rp1432
(dp1433
g1155
g1163
sg1156
g1179
sg268
S'c:/marmalade/6.2/s3e/h/s3eDevice.h'
p1434
sbsS'malloc.h'
p1435
g238
(g1151
g240
Ntp1436
Rp1437
(dp1438
g1155
g1163
sg1156
g1185
sg268
S'c:/marmalade/6.2/s3e/h/std/malloc.h'
p1439
sbsS'stdarg.h'
p1440
g238
(g1151
g240
Ntp1441
Rp1442
(dp1443
g1155
g1163
sg1156
g1185
sg268
S'c:/marmalade/6.2/s3e/h/std/stdarg.h'
p1444
sbsS'IwGeomCore.h'
p1445
g238
(g1151
g240
Ntp1446
Rp1447
(dp1448
g1155
g892
sg1156
g1173
sg268
g913
sbsS'endian.h'
p1449
g238
(g1151
g240
Ntp1450
Rp1451
(dp1452
g1155
g1163
sg1156
g1185
sg268
S'c:/marmalade/6.2/s3e/h/std/endian.h'
p1453
sbsS'glob.h'
p1454
g238
(g1151
g240
Ntp1455
Rp1456
(dp1457
g1155
g1163
sg1156
g1185
sg268
S'c:/marmalade/6.2/s3e/h/std/glob.h'
p1458
sbsS'fstream'
p1459
g238
(g1151
g240
Ntp1460
Rp1461
(dp1462
g1155
g1163
sg1156
g1164
sg268
S'c:/marmalade/6.2/s3e/h/std/c++/fstream'
p1463
sbsS's3eCamera.h'
p1464
g238
(g1151
g240
Ntp1465
Rp1466
(dp1467
g1155
g1163
sg1156
g1179
sg268
S'c:/marmalade/6.2/s3e/h/s3eCamera.h'
p1468
sbsVjconfig.h
p1469
g238
(g1151
g240
Ntp1470
Rp1471
(dp1472
g1155
g754
sg1156
g1237
sg268
g757
sbsS'memory'
p1473
g238
(g1151
g240
Ntp1474
Rp1475
(dp1476
g1155
g1163
sg1156
g1164
sg268
S'c:/marmalade/6.2/s3e/h/std/c++/memory'
p1477
sbsS'egl.h'
p1478
g238
(g1151
g240
Ntp1479
Rp1480
(dp1481
g1155
g1163
sg1156
(lp1482
g1165
aS'GL'
p1483
aS'EGL'
p1484
asg268
S'c:/marmalade/6.2/s3e/h/EGL/egl.h'
p1485
sbsS'IwClip.inl'
p1486
g238
(g1151
g240
Ntp1487
Rp1488
(dp1489
g1155
g984
sg1156
g1281
sg268
g985
sbsS'IwMemManagerDL.h'
p1490
g238
(g1151
g240
Ntp1491
Rp1492
(dp1493
g1155
g1038
sg1156
g1192
sg268
g1074
sbsS'deque'
p1494
g238
(g1151
g240
Ntp1495
Rp1496
(dp1497
g1155
g1163
sg1156
g1164
sg268
S'c:/marmalade/6.2/s3e/h/std/c++/deque'
p1498
sbsS'IwString.h'
p1499
g238
(g1151
g240
Ntp1500
Rp1501
(dp1502
g1155
g1038
sg1156
g1192
sg268
g1088
sbsS'cwchar'
p1503
g238
(g1151
g240
Ntp1504
Rp1505
(dp1506
g1155
g1163
sg1156
g1164
sg268
S'c:/marmalade/6.2/s3e/h/std/c++/cwchar'
p1507
sbsS'iwutil.mkf'
p1508
g238
(g1151
g240
Ntp1509
Rp1510
(dp1511
g1155
g1065
sg1156
g1192
sg268
g1063
sbsS'csignal'
p1512
g238
(g1151
g240
Ntp1513
Rp1514
(dp1515
g1155
g1163
sg1156
g1164
sg268
S'c:/marmalade/6.2/s3e/h/std/c++/csignal'
p1516
sbsS'float.h'
p1517
g238
(g1151
g240
Ntp1518
Rp1519
(dp1520
g1155
g1163
sg1156
g1185
sg268
S'c:/marmalade/6.2/s3e/h/std/float.h'
p1521
sbsS'pthread_alloc'
p1522
g238
(g1151
g240
Ntp1523
Rp1524
(dp1525
g1155
g1163
sg1156
g1164
sg268
S'c:/marmalade/6.2/s3e/h/std/c++/pthread_alloc'
p1526
sbsS'getopt.h'
p1527
g238
(g1151
g240
Ntp1528
Rp1529
(dp1530
g1155
g1163
sg1156
g1185
sg268
S'c:/marmalade/6.2/s3e/h/std/getopt.h'
p1531
sbsS'IwOptimiseARM.h'
p1532
g238
(g1151
g240
Ntp1533
Rp1534
(dp1535
g1155
g1038
sg1156
g1192
sg268
g1059
sbsS'times.h'
p1536
g238
(g1151
g240
Ntp1537
Rp1538
(dp1539
g1155
g1163
sg1156
g1295
sg268
S'c:/marmalade/6.2/s3e/h/std/sys/times.h'
p1540
sbsS'IwGeomFSphere.h'
p1541
g238
(g1151
g240
Ntp1542
Rp1543
(dp1544
g1155
g892
sg1156
g1173
sg268
g932
sbsS'game.h'
p1545
g238
(g1151
g240
Ntp1546
Rp1547
(dp1548
g1155
g790
sg1156
g1384
sg268
g793
sbsS'functional'
p1549
g238
(g1151
g240
Ntp1550
Rp1551
(dp1552
g1155
g1163
sg1156
g1164
sg268
S'c:/marmalade/6.2/s3e/h/std/c++/functional'
p1553
sbsS'IwTypes.h'
p1554
g238
(g1151
g240
Ntp1555
Rp1556
(dp1557
g1155
g1038
sg1156
g1192
sg268
g1128
sbsS'IwGxMetrics.h'
p1558
g238
(g1151
g240
Ntp1559
Rp1560
(dp1561
g1155
g984
sg1156
g1281
sg268
g1018
sbsS's3eCompression.h'
p1562
g238
(g1151
g240
Ntp1563
Rp1564
(dp1565
g1155
g1163
sg1156
g1179
sg268
S'c:/marmalade/6.2/s3e/h/s3eCompression.h'
p1566
sbsS'langinfo.h'
p1567
g238
(g1151
g240
Ntp1568
Rp1569
(dp1570
g1155
g1163
sg1156
g1185
sg268
S'c:/marmalade/6.2/s3e/h/std/langinfo.h'
p1571
sbsS's3edebugHeap.h'
p1572
g238
(g1151
g240
Ntp1573
Rp1574
(dp1575
g1155
g1163
sg1156
g1364
sg268
S'c:/marmalade/6.2/s3e/h/ext/s3edebugHeap.h'
p1576
sbsS'AirplayVersion.h'
p1577
g238
(g1151
g240
Ntp1578
Rp1579
(dp1580
g1155
g1163
sg1156
g1179
sg268
S'c:/marmalade/6.2/s3e/h/AirplayVersion.h'
p1581
sbsS'gl2extimg.h'
p1582
g238
(g1151
g240
Ntp1583
Rp1584
(dp1585
g1155
g1163
sg1156
g1403
sg268
S'c:/marmalade/6.2/s3e/h/GLES2/gl2extimg.h'
p1586
sbsS'app.config.txt'
p1587
g238
(g1151
g240
Ntp1588
Rp1589
(dp1590
g1155
(dp1591
sg1156
g4
sg268
S'c:/Users/1106786/Dropbox/Dropbox/PG life/Project Impact/Code/Demos/Demo_2_Collision/data/app.config.txt'
p1592
sbsS'IwGeomSqrt.h'
p1593
g238
(g1151
g240
Ntp1594
Rp1595
(dp1596
g1155
g892
sg1156
g1173
sg268
g907
sbsVtiniconv_int.h
p1597
g238
(g1151
g240
Ntp1598
Rp1599
(dp1600
g1155
g837
sg1156
(lp1601
g830
asg268
g838
sbsS'syslog.h'
p1602
g238
(g1151
g240
Ntp1603
Rp1604
(dp1605
g1155
g1163
sg1156
g1185
sg268
S'c:/marmalade/6.2/s3e/h/std/syslog.h'
p1606
sbsS'IwGxFontTypes.h'
p1607
g238
(g1151
g240
Ntp1608
Rp1609
(dp1610
g1155
g870
sg1156
g1157
sg268
g882
sbsS'IwGeomFIntersect.h'
p1611
g238
(g1151
g240
Ntp1612
Rp1613
(dp1614
g1155
g892
sg1156
g1173
sg268
g909
sbsS'hash_map'
p1615
g238
(g1151
g240
Ntp1616
Rp1617
(dp1618
g1155
g1163
sg1156
g1164
sg268
S'c:/marmalade/6.2/s3e/h/std/c++/hash_map'
p1619
sbsS's3e.mkf'
p1620
g238
(g1151
g240
Ntp1621
Rp1622
(dp1623
g1155
(dp1624
sg1156
g1179
sg268
S'c:/marmalade/6.2/s3e/s3e.mkf'
p1625
sbsS's3eOSReadString.h'
p1626
g238
(g1151
g240
Ntp1627
Rp1628
(dp1629
g1155
g1163
sg1156
g1364
sg268
S'c:/marmalade/6.2/s3e/h/ext/s3eOSReadString.h'
p1630
sbsS'map'
p1631
g238
(g1151
g240
Ntp1632
Rp1633
(dp1634
g1155
g1163
sg1156
g1164
sg268
S'c:/marmalade/6.2/s3e/h/std/c++/map'
p1635
sbsS'IwOptimiseSpeed.h'
p1636
g238
(g1151
g240
Ntp1637
Rp1638
(dp1639
g1155
g1038
sg1156
g1192
sg268
g1047
sbsS'msl_string.h'
p1640
g238
(g1151
g240
Ntp1641
Rp1642
(dp1643
g1155
g1163
sg1156
g1164
sg268
S'c:/marmalade/6.2/s3e/h/std/c++/msl_string.h'
p1644
sbsS'select.h'
p1645
g238
(g1151
g240
Ntp1646
Rp1647
(dp1648
g1155
g1163
sg1156
g1295
sg268
S'c:/marmalade/6.2/s3e/h/std/sys/select.h'
p1649
sbsVzlib.mkf
p1650
g238
(g1151
g240
Ntp1651
Rp1652
(dp1653
g1155
g1147
sg1156
(lp1654
g1138
asg268
g1145
sbsS'signal.h'
p1655
g238
(g1151
g240
Ntp1656
Rp1657
(dp1658
g1155
g1163
sg1156
g1185
sg268
S'c:/marmalade/6.2/s3e/h/std/signal.h'
p1659
sbsS'sigcontext.h'
p1660
g238
(g1151
g240
Ntp1661
Rp1662
(dp1663
g1155
g1163
sg1156
g1185
sg268
S'c:/marmalade/6.2/s3e/h/std/sigcontext.h'
p1664
sbsVlibpng.mkf
p1665
g238
(g1151
g240
Ntp1666
Rp1667
(dp1668
g1155
g744
sg1156
(lp1669
g740
asg268
g742
sbsS's3eClipboard.h'
p1670
g238
(g1151
g240
Ntp1671
Rp1672
(dp1673
g1155
g1163
sg1156
g1179
sg268
S'c:/marmalade/6.2/s3e/h/s3eClipboard.h'
p1674
sbsS'IwGxFuncTable.h'
p1675
g238
(g1151
g240
Ntp1676
Rp1677
(dp1678
g1155
g984
sg1156
g1281
sg268
g982
sbsS'IwResHandlerGROUP.h'
p1679
g238
(g1151
g240
Ntp1680
Rp1681
(dp1682
g1155
g960
sg1156
g1411
sg268
g961
sbsS's3eDebug.h'
p1683
g238
(g1151
g240
Ntp1684
Rp1685
(dp1686
g1155
g1163
sg1156
g1179
sg268
S'c:/marmalade/6.2/s3e/h/s3eDebug.h'
p1687
sbsS'socket.h'
p1688
g238
(g1151
g240
Ntp1689
Rp1690
(dp1691
g1155
g1163
sg1156
g1295
sg268
S'c:/marmalade/6.2/s3e/h/std/sys/socket.h'
p1692
sbsS'glext.h'
p1693
g238
(g1151
g240
Ntp1694
Rp1695
(dp1696
g1155
g1163
sg1156
(lp1697
g1165
aS'GL'
p1698
aS'GLES 1.x'
p1699
asg268
S'c:/marmalade/6.2/s3e/h/GLES/glext.h'
p1700
sbsS'typeinfo.h'
p1701
g238
(g1151
g240
Ntp1702
Rp1703
(dp1704
g1155
g1163
sg1156
g1164
sg268
S'c:/marmalade/6.2/s3e/h/std/c++/typeinfo.h'
p1705
sbsS'typeinfo'
p1706
g238
(g1151
g240
Ntp1707
Rp1708
(dp1709
g1155
g1163
sg1156
g1164
sg268
S'c:/marmalade/6.2/s3e/h/std/c++/typeinfo'
p1710
sbsS'fstream.h'
p1711
g238
(g1151
g240
Ntp1712
Rp1713
(dp1714
g1155
g1163
sg1156
g1164
sg268
S'c:/marmalade/6.2/s3e/h/std/c++/fstream.h'
p1715
sbsS's3ePointer.h'
p1716
g238
(g1151
g240
Ntp1717
Rp1718
(dp1719
g1155
g1163
sg1156
g1179
sg268
S'c:/marmalade/6.2/s3e/h/s3ePointer.h'
p1720
sbsS'iw2d.mkf'
p1721
g238
(g1151
g240
Ntp1722
Rp1723
(dp1724
g1155
g865
sg1156
g1242
sg268
g863
sbsS's3eGL.h'
p1725
g238
(g1151
g240
Ntp1726
Rp1727
(dp1728
g1155
g1163
sg1156
g1179
sg268
S'c:/marmalade/6.2/s3e/h/s3eGL.h'
p1729
sbsS'IwGeomFVec2.h'
p1730
g238
(g1151
g240
Ntp1731
Rp1732
(dp1733
g1155
g892
sg1156
g1173
sg268
g944
sbsS'IwGeomSVec4.h'
p1734
g238
(g1151
g240
Ntp1735
Rp1736
(dp1737
g1155
g892
sg1156
g1173
sg268
g911
sbsS'poll.h'
p1738
g238
(g1151
g240
Ntp1739
Rp1740
(dp1741
g1155
g1163
sg1156
g1185
sg268
S'c:/marmalade/6.2/s3e/h/std/poll.h'
p1742
sbsS'IwMatAnim.h'
p1743
g238
(g1151
g240
Ntp1744
Rp1745
(dp1746
g1155
g984
sg1156
g1281
sg268
g1028
sbsS'IwGeomFVec4.h'
p1747
g238
(g1151
g240
Ntp1748
Rp1749
(dp1750
g1155
g892
sg1156
g1173
sg268
g897
sbsS'IwGx.h'
p1751
g238
(g1151
g240
Ntp1752
Rp1753
(dp1754
g1155
g984
sg1156
g1281
sg268
g1022
sbsS'valarray'
p1755
g238
(g1151
g240
Ntp1756
Rp1757
(dp1758
g1155
g1163
sg1156
g1164
sg268
S'c:/marmalade/6.2/s3e/h/std/c++/valarray'
p1759
sbsS'iosfwd'
p1760
g238
(g1151
g240
Ntp1761
Rp1762
(dp1763
g1155
g1163
sg1156
g1164
sg268
S'c:/marmalade/6.2/s3e/h/std/c++/iosfwd'
p1764
sbsS'gl2.h'
p1765
g238
(g1151
g240
Ntp1766
Rp1767
(dp1768
g1155
g1163
sg1156
g1403
sg268
S'c:/marmalade/6.2/s3e/h/GLES2/gl2.h'
p1769
sbsS'IwManagedList.h'
p1770
g238
(g1151
g240
Ntp1771
Rp1772
(dp1773
g1155
g1038
sg1156
g1192
sg268
g1080
sbsS'stdiostream.h'
p1774
g238
(g1151
g240
Ntp1775
Rp1776
(dp1777
g1155
g1163
sg1156
g1164
sg268
S'c:/marmalade/6.2/s3e/h/std/c++/stdiostream.h'
p1778
sbsS'mem.h'
p1779
g238
(g1151
g240
Ntp1780
Rp1781
(dp1782
g1155
g1163
sg1156
g1164
sg268
S'c:/marmalade/6.2/s3e/h/std/c++/mem.h'
p1783
sbsVjerror.h
p1784
g238
(g1151
g240
Ntp1785
Rp1786
(dp1787
g1155
g754
sg1156
g1237
sg268
g761
sbsVzconf.h
p1788
g238
(g1151
g240
Ntp1789
Rp1790
(dp1791
g1155
g1142
sg1156
g1654
sg268
g1140
sbsS's3e.config.txt'
p1792
g238
(g1151
g240
Ntp1793
Rp1794
(dp1795
g1155
g1163
sg1156
g1179
sg268
S'c:/marmalade/6.2/s3e/s3e.config.txt'
p1796
sbsS'numeric'
p1797
g238
(g1151
g240
Ntp1798
Rp1799
(dp1800
g1155
g1163
sg1156
g1164
sg268
S'c:/marmalade/6.2/s3e/h/std/c++/numeric'
p1801
sbsS'utime.h'
p1802
g238
(g1151
g240
Ntp1803
Rp1804
(dp1805
g1155
g1163
sg1156
g1185
sg268
S'c:/marmalade/6.2/s3e/h/std/utime.h'
p1806
sbsVjdhuff.h
p1807
g238
(g1151
g240
Ntp1808
Rp1809
(dp1810
g1155
g754
sg1156
g1237
sg268
g776
sbsS'tiles.h'
p1811
g238
(g1151
g240
Ntp1812
Rp1813
(dp1814
g1155
g790
sg1156
g1384
sg268
g801
sbsS'character.h'
p1815
g238
(g1151
g240
Ntp1816
Rp1817
(dp1818
g1155
g790
sg1156
g1384
sg268
g791
sbsS'IwGxStream.h'
p1819
g238
(g1151
g240
Ntp1820
Rp1821
(dp1822
g1155
g984
sg1156
g1281
sg268
g1026
sbsS'IwImage.h'
p1823
g238
(g1151
g240
Ntp1824
Rp1825
(dp1826
g1155
g1038
sg1156
g1192
sg268
g1053
sbsS's3eImagePicker.h'
p1827
g238
(g1151
g240
Ntp1828
Rp1829
(dp1830
g1155
g1163
sg1156
g1364
sg268
S'c:/marmalade/6.2/s3e/h/ext/s3eImagePicker.h'
p1831
sbsS'IwTextParserITX.h'
p1832
g238
(g1151
g240
Ntp1833
Rp1834
(dp1835
g1155
g1038
sg1156
g1192
sg268
g1118
sbsS'stdlib.h'
p1836
g238
(g1151
g240
Ntp1837
Rp1838
(dp1839
g1155
g1163
sg1156
g1185
sg268
S'c:/marmalade/6.2/s3e/h/std/stdlib.h'
p1840
sbsS'IwCopyingPtr.h'
p1841
g238
(g1151
g240
Ntp1842
Rp1843
(dp1844
g1155
g1038
sg1156
g1192
sg268
g1055
sbsS'iostream'
p1845
g238
(g1151
g240
Ntp1846
Rp1847
(dp1848
g1155
g1163
sg1156
g1164
sg268
S'c:/marmalade/6.2/s3e/h/std/c++/iostream'
p1849
sbsVpng.h
p1850
g238
(g1151
g240
Ntp1851
Rp1852
(dp1853
g1155
g747
sg1156
g1669
sg268
g745
sbsS'stddef.h'
p1854
g238
(g1151
g240
Ntp1855
Rp1856
(dp1857
g1155
g1163
sg1156
g1185
sg268
S'c:/marmalade/6.2/s3e/h/std/stddef.h'
p1858
sbsS'character.cpp'
p1859
g238
(g1151
g240
Ntp1860
Rp1861
(dp1862
g1155
g790
sg1156
g1384
sg268
g799
sbsS'setjmp_win32.h'
p1863
g238
(g1151
g240
Ntp1864
Rp1865
(dp1866
g1155
g1163
sg1156
g1185
sg268
S'c:/marmalade/6.2/s3e/h/std/setjmp_win32.h'
p1867
sbsS'IwGxPrint.h'
p1868
g238
(g1151
g240
Ntp1869
Rp1870
(dp1871
g1155
g984
sg1156
g1281
sg268
g1011
sbsS'IwGeomSVec2.h'
p1872
g238
(g1151
g240
Ntp1873
Rp1874
(dp1875
g1155
g892
sg1156
g1173
sg268
g936
sbsS'streambuf.h'
p1876
g238
(g1151
g240
Ntp1877
Rp1878
(dp1879
g1155
g1163
sg1156
g1164
sg268
S'c:/marmalade/6.2/s3e/h/std/c++/streambuf.h'
p1880
sbsS'IwGeomFPlane.h'
p1881
g238
(g1151
g240
Ntp1882
Rp1883
(dp1884
g1155
g892
sg1156
g1173
sg268
g919
sbsS'wchar.h'
p1885
g238
(g1151
g240
Ntp1886
Rp1887
(dp1888
g1155
g1163
sg1156
g1185
sg268
S'c:/marmalade/6.2/s3e/h/std/wchar.h'
p1889
sbsS's3eCameraCapture.h'
p1890
g238
(g1151
g240
Ntp1891
Rp1892
(dp1893
g1155
g1163
sg1156
g1364
sg268
S'c:/marmalade/6.2/s3e/h/ext/s3eCameraCapture.h'
p1894
sbsS'eglext.h'
p1895
g238
(g1151
g240
Ntp1896
Rp1897
(dp1898
g1155
g1163
sg1156
g1482
sg268
S'c:/marmalade/6.2/s3e/h/EGL/eglext.h'
p1899
sbsS'IwResHandlerImage.h'
p1900
g238
(g1151
g240
Ntp1901
Rp1902
(dp1903
g1155
g960
sg1156
g1411
sg268
g965
sbsS'demo_2_collision.mkf'
p1904
g238
(g1151
g240
Ntp1905
Rp1906
(dp1907
g1155
g829
sg1156
(lp1908
g784
asg268
g827
sbsS'strstream.h'
p1909
g238
(g1151
g240
Ntp1910
Rp1911
(dp1912
g1155
g1163
sg1156
g1164
sg268
S'c:/marmalade/6.2/s3e/h/std/c++/strstream.h'
p1913
sbsVtiniconv.h
p1914
g238
(g1151
g240
Ntp1915
Rp1916
(dp1917
g1155
g837
sg1156
g1601
sg268
g835
sbsS'IwGLExt.h'
p1918
g238
(g1151
g240
Ntp1919
Rp1920
(dp1921
g1155
g846
sg1156
g1262
sg268
g844
sbsS'app.icf'
p1922
g238
(g1151
g240
Ntp1923
Rp1924
(dp1925
g1155
(dp1926
sg1156
g4
sg268
S'c:/Users/1106786/Dropbox/Dropbox/PG life/Project Impact/Code/Demos/Demo_2_Collision/data/app.icf'
p1927
sbsS'IwClassFactory.h'
p1928
g238
(g1151
g240
Ntp1929
Rp1930
(dp1931
g1155
g1038
sg1156
g1192
sg268
g1110
sbsS'file.h'
p1932
g238
(g1151
g240
Ntp1933
Rp1934
(dp1935
g1155
g1163
sg1156
g1295
sg268
S'c:/marmalade/6.2/s3e/h/std/sys/file.h'
p1936
sbsS'cstring'
p1937
g238
(g1151
g240
Ntp1938
Rp1939
(dp1940
g1155
g1163
sg1156
g1164
sg268
S'c:/marmalade/6.2/s3e/h/std/c++/cstring'
p1941
sbsS'iwutil.config.txt'
p1942
g238
(g1151
g240
Ntp1943
Rp1944
(dp1945
g1155
g1038
sg1156
g1192
sg268
g1043
sbsS's3eSMS.h'
p1946
g238
(g1151
g240
Ntp1947
Rp1948
(dp1949
g1155
g1163
sg1156
g1364
sg268
S'c:/marmalade/6.2/s3e/h/ext/s3eSMS.h'
p1950
sbsS'limits.h'
p1951
g238
(g1151
g240
Ntp1952
Rp1953
(dp1954
g1155
g1163
sg1156
g1185
sg268
S'c:/marmalade/6.2/s3e/h/std/limits.h'
p1955
sbsS'iwgl.config.txt'
p1956
g238
(g1151
g240
Ntp1957
Rp1958
(dp1959
g1155
g846
sg1156
g1262
sg268
g847
sbsS'iwgx_public.defines.txt'
p1960
g238
(g1151
g240
Ntp1961
Rp1962
(dp1963
g1155
g984
sg1156
g1281
sg268
g991
sbsS'IwMaterial.h'
p1964
g238
(g1151
g240
Ntp1965
Rp1966
(dp1967
g1155
g984
sg1156
g1281
sg268
g1009
sbsS'IwGxSurface.h'
p1968
g238
(g1151
g240
Ntp1969
Rp1970
(dp1971
g1155
g984
sg1156
g1281
sg268
g1020
sbsS's3eSocket.h'
p1972
g238
(g1151
g240
Ntp1973
Rp1974
(dp1975
g1155
g1163
sg1156
g1179
sg268
S'c:/marmalade/6.2/s3e/h/s3eSocket.h'
p1976
sbsS'IwAutoFile.h'
p1977
g238
(g1151
g240
Ntp1978
Rp1979
(dp1980
g1155
g1038
sg1156
g1192
sg268
g1112
sbsS'ipc.h'
p1981
g238
(g1151
g240
Ntp1982
Rp1983
(dp1984
g1155
g1163
sg1156
g1295
sg268
S'c:/marmalade/6.2/s3e/h/std/sys/ipc.h'
p1985
sbsS'poll_1.h'
p1986
g238
(g1151
g240
Ntp1987
Rp1988
(dp1989
g1155
g1163
sg1156
g1295
sg268
S'c:/marmalade/6.2/s3e/h/std/sys/poll.h'
p1990
sbsS's3eThread.h'
p1991
g238
(g1151
g240
Ntp1992
Rp1993
(dp1994
g1155
g1163
sg1156
g1179
sg268
S'c:/marmalade/6.2/s3e/h/s3eThread.h'
p1995
sbsS'ucontext.h'
p1996
g238
(g1151
g240
Ntp1997
Rp1998
(dp1999
g1155
g1163
sg1156
g1185
sg268
S'c:/marmalade/6.2/s3e/h/std/ucontext.h'
p2000
sbsS'time.h'
p2001
g238
(g1151
g240
Ntp2002
Rp2003
(dp2004
g1155
g1163
sg1156
g1185
sg268
S'c:/marmalade/6.2/s3e/h/std/time.h'
p2005
sbsVjchuff.h
p2006
g238
(g1151
g240
Ntp2007
Rp2008
(dp2009
g1155
g754
sg1156
g1237
sg268
g780
sbsS's3eSoundRecord.h'
p2010
g238
(g1151
g240
Ntp2011
Rp2012
(dp2013
g1155
g1163
sg1156
g1179
sg268
S'c:/marmalade/6.2/s3e/h/s3eSoundRecord.h'
p2014
sbsS'IwFibre.h'
p2015
g238
(g1151
g240
Ntp2016
Rp2017
(dp2018
g1155
g1038
sg1156
g1192
sg268
g1136
sbsS's3eVersion.h'
p2019
g238
(g1151
g240
Ntp2020
Rp2021
(dp2022
g1155
g1163
sg1156
g1179
sg268
S'c:/marmalade/6.2/s3e/h/s3eVersion.h'
p2023
sbsS'input.cpp'
p2024
g238
(g1151
g240
Ntp2025
Rp2026
(dp2027
g1155
g790
sg1156
g1384
sg268
g797
sbsS'IwGxFontGlyph.h'
p2028
g238
(g1151
g240
Ntp2029
Rp2030
(dp2031
g1155
g870
sg1156
g1157
sg268
g876
sbsS's3eTypes.h'
p2032
g238
(g1151
g240
Ntp2033
Rp2034
(dp2035
g1155
g1163
sg1156
g1179
sg268
S'c:/marmalade/6.2/s3e/h/s3eTypes.h'
p2036
sbsS'signal_2.h'
p2037
g238
(g1151
g240
Ntp2038
Rp2039
(dp2040
g1155
g1163
sg1156
g1164
sg268
S'c:/marmalade/6.2/s3e/h/std/c++/signal.h'
p2041
sbsS'termios.h'
p2042
g238
(g1151
g240
Ntp2043
Rp2044
(dp2045
g1155
g1163
sg1156
g1185
sg268
S'c:/marmalade/6.2/s3e/h/std/termios.h'
p2046
sbsS'slist'
p2047
g238
(g1151
g240
Ntp2048
Rp2049
(dp2050
g1155
g1163
sg1156
g1164
sg268
S'c:/marmalade/6.2/s3e/h/std/c++/slist'
p2051
sbsS'cstdlib'
p2052
g238
(g1151
g240
Ntp2053
Rp2054
(dp2055
g1155
g1163
sg1156
g1164
sg268
S'c:/marmalade/6.2/s3e/h/std/c++/cstdlib'
p2056
sbsS's3eLocation.h'
p2057
g238
(g1151
g240
Ntp2058
Rp2059
(dp2060
g1155
g1163
sg1156
g1179
sg268
S'c:/marmalade/6.2/s3e/h/s3eLocation.h'
p2061
sbsS'IwMemBucketHelpers.h'
p2062
g238
(g1151
g240
Ntp2063
Rp2064
(dp2065
g1155
g1038
sg1156
g1192
sg268
g1108
sbsS's3eHash.h'
p2066
g238
(g1151
g240
Ntp2067
Rp2068
(dp2069
g1155
g1163
sg1156
g1179
sg268
S'c:/marmalade/6.2/s3e/h/s3eHash.h'
p2070
sbsS'IwGeomFMat.h'
p2071
g238
(g1151
g240
Ntp2072
Rp2073
(dp2074
g1155
g892
sg1156
g1173
sg268
g942
sbsS'type_traits.h'
p2075
g238
(g1151
g240
Ntp2076
Rp2077
(dp2078
g1155
g1163
sg1156
g1164
sg268
S'c:/marmalade/6.2/s3e/h/std/c++/type_traits.h'
p2079
sbsS'IwMenu.h'
p2080
g238
(g1151
g240
Ntp2081
Rp2082
(dp2083
g1155
g1038
sg1156
g1192
sg268
g1082
sbsS'IwResHandlerITX.h'
p2084
g238
(g1151
g240
Ntp2085
Rp2086
(dp2087
g1155
g960
sg1156
g1411
sg268
g978
sbsS'IwArray.h'
p2088
g238
(g1151
g240
Ntp2089
Rp2090
(dp2091
g1155
g1038
sg1156
g1192
sg268
g1084
sbsS'IwUTF8.h'
p2092
g238
(g1151
g240
Ntp2093
Rp2094
(dp2095
g1155
g1038
sg1156
g1192
sg268
g1096
sbsS'math_rvct.h'
p2096
g238
(g1151
g240
Ntp2097
Rp2098
(dp2099
g1155
g1163
sg1156
g1185
sg268
S'c:/marmalade/6.2/s3e/h/std/math_rvct.h'
p2100
sbsS'IwUtil.h'
p2101
g238
(g1151
g240
Ntp2102
Rp2103
(dp2104
g1155
g1038
sg1156
g1192
sg268
g1078
sbsS'IwGeomVec3.h'
p2105
g238
(g1151
g240
Ntp2106
Rp2107
(dp2108
g1155
g892
sg1156
g1173
sg268
g954
sbsS'wctype.h'
p2109
g238
(g1151
g240
Ntp2110
Rp2111
(dp2112
g1155
g1163
sg1156
g1185
sg268
S'c:/marmalade/6.2/s3e/h/std/wctype.h'
p2113
sbsS'cstddef'
p2114
g238
(g1151
g240
Ntp2115
Rp2116
(dp2117
g1155
g1163
sg1156
g1164
sg268
S'c:/marmalade/6.2/s3e/h/std/c++/cstddef'
p2118
sbsS'assert.h'
p2119
g238
(g1151
g240
Ntp2120
Rp2121
(dp2122
g1155
g1163
sg1156
g1185
sg268
S'c:/marmalade/6.2/s3e/h/std/assert.h'
p2123
sbsS'mman.h'
p2124
g238
(g1151
g240
Ntp2125
Rp2126
(dp2127
g1155
g1163
sg1156
g1295
sg268
S'c:/marmalade/6.2/s3e/h/std/sys/mman.h'
p2128
sbsS'IwRandom.h'
p2129
g238
(g1151
g240
Ntp2130
Rp2131
(dp2132
g1155
g1038
sg1156
g1192
sg268
g1072
sbsS'libgen.h'
p2133
g238
(g1151
g240
Ntp2134
Rp2135
(dp2136
g1155
g1163
sg1156
g1185
sg268
S'c:/marmalade/6.2/s3e/h/std/libgen.h'
p2137
sbsS'utsname.h'
p2138
g238
(g1151
g240
Ntp2139
Rp2140
(dp2141
g1155
g1163
sg1156
g1295
sg268
S'c:/marmalade/6.2/s3e/h/std/sys/utsname.h'
p2142
sbsS'wait.h'
p2143
g238
(g1151
g240
Ntp2144
Rp2145
(dp2146
g1155
g1163
sg1156
g1295
sg268
S'c:/marmalade/6.2/s3e/h/std/sys/wait.h'
p2147
sbsS'param.h'
p2148
g238
(g1151
g240
Ntp2149
Rp2150
(dp2151
g1155
g1163
sg1156
g1295
sg268
S'c:/marmalade/6.2/s3e/h/std/sys/param.h'
p2152
sbsS'IwDivide.h'
p2153
g238
(g1151
g240
Ntp2154
Rp2155
(dp2156
g1155
g1038
sg1156
g1192
sg268
g1124
sbsS'IwResManager.h'
p2157
g238
(g1151
g240
Ntp2158
Rp2159
(dp2160
g1155
g960
sg1156
g1411
sg268
g976
sbsS'ostream'
p2161
g238
(g1151
g240
Ntp2162
Rp2163
(dp2164
g1155
g1163
sg1156
g1164
sg268
S'c:/marmalade/6.2/s3e/h/std/c++/ostream'
p2165
sbsS'cwctype'
p2166
g238
(g1151
g240
Ntp2167
Rp2168
(dp2169
g1155
g1163
sg1156
g1164
sg268
S'c:/marmalade/6.2/s3e/h/std/c++/cwctype'
p2170
sbsS'set'
p2171
g238
(g1151
g240
Ntp2172
Rp2173
(dp2174
g1155
g1163
sg1156
g1164
sg268
S'c:/marmalade/6.2/s3e/h/std/c++/set'
p2175
sbsS'IwGeomSQuat.h'
p2176
g238
(g1151
g240
Ntp2177
Rp2178
(dp2179
g1155
g892
sg1156
g1173
sg268
g923
sbsS'locale'
p2180
g238
(g1151
g240
Ntp2181
Rp2182
(dp2183
g1155
g1163
sg1156
g1164
sg268
S'c:/marmalade/6.2/s3e/h/std/c++/locale'
p2184
sbsS'cstdio'
p2185
g238
(g1151
g240
Ntp2186
Rp2187
(dp2188
g1155
g1163
sg1156
g1164
sg268
S'c:/marmalade/6.2/s3e/h/std/c++/cstdio'
p2189
sbsVcdjpeg.h
p2190
g238
(g1151
g240
Ntp2191
Rp2192
(dp2193
g1155
g754
sg1156
g1237
sg268
g766
sbsS'IwList.h'
p2194
g238
(g1151
g240
Ntp2195
Rp2196
(dp2197
g1155
g1038
sg1156
g1192
sg268
g1104
sbsS'inttypes.h'
p2198
g238
(g1151
g240
Ntp2199
Rp2200
(dp2201
g1155
g1163
sg1156
g1185
sg268
S'c:/marmalade/6.2/s3e/h/std/inttypes.h'
p2202
sbsS'maze.h'
p2203
g238
(g1151
g240
Ntp2204
Rp2205
(dp2206
g1155
g790
sg1156
g1384
sg268
g795
sbsS'dirent.h'
p2207
g238
(g1151
g240
Ntp2208
Rp2209
(dp2210
g1155
g1163
sg1156
g1185
sg268
S'c:/marmalade/6.2/s3e/h/std/dirent.h'
p2211
sbsS'IwFColour.h'
p2212
g238
(g1151
g240
Ntp2213
Rp2214
(dp2215
g1155
g984
sg1156
g1281
sg268
g1003
sbsVtransupp.h
p2216
g238
(g1151
g240
Ntp2217
Rp2218
(dp2219
g1155
g754
sg1156
g1237
sg268
g778
sbsS'IwMath.h'
p2220
g238
(g1151
g240
Ntp2221
Rp2222
(dp2223
g1155
g1038
sg1156
g1192
sg268
g1061
sbsS'IwGeomQuat.h'
p2224
g238
(g1151
g240
Ntp2225
Rp2226
(dp2227
g1155
g892
sg1156
g1173
sg268
g928
sbsS'glplatform.h'
p2228
g238
(g1151
g240
Ntp2229
Rp2230
(dp2231
g1155
g1163
sg1156
g1697
sg268
S'c:/marmalade/6.2/s3e/h/GLES/glplatform.h'
p2232
sbsS'bitset'
p2233
g238
(g1151
g240
Ntp2234
Rp2235
(dp2236
g1155
g1163
sg1156
g1164
sg268
S'c:/marmalade/6.2/s3e/h/std/c++/bitset'
p2237
sbsS'alloca.h'
p2238
g238
(g1151
g240
Ntp2239
Rp2240
(dp2241
g1155
g1163
sg1156
g1185
sg268
S'c:/marmalade/6.2/s3e/h/std/alloca.h'
p2242
sbsS'IwResHandler.h'
p2243
g238
(g1151
g240
Ntp2244
Rp2245
(dp2246
g1155
g960
sg1156
g1411
sg268
g969
sbsS'IwResHandlerMTL.h'
p2247
g238
(g1151
g240
Ntp2248
Rp2249
(dp2250
g1155
g984
sg1156
g1281
sg268
g995
sbsS'IwRuntime.h'
p2251
g238
(g1151
g240
Ntp2252
Rp2253
(dp2254
g1155
g1038
sg1156
g1192
sg268
g1098
sbsS'limits'
p2255
g238
(g1151
g240
Ntp2256
Rp2257
(dp2258
g1155
g1163
sg1156
g1164
sg268
S'c:/marmalade/6.2/s3e/h/std/c++/limits'
p2259
sbsS'IwGeomBBox.h'
p2260
g238
(g1151
g240
Ntp2261
Rp2262
(dp2263
g1155
g892
sg1156
g1173
sg268
g915
sbsS's3eContacts.h'
p2264
g238
(g1151
g240
Ntp2265
Rp2266
(dp2267
g1155
g1163
sg1156
g1179
sg268
S'c:/marmalade/6.2/s3e/h/s3eContacts.h'
p2268
sbsS's3eLicense.h'
p2269
g238
(g1151
g240
Ntp2270
Rp2271
(dp2272
g1155
g1163
sg1156
g1179
sg268
S'c:/marmalade/6.2/s3e/h/s3eLicense.h'
p2273
sbsS'iwgx.config.txt'
p2274
g238
(g1151
g240
Ntp2275
Rp2276
(dp2277
g1155
g984
sg1156
g1281
sg268
g997
sbsS'IwTextParser.h'
p2278
g238
(g1151
g240
Ntp2279
Rp2280
(dp2281
g1155
g1038
sg1156
g1192
sg268
g1120
sbsS's3eTimer.h'
p2282
g238
(g1151
g240
Ntp2283
Rp2284
(dp2285
g1155
g1163
sg1156
g1179
sg268
S'c:/marmalade/6.2/s3e/h/s3eTimer.h'
p2286
sbsS'IwGeomVec.h'
p2287
g238
(g1151
g240
Ntp2288
Rp2289
(dp2290
g1155
g892
sg1156
g1173
sg268
g952
sbsS'IwSerialise.h'
p2291
g238
(g1151
g240
Ntp2292
Rp2293
(dp2294
g1155
g1038
sg1156
g1192
sg268
g1049
sbsS'obstacle.cpp'
p2295
g238
(g1151
g240
Ntp2296
Rp2297
(dp2298
g1155
g790
sg1156
g1384
sg268
g805
sbsS'gl2ext.h'
p2299
g238
(g1151
g240
Ntp2300
Rp2301
(dp2302
g1155
g1163
sg1156
g1403
sg268
S'c:/marmalade/6.2/s3e/h/GLES2/gl2ext.h'
p2303
sbsS'IwChar.h'
p2304
g238
(g1151
g240
Ntp2305
Rp2306
(dp2307
g1155
g1038
sg1156
g1192
sg268
g1134
sbsS's3eSound.h'
p2308
g238
(g1151
g240
Ntp2309
Rp2310
(dp2311
g1155
g1163
sg1156
g1179
sg268
S'c:/marmalade/6.2/s3e/h/s3eSound.h'
p2312
sbsS'IwOptimiseThumb.h'
p2313
g238
(g1151
g240
Ntp2314
Rp2315
(dp2316
g1155
g1038
sg1156
g1192
sg268
g1102
sbsS'exception.h'
p2317
g238
(g1151
g240
Ntp2318
Rp2319
(dp2320
g1155
g1163
sg1156
g1164
sg268
S'c:/marmalade/6.2/s3e/h/std/c++/exception.h'
p2321
sbsS'iwgeom.config.txt'
p2322
g238
(g1151
g240
Ntp2323
Rp2324
(dp2325
g1155
g892
sg1156
g1173
sg268
g921
sbsS'iwgx.mkf'
p2326
g238
(g1151
g240
Ntp2327
Rp2328
(dp2329
g1155
g1017
sg1156
g1281
sg268
g1015
sbsS'gl.h'
p2330
g238
(g1151
g240
Ntp2331
Rp2332
(dp2333
g1155
g1163
sg1156
g1697
sg268
S'c:/marmalade/6.2/s3e/h/GLES/gl.h'
p2334
sbsVzlib.h
p2335
g238
(g1151
g240
Ntp2336
Rp2337
(dp2338
g1155
g1142
sg1156
g1654
sg268
g1143
sbsS'iwgl.mkf'
p2339
g238
(g1151
g240
Ntp2340
Rp2341
(dp2342
g1155
g853
sg1156
g1262
sg268
g851
sbsS'IwColour.h'
p2343
g238
(g1151
g240
Ntp2344
Rp2345
(dp2346
g1155
g984
sg1156
g1281
sg268
g1007
sbsS's3eLibrary.h'
p2347
g238
(g1151
g240
Ntp2348
Rp2349
(dp2350
g1155
g1163
sg1156
g1364
sg268
S'c:/marmalade/6.2/s3e/h/ext/s3eLibrary.h'
p2351
sbsS'types.h'
p2352
g238
(g1151
g240
Ntp2353
Rp2354
(dp2355
g1155
g1163
sg1156
g1295
sg268
S'c:/marmalade/6.2/s3e/h/std/sys/types.h'
p2356
sbsS'ifaddrs.h'
p2357
g238
(g1151
g240
Ntp2358
Rp2359
(dp2360
g1155
g1163
sg1156
g1185
sg268
S'c:/marmalade/6.2/s3e/h/std/ifaddrs.h'
p2361
sbsS'strstream'
p2362
g238
(g1151
g240
Ntp2363
Rp2364
(dp2365
g1155
g1163
sg1156
g1164
sg268
S'c:/marmalade/6.2/s3e/h/std/c++/strstream'
p2366
sbsS'exception'
p2367
g238
(g1151
g240
Ntp2368
Rp2369
(dp2370
g1155
g1163
sg1156
g1164
sg268
S'c:/marmalade/6.2/s3e/h/std/c++/exception'
p2371
sbsS'rlocks.h'
p2372
g238
(g1151
g240
Ntp2373
Rp2374
(dp2375
g1155
g1163
sg1156
g1164
sg268
S'c:/marmalade/6.2/s3e/h/std/c++/rlocks.h'
p2376
sbsS'ioctl.h'
p2377
g238
(g1151
g240
Ntp2378
Rp2379
(dp2380
g1155
g1163
sg1156
g1295
sg268
S'c:/marmalade/6.2/s3e/h/std/sys/ioctl.h'
p2381
sbsS'rope'
p2382
g238
(g1151
g240
Ntp2383
Rp2384
(dp2385
g1155
g1163
sg1156
g1164
sg268
S'c:/marmalade/6.2/s3e/h/std/c++/rope'
p2386
sbsVjinclude.h
p2387
g238
(g1151
g240
Ntp2388
Rp2389
(dp2390
g1155
g754
sg1156
g1237
sg268
g770
sbsS'IwEvent.h'
p2391
g238
(g1151
g240
Ntp2392
Rp2393
(dp2394
g1155
g1038
sg1156
g1192
sg268
g1132
sbsS'IwOptimiseSize.h'
p2395
g238
(g1151
g240
Ntp2396
Rp2397
(dp2398
g1155
g1038
sg1156
g1192
sg268
g1086
sbsS'iwgxfont_public.defines.txt'
p2399
g238
(g1151
g240
Ntp2400
Rp2401
(dp2402
g1155
g870
sg1156
g1157
sg268
g868
sbsS'iconv.h'
p2403
g238
(g1151
g240
Ntp2404
Rp2405
(dp2406
g1155
g1163
sg1156
g1185
sg268
S'c:/marmalade/6.2/s3e/h/std/iconv.h'
p2407
sbsS'sendfile.h'
p2408
g238
(g1151
g240
Ntp2409
Rp2410
(dp2411
g1155
g1163
sg1156
g1295
sg268
S'c:/marmalade/6.2/s3e/h/std/sys/sendfile.h'
p2412
sbsS'IwGeomSphere.h'
p2413
g238
(g1151
g240
Ntp2414
Rp2415
(dp2416
g1155
g892
sg1156
g1173
sg268
g938
sbsVtiniconv.mkf
p2417
g238
(g1151
g240
Ntp2418
Rp2419
(dp2420
g1155
g834
sg1156
g1601
sg268
g832
sbsVjdct.h
p2421
g238
(g1151
g240
Ntp2422
Rp2423
(dp2424
g1155
g754
sg1156
g1237
sg268
g772
sbsS'cctype'
p2425
g238
(g1151
g240
Ntp2426
Rp2427
(dp2428
g1155
g1163
sg1156
g1164
sg268
S'c:/marmalade/6.2/s3e/h/std/c++/cctype'
p2429
sbsS's3eConfig.h'
p2430
g238
(g1151
g240
Ntp2431
Rp2432
(dp2433
g1155
g1163
sg1156
g1179
sg268
S'c:/marmalade/6.2/s3e/h/s3eConfig.h'
p2434
sbsS'IwHashString.h'
p2435
g238
(g1151
g240
Ntp2436
Rp2437
(dp2438
g1155
g1038
sg1156
g1192
sg268
g1126
sbsS'stat.h'
p2439
g238
(g1151
g240
Ntp2440
Rp2441
(dp2442
g1155
g1163
sg1156
g1295
sg268
S'c:/marmalade/6.2/s3e/h/std/sys/stat.h'
p2443
sbsS'byteswap.h'
p2444
g238
(g1151
g240
Ntp2445
Rp2446
(dp2447
g1155
g1163
sg1156
g1185
sg268
S'c:/marmalade/6.2/s3e/h/std/byteswap.h'
p2448
sbsS'iwresmanager.mkf'
p2449
g238
(g1151
g240
Ntp2450
Rp2451
(dp2452
g1155
g973
sg1156
g1411
sg268
g971
sbsS'IwUtilInitTerm.h'
p2453
g238
(g1151
g240
Ntp2454
Rp2455
(dp2456
g1155
g1038
sg1156
g1192
sg268
g1057
sbsS'pthread_1.h'
p2457
g238
(g1151
g240
Ntp2458
Rp2459
(dp2460
g1155
g1163
sg1156
g1164
sg268
S'c:/marmalade/6.2/s3e/h/std/c++/pthread.h'
p2461
sbsS'IwMemBucket.h'
p2462
g238
(g1151
g240
Ntp2463
Rp2464
(dp2465
g1155
g1038
sg1156
g1192
sg268
g1094
sbsS'complex'
p2466
g238
(g1151
g240
Ntp2467
Rp2468
(dp2469
g1155
g1163
sg1156
g1164
sg268
S'c:/marmalade/6.2/s3e/h/std/c++/complex'
p2470
sbsS'game.cpp'
p2471
g238
(g1151
g240
Ntp2472
Rp2473
(dp2474
g1155
g790
sg1156
g1384
sg268
g813
sbsS's3e.icf'
p2475
g238
(g1151
g240
Ntp2476
Rp2477
(dp2478
g1155
g1163
sg1156
g1179
sg268
S'c:/marmalade/6.2/s3e/s3e.icf'
p2479
sbsS'IwVariableBitField.h'
p2480
g238
(g1151
g240
Ntp2481
Rp2482
(dp2483
g1155
g1038
sg1156
g1192
sg268
g1100
sbsS'sem.h'
p2484
g238
(g1151
g240
Ntp2485
Rp2486
(dp2487
g1155
g1163
sg1156
g1295
sg268
S'c:/marmalade/6.2/s3e/h/std/sys/sem.h'
p2488
sbsS'IwGxFontState.h'
p2489
g238
(g1151
g240
Ntp2490
Rp2491
(dp2492
g1155
g870
sg1156
g1157
sg268
g874
sbsS'stdio.h'
p2493
g238
(g1151
g240
Ntp2494
Rp2495
(dp2496
g1155
g1163
sg1156
g1185
sg268
S'c:/marmalade/6.2/s3e/h/std/stdio.h'
p2497
sbsVjmemsys.h
p2498
g238
(g1151
g240
Ntp2499
Rp2500
(dp2501
g1155
g754
sg1156
g1237
sg268
g752
sbsS'ios'
p2502
g238
(g1151
g240
Ntp2503
Rp2504
(dp2505
g1155
g1163
sg1156
g1164
sg268
S'c:/marmalade/6.2/s3e/h/std/c++/ios'
p2506
sbsS'stack'
p2507
g238
(g1151
g240
Ntp2508
Rp2509
(dp2510
g1155
g1163
sg1156
g1164
sg268
S'c:/marmalade/6.2/s3e/h/std/c++/stack'
p2511
sbsS'new.h'
p2512
g238
(g1151
g240
Ntp2513
Rp2514
(dp2515
g1155
g1163
sg1156
g1164
sg268
S'c:/marmalade/6.2/s3e/h/std/c++/new.h'
p2516
sbsS's3eEMail.h'
p2517
g238
(g1151
g240
Ntp2518
Rp2519
(dp2520
g1155
g1163
sg1156
g1364
sg268
S'c:/marmalade/6.2/s3e/h/ext/s3eEMail.h'
p2521
sbsS's3eVideo.h'
p2522
g238
(g1151
g240
Ntp2523
Rp2524
(dp2525
g1155
g1163
sg1156
g1179
sg268
S'c:/marmalade/6.2/s3e/h/s3eVideo.h'
p2526
sbsS'IwFile.h'
p2527
g238
(g1151
g240
Ntp2528
Rp2529
(dp2530
g1155
g1038
sg1156
g1192
sg268
g1041
sbsS'pwd.h'
p2531
g238
(g1151
g240
Ntp2532
Rp2533
(dp2534
g1155
g1163
sg1156
g1185
sg268
S'c:/marmalade/6.2/s3e/h/std/pwd.h'
p2535
sbsS'IwClip.h'
p2536
g238
(g1151
g240
Ntp2537
Rp2538
(dp2539
g1155
g984
sg1156
g1281
sg268
g1030
sbsS'iwresmanager.config.txt'
p2540
g238
(g1151
g240
Ntp2541
Rp2542
(dp2543
g1155
g960
sg1156
g1411
sg268
g967
sbsS'IwGxShaderTechnique.h'
p2544
g238
(g1151
g240
Ntp2545
Rp2546
(dp2547
g1155
g984
sg1156
g1281
sg268
g1024
sbsS'IwCore.h'
p2548
g238
(g1151
g240
Ntp2549
Rp2550
(dp2551
g1155
g1038
sg1156
g1192
sg268
g1045
sbsS'cfloat'
p2552
g238
(g1151
g240
Ntp2553
Rp2554
(dp2555
g1155
g1163
sg1156
g1164
sg268
S'c:/marmalade/6.2/s3e/h/std/c++/cfloat'
p2556
sbsS'IwGeomMat2D.h'
p2557
g238
(g1151
g240
Ntp2558
Rp2559
(dp2560
g1155
g892
sg1156
g1173
sg268
g930
sbsS'IwAllocator.h'
p2561
g238
(g1151
g240
Ntp2562
Rp2563
(dp2564
g1155
g1038
sg1156
g1192
sg268
g1114
sbsS'IwPath.h'
p2565
g238
(g1151
g240
Ntp2566
Rp2567
(dp2568
g1155
g1038
sg1156
g1192
sg268
g1051
sbsS'tiles.cpp'
p2569
g238
(g1151
g240
Ntp2570
Rp2571
(dp2572
g1155
g790
sg1156
g1384
sg268
g821
sbsS'iwgxfont.mkf'
p2573
g238
(g1151
g240
Ntp2574
Rp2575
(dp2576
g1155
g873
sg1156
g1157
sg268
g871
sbsS'IwTexture.h'
p2577
g238
(g1151
g240
Ntp2578
Rp2579
(dp2580
g1155
g984
sg1156
g1281
sg268
g1001
sbsS's3eAccelerometer.h'
p2581
g238
(g1151
g240
Ntp2582
Rp2583
(dp2584
g1155
g1163
sg1156
g1179
sg268
S'c:/marmalade/6.2/s3e/h/s3eAccelerometer.h'
p2585
sbsS'setjmp.h'
p2586
g238
(g1151
g240
Ntp2587
Rp2588
(dp2589
g1155
g1163
sg1156
g1185
sg268
S'c:/marmalade/6.2/s3e/h/std/setjmp.h'
p2590
sbsS'cstdarg'
p2591
g238
(g1151
g240
Ntp2592
Rp2593
(dp2594
g1155
g1163
sg1156
g1164
sg268
S'c:/marmalade/6.2/s3e/h/std/c++/cstdarg'
p2595
sbsVpngconf.h
p2596
g238
(g1151
g240
Ntp2597
Rp2598
(dp2599
g1155
g747
sg1156
g1669
sg268
g748
sbsS'IwTextParseable.h'
p2600
g238
(g1151
g240
Ntp2601
Rp2602
(dp2603
g1155
g1038
sg1156
g1192
sg268
g1122
sbsS'istream.h'
p2604
g238
(g1151
g240
Ntp2605
Rp2606
(dp2607
g1155
g1163
sg1156
g1164
sg268
S'c:/marmalade/6.2/s3e/h/std/c++/istream.h'
p2608
sbsS'stdint.h'
p2609
g238
(g1151
g240
Ntp2610
Rp2611
(dp2612
g1155
g1163
sg1156
g1185
sg268
S'c:/marmalade/6.2/s3e/h/std/stdint.h'
p2613
sbsS'semaphore.h'
p2614
g238
(g1151
g240
Ntp2615
Rp2616
(dp2617
g1155
g1163
sg1156
g1185
sg268
S'c:/marmalade/6.2/s3e/h/std/semaphore.h'
p2618
sbsS'ctime'
p2619
g238
(g1151
g240
Ntp2620
Rp2621
(dp2622
g1155
g1163
sg1156
g1164
sg268
S'c:/marmalade/6.2/s3e/h/std/c++/ctime'
p2623
sbsS'sstream'
p2624
g238
(g1151
g240
Ntp2625
Rp2626
(dp2627
g1155
g1163
sg1156
g1164
sg268
S'c:/marmalade/6.2/s3e/h/std/c++/sstream'
p2628
sbsS'IwGeomFBBox.h'
p2629
g238
(g1151
g240
Ntp2630
Rp2631
(dp2632
g1155
g892
sg1156
g1173
sg268
g903
sbsS'IwDebugPrim.h'
p2633
g238
(g1151
g240
Ntp2634
Rp2635
(dp2636
g1155
g984
sg1156
g1281
sg268
g993
sbsS'IwGxFontContainer.h'
p2637
g238
(g1151
g240
Ntp2638
Rp2639
(dp2640
g1155
g870
sg1156
g1157
sg268
g880
sbsS'obstacle.h'
p2641
g238
(g1151
g240
Ntp2642
Rp2643
(dp2644
g1155
g790
sg1156
g1384
sg268
g807
sbsS'tile.h'
p2645
g238
(g1151
g240
Ntp2646
Rp2647
(dp2648
g1155
g790
sg1156
g1384
sg268
g815
sbsS'IwGeomSVec3.h'
p2649
g238
(g1151
g240
Ntp2650
Rp2651
(dp2652
g1155
g892
sg1156
g1173
sg268
g934
sbsS'cassert'
p2653
g238
(g1151
g240
Ntp2654
Rp2655
(dp2656
g1155
g1163
sg1156
g1164
sg268
S'c:/marmalade/6.2/s3e/h/std/c++/cassert'
p2657
sbsS'IwGeomFVec3.h'
p2658
g238
(g1151
g240
Ntp2659
Rp2660
(dp2661
g1155
g892
sg1156
g1173
sg268
g893
sbsS'streambuf'
p2662
g238
(g1151
g240
Ntp2663
Rp2664
(dp2665
g1155
g1163
sg1156
g1164
sg268
S'c:/marmalade/6.2/s3e/h/std/c++/streambuf'
p2666
sbsS's3eMetrics.h'
p2667
g238
(g1151
g240
Ntp2668
Rp2669
(dp2670
g1155
g1163
sg1156
g1364
sg268
S'c:/marmalade/6.2/s3e/h/ext/s3eMetrics.h'
p2671
sbsS'IwGxFont.h'
p2672
g238
(g1151
g240
Ntp2673
Rp2674
(dp2675
g1155
g870
sg1156
g1157
sg268
g886
sbsS's3eSecureStorage.h'
p2676
g238
(g1151
g240
Ntp2677
Rp2678
(dp2679
g1155
g1163
sg1156
g1179
sg268
S'c:/marmalade/6.2/s3e/h/s3eSecureStorage.h'
p2680
sbsS'map.cpp'
p2681
g238
(g1151
g240
Ntp2682
Rp2683
(dp2684
g1155
g790
sg1156
g1384
sg268
g803
sbsS'string.h'
p2685
g238
(g1151
g240
Ntp2686
Rp2687
(dp2688
g1155
g1163
sg1156
g1185
sg268
S'c:/marmalade/6.2/s3e/h/std/string.h'
p2689
sbsS'IwResource.h'
p2690
g238
(g1151
g240
Ntp2691
Rp2692
(dp2693
g1155
g1038
sg1156
g1192
sg268
g1039
sbsVlibjpeg.mkf
p2694
g238
(g1151
g240
Ntp2695
Rp2696
(dp2697
g1155
g765
sg1156
g1237
sg268
g763
sbsS'IwGxDebug.h'
p2698
g238
(g1151
g240
Ntp2699
Rp2700
(dp2701
g1155
g984
sg1156
g1281
sg268
g999
sbsS'pthread_types.h'
p2702
g238
(g1151
g240
Ntp2703
Rp2704
(dp2705
g1155
g1163
sg1156
g1185
sg268
S'c:/marmalade/6.2/s3e/h/std/pthread_types.h'
p2706
sbsS'iomanip.h'
p2707
g238
(g1151
g240
Ntp2708
Rp2709
(dp2710
g1155
g1163
sg1156
g1164
sg268
S'c:/marmalade/6.2/s3e/h/std/c++/iomanip.h'
p2711
sbsS'IwKeymap.h'
p2712
g238
(g1151
g240
Ntp2713
Rp2714
(dp2715
g1155
g1038
sg1156
g1192
sg268
g1092
sbsS'IwDebug.h'
p2716
g238
(g1151
g240
Ntp2717
Rp2718
(dp2719
g1155
g1038
sg1156
g1192
sg268
g1068
sbsS's3eIOSBackgroundAudio.h'
p2720
g238
(g1151
g240
Ntp2721
Rp2722
(dp2723
g1155
g1163
sg1156
g1364
sg268
S'c:/marmalade/6.2/s3e/h/ext/s3eIOSBackgroundAudio.h'
p2724
sbsS'IwGeomMenu.h'
p2725
g238
(g1151
g240
Ntp2726
Rp2727
(dp2728
g1155
g892
sg1156
g1173
sg268
g890
sbsS'IwDivTable.h'
p2729
g238
(g1151
g240
Ntp2730
Rp2731
(dp2732
g1155
g1038
sg1156
g1192
sg268
g1106
sbsS'ctype.h'
p2733
g238
(g1151
g240
Ntp2734
Rp2735
(dp2736
g1155
g1163
sg1156
g1185
sg268
S'c:/marmalade/6.2/s3e/h/std/ctype.h'
p2737
sbsS'IwGeomMat.h'
p2738
g238
(g1151
g240
Ntp2739
Rp2740
(dp2741
g1155
g892
sg1156
g1173
sg268
g946
sbsS'IwResGroup.h'
p2742
g238
(g1151
g240
Ntp2743
Rp2744
(dp2745
g1155
g960
sg1156
g1411
sg268
g974
sbsS'signal_1.h'
p2746
g238
(g1151
g240
Ntp2747
Rp2748
(dp2749
g1155
g1163
sg1156
g1295
sg268
S'c:/marmalade/6.2/s3e/h/std/sys/signal.h'
p2750
sbsS'main.cpp'
p2751
g238
(g1151
g240
Ntp2752
Rp2753
(dp2754
g1155
g790
sg1156
g1384
sg268
g819
sbsS'shm.h'
p2755
g238
(g1151
g240
Ntp2756
Rp2757
(dp2758
g1155
g1163
sg1156
g1295
sg268
S'c:/marmalade/6.2/s3e/h/std/sys/shm.h'
p2759
sbsVjpegint.h
p2760
g238
(g1151
g240
Ntp2761
Rp2762
(dp2763
g1155
g754
sg1156
g1237
sg268
g755
sbsS'prctl.h'
p2764
g238
(g1151
g240
Ntp2765
Rp2766
(dp2767
g1155
g1163
sg1156
g1295
sg268
S'c:/marmalade/6.2/s3e/h/std/sys/prctl.h'
p2768
sbsS'un.h'
p2769
g238
(g1151
g240
Ntp2770
Rp2771
(dp2772
g1155
g1163
sg1156
g1295
sg268
S'c:/marmalade/6.2/s3e/h/std/sys/un.h'
p2773
sbsS'tile.cpp'
p2774
g238
(g1151
g240
Ntp2775
Rp2776
(dp2777
g1155
g790
sg1156
g1384
sg268
g809
sbsS'utility'
p2778
g238
(g1151
g240
Ntp2779
Rp2780
(dp2781
g1155
g1163
sg1156
g1164
sg268
S'c:/marmalade/6.2/s3e/h/std/c++/utility'
p2782
sbsS'input.h'
p2783
g238
(g1151
g240
Ntp2784
Rp2785
(dp2786
g1155
g790
sg1156
g1384
sg268
g817
sbsS'IwGeomLegacy.h'
p2787
g238
(g1151
g240
Ntp2788
Rp2789
(dp2790
g1155
g892
sg1156
g1173
sg268
g905
sbsS'IwTPage.h'
p2791
g238
(g1151
g240
Ntp2792
Rp2793
(dp2794
g1155
g984
sg1156
g1281
sg268
g1013
sbsS'IwResSerialise.h'
p2795
g238
(g1151
g240
Ntp2796
Rp2797
(dp2798
g1155
g960
sg1156
g1411
sg268
g958
sbsS's3eCrypto.h'
p2799
g238
(g1151
g240
Ntp2800
Rp2801
(dp2802
g1155
g1163
sg1156
g1179
sg268
S'c:/marmalade/6.2/s3e/h/s3eCrypto.h'
p2803
sbsS's3eKeyboard.h'
p2804
g238
(g1151
g240
Ntp2805
Rp2806
(dp2807
g1155
g1163
sg1156
g1179
sg268
S'c:/marmalade/6.2/s3e/h/s3eKeyboard.h'
p2808
sbsS'fcntl.h'
p2809
g238
(g1151
g240
Ntp2810
Rp2811
(dp2812
g1155
g1163
sg1156
g1185
sg268
S'c:/marmalade/6.2/s3e/h/std/fcntl.h'
p2813
sbsS'memory.h'
p2814
g238
(g1151
g240
Ntp2815
Rp2816
(dp2817
g1155
g1163
sg1156
g1185
sg268
S'c:/marmalade/6.2/s3e/h/std/memory.h'
p2818
sbsS'pthread.h'
p2819
g238
(g1151
g240
Ntp2820
Rp2821
(dp2822
g1155
g1163
sg1156
g1185
sg268
S'c:/marmalade/6.2/s3e/h/std/pthread.h'
p2823
sbsS'IwGeomIntersect.h'
p2824
g238
(g1151
g240
Ntp2825
Rp2826
(dp2827
g1155
g892
sg1156
g1173
sg268
g901
sbsS'algorithm'
p2828
g238
(g1151
g240
Ntp2829
Rp2830
(dp2831
g1155
g1163
sg1156
g1164
sg268
S'c:/marmalade/6.2/s3e/h/std/c++/algorithm'
p2832
sbsS'egl_1.h'
p2833
g238
(g1151
g240
Ntp2834
Rp2835
(dp2836
g1155
g1163
sg1156
g1697
sg268
S'c:/marmalade/6.2/s3e/h/GLES/egl.h'
p2837
sbsS'ostream.h'
p2838
g238
(g1151
g240
Ntp2839
Rp2840
(dp2841
g1155
g1163
sg1156
g1164
sg268
S'c:/marmalade/6.2/s3e/h/std/c++/ostream.h'
p2842
sbsS'stl_user_config.h'
p2843
g238
(g1151
g240
Ntp2844
Rp2845
(dp2846
g1155
g1163
sg1156
g1164
sg268
S'c:/marmalade/6.2/s3e/h/std/c++/stl_user_config.h'
p2847
sbsS'IwProfileMenu.h'
p2848
g238
(g1151
g240
Ntp2849
Rp2850
(dp2851
g1155
g1038
sg1156
g1192
sg268
g1090
sbsS'MarmaladeVersion.h'
p2852
g238
(g1151
g240
Ntp2853
Rp2854
(dp2855
g1155
g1163
sg1156
g1179
sg268
S'c:/marmalade/6.2/s3e/h/MarmaladeVersion.h'
p2856
sbsS'ios.h'
p2857
g238
(g1151
g240
Ntp2858
Rp2859
(dp2860
g1155
g1163
sg1156
g1164
sg268
S'c:/marmalade/6.2/s3e/h/std/c++/ios.h'
p2861
sbsS'IwImageHelper.h'
p2862
g238
(g1151
g240
Ntp2863
Rp2864
(dp2865
g1155
g1038
sg1156
g1192
sg268
g1116
sbsS'hash_set'
p2866
g238
(g1151
g240
Ntp2867
Rp2868
(dp2869
g1155
g1163
sg1156
g1164
sg268
S'c:/marmalade/6.2/s3e/h/std/c++/hash_set'
p2870
sbsS'IwGeomFQuat.h'
p2871
g238
(g1151
g240
Ntp2872
Rp2873
(dp2874
g1155
g892
sg1156
g1173
sg268
g948
sbsVjmorecfg.h
p2875
g238
(g1151
g240
Ntp2876
Rp2877
(dp2878
g1155
g754
sg1156
g1237
sg268
g782
sbsS'eglplatform.h'
p2879
g238
(g1151
g240
Ntp2880
Rp2881
(dp2882
g1155
g1163
sg1156
g1482
sg268
S'c:/marmalade/6.2/s3e/h/EGL/eglplatform.h'
p2883
sbsS'stdbool.h'
p2884
g238
(g1151
g240
Ntp2885
Rp2886
(dp2887
g1155
g1163
sg1156
g1185
sg268
S'c:/marmalade/6.2/s3e/h/std/stdbool.h'
p2888
sbsS'math_gcc.h'
p2889
g238
(g1151
g240
Ntp2890
Rp2891
(dp2892
g1155
g1163
sg1156
g1185
sg268
S'c:/marmalade/6.2/s3e/h/std/math_gcc.h'
p2893
sbsS's3eMemory.h'
p2894
g238
(g1151
g240
Ntp2895
Rp2896
(dp2897
g1155
g1163
sg1156
g1179
sg268
S'c:/marmalade/6.2/s3e/h/s3eMemory.h'
p2898
sbsS'strings.h'
p2899
g238
(g1151
g240
Ntp2900
Rp2901
(dp2902
g1155
g1163
sg1156
g1185
sg268
S'c:/marmalade/6.2/s3e/h/std/strings.h'
p2903
sbsS's3eFile.h'
p2904
g238
(g1151
g240
Ntp2905
Rp2906
(dp2907
g1155
g1163
sg1156
g1179
sg268
S'c:/marmalade/6.2/s3e/h/s3eFile.h'
p2908
sbsS'IwGxTypes.h'
p2909
g238
(g1151
g240
Ntp2910
Rp2911
(dp2912
g1155
g984
sg1156
g1281
sg268
g987
sbsS'cerrno'
p2913
g238
(g1151
g240
Ntp2914
Rp2915
(dp2916
g1155
g1163
sg1156
g1164
sg268
S'c:/marmalade/6.2/s3e/h/std/c++/cerrno'
p2917
sbsS'map.h'
p2918
g238
(g1151
g240
Ntp2919
Rp2920
(dp2921
g1155
g790
sg1156
g1384
sg268
g788
sbsS'resource.h'
p2922
g238
(g1151
g240
Ntp2923
Rp2924
(dp2925
g1155
g1163
sg1156
g1295
sg268
S'c:/marmalade/6.2/s3e/h/std/sys/resource.h'
p2926
sbsS'clocale'
p2927
g238
(g1151
g240
Ntp2928
Rp2929
(dp2930
g1155
g1163
sg1156
g1164
sg268
S'c:/marmalade/6.2/s3e/h/std/c++/clocale'
p2931
sbsS'csetjmp'
p2932
g238
(g1151
g240
Ntp2933
Rp2934
(dp2935
g1155
g1163
sg1156
g1164
sg268
S'c:/marmalade/6.2/s3e/h/std/c++/csetjmp'
p2936
sbsS'netdb.h'
p2937
g238
(g1151
g240
Ntp2938
Rp2939
(dp2940
g1155
g1163
sg1156
g1185
sg268
S'c:/marmalade/6.2/s3e/h/std/netdb.h'
p2941
sbsS's3eAndroidJNI.h'
p2942
g238
(g1151
g240
Ntp2943
Rp2944
(dp2945
g1155
g1163
sg1156
g1364
sg268
S'c:/marmalade/6.2/s3e/h/ext/s3eAndroidJNI.h'
p2946
sbsS'stdexcept'
p2947
g238
(g1151
g240
Ntp2948
Rp2949
(dp2950
g1155
g1163
sg1156
g1164
sg268
S'c:/marmalade/6.2/s3e/h/std/c++/stdexcept'
p2951
sbsS'math.h'
p2952
g238
(g1151
g240
Ntp2953
Rp2954
(dp2955
g1155
g1163
sg1156
g1185
sg268
S'c:/marmalade/6.2/s3e/h/std/math.h'
p2956
sbsS'cmath'
p2957
g238
(g1151
g240
Ntp2958
Rp2959
(dp2960
g1155
g1163
sg1156
g1164
sg268
S'c:/marmalade/6.2/s3e/h/std/c++/cmath'
p2961
sbsS'uio.h'
p2962
g238
(g1151
g240
Ntp2963
Rp2964
(dp2965
g1155
g1163
sg1156
g1295
sg268
S'c:/marmalade/6.2/s3e/h/std/sys/uio.h'
p2966
sbsS'IwUncopyable.h'
p2967
g238
(g1151
g240
Ntp2968
Rp2969
(dp2970
g1155
g1038
sg1156
g1192
sg268
g1066
sbssS'tests'
p2971
(lp2972
sS'project_name'
p2973
g246
sS'root_file'
p2974
g106
sS'current_root'
p2975
S'c:/Users/1106786/Dropbox/Dropbox/PG life/Project Impact/Code/Demos/Demo_2_Collision'
p2976
sS'dependencies'
p2977
(lp2978
sS'include_paths'
p2979
(lp2980
Vc:/users/1106786/appdata/roaming/marmalade/packages/6.2.2/libjpeg_6b/h
p2981
aVc:/users/1106786/appdata/roaming/marmalade/packages/6.2.2/zlib_1.2.4/h
p2982
aVc:/users/1106786/appdata/roaming/marmalade/packages/6.2.2/libpng_1.2.34/h
p2983
aS'c:/marmalade/6.2/modules/iwutil/h'
p2984
aS'c:/marmalade/6.2/modules/iwgeom/h'
p2985
aS'c:/marmalade/6.2/modules/iwresmanager/h'
p2986
aS'c:/marmalade/6.2/modules/iwgl/h'
p2987
aS'c:/marmalade/6.2/modules/iwgx/h'
p2988
aVc:/users/1106786/appdata/roaming/marmalade/packages/6.2.2/tiniconv_1.0.1/h
p2989
aS'c:/marmalade/6.2/modules/iwgxfont/h'
p2990
aS'c:/marmalade/6.2/modules/iw2d/h'
p2991
aS'c:/users/1106786/dropbox/dropbox/pg life/project impact/code/demos/demo_2_collision/h'
p2992
aS'c:/marmalade/6.2/s3e/h'
p2993
aS'c:/marmalade/6.2/s3e/h/ext'
p2994
aS'c:/marmalade/6.2/s3e/h/std'
p2995
aS'c:/marmalade/6.2/s3e/h/std/c++'
p2996
aS'c:/marmalade/6.2/s3e/h/ext_legacy'
p2997
aS'c:/marmalade/6.2/s3e/h/legacy'
p2998
asS'weak_frameworks'
p2999
(lp3000
sS'extprojects'
p3001
(dp3002
sg484
(dp3003
g478
(lp3004
(g66
S'.'
p3005
I0
tp3006
asS'default'
p3007
(lp3008
(S'c:/users/1106786/dropbox/dropbox/pg life/project impact/code/demos/demo_2_collision/data/splashscreen.jpg'
p3009
S'splashscreen.jpg'
p3010
I0
tp3011
a(S'c:/users/1106786/dropbox/dropbox/pg life/project impact/code/demos/demo_2_collision/data-ram/data-gles1/imgs.group.bin,c:/users/1106786/dropbox/dropbox/pg life/project impact/code/demos/demo_2_collision/data/imgs.group.bin'
p3012
S'imgs.group.bin'
p3013
I0
tp3014
asS'artbuild'
p3015
(lp3016
(S'c:/users/1106786/dropbox/dropbox/pg life/project impact/code/demos/demo_2_collision/data'
p3017
g3005
I0
tp3018
assS'macro_types'
p3019
(dp3020
g427
I1
sg428
I0
sg429
I0
sg430
I0
sg431
I0
sg432
I0
sg433
I0
sg435
I0
sg436
I0
sg437
I0
sg438
I0
sg440
I0
sg442
I0
sg443
I0
sg444
I0
sg445
I0
sg446
I1
sg447
I0
sg448
I0
sg449
I0
sg450
I01
sg451
I1
sg452
I0
sg453
I0
sg454
I0
sg455
I0
ssS'commands'
p3021
(lp3022
sg486
(g733
S'VC10'
p3023
S'X86ARM'
p3024
tp3025
sS'subprojectOptions'
p3026
(dp3027
g490
(lp3028
sg492
Nsg493
Nsg494
Nsg495
Nsg496
Nsg497
Nsg498
Nsg499
(lp3029
sg501
Nsg616
Nsg504
Nsg505
Nsg506
Nsg507
Nsg508
Nsg509
Nsg510
Nsg511
Nsg512
Nsg513
(lp3030
sg693
Nsg516
Nsg517
Nsg694
Nsg689
Nsg519
Nsg520
Nsg521
Nsg522
Nsg523
Nsg524
Nsg697
Nsg526
Nsg527
Nsg688
Nsg528
Nsg529
Nsg530
Nsg531
Nsg532
Nsg533
Nsg571
Nsg535
Nsg536
Nsg537
Nsg539
Nsg540
Nsg541
Nsg542
Nsg543
Nsg544
Nsg545
Nsg546
Nsg621
Nsg547
Nsg549
Nsg550
Nsg551
Nsg552
Nsg553
Nsg554
(lp3031
sg556
Nsg557
Nsg558
Nsg559
Nsg560
Nsg561
Nsg562
Nsg626
Nsg564
(lp3032
sg566
Nsg567
Nsg568
Nsg569
Nsg570
Nsg534
Nsg572
Nsg628
Nsg574
Nsg575
Nsg576
Nsg577
Nsg578
Nsg579
(lp3033
sg581
Nsg710
Nsg583
Nsg584
Nsg585
Nsg586
Nsg587
Nsg588
Nsg589
Nsg630
Nsg591
Nsg593
(lp3034
sg595
Nsg596
Nsg711
Nsg598
(lp3035
sg600
Nsg601
Nsg602
Nsg603
Nsg604
Nsg605
Nsg631
Nsg607
Nsg608
Nsg609
Nsg610
Nsg611
(lp3036
sg613
Nsg614
Nsg615
Nsg503
Nsg617
Nsg618
Nsg619
(lp3037
sg502
Nsg622
Nsg623
Nsg624
Nsg625
Nsg563
Nsg573
Nsg629
Nsg590
Nsg606
Nsg632
Nsg633
Nsg679
Nsg636
Nsg637
Nsg638
Nsg639
Nsg640
Nsg719
Nsg642
Nsg643
Nsg644
Nsg645
(lp3038
sg647
Nsg648
Nsg649
Nsg650
Nsg651
Nsg652
Nsg653
(lp3039
sg655
Nsg656
Nsg657
Nsg658
Nsg659
Nsg660
Nsg661
Nsg662
Nsg663
Nsg664
Nsg722
Nsg666
Nsg667
Nsg675
Nsg668
Nsg677
Nsg670
Nsg671
Nsg672
Nsg678
Nsg674
Nsg717
Nsg634
(lp3040
sg676
Nsg669
Nsg673
Nsg725
Nsg681
Nsg682
Nsg683
Nsg716
Nsg684
Nsg685
Nsg686
Nsg687
Nsg538
Nsg525
Nsg690
Nsg691
Nsg692
Nsg515
Nsg518
Nsg695
Nsg696
Nsg627
Nsg698
Nsg699
Nsg700
Nsg701
Nsg702
Nsg703
Nsg704
Nsg705
Nsg706
Nsg707
(lp3041
sg709
Nsg582
Nsg597
Nsg712
Nsg713
Nsg714
Nsg715
Nsg548
Nsg592
Nsg718
Nsg641
Nsg730
Nsg721
Nsg665
Nsg723
Nsg724
Nsg680
Nsg726
Nsg727
Nsg728
Nsg729
Nsg720
Nsg731
NssS'build_libs'
p3042
(dp3043
sS'frameworks'
p3044
(lp3045
sS'environ'
p3046
(dp3047
sS'target_name_debug'
p3048
g246
sS'builders'
p3049
(dp3050
S'.S'
p3051
(dp3052
S'rvct'
p3053
(lp3054
S'.obj'
p3055
aS'echo ARM Assembling(RVCT) ${SOURCE}...'
p3056
aS'c:/marmalade/6.2/s3e\\rvct\\bin\\armasm -o ${TARGET} ${SOURCE}'
p3057
asg347
(lp3058
g3055
aS'echo ARM Assembling(GCC) ${SOURCE}...'
p3059
aS'c:/marmalade/6.2/s3e\\gcc\\bin\\arm-none-eabi-gcc -c -o ${TARGET} ${SOURCE}'
p3060
asS'ppu'
p3061
(lp3062
S'.a'
p3063
aS'echo PPU Assembling(SNC) ${SOURCE}...'
p3064
aS'c:/marmalade/6.2/s3e\\rvct\\bin\\armasm -o ${TARGET} ${SOURCE}'
p3065
assS'.s'
p3066
g3052
sS'.vp'
p3067
(lp3068
NaS'"C:/Marmalade/6.2/s3e/python/python.exe" "c:/marmalade/6.2/modules/iwgx/tools/compile_shaders.py" ${SOURCE}'
p3069
assg488
g0
sbtp3070
.