	.arch armv5te
	.eabi_attribute 27, 3
	.fpu vfp
	.eabi_attribute 20, 1
	.eabi_attribute 21, 1
	.eabi_attribute 23, 3
	.eabi_attribute 24, 1
	.eabi_attribute 25, 1
	.eabi_attribute 26, 2
	.eabi_attribute 30, 6
	.eabi_attribute 18, 2
	.file	"game.cpp"
	.text
.Ltext0:
	.cfi_sections	.debug_frame
	.section	.text._ZL11IwDebugExitv,"ax",%progbits
	.align	2
	.type	_ZL11IwDebugExitv, %function
_ZL11IwDebugExitv:
.LFB0:
	.file 1 "c:/marmalade/6.2/modules/iwutil/h/IwDebug.h"
	.loc 1 354 0
	.cfi_startproc
	@ args = 0, pretend = 0, frame = 0
	@ frame_needed = 0, uses_anonymous_args = 0
	stmfd	sp!, {r3, lr}
.LCFI0:
	.cfi_def_cfa_offset 8
	.loc 1 355 0
	.cfi_offset 14, -4
	.cfi_offset 3, -8
	bl	abort
	.cfi_endproc
.LFE0:
	.size	_ZL11IwDebugExitv, .-_ZL11IwDebugExitv
	.section	.text._ZN8CIwSVec2C1Ev,"axG",%progbits,_ZN8CIwSVec2C1Ev,comdat
	.align	2
	.weak	_ZN8CIwSVec2C1Ev
	.hidden	_ZN8CIwSVec2C1Ev
	.type	_ZN8CIwSVec2C1Ev, %function
_ZN8CIwSVec2C1Ev:
.LFB128:
	.file 2 "c:/marmalade/6.2/modules/iwgeom/h/IwGeomSVec2.h"
	.loc 2 65 0
	.cfi_startproc
	@ args = 0, pretend = 0, frame = 8
	@ frame_needed = 0, uses_anonymous_args = 0
	@ link register save eliminated.
	sub	sp, sp, #8
.LCFI1:
	.cfi_def_cfa_offset 8
	str	r0, [sp, #4]
	.loc 2 65 0
	ldr	r3, [sp, #4]
	mov	r0, r3
	add	sp, sp, #8
	bx	lr
	.cfi_endproc
.LFE128:
	.size	_ZN8CIwSVec2C1Ev, .-_ZN8CIwSVec2C1Ev
	.section	.text._ZN8CIwFVec2C1Ev,"axG",%progbits,_ZN8CIwFVec2C1Ev,comdat
	.align	2
	.weak	_ZN8CIwFVec2C1Ev
	.hidden	_ZN8CIwFVec2C1Ev
	.type	_ZN8CIwFVec2C1Ev, %function
_ZN8CIwFVec2C1Ev:
.LFB192:
	.file 3 "c:/marmalade/6.2/modules/iwgeom/h/IwGeomFVec2.h"
	.loc 3 65 0
	.cfi_startproc
	@ args = 0, pretend = 0, frame = 8
	@ frame_needed = 0, uses_anonymous_args = 0
	@ link register save eliminated.
	sub	sp, sp, #8
.LCFI2:
	.cfi_def_cfa_offset 8
	str	r0, [sp, #4]
	.loc 3 65 0
	ldr	r3, [sp, #4]
	mov	r0, r3
	add	sp, sp, #8
	bx	lr
	.cfi_endproc
.LFE192:
	.size	_ZN8CIwFVec2C1Ev, .-_ZN8CIwFVec2C1Ev
	.section	.text._ZN8CIwFVec2C1Eff,"axG",%progbits,_ZN8CIwFVec2C1Eff,comdat
	.align	2
	.weak	_ZN8CIwFVec2C1Eff
	.hidden	_ZN8CIwFVec2C1Eff
	.type	_ZN8CIwFVec2C1Eff, %function
_ZN8CIwFVec2C1Eff:
.LFB195:
	.loc 3 72 0
	.cfi_startproc
	@ args = 0, pretend = 0, frame = 16
	@ frame_needed = 0, uses_anonymous_args = 0
	@ link register save eliminated.
	sub	sp, sp, #16
.LCFI3:
	.cfi_def_cfa_offset 16
	str	r0, [sp, #12]
	str	r1, [sp, #8]	@ float
	str	r2, [sp, #4]	@ float
	.loc 3 72 0
	ldr	r3, [sp, #12]
	flds	s15, [sp, #8]
	fsts	s15, [r3, #0]
	ldr	r3, [sp, #12]
	flds	s15, [sp, #4]
	fsts	s15, [r3, #4]
	ldr	r3, [sp, #12]
	mov	r0, r3
	add	sp, sp, #16
	bx	lr
	.cfi_endproc
.LFE195:
	.size	_ZN8CIwFVec2C1Eff, .-_ZN8CIwFVec2C1Eff
	.section	.text._ZN8CIwFVec2aSERKS_,"axG",%progbits,_ZN8CIwFVec2aSERKS_,comdat
	.align	2
	.weak	_ZN8CIwFVec2aSERKS_
	.hidden	_ZN8CIwFVec2aSERKS_
	.type	_ZN8CIwFVec2aSERKS_, %function
_ZN8CIwFVec2aSERKS_:
.LFB198:
	.loc 3 285 0
	.cfi_startproc
	@ args = 0, pretend = 0, frame = 8
	@ frame_needed = 0, uses_anonymous_args = 0
	@ link register save eliminated.
	sub	sp, sp, #8
.LCFI4:
	.cfi_def_cfa_offset 8
	str	r0, [sp, #4]
	str	r1, [sp, #0]
	.loc 3 286 0
	ldr	r3, [sp, #0]
	flds	s15, [r3, #0]
	ldr	r3, [sp, #4]
	fsts	s15, [r3, #0]
	.loc 3 287 0
	ldr	r3, [sp, #0]
	flds	s15, [r3, #4]
	ldr	r3, [sp, #4]
	fsts	s15, [r3, #4]
	.loc 3 288 0
	ldr	r3, [sp, #4]
	.loc 3 289 0
	mov	r0, r3
	add	sp, sp, #8
	bx	lr
	.cfi_endproc
.LFE198:
	.size	_ZN8CIwFVec2aSERKS_, .-_ZN8CIwFVec2aSERKS_
	.section	.text._ZNK8CIwFVec2plERKS_,"axG",%progbits,_ZNK8CIwFVec2plERKS_,comdat
	.align	2
	.weak	_ZNK8CIwFVec2plERKS_
	.hidden	_ZNK8CIwFVec2plERKS_
	.type	_ZNK8CIwFVec2plERKS_, %function
_ZNK8CIwFVec2plERKS_:
.LFB199:
	.loc 3 295 0
	.cfi_startproc
	@ args = 0, pretend = 0, frame = 8
	@ frame_needed = 0, uses_anonymous_args = 0
	stmfd	sp!, {r4, lr}
.LCFI5:
	.cfi_def_cfa_offset 8
	sub	sp, sp, #8
.LCFI6:
	.cfi_def_cfa_offset 16
	mov	r4, r0
	.cfi_offset 14, -4
	.cfi_offset 4, -8
	str	r1, [sp, #4]
	str	r2, [sp, #0]
	.loc 3 299 0
	ldr	r3, [sp, #4]
	flds	s14, [r3, #0]
	ldr	r3, [sp, #0]
	flds	s15, [r3, #0]
	fadds	s13, s14, s15
	ldr	r3, [sp, #4]
	flds	s14, [r3, #4]
	ldr	r3, [sp, #0]
	flds	s15, [r3, #4]
	fadds	s15, s14, s15
	mov	r0, r4
	fmrs	r1, s13
	fmrs	r2, s15
	bl	_ZN8CIwFVec2C1Eff
	.loc 3 300 0
	mov	r0, r4
	add	sp, sp, #8
	ldmfd	sp!, {r4, pc}
	.cfi_endproc
.LFE199:
	.size	_ZNK8CIwFVec2plERKS_, .-_ZNK8CIwFVec2plERKS_
	.section	.text._ZN8CIwFVec2pLERKS_,"axG",%progbits,_ZN8CIwFVec2pLERKS_,comdat
	.align	2
	.weak	_ZN8CIwFVec2pLERKS_
	.hidden	_ZN8CIwFVec2pLERKS_
	.type	_ZN8CIwFVec2pLERKS_, %function
_ZN8CIwFVec2pLERKS_:
.LFB200:
	.loc 3 306 0
	.cfi_startproc
	@ args = 0, pretend = 0, frame = 8
	@ frame_needed = 0, uses_anonymous_args = 0
	@ link register save eliminated.
	sub	sp, sp, #8
.LCFI7:
	.cfi_def_cfa_offset 8
	str	r0, [sp, #4]
	str	r1, [sp, #0]
	.loc 3 307 0
	ldr	r3, [sp, #4]
	flds	s14, [r3, #0]
	ldr	r3, [sp, #0]
	flds	s15, [r3, #0]
	fadds	s15, s14, s15
	ldr	r3, [sp, #4]
	fsts	s15, [r3, #0]
	.loc 3 308 0
	ldr	r3, [sp, #4]
	flds	s14, [r3, #4]
	ldr	r3, [sp, #0]
	flds	s15, [r3, #4]
	fadds	s15, s14, s15
	ldr	r3, [sp, #4]
	fsts	s15, [r3, #4]
	.loc 3 309 0
	ldr	r3, [sp, #4]
	.loc 3 310 0
	mov	r0, r3
	add	sp, sp, #8
	bx	lr
	.cfi_endproc
.LFE200:
	.size	_ZN8CIwFVec2pLERKS_, .-_ZN8CIwFVec2pLERKS_
	.section	.text._ZNK8CIwFVec2miERKS_,"axG",%progbits,_ZNK8CIwFVec2miERKS_,comdat
	.align	2
	.weak	_ZNK8CIwFVec2miERKS_
	.hidden	_ZNK8CIwFVec2miERKS_
	.type	_ZNK8CIwFVec2miERKS_, %function
_ZNK8CIwFVec2miERKS_:
.LFB201:
	.loc 3 316 0
	.cfi_startproc
	@ args = 0, pretend = 0, frame = 8
	@ frame_needed = 0, uses_anonymous_args = 0
	stmfd	sp!, {r4, lr}
.LCFI8:
	.cfi_def_cfa_offset 8
	sub	sp, sp, #8
.LCFI9:
	.cfi_def_cfa_offset 16
	mov	r4, r0
	.cfi_offset 14, -4
	.cfi_offset 4, -8
	str	r1, [sp, #4]
	str	r2, [sp, #0]
	.loc 3 320 0
	ldr	r3, [sp, #4]
	flds	s14, [r3, #0]
	ldr	r3, [sp, #0]
	flds	s15, [r3, #0]
	fsubs	s13, s14, s15
	ldr	r3, [sp, #4]
	flds	s14, [r3, #4]
	ldr	r3, [sp, #0]
	flds	s15, [r3, #4]
	fsubs	s15, s14, s15
	mov	r0, r4
	fmrs	r1, s13
	fmrs	r2, s15
	bl	_ZN8CIwFVec2C1Eff
	.loc 3 321 0
	mov	r0, r4
	add	sp, sp, #8
	ldmfd	sp!, {r4, pc}
	.cfi_endproc
.LFE201:
	.size	_ZNK8CIwFVec2miERKS_, .-_ZNK8CIwFVec2miERKS_
	.section	.text._ZNK8CIwFVec2mlEf,"axG",%progbits,_ZNK8CIwFVec2mlEf,comdat
	.align	2
	.weak	_ZNK8CIwFVec2mlEf
	.hidden	_ZNK8CIwFVec2mlEf
	.type	_ZNK8CIwFVec2mlEf, %function
_ZNK8CIwFVec2mlEf:
.LFB206:
	.loc 3 371 0
	.cfi_startproc
	@ args = 0, pretend = 0, frame = 8
	@ frame_needed = 0, uses_anonymous_args = 0
	stmfd	sp!, {r4, lr}
.LCFI10:
	.cfi_def_cfa_offset 8
	sub	sp, sp, #8
.LCFI11:
	.cfi_def_cfa_offset 16
	mov	r4, r0
	.cfi_offset 14, -4
	.cfi_offset 4, -8
	str	r1, [sp, #4]
	str	r2, [sp, #0]	@ float
	.loc 3 375 0
	ldr	r3, [sp, #4]
	flds	s14, [r3, #0]
	flds	s15, [sp, #0]
	fmuls	s14, s14, s15
	ldr	r3, [sp, #4]
	flds	s13, [r3, #4]
	flds	s15, [sp, #0]
	fmuls	s15, s13, s15
	mov	r0, r4
	fmrs	r1, s14
	fmrs	r2, s15
	bl	_ZN8CIwFVec2C1Eff
	.loc 3 376 0
	mov	r0, r4
	add	sp, sp, #8
	ldmfd	sp!, {r4, pc}
	.cfi_endproc
.LFE206:
	.size	_ZNK8CIwFVec2mlEf, .-_ZNK8CIwFVec2mlEf
	.section	.text._ZnwjPv,"axG",%progbits,_ZnwjPv,comdat
	.align	2
	.weak	_ZnwjPv
	.hidden	_ZnwjPv
	.type	_ZnwjPv, %function
_ZnwjPv:
.LFB993:
	.file 4 "c:/marmalade/6.2/s3e/h/std/c++/new.h"
	.loc 4 52 0
	.cfi_startproc
	@ args = 0, pretend = 0, frame = 8
	@ frame_needed = 0, uses_anonymous_args = 0
	@ link register save eliminated.
	sub	sp, sp, #8
.LCFI12:
	.cfi_def_cfa_offset 8
	str	r0, [sp, #4]
	str	r1, [sp, #0]
	.loc 4 52 0
	ldr	r3, [sp, #0]
	mov	r0, r3
	add	sp, sp, #8
	bx	lr
	.cfi_endproc
.LFE993:
	.size	_ZnwjPv, .-_ZnwjPv
	.section	.text._ZN8ObstacleD1Ev,"axG",%progbits,_ZN8ObstacleD1Ev,comdat
	.align	2
	.weak	_ZN8ObstacleD1Ev
	.hidden	_ZN8ObstacleD1Ev
	.type	_ZN8ObstacleD1Ev, %function
_ZN8ObstacleD1Ev:
.LFB2467:
	.file 5 "c:/users/1106786/dropbox/dropbox/pg life/project impact/code/demos/demo_5_puzzle_gameplayflow/h/obstacle.h"
	.loc 5 13 0
	.cfi_startproc
	@ args = 0, pretend = 0, frame = 8
	@ frame_needed = 0, uses_anonymous_args = 0
	@ link register save eliminated.
	sub	sp, sp, #8
.LCFI13:
	.cfi_def_cfa_offset 8
	str	r0, [sp, #4]
	.loc 5 13 0
	ldr	r3, [sp, #4]
	mov	r0, r3
	add	sp, sp, #8
	bx	lr
	.cfi_endproc
.LFE2467:
	.size	_ZN8ObstacleD1Ev, .-_ZN8ObstacleD1Ev
	.section	.text._ZN12TileObstacleC1Ev,"axG",%progbits,_ZN12TileObstacleC1Ev,comdat
	.align	2
	.weak	_ZN12TileObstacleC1Ev
	.hidden	_ZN12TileObstacleC1Ev
	.type	_ZN12TileObstacleC1Ev, %function
_ZN12TileObstacleC1Ev:
.LFB2470:
	.file 6 "c:/users/1106786/dropbox/dropbox/pg life/project impact/code/demos/demo_5_puzzle_gameplayflow/h/tileobstacle.h"
	.loc 6 16 0
	.cfi_startproc
	@ args = 0, pretend = 0, frame = 16
	@ frame_needed = 0, uses_anonymous_args = 0
	stmfd	sp!, {r4, lr}
.LCFI14:
	.cfi_def_cfa_offset 8
	sub	sp, sp, #16
.LCFI15:
	.cfi_def_cfa_offset 24
	str	r0, [sp, #4]
	.loc 6 16 0
	ldr	r3, [sp, #4]
	mov	r0, r3
	.cfi_offset 14, -4
	.cfi_offset 4, -8
	bl	_ZN8CIwFVec2C1Ev
	ldr	r3, [sp, #4]
	add	r4, r3, #24
	add	r3, sp, #12
	mov	r0, r3
	bl	_ZN4_STL9allocatorI8ObstacleEC1Ev
	add	r3, sp, #12
	mov	r0, r4
	mov	r1, r3
	bl	_ZN4_STL6vectorI8ObstacleNS_9allocatorIS1_EEEC1ERKS3_
	add	r3, sp, #12
	mov	r0, r3
	bl	_ZN4_STL9allocatorI8ObstacleED1Ev
	ldr	r3, [sp, #4]
	add	r3, r3, #36
	mov	r0, r3
	bl	_ZN8CIwSVec2C1Ev
	ldr	r3, [sp, #4]
	mov	r0, r3
	add	sp, sp, #16
	ldmfd	sp!, {r4, pc}
	.cfi_endproc
.LFE2470:
	.size	_ZN12TileObstacleC1Ev, .-_ZN12TileObstacleC1Ev
	.section	.text._ZN12TileObstacleD1Ev,"axG",%progbits,_ZN12TileObstacleD1Ev,comdat
	.align	2
	.weak	_ZN12TileObstacleD1Ev
	.hidden	_ZN12TileObstacleD1Ev
	.type	_ZN12TileObstacleD1Ev, %function
_ZN12TileObstacleD1Ev:
.LFB2473:
	.loc 6 17 0
	.cfi_startproc
	@ args = 0, pretend = 0, frame = 8
	@ frame_needed = 0, uses_anonymous_args = 0
	str	lr, [sp, #-4]!
.LCFI16:
	.cfi_def_cfa_offset 4
	sub	sp, sp, #12
.LCFI17:
	.cfi_def_cfa_offset 16
	str	r0, [sp, #4]
	.loc 6 17 0
	ldr	r3, [sp, #4]
	add	r3, r3, #24
	mov	r0, r3
	.cfi_offset 14, -4
	bl	_ZN4_STL6vectorI8ObstacleNS_9allocatorIS1_EEED1Ev
	ldr	r3, [sp, #4]
	mov	r0, r3
	add	sp, sp, #12
	ldmfd	sp!, {pc}
	.cfi_endproc
.LFE2473:
	.size	_ZN12TileObstacleD1Ev, .-_ZN12TileObstacleD1Ev
	.section	.text._ZN3MapC1Ev,"axG",%progbits,_ZN3MapC1Ev,comdat
	.align	2
	.weak	_ZN3MapC1Ev
	.hidden	_ZN3MapC1Ev
	.type	_ZN3MapC1Ev, %function
_ZN3MapC1Ev:
.LFB2495:
	.file 7 "c:/users/1106786/dropbox/dropbox/pg life/project impact/code/demos/demo_5_puzzle_gameplayflow/h/map.h"
	.loc 7 13 0
	.cfi_startproc
	@ args = 0, pretend = 0, frame = 8
	@ frame_needed = 0, uses_anonymous_args = 0
	str	lr, [sp, #-4]!
.LCFI18:
	.cfi_def_cfa_offset 4
	sub	sp, sp, #12
.LCFI19:
	.cfi_def_cfa_offset 16
	str	r0, [sp, #4]
	.loc 7 13 0
	ldr	r3, [sp, #4]
	mov	r0, r3
	.cfi_offset 14, -4
	bl	_ZN8CIwFVec2C1Ev
	ldr	r3, [sp, #4]
	add	r3, r3, #8
	mov	r0, r3
	bl	_ZN8CIwFVec2C1Ev
	ldr	r3, [sp, #4]
	add	r3, r3, #24
	mov	r0, r3
	bl	_ZN8CIwSVec2C1Ev
	ldr	r3, [sp, #4]
	add	r3, r3, #68
	mov	r0, r3
	mov	r1, #0
	bl	_ZN8CIwArrayIi12CIwAllocatorIi15CIwMallocRouterIiEE17ReallocateDefaultIiS3_EEC1Ej
	ldr	r3, [sp, #4]
	add	r3, r3, #84
	mov	r0, r3
	mov	r1, #0
	bl	_ZN8CIwArrayI12TileObstacle12CIwAllocatorIS0_15CIwMallocRouterIS0_EE17ReallocateDefaultIS0_S4_EEC1Ej
	ldr	r3, [sp, #4]
	add	r3, r3, #116
	mov	r0, r3
	mov	r1, #0
	bl	_ZN8CIwArrayIi12CIwAllocatorIi15CIwMallocRouterIiEE17ReallocateDefaultIiS3_EEC1Ej
	ldr	r3, [sp, #4]
	mov	r0, r3
	add	sp, sp, #12
	ldmfd	sp!, {pc}
	.cfi_endproc
.LFE2495:
	.size	_ZN3MapC1Ev, .-_ZN3MapC1Ev
	.section	.text._ZN3Map10GetMapSizeEv,"axG",%progbits,_ZN3Map10GetMapSizeEv,comdat
	.align	2
	.weak	_ZN3Map10GetMapSizeEv
	.hidden	_ZN3Map10GetMapSizeEv
	.type	_ZN3Map10GetMapSizeEv, %function
_ZN3Map10GetMapSizeEv:
.LFB2496:
	.loc 7 18 0
	.cfi_startproc
	@ args = 0, pretend = 0, frame = 16
	@ frame_needed = 0, uses_anonymous_args = 0
	@ link register save eliminated.
	sub	sp, sp, #16
.LCFI20:
	.cfi_def_cfa_offset 16
	str	r0, [sp, #4]
	.loc 7 18 0
	ldr	r3, [sp, #4]
	ldr	r3, [r3, #24]
	str	r3, [sp, #12]
	mov	r3, #0
	ldrh	r2, [sp, #12]
	mov	r2, r2, asl #16
	mov	r3, r3, lsr #16
	orr	r3, r3, r2
	mov	r3, r3, ror #16
	ldrh	r2, [sp, #14]
	mov	r2, r2, asl #16
	mov	r3, r3, asl #16
	mov	r3, r3, lsr #16
	orr	r3, r3, r2
	mov	r0, r3
	add	sp, sp, #16
	bx	lr
	.cfi_endproc
.LFE2496:
	.size	_ZN3Map10GetMapSizeEv, .-_ZN3Map10GetMapSizeEv
	.section	.text._ZN9CharacterC1Ev,"axG",%progbits,_ZN9CharacterC1Ev,comdat
	.align	2
	.weak	_ZN9CharacterC1Ev
	.hidden	_ZN9CharacterC1Ev
	.type	_ZN9CharacterC1Ev, %function
_ZN9CharacterC1Ev:
.LFB2499:
	.file 8 "c:/users/1106786/dropbox/dropbox/pg life/project impact/code/demos/demo_5_puzzle_gameplayflow/h/character.h"
	.loc 8 18 0
	.cfi_startproc
	@ args = 0, pretend = 0, frame = 8
	@ frame_needed = 0, uses_anonymous_args = 0
	str	lr, [sp, #-4]!
.LCFI21:
	.cfi_def_cfa_offset 4
	sub	sp, sp, #12
.LCFI22:
	.cfi_def_cfa_offset 16
	str	r0, [sp, #4]
	.loc 8 18 0
	ldr	r3, [sp, #4]
	mov	r0, r3
	.cfi_offset 14, -4
	bl	_ZN8CIwFVec2C1Ev
	ldr	r3, [sp, #4]
	add	r3, r3, #8
	mov	r0, r3
	bl	_ZN8CIwFVec2C1Ev
	ldr	r3, [sp, #4]
	add	r3, r3, #16
	mov	r0, r3
	bl	_ZN8CIwFVec2C1Ev
	ldr	r3, [sp, #4]
	add	r3, r3, #24
	mov	r0, r3
	bl	_ZN8CIwFVec2C1Ev
	ldr	r3, [sp, #4]
	add	r3, r3, #32
	mov	r0, r3
	bl	_ZN8CIwFVec2C1Ev
	ldr	r3, [sp, #4]
	add	r3, r3, #40
	mov	r0, r3
	bl	_ZN8CIwSVec2C1Ev
	ldr	r3, [sp, #4]
	add	r3, r3, #52
	mov	r0, r3
	bl	_ZN8CIwSVec2C1Ev
	ldr	r3, [sp, #4]
	mov	r0, r3
	add	sp, sp, #12
	ldmfd	sp!, {pc}
	.cfi_endproc
.LFE2499:
	.size	_ZN9CharacterC1Ev, .-_ZN9CharacterC1Ev
	.section	.text._ZN9CharacterD1Ev,"axG",%progbits,_ZN9CharacterD1Ev,comdat
	.align	2
	.weak	_ZN9CharacterD1Ev
	.hidden	_ZN9CharacterD1Ev
	.type	_ZN9CharacterD1Ev, %function
_ZN9CharacterD1Ev:
.LFB2502:
	.loc 8 20 0
	.cfi_startproc
	@ args = 0, pretend = 0, frame = 8
	@ frame_needed = 0, uses_anonymous_args = 0
	str	lr, [sp, #-4]!
.LCFI23:
	.cfi_def_cfa_offset 4
	sub	sp, sp, #12
.LCFI24:
	.cfi_def_cfa_offset 16
	str	r0, [sp, #4]
	.loc 8 20 0
	ldr	r3, [sp, #4]
	ldr	r3, [r3, #48]
	cmp	r3, #0
	beq	.L42
	.cfi_offset 14, -4
	ldr	r3, [sp, #4]
	ldr	r3, [r3, #48]
	ldr	r3, [r3, #0]
	add	r3, r3, #16
	ldr	r3, [r3, #0]
	ldr	r2, [sp, #4]
	ldr	r2, [r2, #48]
	mov	r0, r2
	blx	r3
.L42:
	ldr	r3, [sp, #4]
	mov	r0, r3
	add	sp, sp, #12
	ldmfd	sp!, {pc}
	.cfi_endproc
.LFE2502:
	.size	_ZN9CharacterD1Ev, .-_ZN9CharacterD1Ev
	.section	.text._Z17IwGetSoundManagerv,"axG",%progbits,_Z17IwGetSoundManagerv,comdat
	.align	2
	.weak	_Z17IwGetSoundManagerv
	.hidden	_Z17IwGetSoundManagerv
	.type	_Z17IwGetSoundManagerv, %function
_Z17IwGetSoundManagerv:
.LFB2537:
	.file 9 "c:/users/1106786/dropbox/dropbox/pg life/project impact/code/demos/demo_5_puzzle_gameplayflow/libs/soundengine/h/IwSoundManager.h"
	.loc 9 193 0
	.cfi_startproc
	@ args = 0, pretend = 0, frame = 0
	@ frame_needed = 0, uses_anonymous_args = 0
	@ link register save eliminated.
	.loc 9 193 0
	ldr	r3, .L46
	ldr	r3, [r3, #0]
	mov	r0, r3
	bx	lr
.L47:
	.align	2
.L46:
	.word	g_IwSoundManager
	.cfi_endproc
.LFE2537:
	.size	_Z17IwGetSoundManagerv, .-_Z17IwGetSoundManagerv
	.section	.text._ZN5AudioC2Ev,"axG",%progbits,_ZN5AudioC2Ev,comdat
	.align	2
	.weak	_ZN5AudioC2Ev
	.hidden	_ZN5AudioC2Ev
	.type	_ZN5AudioC2Ev, %function
_ZN5AudioC2Ev:
.LFB2569:
	.file 10 "c:/users/1106786/dropbox/dropbox/pg life/project impact/code/demos/demo_5_puzzle_gameplayflow/h/audio.h"
	.loc 10 17 0
	.cfi_startproc
	@ args = 0, pretend = 0, frame = 8
	@ frame_needed = 0, uses_anonymous_args = 0
	@ link register save eliminated.
	sub	sp, sp, #8
.LCFI25:
	.cfi_def_cfa_offset 8
	str	r0, [sp, #4]
	.loc 10 17 0
	ldr	r3, [sp, #4]
	ldr	r2, .L51
	str	r2, [r3, #0]
	ldr	r3, [sp, #4]
	mov	r0, r3
	add	sp, sp, #8
	bx	lr
.L52:
	.align	2
.L51:
	.word	_ZTV5Audio+8
	.cfi_endproc
.LFE2569:
	.size	_ZN5AudioC2Ev, .-_ZN5AudioC2Ev
	.section	.text._ZN2SEC1Ev,"axG",%progbits,_ZN2SEC1Ev,comdat
	.align	2
	.weak	_ZN2SEC1Ev
	.hidden	_ZN2SEC1Ev
	.type	_ZN2SEC1Ev, %function
_ZN2SEC1Ev:
.LFB2573:
	.file 11 "c:/users/1106786/dropbox/dropbox/pg life/project impact/code/demos/demo_5_puzzle_gameplayflow/h/SE.h"
	.loc 11 9 0
	.cfi_startproc
	@ args = 0, pretend = 0, frame = 8
	@ frame_needed = 0, uses_anonymous_args = 0
	@ link register save eliminated.
	sub	sp, sp, #8
.LCFI26:
	.cfi_def_cfa_offset 8
	str	r0, [sp, #4]
	.loc 11 9 0
	ldr	r3, [sp, #4]
	mov	r0, r3
	add	sp, sp, #8
	bx	lr
	.cfi_endproc
.LFE2573:
	.size	_ZN2SEC1Ev, .-_ZN2SEC1Ev
	.section	.text._ZN2SED1Ev,"axG",%progbits,_ZN2SED1Ev,comdat
	.align	2
	.weak	_ZN2SED1Ev
	.hidden	_ZN2SED1Ev
	.type	_ZN2SED1Ev, %function
_ZN2SED1Ev:
.LFB2576:
	.loc 11 10 0
	.cfi_startproc
	@ args = 0, pretend = 0, frame = 8
	@ frame_needed = 0, uses_anonymous_args = 0
	@ link register save eliminated.
	sub	sp, sp, #8
.LCFI27:
	.cfi_def_cfa_offset 8
	str	r0, [sp, #4]
	.loc 11 10 0
	ldr	r3, [sp, #4]
	mov	r0, r3
	add	sp, sp, #8
	bx	lr
	.cfi_endproc
.LFE2576:
	.size	_ZN2SED1Ev, .-_ZN2SED1Ev
	.section	.text._ZN2UIC1Ev,"axG",%progbits,_ZN2UIC1Ev,comdat
	.align	2
	.weak	_ZN2UIC1Ev
	.hidden	_ZN2UIC1Ev
	.type	_ZN2UIC1Ev, %function
_ZN2UIC1Ev:
.LFB2585:
	.file 12 "c:/users/1106786/dropbox/dropbox/pg life/project impact/code/demos/demo_5_puzzle_gameplayflow/h/ui.h"
	.loc 12 7 0
	.cfi_startproc
	@ args = 0, pretend = 0, frame = 8
	@ frame_needed = 0, uses_anonymous_args = 0
	@ link register save eliminated.
	sub	sp, sp, #8
.LCFI28:
	.cfi_def_cfa_offset 8
	str	r0, [sp, #4]
	.loc 12 7 0
	ldr	r3, [sp, #4]
	mov	r0, r3
	add	sp, sp, #8
	bx	lr
	.cfi_endproc
.LFE2585:
	.size	_ZN2UIC1Ev, .-_ZN2UIC1Ev
	.section	.text._ZN2UID1Ev,"axG",%progbits,_ZN2UID1Ev,comdat
	.align	2
	.weak	_ZN2UID1Ev
	.hidden	_ZN2UID1Ev
	.type	_ZN2UID1Ev, %function
_ZN2UID1Ev:
.LFB2588:
	.loc 12 8 0
	.cfi_startproc
	@ args = 0, pretend = 0, frame = 8
	@ frame_needed = 0, uses_anonymous_args = 0
	@ link register save eliminated.
	sub	sp, sp, #8
.LCFI29:
	.cfi_def_cfa_offset 8
	str	r0, [sp, #4]
	.loc 12 8 0
	ldr	r3, [sp, #4]
	mov	r0, r3
	add	sp, sp, #8
	bx	lr
	.cfi_endproc
.LFE2588:
	.size	_ZN2UID1Ev, .-_ZN2UID1Ev
	.section	.text._ZN4_STL11char_traitsIcE11to_int_typeERKc,"axG",%progbits,_ZN4_STL11char_traitsIcE11to_int_typeERKc,comdat
	.align	2
	.weak	_ZN4_STL11char_traitsIcE11to_int_typeERKc
	.hidden	_ZN4_STL11char_traitsIcE11to_int_typeERKc
	.type	_ZN4_STL11char_traitsIcE11to_int_typeERKc, %function
_ZN4_STL11char_traitsIcE11to_int_typeERKc:
.LFB2618:
	.file 13 "c:/marmalade/6.2/s3e/h/std/c++/stl/char_traits.h"
	.loc 13 231 0
	.cfi_startproc
	@ args = 0, pretend = 0, frame = 8
	@ frame_needed = 0, uses_anonymous_args = 0
	@ link register save eliminated.
	sub	sp, sp, #8
.LCFI30:
	.cfi_def_cfa_offset 8
	str	r0, [sp, #4]
	.loc 13 232 0
	ldr	r3, [sp, #4]
	ldrb	r3, [r3, #0]	@ zero_extendqisi2
	.loc 13 233 0
	mov	r0, r3
	add	sp, sp, #8
	bx	lr
	.cfi_endproc
.LFE2618:
	.size	_ZN4_STL11char_traitsIcE11to_int_typeERKc, .-_ZN4_STL11char_traitsIcE11to_int_typeERKc
	.section	.text._ZN4_STL11char_traitsIcE6lengthEPKc,"axG",%progbits,_ZN4_STL11char_traitsIcE6lengthEPKc,comdat
	.align	2
	.weak	_ZN4_STL11char_traitsIcE6lengthEPKc
	.hidden	_ZN4_STL11char_traitsIcE6lengthEPKc
	.type	_ZN4_STL11char_traitsIcE6lengthEPKc, %function
_ZN4_STL11char_traitsIcE6lengthEPKc:
.LFB2620:
	.loc 13 238 0
	.cfi_startproc
	@ args = 0, pretend = 0, frame = 8
	@ frame_needed = 0, uses_anonymous_args = 0
	str	lr, [sp, #-4]!
.LCFI31:
	.cfi_def_cfa_offset 4
	sub	sp, sp, #12
.LCFI32:
	.cfi_def_cfa_offset 16
	str	r0, [sp, #4]
	.loc 13 238 0
	ldr	r0, [sp, #4]
	.cfi_offset 14, -4
	bl	strlen
	mov	r3, r0
	mov	r0, r3
	add	sp, sp, #12
	ldmfd	sp!, {pc}
	.cfi_endproc
.LFE2620:
	.size	_ZN4_STL11char_traitsIcE6lengthEPKc, .-_ZN4_STL11char_traitsIcE6lengthEPKc
	.section	.text._ZNK4_STL5ctypeIcE5widenEc,"axG",%progbits,_ZNK4_STL5ctypeIcE5widenEc,comdat
	.align	2
	.weak	_ZNK4_STL5ctypeIcE5widenEc
	.hidden	_ZNK4_STL5ctypeIcE5widenEc
	.type	_ZNK4_STL5ctypeIcE5widenEc, %function
_ZNK4_STL5ctypeIcE5widenEc:
.LFB3008:
	.file 14 "c:/marmalade/6.2/s3e/h/std/c++/stl/_ctype.h"
	.loc 14 102 0
	.cfi_startproc
	@ args = 0, pretend = 0, frame = 8
	@ frame_needed = 0, uses_anonymous_args = 0
	str	lr, [sp, #-4]!
.LCFI33:
	.cfi_def_cfa_offset 4
	sub	sp, sp, #12
.LCFI34:
	.cfi_def_cfa_offset 16
	str	r0, [sp, #4]
	mov	r3, r1
	strb	r3, [sp, #3]
	.loc 14 102 0
	ldr	r3, [sp, #4]
	ldr	r3, [r3, #0]
	add	r3, r3, #24
	ldr	r3, [r3, #0]
	ldrb	r2, [sp, #3]	@ zero_extendqisi2
	ldr	r0, [sp, #4]
	mov	r1, r2
	.cfi_offset 14, -4
	blx	r3
	mov	r3, r0
	mov	r0, r3
	add	sp, sp, #12
	ldmfd	sp!, {pc}
	.cfi_endproc
.LFE3008:
	.size	_ZNK4_STL5ctypeIcE5widenEc, .-_ZNK4_STL5ctypeIcE5widenEc
	.section	.text._ZNK4_STL8ios_base5flagsEv,"axG",%progbits,_ZNK4_STL8ios_base5flagsEv,comdat
	.align	2
	.weak	_ZNK4_STL8ios_base5flagsEv
	.hidden	_ZNK4_STL8ios_base5flagsEv
	.type	_ZNK4_STL8ios_base5flagsEv, %function
_ZNK4_STL8ios_base5flagsEv:
.LFB3056:
	.file 15 "c:/marmalade/6.2/s3e/h/std/c++/stl/_ios_base.h"
	.loc 15 115 0
	.cfi_startproc
	@ args = 0, pretend = 0, frame = 8
	@ frame_needed = 0, uses_anonymous_args = 0
	@ link register save eliminated.
	sub	sp, sp, #8
.LCFI35:
	.cfi_def_cfa_offset 8
	str	r0, [sp, #4]
	.loc 15 115 0
	ldr	r3, [sp, #4]
	ldr	r3, [r3, #4]
	mov	r0, r3
	add	sp, sp, #8
	bx	lr
	.cfi_endproc
.LFE3056:
	.size	_ZNK4_STL8ios_base5flagsEv, .-_ZNK4_STL8ios_base5flagsEv
	.section	.text._ZNK4_STL8ios_base5widthEv,"axG",%progbits,_ZNK4_STL8ios_base5widthEv,comdat
	.align	2
	.weak	_ZNK4_STL8ios_base5widthEv
	.hidden	_ZNK4_STL8ios_base5widthEv
	.type	_ZNK4_STL8ios_base5widthEv, %function
_ZNK4_STL8ios_base5widthEv:
.LFB3063:
	.loc 15 142 0
	.cfi_startproc
	@ args = 0, pretend = 0, frame = 8
	@ frame_needed = 0, uses_anonymous_args = 0
	@ link register save eliminated.
	sub	sp, sp, #8
.LCFI36:
	.cfi_def_cfa_offset 8
	str	r0, [sp, #4]
	.loc 15 142 0
	ldr	r3, [sp, #4]
	ldr	r3, [r3, #28]
	mov	r0, r3
	add	sp, sp, #8
	bx	lr
	.cfi_endproc
.LFE3063:
	.size	_ZNK4_STL8ios_base5widthEv, .-_ZNK4_STL8ios_base5widthEv
	.section	.text._ZN4_STL8ios_base5widthEi,"axG",%progbits,_ZN4_STL8ios_base5widthEi,comdat
	.align	2
	.weak	_ZN4_STL8ios_base5widthEi
	.hidden	_ZN4_STL8ios_base5widthEi
	.type	_ZN4_STL8ios_base5widthEi, %function
_ZN4_STL8ios_base5widthEi:
.LFB3064:
	.loc 15 143 0
	.cfi_startproc
	@ args = 0, pretend = 0, frame = 16
	@ frame_needed = 0, uses_anonymous_args = 0
	@ link register save eliminated.
	sub	sp, sp, #16
.LCFI37:
	.cfi_def_cfa_offset 16
	str	r0, [sp, #4]
	str	r1, [sp, #0]
.LBB2:
	.loc 15 144 0
	ldr	r3, [sp, #4]
	ldr	r3, [r3, #28]
	str	r3, [sp, #12]
	.loc 15 145 0
	ldr	r3, [sp, #4]
	ldr	r2, [sp, #0]
	str	r2, [r3, #28]
	.loc 15 146 0
	ldr	r3, [sp, #12]
.LBE2:
	.loc 15 147 0
	mov	r0, r3
	add	sp, sp, #16
	bx	lr
	.cfi_endproc
.LFE3064:
	.size	_ZN4_STL8ios_base5widthEi, .-_ZN4_STL8ios_base5widthEi
	.section	.text._ZNK4_STL8ios_base7rdstateEv,"axG",%progbits,_ZNK4_STL8ios_base7rdstateEv,comdat
	.align	2
	.weak	_ZNK4_STL8ios_base7rdstateEv
	.hidden	_ZNK4_STL8ios_base7rdstateEv
	.type	_ZNK4_STL8ios_base7rdstateEv, %function
_ZNK4_STL8ios_base7rdstateEv:
.LFB3068:
	.loc 15 178 0
	.cfi_startproc
	@ args = 0, pretend = 0, frame = 8
	@ frame_needed = 0, uses_anonymous_args = 0
	@ link register save eliminated.
	sub	sp, sp, #8
.LCFI38:
	.cfi_def_cfa_offset 8
	str	r0, [sp, #4]
	.loc 15 178 0
	ldr	r3, [sp, #4]
	ldr	r3, [r3, #8]
	mov	r0, r3
	add	sp, sp, #8
	bx	lr
	.cfi_endproc
.LFE3068:
	.size	_ZNK4_STL8ios_base7rdstateEv, .-_ZNK4_STL8ios_base7rdstateEv
	.section	.text._ZNK4_STL8ios_base4goodEv,"axG",%progbits,_ZNK4_STL8ios_base4goodEv,comdat
	.align	2
	.weak	_ZNK4_STL8ios_base4goodEv
	.hidden	_ZNK4_STL8ios_base4goodEv
	.type	_ZNK4_STL8ios_base4goodEv, %function
_ZNK4_STL8ios_base4goodEv:
.LFB3069:
	.loc 15 180 0
	.cfi_startproc
	@ args = 0, pretend = 0, frame = 8
	@ frame_needed = 0, uses_anonymous_args = 0
	@ link register save eliminated.
	sub	sp, sp, #8
.LCFI39:
	.cfi_def_cfa_offset 8
	str	r0, [sp, #4]
	.loc 15 180 0
	ldr	r3, [sp, #4]
	ldr	r3, [r3, #8]
	cmp	r3, #0
	movne	r3, #0
	moveq	r3, #1
	and	r3, r3, #255
	mov	r0, r3
	add	sp, sp, #8
	bx	lr
	.cfi_endproc
.LFE3069:
	.size	_ZNK4_STL8ios_base4goodEv, .-_ZNK4_STL8ios_base4goodEv
	.section	.text._ZN4_STL8ios_base16_M_clear_nothrowEi,"axG",%progbits,_ZN4_STL8ios_base16_M_clear_nothrowEi,comdat
	.align	2
	.weak	_ZN4_STL8ios_base16_M_clear_nothrowEi
	.hidden	_ZN4_STL8ios_base16_M_clear_nothrowEi
	.type	_ZN4_STL8ios_base16_M_clear_nothrowEi, %function
_ZN4_STL8ios_base16_M_clear_nothrowEi:
.LFB3074:
	.loc 15 194 0
	.cfi_startproc
	@ args = 0, pretend = 0, frame = 8
	@ frame_needed = 0, uses_anonymous_args = 0
	@ link register save eliminated.
	sub	sp, sp, #8
.LCFI40:
	.cfi_def_cfa_offset 8
	str	r0, [sp, #4]
	str	r1, [sp, #0]
	.loc 15 194 0
	ldr	r3, [sp, #4]
	ldr	r2, [sp, #0]
	str	r2, [r3, #8]
	add	sp, sp, #8
	bx	lr
	.cfi_endproc
.LFE3074:
	.size	_ZN4_STL8ios_base16_M_clear_nothrowEi, .-_ZN4_STL8ios_base16_M_clear_nothrowEi
	.section	.text._ZN4_STL8ios_base23_M_check_exception_maskEv,"axG",%progbits,_ZN4_STL8ios_base23_M_check_exception_maskEv,comdat
	.align	2
	.weak	_ZN4_STL8ios_base23_M_check_exception_maskEv
	.hidden	_ZN4_STL8ios_base23_M_check_exception_maskEv
	.type	_ZN4_STL8ios_base23_M_check_exception_maskEv, %function
_ZN4_STL8ios_base23_M_check_exception_maskEv:
.LFB3077:
	.loc 15 197 0
	.cfi_startproc
	@ args = 0, pretend = 0, frame = 8
	@ frame_needed = 0, uses_anonymous_args = 0
	str	lr, [sp, #-4]!
.LCFI41:
	.cfi_def_cfa_offset 4
	sub	sp, sp, #12
.LCFI42:
	.cfi_def_cfa_offset 16
	str	r0, [sp, #4]
	.loc 15 198 0
	ldr	r3, [sp, #4]
	ldr	r2, [r3, #8]
	ldr	r3, [sp, #4]
	ldr	r3, [r3, #20]
	and	r3, r2, r3
	cmp	r3, #0
	beq	.L85
	.cfi_offset 14, -4
	.loc 15 199 0
	ldr	r0, [sp, #4]
	bl	_ZN4_STL8ios_base16_M_throw_failureEv
.L85:
	.loc 15 200 0
	add	sp, sp, #12
	ldmfd	sp!, {pc}
	.cfi_endproc
.LFE3077:
	.size	_ZN4_STL8ios_base23_M_check_exception_maskEv, .-_ZN4_STL8ios_base23_M_check_exception_maskEv
	.section	.text._ZNK4_STL8ios_base14_M_ctype_facetEv,"axG",%progbits,_ZNK4_STL8ios_base14_M_ctype_facetEv,comdat
	.align	2
	.weak	_ZNK4_STL8ios_base14_M_ctype_facetEv
	.hidden	_ZNK4_STL8ios_base14_M_ctype_facetEv
	.type	_ZNK4_STL8ios_base14_M_ctype_facetEv, %function
_ZNK4_STL8ios_base14_M_ctype_facetEv:
.LFB3078:
	.loc 15 250 0
	.cfi_startproc
	@ args = 0, pretend = 0, frame = 8
	@ frame_needed = 0, uses_anonymous_args = 0
	@ link register save eliminated.
	sub	sp, sp, #8
.LCFI43:
	.cfi_def_cfa_offset 8
	str	r0, [sp, #4]
	.loc 15 250 0
	ldr	r3, [sp, #4]
	ldr	r3, [r3, #64]
	mov	r0, r3
	add	sp, sp, #8
	bx	lr
	.cfi_endproc
.LFE3078:
	.size	_ZNK4_STL8ios_base14_M_ctype_facetEv, .-_ZNK4_STL8ios_base14_M_ctype_facetEv
	.bss
	.align	2
_ZN4_STLL8_LocInitE:
	.space	1
	.align	2
_ZN4_STLL8_IosInitE:
	.space	1
	.section	.text._ZN5MusicD1Ev,"axG",%progbits,_ZN5MusicD1Ev,comdat
	.align	2
	.weak	_ZN5MusicD1Ev
	.hidden	_ZN5MusicD1Ev
	.type	_ZN5MusicD1Ev, %function
_ZN5MusicD1Ev:
.LFB3470:
	.file 16 "c:/users/1106786/dropbox/dropbox/pg life/project impact/code/demos/demo_5_puzzle_gameplayflow/h/music.h"
	.loc 16 5 0
	.cfi_startproc
	@ args = 0, pretend = 0, frame = 8
	@ frame_needed = 0, uses_anonymous_args = 0
	str	lr, [sp, #-4]!
.LCFI44:
	.cfi_def_cfa_offset 4
	sub	sp, sp, #12
.LCFI45:
	.cfi_def_cfa_offset 16
	str	r0, [sp, #4]
	.loc 16 5 0
	ldr	r3, [sp, #4]
	ldr	r2, .L92
	str	r2, [r3, #0]
	ldr	r3, [sp, #4]
	mov	r0, r3
	.cfi_offset 14, -4
	bl	_ZN5AudioD2Ev
	mov	r3, #0
	and	r3, r3, #255
	cmp	r3, #0
	beq	.L90
	ldr	r0, [sp, #4]
	bl	_ZdlPv
.L90:
	ldr	r3, [sp, #4]
	mov	r0, r3
	add	sp, sp, #12
	ldmfd	sp!, {pc}
.L93:
	.align	2
.L92:
	.word	_ZTV5Music+8
	.cfi_endproc
.LFE3470:
	.size	_ZN5MusicD1Ev, .-_ZN5MusicD1Ev
	.section	.text._ZN5MusicD0Ev,"axG",%progbits,_ZN5MusicD0Ev,comdat
	.align	2
	.weak	_ZN5MusicD0Ev
	.hidden	_ZN5MusicD0Ev
	.type	_ZN5MusicD0Ev, %function
_ZN5MusicD0Ev:
.LFB3471:
	.loc 16 5 0
	.cfi_startproc
	@ args = 0, pretend = 0, frame = 8
	@ frame_needed = 0, uses_anonymous_args = 0
	str	lr, [sp, #-4]!
.LCFI46:
	.cfi_def_cfa_offset 4
	sub	sp, sp, #12
.LCFI47:
	.cfi_def_cfa_offset 16
	str	r0, [sp, #4]
	.loc 16 5 0
	ldr	r3, [sp, #4]
	ldr	r2, .L98
	str	r2, [r3, #0]
	ldr	r3, [sp, #4]
	mov	r0, r3
	.cfi_offset 14, -4
	bl	_ZN5AudioD2Ev
	mov	r3, #1
	and	r3, r3, #255
	cmp	r3, #0
	beq	.L96
	ldr	r0, [sp, #4]
	bl	_ZdlPv
.L96:
	ldr	r3, [sp, #4]
	mov	r0, r3
	add	sp, sp, #12
	ldmfd	sp!, {pc}
.L99:
	.align	2
.L98:
	.word	_ZTV5Music+8
	.cfi_endproc
.LFE3471:
	.size	_ZN5MusicD0Ev, .-_ZN5MusicD0Ev
	.section	.text._ZN5CGameD2Ev,"ax",%progbits
	.align	2
	.global	_ZN5CGameD2Ev
	.hidden	_ZN5CGameD2Ev
	.type	_ZN5CGameD2Ev, %function
_ZN5CGameD2Ev:
.LFB3472:
	.file 17 "c:/users/1106786/dropbox/dropbox/pg life/project impact/code/demos/demo_5_puzzle_gameplayflow/src/game.cpp"
	.loc 17 8 0
	.cfi_startproc
	@ args = 0, pretend = 0, frame = 8
	@ frame_needed = 0, uses_anonymous_args = 0
	stmfd	sp!, {r4, lr}
.LCFI48:
	.cfi_def_cfa_offset 8
	sub	sp, sp, #8
.LCFI49:
	.cfi_def_cfa_offset 16
	str	r0, [sp, #4]
	.loc 17 10 0
	ldr	r3, [sp, #4]
	ldr	r4, [r3, #0]
	.cfi_offset 14, -4
	.cfi_offset 4, -8
	cmp	r4, #0
	beq	.L101
	mov	r0, r4
	bl	_ZN3MapD1Ev
	mov	r0, r4
	bl	_ZdlPv
.L101:
	.loc 17 11 0
	ldr	r3, [sp, #4]
	ldr	r4, [r3, #4]
	cmp	r4, #0
	beq	.L102
	mov	r0, r4
	bl	_ZN9CharacterD1Ev
	mov	r0, r4
	bl	_ZdlPv
.L102:
	.loc 17 12 0
	ldr	r3, [sp, #4]
	ldr	r3, [r3, #8]
	cmp	r3, #0
	beq	.L103
	ldr	r3, [sp, #4]
	ldr	r3, [r3, #8]
	ldr	r3, [r3, #0]
	add	r3, r3, #4
	ldr	r3, [r3, #0]
	ldr	r2, [sp, #4]
	ldr	r2, [r2, #8]
	mov	r0, r2
	blx	r3
.L103:
	.loc 17 13 0
	ldr	r3, [sp, #4]
	ldr	r4, [r3, #12]
	cmp	r4, #0
	beq	.L104
	mov	r0, r4
	bl	_ZN2SED1Ev
	mov	r0, r4
	bl	_ZdlPv
.L104:
	.loc 17 14 0
	ldr	r3, [sp, #4]
	ldr	r4, [r3, #16]
	cmp	r4, #0
	beq	.L105
	mov	r0, r4
	bl	_ZN2UID1Ev
	mov	r0, r4
	bl	_ZdlPv
.L105:
	.loc 17 15 0
	ldr	r3, [sp, #4]
	mov	r0, r3
	add	sp, sp, #8
	ldmfd	sp!, {r4, pc}
	.cfi_endproc
.LFE3472:
	.size	_ZN5CGameD2Ev, .-_ZN5CGameD2Ev
	.section	.text._ZN5CGameD1Ev,"ax",%progbits
	.align	2
	.global	_ZN5CGameD1Ev
	.hidden	_ZN5CGameD1Ev
	.type	_ZN5CGameD1Ev, %function
_ZN5CGameD1Ev:
.LFB3473:
	.loc 17 8 0
	.cfi_startproc
	@ args = 0, pretend = 0, frame = 8
	@ frame_needed = 0, uses_anonymous_args = 0
	stmfd	sp!, {r4, lr}
.LCFI50:
	.cfi_def_cfa_offset 8
	sub	sp, sp, #8
.LCFI51:
	.cfi_def_cfa_offset 16
	str	r0, [sp, #4]
	.loc 17 10 0
	ldr	r3, [sp, #4]
	ldr	r4, [r3, #0]
	.cfi_offset 14, -4
	.cfi_offset 4, -8
	cmp	r4, #0
	beq	.L108
	mov	r0, r4
	bl	_ZN3MapD1Ev
	mov	r0, r4
	bl	_ZdlPv
.L108:
	.loc 17 11 0
	ldr	r3, [sp, #4]
	ldr	r4, [r3, #4]
	cmp	r4, #0
	beq	.L109
	mov	r0, r4
	bl	_ZN9CharacterD1Ev
	mov	r0, r4
	bl	_ZdlPv
.L109:
	.loc 17 12 0
	ldr	r3, [sp, #4]
	ldr	r3, [r3, #8]
	cmp	r3, #0
	beq	.L110
	ldr	r3, [sp, #4]
	ldr	r3, [r3, #8]
	ldr	r3, [r3, #0]
	add	r3, r3, #4
	ldr	r3, [r3, #0]
	ldr	r2, [sp, #4]
	ldr	r2, [r2, #8]
	mov	r0, r2
	blx	r3
.L110:
	.loc 17 13 0
	ldr	r3, [sp, #4]
	ldr	r4, [r3, #12]
	cmp	r4, #0
	beq	.L111
	mov	r0, r4
	bl	_ZN2SED1Ev
	mov	r0, r4
	bl	_ZdlPv
.L111:
	.loc 17 14 0
	ldr	r3, [sp, #4]
	ldr	r4, [r3, #16]
	cmp	r4, #0
	beq	.L112
	mov	r0, r4
	bl	_ZN2UID1Ev
	mov	r0, r4
	bl	_ZdlPv
.L112:
	.loc 17 15 0
	ldr	r3, [sp, #4]
	mov	r0, r3
	add	sp, sp, #8
	ldmfd	sp!, {r4, pc}
	.cfi_endproc
.LFE3473:
	.size	_ZN5CGameD1Ev, .-_ZN5CGameD1Ev
	.section	.text._ZN5MusicC1Ev,"axG",%progbits,_ZN5MusicC1Ev,comdat
	.align	2
	.weak	_ZN5MusicC1Ev
	.hidden	_ZN5MusicC1Ev
	.type	_ZN5MusicC1Ev, %function
_ZN5MusicC1Ev:
.LFB3477:
	.loc 16 5 0
	.cfi_startproc
	@ args = 0, pretend = 0, frame = 8
	@ frame_needed = 0, uses_anonymous_args = 0
	str	lr, [sp, #-4]!
.LCFI52:
	.cfi_def_cfa_offset 4
	sub	sp, sp, #12
.LCFI53:
	.cfi_def_cfa_offset 16
	str	r0, [sp, #4]
	.loc 16 5 0
	ldr	r3, [sp, #4]
	mov	r0, r3
	.cfi_offset 14, -4
	bl	_ZN5AudioC2Ev
	ldr	r3, [sp, #4]
	ldr	r2, .L117
	str	r2, [r3, #0]
	ldr	r3, [sp, #4]
	mov	r0, r3
	add	sp, sp, #12
	ldmfd	sp!, {pc}
.L118:
	.align	2
.L117:
	.word	_ZTV5Music+8
	.cfi_endproc
.LFE3477:
	.size	_ZN5MusicC1Ev, .-_ZN5MusicC1Ev
	.section	.rodata
	.align	2
.LC0:
	.ascii	"lpha 8 - Lobby.json\000"
	.align	2
.LC1:
	.ascii	"audios/music_placeholder.mp3\000"
	.align	2
.LC2:
	.ascii	"footstep_L1\000"
	.align	2
.LC3:
	.ascii	"footstep_R1\000"
	.section	.text._ZN5CGame7LoadResEv,"ax",%progbits
	.align	2
	.global	_ZN5CGame7LoadResEv
	.hidden	_ZN5CGame7LoadResEv
	.type	_ZN5CGame7LoadResEv, %function
_ZN5CGame7LoadResEv:
.LFB3474:
	.loc 17 18 0
	.cfi_startproc
	@ args = 0, pretend = 0, frame = 8
	@ frame_needed = 0, uses_anonymous_args = 0
	stmfd	sp!, {r4, lr}
.LCFI54:
	.cfi_def_cfa_offset 8
	sub	sp, sp, #8
.LCFI55:
	.cfi_def_cfa_offset 16
	str	r0, [sp, #4]
	.loc 17 20 0
	mov	r0, #132
	.cfi_offset 14, -4
	.cfi_offset 4, -8
	bl	_Znwj
	mov	r3, r0
	mov	r4, r3
	mov	r3, r4
	mov	r0, r3
	bl	_ZN3MapC1Ev
	mov	r2, r4
	ldr	r3, [sp, #4]
	str	r2, [r3, #0]
	.loc 17 21 0
	mov	r0, #56
	bl	_Znwj
	mov	r3, r0
	mov	r4, r3
	mov	r3, r4
	mov	r0, r3
	bl	_ZN9CharacterC1Ev
	mov	r2, r4
	ldr	r3, [sp, #4]
	str	r2, [r3, #4]
	.loc 17 22 0
	mov	r0, #32
	bl	_Znwj
	mov	r3, r0
	mov	r4, r3
	mov	r3, r4
	mov	r0, r3
	bl	_ZN5MusicC1Ev
	mov	r2, r4
	ldr	r3, [sp, #4]
	str	r2, [r3, #8]
	.loc 17 23 0
	mov	r0, #24
	bl	_Znwj
	mov	r3, r0
	mov	r4, r3
	mov	r3, r4
	mov	r0, r3
	bl	_ZN2SEC1Ev
	mov	r2, r4
	ldr	r3, [sp, #4]
	str	r2, [r3, #12]
	.loc 17 24 0
	mov	r0, #20
	bl	_Znwj
	mov	r3, r0
	mov	r4, r3
	mov	r3, r4
	mov	r0, r3
	bl	_ZN2UIC1Ev
	mov	r2, r4
	ldr	r3, [sp, #4]
	str	r2, [r3, #16]
	.loc 17 26 0
	ldr	r3, [sp, #4]
	ldr	r3, [r3, #0]
	mov	r0, r3
	ldr	r1, .L121
	bl	_ZN3Map4LoadEPc
	.loc 17 28 0
	ldr	r3, [sp, #4]
	ldr	r3, [r3, #4]
	mov	r0, r3
	bl	_ZN9Character4LoadEv
	.loc 17 30 0
	ldr	r3, [sp, #4]
	ldr	r3, [r3, #8]
	mov	r0, r3
	ldr	r1, .L121+4
	bl	_ZN5Audio4InitEPc
	.loc 17 32 0
	ldr	r3, [sp, #4]
	ldr	r3, [r3, #12]
	mov	r0, r3
	ldr	r1, .L121+8
	ldr	r2, .L121+12
	bl	_ZN2SE4InitEPcS0_
	.loc 17 33 0
	ldr	r3, [sp, #4]
	ldr	r3, [r3, #16]
	mov	r0, r3
	bl	_ZN2UI4LoadEv
	.loc 17 34 0
	add	sp, sp, #8
	ldmfd	sp!, {r4, pc}
.L122:
	.align	2
.L121:
	.word	.LC0
	.word	.LC1
	.word	.LC2
	.word	.LC3
	.cfi_endproc
.LFE3474:
	.size	_ZN5CGame7LoadResEv, .-_ZN5CGame7LoadResEv
	.section	.rodata
	.align	2
.LC4:
	.ascii	"Touched\000"
	.align	2
.LC5:
	.ascii	"error Audio support\000"
	.section	.text._ZN5CGame6UpdateEi,"ax",%progbits
	.align	2
	.global	_ZN5CGame6UpdateEi
	.hidden	_ZN5CGame6UpdateEi
	.type	_ZN5CGame6UpdateEi, %function
_ZN5CGame6UpdateEi:
.LFB3478:
	.loc 17 37 0
	.cfi_startproc
	@ args = 0, pretend = 0, frame = 72
	@ frame_needed = 0, uses_anonymous_args = 0
	stmfd	sp!, {r4, lr}
.LCFI56:
	.cfi_def_cfa_offset 8
	fstmfdd	sp!, {d8}
.LCFI57:
	.cfi_def_cfa_offset 16
	sub	sp, sp, #88
.LCFI58:
	.cfi_def_cfa_offset 104
	str	r0, [sp, #28]
	str	r1, [sp, #24]
.LBB3:
	.loc 17 38 0
	ldr	r0, [sp, #24]
	.cfi_offset 80, -16
	.cfi_offset 14, -4
	.cfi_offset 4, -8
	bl	_Z11UpdateInputi
	.loc 17 39 0
	ldr	r3, [sp, #28]
	ldr	r3, [r3, #16]
	mov	r0, r3
	bl	_ZN2UI9IsTouchedEv
	mov	r3, r0
	cmp	r3, #0
	beq	.L124
	.loc 17 40 0
	ldr	r0, .L138+4
	ldr	r1, .L138+8
	bl	_ZN4_STLlsINS_11char_traitsIcEEEERNS_13basic_ostreamIcT_EES6_PKc
	mov	r3, r0
	mov	r0, r3
	ldr	r1, .L138+12
	bl	_ZN4_STL13basic_ostreamIcNS_11char_traitsIcEEElsEPFRS3_S4_E
.L124:
	.loc 17 42 0
	bl	_Z17IwGetSoundManagerv
	mov	r3, r0
	mov	r0, r3
	bl	_ZN15CIwSoundManager6UpdateEv
	.loc 17 44 0
	ldr	r3, [sp, #28]
	ldr	r3, [r3, #8]
	mov	r0, r3
	mov	r1, #0
	bl	_ZN5Audio6UpdateEb
	mov	r3, r0
	eor	r3, r3, #1
	and	r3, r3, #255
	cmp	r3, #0
	beq	.L125
	.loc 17 45 0
	mov	r0, #300
	mov	r1, #100
	ldr	r2, .L138+24
	mov	r3, #0
	bl	s3eDebugPrint
.L125:
	.loc 17 48 0
	ldr	r3, .L138+16
	ldr	r3, [r3, #0]
	cmp	r3, #2
	bne	.L126
	.loc 17 51 0
	ldr	r3, [sp, #28]
	ldr	r3, [r3, #4]
	add	r4, r3, #32
	add	r3, sp, #48
	mov	r0, r3
	mov	r1, #2
	bl	_Z10GetTouches15s3ePointerState
	add	r3, sp, #48
	mov	r0, r4
	mov	r1, r3
	bl	_ZN8CIwFVec2aSERKS_
	.loc 17 52 0
	ldr	r3, [sp, #28]
	ldr	r3, [r3, #4]
	mov	r4, r3
	ldr	r3, [sp, #28]
	ldr	r3, [r3, #4]
	add	r2, r3, #32
	ldr	r3, [sp, #28]
	ldr	r3, [r3, #0]
	add	r1, sp, #56
	mov	r0, r1
	mov	r1, r2
	mov	r2, r3
	bl	_ZNK8CIwFVec2plERKS_
	add	r3, sp, #56
	mov	r0, r4
	mov	r1, r3
	bl	_ZN8CIwFVec2aSERKS_
.L126:
	.loc 17 55 0
	ldr	r3, [sp, #28]
	ldr	r2, [r3, #0]
	ldr	r3, [sp, #28]
	ldr	r3, [r3, #4]
	mov	r0, r2
	add	r3, r3, #8
	ldmia	r3, {r1, r2}
	bl	_ZN3Map10CheckBlockE8CIwFVec2
	mov	r3, r0
	cmp	r3, #0
	bne	.L137
.L127:
	.loc 17 57 0
	ldr	r3, [sp, #28]
	ldr	r3, [r3, #4]
	mov	r0, r3
	bl	_ZN9Character19GetDistanceToTargetEv
	fmsr	s14, r0
	flds	s15, .L138
	fcmpes	s14, s15
	fmstat
	movle	r3, #0
	movgt	r3, #1
	and	r3, r3, #255
	cmp	r3, #0
	beq	.L129
	.loc 17 60 0
	ldr	r3, [sp, #28]
	ldr	r3, [r3, #0]
	mov	r0, r3
	bl	_ZN3Map12CheckMapEdgeEv
	mov	r3, r0
	eor	r3, r3, #1
	and	r3, r3, #255
	cmp	r3, #0
	beq	.L130
	.loc 17 61 0
	ldr	r3, [sp, #28]
	ldr	r3, [r3, #4]
	mov	r2, r3
	ldr	r3, [sp, #28]
	ldr	r3, [r3, #4]
	add	r3, r3, #8
	mov	r0, r2
	mov	r1, r3
	bl	_ZN8CIwFVec2aSERKS_
	b	.L129
.L139:
	.align	2
.L138:
	.word	1065353216
	.word	_ZN4_STL4coutE
	.word	.LC4
	.word	_ZN4_STL4endlIcNS_11char_traitsIcEEEERNS_13basic_ostreamIT_T0_EES7_
	.word	current_States
	.word	1028443341
	.word	.LC5
.L130:
.LBB4:
	.loc 17 65 0
	ldr	r3, [sp, #28]
	ldr	r3, [r3, #4]
	flds	s14, [r3, #0]
	ldr	r3, [sp, #28]
	ldr	r3, [r3, #4]
	flds	s13, [r3, #8]
	ldr	r3, [sp, #28]
	ldr	r3, [r3, #0]
	flds	s15, [r3, #0]
	fsubs	s15, s13, s15
	fcmpes	s14, s15
	fmstat
	movpl	r3, #0
	movmi	r3, #1
	and	r3, r3, #255
	cmp	r3, #0
	beq	.L131
	.loc 17 66 0
	ldr	r3, [sp, #28]
	ldr	r3, [r3, #4]
	ldr	r2, [sp, #28]
	ldr	r2, [r2, #4]
	flds	s14, [r2, #8]
	ldr	r2, [sp, #28]
	ldr	r2, [r2, #0]
	flds	s15, [r2, #0]
	fsubs	s15, s14, s15
	fsts	s15, [r3, #0]
.L131:
	.loc 17 67 0
	ldr	r3, [sp, #28]
	ldr	r3, [r3, #4]
	flds	s14, [r3, #4]
	ldr	r3, [sp, #28]
	ldr	r3, [r3, #4]
	flds	s13, [r3, #12]
	ldr	r3, [sp, #28]
	ldr	r3, [r3, #0]
	flds	s15, [r3, #4]
	fsubs	s15, s13, s15
	fcmpes	s14, s15
	fmstat
	movpl	r3, #0
	movmi	r3, #1
	and	r3, r3, #255
	cmp	r3, #0
	beq	.L132
	.loc 17 68 0
	ldr	r3, [sp, #28]
	ldr	r3, [r3, #4]
	ldr	r2, [sp, #28]
	ldr	r2, [r2, #4]
	flds	s14, [r2, #12]
	ldr	r2, [sp, #28]
	ldr	r2, [r2, #0]
	flds	s15, [r2, #4]
	fsubs	s15, s14, s15
	fsts	s15, [r3, #4]
.L132:
	.loc 17 70 0
	ldr	r3, [sp, #28]
	ldr	r3, [r3, #4]
	flds	s16, [r3, #0]
	ldr	r3, [sp, #28]
	ldr	r3, [r3, #4]
	flds	s17, [r3, #8]
	ldr	r3, [sp, #28]
	ldr	r3, [r3, #0]
	mov	r0, r3
	bl	_ZN3Map10GetMapSizeEv
	strh	r0, [sp, #16]	@ movhi
	mov	r3, r0, lsr #16
	strh	r3, [sp, #18]	@ movhi
	ldr	r3, [sp, #16]
	str	r3, [sp, #64]
	ldrh	r3, [sp, #64]
	mov	r3, r3, asl #16
	mov	r3, r3, asr #16
	fmsr	s15, r3	@ int
	fsitos	s15, s15
	fadds	s17, s17, s15
	bl	_Z19Iw2DGetSurfaceWidthv
	fmsr	s15, r0	@ int
	fsitos	s15, s15
	fsubs	s14, s17, s15
	ldr	r3, [sp, #28]
	ldr	r3, [r3, #0]
	flds	s15, [r3, #0]
	fsubs	s15, s14, s15
	fcmpes	s16, s15
	fmstat
	movle	r3, #0
	movgt	r3, #1
	and	r3, r3, #255
	cmp	r3, #0
	beq	.L133
	.loc 17 71 0
	ldr	r3, [sp, #28]
	ldr	r4, [r3, #4]
	ldr	r3, [sp, #28]
	ldr	r3, [r3, #4]
	flds	s16, [r3, #8]
	ldr	r3, [sp, #28]
	ldr	r3, [r3, #0]
	mov	r0, r3
	bl	_ZN3Map10GetMapSizeEv
	strh	r0, [sp, #16]	@ movhi
	mov	r3, r0, lsr #16
	strh	r3, [sp, #18]	@ movhi
	ldr	r3, [sp, #16]
	str	r3, [sp, #68]
	ldrh	r3, [sp, #68]
	mov	r3, r3, asl #16
	mov	r3, r3, asr #16
	fmsr	s15, r3	@ int
	fsitos	s15, s15
	fadds	s16, s16, s15
	bl	_Z19Iw2DGetSurfaceWidthv
	fmsr	s15, r0	@ int
	fsitos	s15, s15
	fsubs	s14, s16, s15
	ldr	r3, [sp, #28]
	ldr	r3, [r3, #0]
	flds	s15, [r3, #0]
	fsubs	s15, s14, s15
	fsts	s15, [r4, #0]
.L133:
	.loc 17 72 0
	ldr	r3, [sp, #28]
	ldr	r3, [r3, #4]
	flds	s16, [r3, #4]
	ldr	r3, [sp, #28]
	ldr	r3, [r3, #4]
	flds	s17, [r3, #12]
	ldr	r3, [sp, #28]
	ldr	r3, [r3, #0]
	mov	r0, r3
	bl	_ZN3Map10GetMapSizeEv
	strh	r0, [sp, #16]	@ movhi
	mov	r3, r0, lsr #16
	strh	r3, [sp, #18]	@ movhi
	ldr	r3, [sp, #16]
	str	r3, [sp, #72]
	ldrh	r3, [sp, #74]
	mov	r3, r3, asl #16
	mov	r3, r3, asr #16
	fmsr	s15, r3	@ int
	fsitos	s15, s15
	fadds	s17, s17, s15
	bl	_Z20Iw2DGetSurfaceHeightv
	fmsr	s15, r0	@ int
	fsitos	s15, s15
	fsubs	s14, s17, s15
	ldr	r3, [sp, #28]
	ldr	r3, [r3, #0]
	flds	s15, [r3, #4]
	fsubs	s15, s14, s15
	fcmpes	s16, s15
	fmstat
	movle	r3, #0
	movgt	r3, #1
	and	r3, r3, #255
	cmp	r3, #0
	beq	.L134
	.loc 17 73 0
	ldr	r3, [sp, #28]
	ldr	r4, [r3, #4]
	ldr	r3, [sp, #28]
	ldr	r3, [r3, #4]
	flds	s16, [r3, #12]
	ldr	r3, [sp, #28]
	ldr	r3, [r3, #0]
	mov	r0, r3
	bl	_ZN3Map10GetMapSizeEv
	strh	r0, [sp, #16]	@ movhi
	mov	r3, r0, lsr #16
	strh	r3, [sp, #18]	@ movhi
	ldr	r3, [sp, #16]
	str	r3, [sp, #76]
	ldrh	r3, [sp, #78]
	mov	r3, r3, asl #16
	mov	r3, r3, asr #16
	fmsr	s15, r3	@ int
	fsitos	s15, s15
	fadds	s16, s16, s15
	bl	_Z20Iw2DGetSurfaceHeightv
	fmsr	s15, r0	@ int
	fsitos	s15, s15
	fsubs	s14, s16, s15
	ldr	r3, [sp, #28]
	ldr	r3, [r3, #0]
	flds	s15, [r3, #4]
	fsubs	s15, s14, s15
	fsts	s15, [r4, #4]
.L134:
	.loc 17 75 0
	ldr	r3, [sp, #28]
	ldr	r3, [r3, #4]
	mov	r2, r3
	ldr	r3, [sp, #28]
	ldr	r3, [r3, #4]
	add	r3, r3, #8
	add	r1, sp, #40
	mov	r0, r1
	mov	r1, r2
	mov	r2, r3
	bl	_ZNK8CIwFVec2miERKS_
	.loc 17 76 0
	add	r2, sp, #32
	add	r3, sp, #40
	mov	r0, r2
	mov	r1, r3
	ldr	r2, .L138+20	@ float
	bl	_ZNK8CIwFVec2mlEf
	.loc 17 78 0
	ldr	r3, [sp, #28]
	ldr	r3, [r3, #4]
	add	r2, r3, #8
	add	r3, sp, #32
	mov	r0, r2
	mov	r1, r3
	bl	_ZN8CIwFVec2pLERKS_
	.loc 17 79 0
	ldr	r3, [sp, #28]
	ldr	r3, [r3, #0]
	mov	r2, r3
	add	r3, sp, #32
	mov	r0, r2
	mov	r1, r3
	bl	_ZN8CIwFVec2pLERKS_
	.loc 17 80 0
	ldr	r3, [sp, #28]
	ldr	r3, [r3, #12]
	mov	r0, r3
	mov	r1, #1
	bl	_ZN2SE6UpdateEb
	mov	r3, r0
	eor	r3, r3, #1
	and	r3, r3, #255
	cmp	r3, #0
	beq	.L135
	.loc 17 81 0
	mov	r0, #300
	mov	r1, #100
	ldr	r2, .L138+24
	mov	r3, #0
	bl	s3eDebugPrint
.L135:
	.loc 17 82 0
	ldr	r3, [sp, #28]
	ldr	ip, [r3, #0]
	ldr	r3, [sp, #28]
	ldr	r2, [r3, #4]
	ldr	r3, [sp, #28]
	ldr	r3, [r3, #4]
	ldr	r1, [sp, #28]
	ldr	r1, [r1, #4]
	mov	r0, r1
	ldr	r1, [sp, #28]
	ldr	r1, [r1, #4]
	str	r0, [sp, #0]
	add	lr, sp, #4
	add	r1, r1, #16
	ldmia	r1, {r0, r1}
	stmia	lr, {r0, r1}
	mov	r0, ip
	add	r2, r2, #8
	ldmia	r2, {r1, r2}
	ldr	r3, [r3, #40]
	bl	_ZN3Map14CheckCollisionE8CIwFVec28CIwSVec2RS0_S0_
	mov	r3, r0
	cmp	r3, #0
	beq	.L129
	.loc 17 84 0
	ldr	r3, [sp, #28]
	ldr	r3, [r3, #4]
	add	r2, r3, #8
	ldr	r3, [sp, #28]
	ldr	r3, [r3, #4]
	add	r3, r3, #16
	mov	r0, r2
	mov	r1, r3
	bl	_ZN8CIwFVec2aSERKS_
	.loc 17 85 0
	ldr	r3, [sp, #28]
	ldr	r3, [r3, #0]
	mov	r2, r3
	ldr	r3, [sp, #28]
	ldr	r3, [r3, #0]
	add	r3, r3, #8
	mov	r0, r2
	mov	r1, r3
	bl	_ZN8CIwFVec2aSERKS_
.L129:
.LBE4:
	.loc 17 92 0
	ldr	r3, [sp, #28]
	ldr	r3, [r3, #4]
	add	r4, r3, #32
	ldr	r3, [sp, #28]
	ldr	r3, [r3, #4]
	mov	r2, r3
	ldr	r3, [sp, #28]
	ldr	r3, [r3, #0]
	add	r1, sp, #80
	mov	r0, r1
	mov	r1, r2
	mov	r2, r3
	bl	_ZNK8CIwFVec2miERKS_
	add	r3, sp, #80
	mov	r0, r4
	mov	r1, r3
	bl	_ZN8CIwFVec2aSERKS_
	.loc 17 93 0
	ldr	r3, [sp, #28]
	ldr	r3, [r3, #4]
	add	r2, r3, #16
	ldr	r3, [sp, #28]
	ldr	r3, [r3, #4]
	add	r3, r3, #8
	mov	r0, r2
	mov	r1, r3
	bl	_ZN8CIwFVec2aSERKS_
	.loc 17 94 0
	ldr	r3, [sp, #28]
	ldr	r3, [r3, #0]
	add	r2, r3, #8
	ldr	r3, [sp, #28]
	ldr	r3, [r3, #0]
	mov	r0, r2
	mov	r1, r3
	bl	_ZN8CIwFVec2aSERKS_
	b	.L136
.L137:
	.loc 17 56 0
	mov	r0, r0	@ nop
.L136:
.LBE3:
	.loc 17 96 0
	add	sp, sp, #88
	fldmfdd	sp!, {d8}
	ldmfd	sp!, {r4, pc}
	.cfi_endproc
.LFE3478:
	.size	_ZN5CGame6UpdateEi, .-_ZN5CGame6UpdateEi
	.section	.rodata
	.align	2
.LC6:
	.ascii	"MI\000"
	.section	.text._ZN5CGame6RenderEv,"ax",%progbits
	.align	2
	.global	_ZN5CGame6RenderEv
	.hidden	_ZN5CGame6RenderEv
	.type	_ZN5CGame6RenderEv, %function
_ZN5CGame6RenderEv:
.LFB3479:
	.loc 17 100 0
	.cfi_startproc
	@ args = 0, pretend = 0, frame = 8
	@ frame_needed = 0, uses_anonymous_args = 0
	str	lr, [sp, #-4]!
.LCFI59:
	.cfi_def_cfa_offset 4
	sub	sp, sp, #12
.LCFI60:
	.cfi_def_cfa_offset 16
	str	r0, [sp, #4]
	.loc 17 102 0
	ldr	r0, .L142
	.cfi_offset 14, -4
	bl	_Z16Iw2DSurfaceClearj
	.loc 17 103 0
	mvn	r0, #0
	bl	_Z13Iw2DSetColourj
	.loc 17 104 0
	mov	r0, #230
	mov	r1, #10
	ldr	r2, .L142+4
	mov	r3, #1
	bl	_Z15IwGxPrintStringiiPKcb
	.loc 17 106 0
	ldr	r3, [sp, #4]
	ldr	r2, [r3, #0]
	ldr	r3, [sp, #4]
	ldr	r3, [r3, #4]
	mov	r0, r2
	ldr	r1, [r3, #40]
	bl	_ZN3Map6RenderE8CIwSVec2
	.loc 17 107 0
	ldr	r3, [sp, #4]
	ldr	r2, [r3, #4]
	ldr	r3, [sp, #4]
	ldr	r3, [r3, #0]
	mov	r0, r2
	ldmia	r3, {r1, r2}
	bl	_ZN9Character6RenderE8CIwFVec2
	.loc 17 108 0
	ldr	r3, [sp, #4]
	ldr	r3, [r3, #16]
	mov	r0, r3
	bl	_ZN2UI6RenderEv
	.loc 17 110 0
	bl	_Z15Iw2DSurfaceShowv
	.loc 17 111 0
	add	sp, sp, #12
	ldmfd	sp!, {pc}
.L143:
	.align	2
.L142:
	.word	15523583
	.word	.LC6
	.cfi_endproc
.LFE3479:
	.size	_ZN5CGame6RenderEv, .-_ZN5CGame6RenderEv
	.section	.text._ZN4_STL9allocatorI8ObstacleEC1Ev,"axG",%progbits,_ZN4_STL9allocatorI8ObstacleEC1Ev,comdat
	.align	2
	.weak	_ZN4_STL9allocatorI8ObstacleEC1Ev
	.hidden	_ZN4_STL9allocatorI8ObstacleEC1Ev
	.type	_ZN4_STL9allocatorI8ObstacleEC1Ev, %function
_ZN4_STL9allocatorI8ObstacleEC1Ev:
.LFB3565:
	.file 18 "c:/marmalade/6.2/s3e/h/std/c++/stl/_alloc.h"
	.loc 18 345 0
	.cfi_startproc
	@ args = 0, pretend = 0, frame = 8
	@ frame_needed = 0, uses_anonymous_args = 0
	@ link register save eliminated.
	sub	sp, sp, #8
.LCFI61:
	.cfi_def_cfa_offset 8
	str	r0, [sp, #4]
	.loc 18 345 0
	ldr	r3, [sp, #4]
	mov	r0, r3
	add	sp, sp, #8
	bx	lr
	.cfi_endproc
.LFE3565:
	.size	_ZN4_STL9allocatorI8ObstacleEC1Ev, .-_ZN4_STL9allocatorI8ObstacleEC1Ev
	.section	.text._ZN4_STL9allocatorI8ObstacleED2Ev,"axG",%progbits,_ZN4_STL9allocatorI8ObstacleED2Ev,comdat
	.align	2
	.weak	_ZN4_STL9allocatorI8ObstacleED2Ev
	.hidden	_ZN4_STL9allocatorI8ObstacleED2Ev
	.type	_ZN4_STL9allocatorI8ObstacleED2Ev, %function
_ZN4_STL9allocatorI8ObstacleED2Ev:
.LFB3567:
	.loc 18 350 0
	.cfi_startproc
	@ args = 0, pretend = 0, frame = 8
	@ frame_needed = 0, uses_anonymous_args = 0
	@ link register save eliminated.
	sub	sp, sp, #8
.LCFI62:
	.cfi_def_cfa_offset 8
	str	r0, [sp, #4]
	.loc 18 350 0
	ldr	r3, [sp, #4]
	mov	r0, r3
	add	sp, sp, #8
	bx	lr
	.cfi_endproc
.LFE3567:
	.size	_ZN4_STL9allocatorI8ObstacleED2Ev, .-_ZN4_STL9allocatorI8ObstacleED2Ev
	.section	.text._ZN4_STL9allocatorI8ObstacleED1Ev,"axG",%progbits,_ZN4_STL9allocatorI8ObstacleED1Ev,comdat
	.align	2
	.weak	_ZN4_STL9allocatorI8ObstacleED1Ev
	.hidden	_ZN4_STL9allocatorI8ObstacleED1Ev
	.type	_ZN4_STL9allocatorI8ObstacleED1Ev, %function
_ZN4_STL9allocatorI8ObstacleED1Ev:
.LFB3568:
	.loc 18 350 0
	.cfi_startproc
	@ args = 0, pretend = 0, frame = 8
	@ frame_needed = 0, uses_anonymous_args = 0
	@ link register save eliminated.
	sub	sp, sp, #8
.LCFI63:
	.cfi_def_cfa_offset 8
	str	r0, [sp, #4]
	.loc 18 350 0
	ldr	r3, [sp, #4]
	mov	r0, r3
	add	sp, sp, #8
	bx	lr
	.cfi_endproc
.LFE3568:
	.size	_ZN4_STL9allocatorI8ObstacleED1Ev, .-_ZN4_STL9allocatorI8ObstacleED1Ev
	.section	.text._ZN4_STL6vectorI8ObstacleNS_9allocatorIS1_EEEC1ERKS3_,"axG",%progbits,_ZN4_STL6vectorI8ObstacleNS_9allocatorIS1_EEEC1ERKS3_,comdat
	.align	2
	.weak	_ZN4_STL6vectorI8ObstacleNS_9allocatorIS1_EEEC1ERKS3_
	.hidden	_ZN4_STL6vectorI8ObstacleNS_9allocatorIS1_EEEC1ERKS3_
	.type	_ZN4_STL6vectorI8ObstacleNS_9allocatorIS1_EEEC1ERKS3_, %function
_ZN4_STL6vectorI8ObstacleNS_9allocatorIS1_EEEC1ERKS3_:
.LFB3571:
	.file 19 "c:/marmalade/6.2/s3e/h/std/c++/stl/_vector.h"
	.loc 19 198 0
	.cfi_startproc
	@ args = 0, pretend = 0, frame = 8
	@ frame_needed = 0, uses_anonymous_args = 0
	str	lr, [sp, #-4]!
.LCFI64:
	.cfi_def_cfa_offset 4
	sub	sp, sp, #12
.LCFI65:
	.cfi_def_cfa_offset 16
	str	r0, [sp, #4]
	str	r1, [sp, #0]
	.loc 19 199 0
	ldr	r3, [sp, #4]
	mov	r0, r3
	ldr	r1, [sp, #0]
	.cfi_offset 14, -4
	bl	_ZN4_STL12_Vector_baseI8ObstacleNS_9allocatorIS1_EEEC2ERKS3_
	ldr	r3, [sp, #4]
	mov	r0, r3
	add	sp, sp, #12
	ldmfd	sp!, {pc}
	.cfi_endproc
.LFE3571:
	.size	_ZN4_STL6vectorI8ObstacleNS_9allocatorIS1_EEEC1ERKS3_, .-_ZN4_STL6vectorI8ObstacleNS_9allocatorIS1_EEEC1ERKS3_
	.section	.text._ZN4_STL6vectorI8ObstacleNS_9allocatorIS1_EEED1Ev,"axG",%progbits,_ZN4_STL6vectorI8ObstacleNS_9allocatorIS1_EEED1Ev,comdat
	.align	2
	.weak	_ZN4_STL6vectorI8ObstacleNS_9allocatorIS1_EEED1Ev
	.hidden	_ZN4_STL6vectorI8ObstacleNS_9allocatorIS1_EEED1Ev
	.type	_ZN4_STL6vectorI8ObstacleNS_9allocatorIS1_EEED1Ev, %function
_ZN4_STL6vectorI8ObstacleNS_9allocatorIS1_EEED1Ev:
.LFB3574:
	.loc 19 258 0
	.cfi_startproc
	@ args = 0, pretend = 0, frame = 8
	@ frame_needed = 0, uses_anonymous_args = 0
	str	lr, [sp, #-4]!
.LCFI66:
	.cfi_def_cfa_offset 4
	sub	sp, sp, #12
.LCFI67:
	.cfi_def_cfa_offset 16
	str	r0, [sp, #4]
	.loc 19 258 0
	ldr	r3, [sp, #4]
	ldr	r2, [r3, #0]
	ldr	r3, [sp, #4]
	ldr	r3, [r3, #4]
	mov	r0, r2
	mov	r1, r3
	.cfi_offset 14, -4
	bl	_ZN4_STL8_DestroyIP8ObstacleEEvT_S3_
	ldr	r3, [sp, #4]
	mov	r0, r3
	bl	_ZN4_STL12_Vector_baseI8ObstacleNS_9allocatorIS1_EEED2Ev
	ldr	r3, [sp, #4]
	mov	r0, r3
	add	sp, sp, #12
	ldmfd	sp!, {pc}
	.cfi_endproc
.LFE3574:
	.size	_ZN4_STL6vectorI8ObstacleNS_9allocatorIS1_EEED1Ev, .-_ZN4_STL6vectorI8ObstacleNS_9allocatorIS1_EEED1Ev
	.section	.text._ZN8CIwArrayIi12CIwAllocatorIi15CIwMallocRouterIiEE17ReallocateDefaultIiS3_EEC1Ej,"axG",%progbits,_ZN8CIwArrayIi12CIwAllocatorIi15CIwMallocRouterIiEE17ReallocateDefaultIiS3_EEC1Ej,comdat
	.align	2
	.weak	_ZN8CIwArrayIi12CIwAllocatorIi15CIwMallocRouterIiEE17ReallocateDefaultIiS3_EEC1Ej
	.hidden	_ZN8CIwArrayIi12CIwAllocatorIi15CIwMallocRouterIiEE17ReallocateDefaultIiS3_EEC1Ej
	.type	_ZN8CIwArrayIi12CIwAllocatorIi15CIwMallocRouterIiEE17ReallocateDefaultIiS3_EEC1Ej, %function
_ZN8CIwArrayIi12CIwAllocatorIi15CIwMallocRouterIiEE17ReallocateDefaultIiS3_EEC1Ej:
.LFB3577:
	.file 20 "c:/marmalade/6.2/modules/iwutil/h/IwArray.h"
	.loc 20 131 0
	.cfi_startproc
	@ args = 0, pretend = 0, frame = 8
	@ frame_needed = 0, uses_anonymous_args = 0
	str	lr, [sp, #-4]!
.LCFI68:
	.cfi_def_cfa_offset 4
	sub	sp, sp, #12
.LCFI69:
	.cfi_def_cfa_offset 16
	str	r0, [sp, #4]
	str	r1, [sp, #0]
	.loc 20 131 0
	ldr	r3, [sp, #4]
	mov	r2, #0
	str	r2, [r3, #0]
	ldr	r3, [sp, #4]
	mov	r2, #0
	str	r2, [r3, #4]
	ldr	r3, [sp, #4]
	mov	r2, #0
	str	r2, [r3, #8]
	ldr	r2, [sp, #4]
	ldrb	r3, [r2, #12]
	bic	r3, r3, #1
	strb	r3, [r2, #12]
	ldr	r2, [sp, #4]
	ldrb	r3, [r2, #12]
	bic	r3, r3, #2
	strb	r3, [r2, #12]
	.loc 20 133 0
	ldr	r0, [sp, #4]
	ldr	r1, [sp, #0]
	.cfi_offset 14, -4
	bl	_ZN8CIwArrayIi12CIwAllocatorIi15CIwMallocRouterIiEE17ReallocateDefaultIiS3_EE6resizeEj
	.loc 20 134 0
	ldr	r0, [sp, #4]
	bl	_ZN8CIwArrayIi12CIwAllocatorIi15CIwMallocRouterIiEE17ReallocateDefaultIiS3_EE5clearEv
	ldr	r3, [sp, #4]
	.loc 20 135 0
	mov	r0, r3
	add	sp, sp, #12
	ldmfd	sp!, {pc}
	.cfi_endproc
.LFE3577:
	.size	_ZN8CIwArrayIi12CIwAllocatorIi15CIwMallocRouterIiEE17ReallocateDefaultIiS3_EEC1Ej, .-_ZN8CIwArrayIi12CIwAllocatorIi15CIwMallocRouterIiEE17ReallocateDefaultIiS3_EEC1Ej
	.section	.text._ZN8CIwArrayI12TileObstacle12CIwAllocatorIS0_15CIwMallocRouterIS0_EE17ReallocateDefaultIS0_S4_EEC1Ej,"axG",%progbits,_ZN8CIwArrayI12TileObstacle12CIwAllocatorIS0_15CIwMallocRouterIS0_EE17ReallocateDefaultIS0_S4_EEC1Ej,comdat
	.align	2
	.weak	_ZN8CIwArrayI12TileObstacle12CIwAllocatorIS0_15CIwMallocRouterIS0_EE17ReallocateDefaultIS0_S4_EEC1Ej
	.hidden	_ZN8CIwArrayI12TileObstacle12CIwAllocatorIS0_15CIwMallocRouterIS0_EE17ReallocateDefaultIS0_S4_EEC1Ej
	.type	_ZN8CIwArrayI12TileObstacle12CIwAllocatorIS0_15CIwMallocRouterIS0_EE17ReallocateDefaultIS0_S4_EEC1Ej, %function
_ZN8CIwArrayI12TileObstacle12CIwAllocatorIS0_15CIwMallocRouterIS0_EE17ReallocateDefaultIS0_S4_EEC1Ej:
.LFB3586:
	.loc 20 131 0
	.cfi_startproc
	@ args = 0, pretend = 0, frame = 8
	@ frame_needed = 0, uses_anonymous_args = 0
	str	lr, [sp, #-4]!
.LCFI70:
	.cfi_def_cfa_offset 4
	sub	sp, sp, #12
.LCFI71:
	.cfi_def_cfa_offset 16
	str	r0, [sp, #4]
	str	r1, [sp, #0]
	.loc 20 131 0
	ldr	r3, [sp, #4]
	mov	r2, #0
	str	r2, [r3, #0]
	ldr	r3, [sp, #4]
	mov	r2, #0
	str	r2, [r3, #4]
	ldr	r3, [sp, #4]
	mov	r2, #0
	str	r2, [r3, #8]
	ldr	r2, [sp, #4]
	ldrb	r3, [r2, #12]
	bic	r3, r3, #1
	strb	r3, [r2, #12]
	ldr	r2, [sp, #4]
	ldrb	r3, [r2, #12]
	bic	r3, r3, #2
	strb	r3, [r2, #12]
	.loc 20 133 0
	ldr	r0, [sp, #4]
	ldr	r1, [sp, #0]
	.cfi_offset 14, -4
	bl	_ZN8CIwArrayI12TileObstacle12CIwAllocatorIS0_15CIwMallocRouterIS0_EE17ReallocateDefaultIS0_S4_EE6resizeEj
	.loc 20 134 0
	ldr	r0, [sp, #4]
	bl	_ZN8CIwArrayI12TileObstacle12CIwAllocatorIS0_15CIwMallocRouterIS0_EE17ReallocateDefaultIS0_S4_EE5clearEv
	ldr	r3, [sp, #4]
	.loc 20 135 0
	mov	r0, r3
	add	sp, sp, #12
	ldmfd	sp!, {pc}
	.cfi_endproc
.LFE3586:
	.size	_ZN8CIwArrayI12TileObstacle12CIwAllocatorIS0_15CIwMallocRouterIS0_EE17ReallocateDefaultIS0_S4_EEC1Ej, .-_ZN8CIwArrayI12TileObstacle12CIwAllocatorIS0_15CIwMallocRouterIS0_EE17ReallocateDefaultIS0_S4_EEC1Ej
	.section	.text._ZN4_STLlsINS_11char_traitsIcEEEERNS_13basic_ostreamIcT_EES6_PKc,"axG",%progbits,_ZN4_STLlsINS_11char_traitsIcEEEERNS_13basic_ostreamIcT_EES6_PKc,comdat
	.align	2
	.weak	_ZN4_STLlsINS_11char_traitsIcEEEERNS_13basic_ostreamIcT_EES6_PKc
	.hidden	_ZN4_STLlsINS_11char_traitsIcEEEERNS_13basic_ostreamIcT_EES6_PKc
	.type	_ZN4_STLlsINS_11char_traitsIcEEEERNS_13basic_ostreamIcT_EES6_PKc, %function
_ZN4_STLlsINS_11char_traitsIcEEEERNS_13basic_ostreamIcT_EES6_PKc:
.LFB3604:
	.file 21 "c:/marmalade/6.2/s3e/h/std/c++/stl/_ostream.h"
	.loc 21 307 0
	.cfi_startproc
	@ args = 0, pretend = 0, frame = 8
	@ frame_needed = 0, uses_anonymous_args = 0
	str	lr, [sp, #-4]!
.LCFI72:
	.cfi_def_cfa_offset 4
	sub	sp, sp, #12
.LCFI73:
	.cfi_def_cfa_offset 16
	str	r0, [sp, #4]
	str	r1, [sp, #0]
	.loc 21 308 0
	ldr	r0, [sp, #4]
	ldr	r1, [sp, #0]
	.cfi_offset 14, -4
	bl	_ZN4_STL13basic_ostreamIcNS_11char_traitsIcEEE14_M_put_nowidenEPKc
	.loc 21 309 0
	ldr	r3, [sp, #4]
	.loc 21 310 0
	mov	r0, r3
	add	sp, sp, #12
	ldmfd	sp!, {pc}
	.cfi_endproc
.LFE3604:
	.size	_ZN4_STLlsINS_11char_traitsIcEEEERNS_13basic_ostreamIcT_EES6_PKc, .-_ZN4_STLlsINS_11char_traitsIcEEEERNS_13basic_ostreamIcT_EES6_PKc
	.section	.text._ZN4_STL4endlIcNS_11char_traitsIcEEEERNS_13basic_ostreamIT_T0_EES7_,"axG",%progbits,_ZN4_STL4endlIcNS_11char_traitsIcEEEERNS_13basic_ostreamIT_T0_EES7_,comdat
	.align	2
	.weak	_ZN4_STL4endlIcNS_11char_traitsIcEEEERNS_13basic_ostreamIT_T0_EES7_
	.hidden	_ZN4_STL4endlIcNS_11char_traitsIcEEEERNS_13basic_ostreamIT_T0_EES7_
	.type	_ZN4_STL4endlIcNS_11char_traitsIcEEEERNS_13basic_ostreamIT_T0_EES7_, %function
_ZN4_STL4endlIcNS_11char_traitsIcEEEERNS_13basic_ostreamIT_T0_EES7_:
.LFB3605:
	.loc 21 332 0
	.cfi_startproc
	@ args = 0, pretend = 0, frame = 8
	@ frame_needed = 0, uses_anonymous_args = 0
	str	lr, [sp, #-4]!
.LCFI74:
	.cfi_def_cfa_offset 4
	sub	sp, sp, #12
.LCFI75:
	.cfi_def_cfa_offset 16
	str	r0, [sp, #4]
	.loc 21 333 0
	ldr	r2, [sp, #4]
	ldr	r3, [sp, #4]
	ldr	r3, [r3, #0]
	sub	r3, r3, #12
	ldr	r3, [r3, #0]
	add	r3, r2, r3
	mov	r0, r3
	mov	r1, #10
	.cfi_offset 14, -4
	bl	_ZNK4_STL9basic_iosIcNS_11char_traitsIcEEE5widenEc
	mov	r3, r0
	ldr	r0, [sp, #4]
	mov	r1, r3
	bl	_ZN4_STL13basic_ostreamIcNS_11char_traitsIcEEE3putEc
	.loc 21 334 0
	ldr	r0, [sp, #4]
	bl	_ZN4_STL13basic_ostreamIcNS_11char_traitsIcEEE5flushEv
	.loc 21 335 0
	ldr	r3, [sp, #4]
	.loc 21 336 0
	mov	r0, r3
	add	sp, sp, #12
	ldmfd	sp!, {pc}
	.cfi_endproc
.LFE3605:
	.size	_ZN4_STL4endlIcNS_11char_traitsIcEEEERNS_13basic_ostreamIT_T0_EES7_, .-_ZN4_STL4endlIcNS_11char_traitsIcEEEERNS_13basic_ostreamIT_T0_EES7_
	.section	.text._ZN4_STL13basic_ostreamIcNS_11char_traitsIcEEElsEPFRS3_S4_E,"axG",%progbits,_ZN4_STL13basic_ostreamIcNS_11char_traitsIcEEElsEPFRS3_S4_E,comdat
	.align	2
	.weak	_ZN4_STL13basic_ostreamIcNS_11char_traitsIcEEElsEPFRS3_S4_E
	.hidden	_ZN4_STL13basic_ostreamIcNS_11char_traitsIcEEElsEPFRS3_S4_E
	.type	_ZN4_STL13basic_ostreamIcNS_11char_traitsIcEEElsEPFRS3_S4_E, %function
_ZN4_STL13basic_ostreamIcNS_11char_traitsIcEEElsEPFRS3_S4_E:
.LFB3606:
	.loc 21 78 0
	.cfi_startproc
	@ args = 0, pretend = 0, frame = 8
	@ frame_needed = 0, uses_anonymous_args = 0
	str	lr, [sp, #-4]!
.LCFI76:
	.cfi_def_cfa_offset 4
	sub	sp, sp, #12
.LCFI77:
	.cfi_def_cfa_offset 16
	str	r0, [sp, #4]
	str	r1, [sp, #0]
	.loc 21 78 0
	ldr	r3, [sp, #0]
	ldr	r0, [sp, #4]
	.cfi_offset 14, -4
	blx	r3
	mov	r3, r0
	mov	r0, r3
	add	sp, sp, #12
	ldmfd	sp!, {pc}
	.cfi_endproc
.LFE3606:
	.size	_ZN4_STL13basic_ostreamIcNS_11char_traitsIcEEElsEPFRS3_S4_E, .-_ZN4_STL13basic_ostreamIcNS_11char_traitsIcEEElsEPFRS3_S4_E
	.section	.text._ZN12CIwAllocatorIi15CIwMallocRouterIiEE10deallocateEPij,"axG",%progbits,_ZN12CIwAllocatorIi15CIwMallocRouterIiEE10deallocateEPij,comdat
	.align	2
	.weak	_ZN12CIwAllocatorIi15CIwMallocRouterIiEE10deallocateEPij
	.hidden	_ZN12CIwAllocatorIi15CIwMallocRouterIiEE10deallocateEPij
	.type	_ZN12CIwAllocatorIi15CIwMallocRouterIiEE10deallocateEPij, %function
_ZN12CIwAllocatorIi15CIwMallocRouterIiEE10deallocateEPij:
.LFB3637:
	.file 22 "c:/marmalade/6.2/modules/iwutil/h/IwAllocator.h"
	.loc 22 147 0
	.cfi_startproc
	@ args = 0, pretend = 0, frame = 16
	@ frame_needed = 0, uses_anonymous_args = 0
	str	lr, [sp, #-4]!
.LCFI78:
	.cfi_def_cfa_offset 4
	sub	sp, sp, #20
.LCFI79:
	.cfi_def_cfa_offset 24
	str	r0, [sp, #12]
	str	r1, [sp, #8]
	str	r2, [sp, #4]
	.loc 22 147 0
	ldr	r0, [sp, #8]
	.cfi_offset 14, -4
	bl	_ZN15CIwMallocRouterIiE6DoFreeEPv
	add	sp, sp, #20
	ldmfd	sp!, {pc}
	.cfi_endproc
.LFE3637:
	.size	_ZN12CIwAllocatorIi15CIwMallocRouterIiEE10deallocateEPij, .-_ZN12CIwAllocatorIi15CIwMallocRouterIiEE10deallocateEPij
	.section	.text._ZN4_STL17_STLP_alloc_proxyIP8ObstacleS1_NS_9allocatorIS1_EEED1Ev,"axG",%progbits,_ZN4_STL17_STLP_alloc_proxyIP8ObstacleS1_NS_9allocatorIS1_EEED1Ev,comdat
	.align	2
	.weak	_ZN4_STL17_STLP_alloc_proxyIP8ObstacleS1_NS_9allocatorIS1_EEED1Ev
	.hidden	_ZN4_STL17_STLP_alloc_proxyIP8ObstacleS1_NS_9allocatorIS1_EEED1Ev
	.type	_ZN4_STL17_STLP_alloc_proxyIP8ObstacleS1_NS_9allocatorIS1_EEED1Ev, %function
_ZN4_STL17_STLP_alloc_proxyIP8ObstacleS1_NS_9allocatorIS1_EEED1Ev:
.LFB3643:
	.loc 18 481 0
	.cfi_startproc
	@ args = 0, pretend = 0, frame = 8
	@ frame_needed = 0, uses_anonymous_args = 0
	str	lr, [sp, #-4]!
.LCFI80:
	.cfi_def_cfa_offset 4
	sub	sp, sp, #12
.LCFI81:
	.cfi_def_cfa_offset 16
	str	r0, [sp, #4]
	.loc 18 481 0
	ldr	r3, [sp, #4]
	mov	r0, r3
	.cfi_offset 14, -4
	bl	_ZN4_STL9allocatorI8ObstacleED2Ev
	ldr	r3, [sp, #4]
	mov	r0, r3
	add	sp, sp, #12
	ldmfd	sp!, {pc}
	.cfi_endproc
.LFE3643:
	.size	_ZN4_STL17_STLP_alloc_proxyIP8ObstacleS1_NS_9allocatorIS1_EEED1Ev, .-_ZN4_STL17_STLP_alloc_proxyIP8ObstacleS1_NS_9allocatorIS1_EEED1Ev
	.section	.text._ZN4_STL12_Vector_baseI8ObstacleNS_9allocatorIS1_EEEC2ERKS3_,"axG",%progbits,_ZN4_STL12_Vector_baseI8ObstacleNS_9allocatorIS1_EEEC2ERKS3_,comdat
	.align	2
	.weak	_ZN4_STL12_Vector_baseI8ObstacleNS_9allocatorIS1_EEEC2ERKS3_
	.hidden	_ZN4_STL12_Vector_baseI8ObstacleNS_9allocatorIS1_EEEC2ERKS3_
	.type	_ZN4_STL12_Vector_baseI8ObstacleNS_9allocatorIS1_EEEC2ERKS3_, %function
_ZN4_STL12_Vector_baseI8ObstacleNS_9allocatorIS1_EEEC2ERKS3_:
.LFB3644:
	.loc 19 71 0
	.cfi_startproc
	@ args = 0, pretend = 0, frame = 8
	@ frame_needed = 0, uses_anonymous_args = 0
	str	lr, [sp, #-4]!
.LCFI82:
	.cfi_def_cfa_offset 4
	sub	sp, sp, #12
.LCFI83:
	.cfi_def_cfa_offset 16
	str	r0, [sp, #4]
	str	r1, [sp, #0]
	.loc 19 72 0
	ldr	r3, [sp, #4]
	mov	r2, #0
	str	r2, [r3, #0]
	ldr	r3, [sp, #4]
	mov	r2, #0
	str	r2, [r3, #4]
	ldr	r3, [sp, #4]
	add	r3, r3, #8
	mov	r0, r3
	ldr	r1, [sp, #0]
	mov	r2, #0
	.cfi_offset 14, -4
	bl	_ZN4_STL17_STLP_alloc_proxyIP8ObstacleS1_NS_9allocatorIS1_EEEC1ERKS4_S2_
	ldr	r3, [sp, #4]
	.loc 19 73 0
	mov	r0, r3
	add	sp, sp, #12
	ldmfd	sp!, {pc}
	.cfi_endproc
.LFE3644:
	.size	_ZN4_STL12_Vector_baseI8ObstacleNS_9allocatorIS1_EEEC2ERKS3_, .-_ZN4_STL12_Vector_baseI8ObstacleNS_9allocatorIS1_EEEC2ERKS3_
	.section	.text._ZN4_STL12_Vector_baseI8ObstacleNS_9allocatorIS1_EEED2Ev,"axG",%progbits,_ZN4_STL12_Vector_baseI8ObstacleNS_9allocatorIS1_EEED2Ev,comdat
	.align	2
	.weak	_ZN4_STL12_Vector_baseI8ObstacleNS_9allocatorIS1_EEED2Ev
	.hidden	_ZN4_STL12_Vector_baseI8ObstacleNS_9allocatorIS1_EEED2Ev
	.type	_ZN4_STL12_Vector_baseI8ObstacleNS_9allocatorIS1_EEED2Ev, %function
_ZN4_STL12_Vector_baseI8ObstacleNS_9allocatorIS1_EEED2Ev:
.LFB3647:
	.loc 19 83 0
	.cfi_startproc
	@ args = 0, pretend = 0, frame = 8
	@ frame_needed = 0, uses_anonymous_args = 0
	str	lr, [sp, #-4]!
.LCFI84:
	.cfi_def_cfa_offset 4
	sub	sp, sp, #12
.LCFI85:
	.cfi_def_cfa_offset 16
	str	r0, [sp, #4]
	.loc 19 84 0
	ldr	r3, [sp, #4]
	ldr	r3, [r3, #0]
	cmp	r3, #0
	beq	.L180
	.cfi_offset 14, -4
	.loc 19 85 0
	ldr	r3, [sp, #4]
	add	r3, r3, #8
	mov	r1, r3
	ldr	r3, [sp, #4]
	ldr	r2, [r3, #0]
	ldr	r3, [sp, #4]
	ldr	r3, [r3, #8]
	mov	r0, r3
	ldr	r3, [sp, #4]
	ldr	r3, [r3, #0]
	rsb	r3, r3, r0
	mov	r3, r3, asr #4
	mov	r0, r1
	mov	r1, r2
	mov	r2, r3
	bl	_ZN4_STL9allocatorI8ObstacleE10deallocateEPS1_j
.L180:
	ldr	r3, [sp, #4]
	add	r3, r3, #8
	mov	r0, r3
	bl	_ZN4_STL17_STLP_alloc_proxyIP8ObstacleS1_NS_9allocatorIS1_EEED1Ev
	ldr	r3, [sp, #4]
	.loc 19 86 0
	mov	r0, r3
	add	sp, sp, #12
	ldmfd	sp!, {pc}
	.cfi_endproc
.LFE3647:
	.size	_ZN4_STL12_Vector_baseI8ObstacleNS_9allocatorIS1_EEED2Ev, .-_ZN4_STL12_Vector_baseI8ObstacleNS_9allocatorIS1_EEED2Ev
	.section	.text._ZN4_STL8_DestroyIP8ObstacleEEvT_S3_,"axG",%progbits,_ZN4_STL8_DestroyIP8ObstacleEEvT_S3_,comdat
	.align	2
	.weak	_ZN4_STL8_DestroyIP8ObstacleEEvT_S3_
	.hidden	_ZN4_STL8_DestroyIP8ObstacleEEvT_S3_
	.type	_ZN4_STL8_DestroyIP8ObstacleEEvT_S3_, %function
_ZN4_STL8_DestroyIP8ObstacleEEvT_S3_:
.LFB3649:
	.file 23 "c:/marmalade/6.2/s3e/h/std/c++/stl/_construct.h"
	.loc 23 138 0
	.cfi_startproc
	@ args = 0, pretend = 0, frame = 8
	@ frame_needed = 0, uses_anonymous_args = 0
	str	lr, [sp, #-4]!
.LCFI86:
	.cfi_def_cfa_offset 4
	sub	sp, sp, #12
.LCFI87:
	.cfi_def_cfa_offset 16
	str	r0, [sp, #4]
	str	r1, [sp, #0]
	.loc 23 139 0
	ldr	r0, [sp, #4]
	ldr	r1, [sp, #0]
	mov	r2, #0
	.cfi_offset 14, -4
	bl	_ZN4_STL9__destroyIP8ObstacleS1_EEvT_S3_PT0_
	.loc 23 140 0
	add	sp, sp, #12
	ldmfd	sp!, {pc}
	.cfi_endproc
.LFE3649:
	.size	_ZN4_STL8_DestroyIP8ObstacleEEvT_S3_, .-_ZN4_STL8_DestroyIP8ObstacleEEvT_S3_
	.section	.text._ZN8CIwArrayIi12CIwAllocatorIi15CIwMallocRouterIiEE17ReallocateDefaultIiS3_EE6resizeEj,"axG",%progbits,_ZN8CIwArrayIi12CIwAllocatorIi15CIwMallocRouterIiEE17ReallocateDefaultIiS3_EE6resizeEj,comdat
	.align	2
	.weak	_ZN8CIwArrayIi12CIwAllocatorIi15CIwMallocRouterIiEE17ReallocateDefaultIiS3_EE6resizeEj
	.hidden	_ZN8CIwArrayIi12CIwAllocatorIi15CIwMallocRouterIiEE17ReallocateDefaultIiS3_EE6resizeEj
	.type	_ZN8CIwArrayIi12CIwAllocatorIi15CIwMallocRouterIiEE17ReallocateDefaultIiS3_EE6resizeEj, %function
_ZN8CIwArrayIi12CIwAllocatorIi15CIwMallocRouterIiEE17ReallocateDefaultIiS3_EE6resizeEj:
.LFB3650:
	.loc 20 292 0
	.cfi_startproc
	@ args = 0, pretend = 0, frame = 8
	@ frame_needed = 0, uses_anonymous_args = 0
	str	lr, [sp, #-4]!
.LCFI88:
	.cfi_def_cfa_offset 4
	sub	sp, sp, #12
.LCFI89:
	.cfi_def_cfa_offset 16
	str	r0, [sp, #4]
	str	r1, [sp, #0]
	.loc 20 294 0
	ldr	r3, [sp, #4]
	ldr	r2, [r3, #4]
	ldr	r3, [sp, #0]
	cmp	r2, r3
	bcc	.L186
	.cfi_offset 14, -4
	.loc 20 295 0
	ldr	r0, [sp, #4]
	ldr	r1, [sp, #0]
	bl	_ZN8CIwArrayIi12CIwAllocatorIi15CIwMallocRouterIiEE17ReallocateDefaultIiS3_EE8truncateEj
	b	.L188
.L186:
	.loc 20 297 0
	ldr	r3, [sp, #4]
	ldr	r3, [r3, #4]
	ldr	r2, [sp, #0]
	rsb	r3, r3, r2
	ldr	r0, [sp, #4]
	mov	r1, r3
	bl	_ZN8CIwArrayIi12CIwAllocatorIi15CIwMallocRouterIiEE17ReallocateDefaultIiS3_EE13push_back_qtyEi
.L188:
	.loc 20 298 0
	add	sp, sp, #12
	ldmfd	sp!, {pc}
	.cfi_endproc
.LFE3650:
	.size	_ZN8CIwArrayIi12CIwAllocatorIi15CIwMallocRouterIiEE17ReallocateDefaultIiS3_EE6resizeEj, .-_ZN8CIwArrayIi12CIwAllocatorIi15CIwMallocRouterIiEE17ReallocateDefaultIiS3_EE6resizeEj
	.section	.text._ZN8CIwArrayIi12CIwAllocatorIi15CIwMallocRouterIiEE17ReallocateDefaultIiS3_EE5clearEv,"axG",%progbits,_ZN8CIwArrayIi12CIwAllocatorIi15CIwMallocRouterIiEE17ReallocateDefaultIiS3_EE5clearEv,comdat
	.align	2
	.weak	_ZN8CIwArrayIi12CIwAllocatorIi15CIwMallocRouterIiEE17ReallocateDefaultIiS3_EE5clearEv
	.hidden	_ZN8CIwArrayIi12CIwAllocatorIi15CIwMallocRouterIiEE17ReallocateDefaultIiS3_EE5clearEv
	.type	_ZN8CIwArrayIi12CIwAllocatorIi15CIwMallocRouterIiEE17ReallocateDefaultIiS3_EE5clearEv, %function
_ZN8CIwArrayIi12CIwAllocatorIi15CIwMallocRouterIiEE17ReallocateDefaultIiS3_EE5clearEv:
.LFB3651:
	.loc 20 199 0
	.cfi_startproc
	@ args = 0, pretend = 0, frame = 8
	@ frame_needed = 0, uses_anonymous_args = 0
	str	lr, [sp, #-4]!
.LCFI90:
	.cfi_def_cfa_offset 4
	sub	sp, sp, #12
.LCFI91:
	.cfi_def_cfa_offset 16
	str	r0, [sp, #4]
	.loc 20 201 0
	ldr	r0, [sp, #4]
	mov	r1, #0
	.cfi_offset 14, -4
	bl	_ZN8CIwArrayIi12CIwAllocatorIi15CIwMallocRouterIiEE17ReallocateDefaultIiS3_EE8truncateEj
	.loc 20 202 0
	add	sp, sp, #12
	ldmfd	sp!, {pc}
	.cfi_endproc
.LFE3651:
	.size	_ZN8CIwArrayIi12CIwAllocatorIi15CIwMallocRouterIiEE17ReallocateDefaultIiS3_EE5clearEv, .-_ZN8CIwArrayIi12CIwAllocatorIi15CIwMallocRouterIiEE17ReallocateDefaultIiS3_EE5clearEv
	.section	.text._ZN8CIwArrayI12TileObstacle12CIwAllocatorIS0_15CIwMallocRouterIS0_EE17ReallocateDefaultIS0_S4_EE6resizeEj,"axG",%progbits,_ZN8CIwArrayI12TileObstacle12CIwAllocatorIS0_15CIwMallocRouterIS0_EE17ReallocateDefaultIS0_S4_EE6resizeEj,comdat
	.align	2
	.weak	_ZN8CIwArrayI12TileObstacle12CIwAllocatorIS0_15CIwMallocRouterIS0_EE17ReallocateDefaultIS0_S4_EE6resizeEj
	.hidden	_ZN8CIwArrayI12TileObstacle12CIwAllocatorIS0_15CIwMallocRouterIS0_EE17ReallocateDefaultIS0_S4_EE6resizeEj
	.type	_ZN8CIwArrayI12TileObstacle12CIwAllocatorIS0_15CIwMallocRouterIS0_EE17ReallocateDefaultIS0_S4_EE6resizeEj, %function
_ZN8CIwArrayI12TileObstacle12CIwAllocatorIS0_15CIwMallocRouterIS0_EE17ReallocateDefaultIS0_S4_EE6resizeEj:
.LFB3655:
	.loc 20 292 0
	.cfi_startproc
	@ args = 0, pretend = 0, frame = 8
	@ frame_needed = 0, uses_anonymous_args = 0
	str	lr, [sp, #-4]!
.LCFI92:
	.cfi_def_cfa_offset 4
	sub	sp, sp, #12
.LCFI93:
	.cfi_def_cfa_offset 16
	str	r0, [sp, #4]
	str	r1, [sp, #0]
	.loc 20 294 0
	ldr	r3, [sp, #4]
	ldr	r2, [r3, #4]
	ldr	r3, [sp, #0]
	cmp	r2, r3
	bcc	.L192
	.cfi_offset 14, -4
	.loc 20 295 0
	ldr	r0, [sp, #4]
	ldr	r1, [sp, #0]
	bl	_ZN8CIwArrayI12TileObstacle12CIwAllocatorIS0_15CIwMallocRouterIS0_EE17ReallocateDefaultIS0_S4_EE8truncateEj
	b	.L194
.L192:
	.loc 20 297 0
	ldr	r3, [sp, #4]
	ldr	r3, [r3, #4]
	ldr	r2, [sp, #0]
	rsb	r3, r3, r2
	ldr	r0, [sp, #4]
	mov	r1, r3
	bl	_ZN8CIwArrayI12TileObstacle12CIwAllocatorIS0_15CIwMallocRouterIS0_EE17ReallocateDefaultIS0_S4_EE13push_back_qtyEi
.L194:
	.loc 20 298 0
	add	sp, sp, #12
	ldmfd	sp!, {pc}
	.cfi_endproc
.LFE3655:
	.size	_ZN8CIwArrayI12TileObstacle12CIwAllocatorIS0_15CIwMallocRouterIS0_EE17ReallocateDefaultIS0_S4_EE6resizeEj, .-_ZN8CIwArrayI12TileObstacle12CIwAllocatorIS0_15CIwMallocRouterIS0_EE17ReallocateDefaultIS0_S4_EE6resizeEj
	.section	.text._ZN8CIwArrayI12TileObstacle12CIwAllocatorIS0_15CIwMallocRouterIS0_EE17ReallocateDefaultIS0_S4_EE5clearEv,"axG",%progbits,_ZN8CIwArrayI12TileObstacle12CIwAllocatorIS0_15CIwMallocRouterIS0_EE17ReallocateDefaultIS0_S4_EE5clearEv,comdat
	.align	2
	.weak	_ZN8CIwArrayI12TileObstacle12CIwAllocatorIS0_15CIwMallocRouterIS0_EE17ReallocateDefaultIS0_S4_EE5clearEv
	.hidden	_ZN8CIwArrayI12TileObstacle12CIwAllocatorIS0_15CIwMallocRouterIS0_EE17ReallocateDefaultIS0_S4_EE5clearEv
	.type	_ZN8CIwArrayI12TileObstacle12CIwAllocatorIS0_15CIwMallocRouterIS0_EE17ReallocateDefaultIS0_S4_EE5clearEv, %function
_ZN8CIwArrayI12TileObstacle12CIwAllocatorIS0_15CIwMallocRouterIS0_EE17ReallocateDefaultIS0_S4_EE5clearEv:
.LFB3656:
	.loc 20 199 0
	.cfi_startproc
	@ args = 0, pretend = 0, frame = 8
	@ frame_needed = 0, uses_anonymous_args = 0
	str	lr, [sp, #-4]!
.LCFI94:
	.cfi_def_cfa_offset 4
	sub	sp, sp, #12
.LCFI95:
	.cfi_def_cfa_offset 16
	str	r0, [sp, #4]
	.loc 20 201 0
	ldr	r0, [sp, #4]
	mov	r1, #0
	.cfi_offset 14, -4
	bl	_ZN8CIwArrayI12TileObstacle12CIwAllocatorIS0_15CIwMallocRouterIS0_EE17ReallocateDefaultIS0_S4_EE8truncateEj
	.loc 20 202 0
	add	sp, sp, #12
	ldmfd	sp!, {pc}
	.cfi_endproc
.LFE3656:
	.size	_ZN8CIwArrayI12TileObstacle12CIwAllocatorIS0_15CIwMallocRouterIS0_EE17ReallocateDefaultIS0_S4_EE5clearEv, .-_ZN8CIwArrayI12TileObstacle12CIwAllocatorIS0_15CIwMallocRouterIS0_EE17ReallocateDefaultIS0_S4_EE5clearEv
	.section	.text._ZN12CIwAllocatorI12TileObstacle15CIwMallocRouterIS0_EE10deallocateEPS0_j,"axG",%progbits,_ZN12CIwAllocatorI12TileObstacle15CIwMallocRouterIS0_EE10deallocateEPS0_j,comdat
	.align	2
	.weak	_ZN12CIwAllocatorI12TileObstacle15CIwMallocRouterIS0_EE10deallocateEPS0_j
	.hidden	_ZN12CIwAllocatorI12TileObstacle15CIwMallocRouterIS0_EE10deallocateEPS0_j
	.type	_ZN12CIwAllocatorI12TileObstacle15CIwMallocRouterIS0_EE10deallocateEPS0_j, %function
_ZN12CIwAllocatorI12TileObstacle15CIwMallocRouterIS0_EE10deallocateEPS0_j:
.LFB3657:
	.loc 22 147 0
	.cfi_startproc
	@ args = 0, pretend = 0, frame = 16
	@ frame_needed = 0, uses_anonymous_args = 0
	str	lr, [sp, #-4]!
.LCFI96:
	.cfi_def_cfa_offset 4
	sub	sp, sp, #20
.LCFI97:
	.cfi_def_cfa_offset 24
	str	r0, [sp, #12]
	str	r1, [sp, #8]
	str	r2, [sp, #4]
	.loc 22 147 0
	ldr	r0, [sp, #8]
	.cfi_offset 14, -4
	bl	_ZN15CIwMallocRouterI12TileObstacleE6DoFreeEPv
	add	sp, sp, #20
	ldmfd	sp!, {pc}
	.cfi_endproc
.LFE3657:
	.size	_ZN12CIwAllocatorI12TileObstacle15CIwMallocRouterIS0_EE10deallocateEPS0_j, .-_ZN12CIwAllocatorI12TileObstacle15CIwMallocRouterIS0_EE10deallocateEPS0_j
	.section	.text._ZN4_STL13basic_ostreamIcNS_11char_traitsIcEEE14_M_put_nowidenEPKc,"axG",%progbits,_ZN4_STL13basic_ostreamIcNS_11char_traitsIcEEE14_M_put_nowidenEPKc,comdat
	.align	2
	.weak	_ZN4_STL13basic_ostreamIcNS_11char_traitsIcEEE14_M_put_nowidenEPKc
	.hidden	_ZN4_STL13basic_ostreamIcNS_11char_traitsIcEEE14_M_put_nowidenEPKc
	.type	_ZN4_STL13basic_ostreamIcNS_11char_traitsIcEEE14_M_put_nowidenEPKc, %function
_ZN4_STL13basic_ostreamIcNS_11char_traitsIcEEE14_M_put_nowidenEPKc:
.LFB3688:
	.file 24 "c:/marmalade/6.2/s3e/h/std/c++/stl/_ostream.c"
	.loc 24 271 0
	.cfi_startproc
	@ args = 0, pretend = 0, frame = 32
	@ frame_needed = 0, uses_anonymous_args = 0
	stmfd	sp!, {r4, lr}
.LCFI98:
	.cfi_def_cfa_offset 8
	sub	sp, sp, #32
.LCFI99:
	.cfi_def_cfa_offset 40
	str	r0, [sp, #4]
	str	r1, [sp, #0]
.LBB5:
	.loc 24 273 0
	add	r3, sp, #12
	mov	r0, r3
	ldr	r1, [sp, #4]
	.cfi_offset 14, -4
	.cfi_offset 4, -8
	bl	_ZN4_STL13basic_ostreamIcNS_11char_traitsIcEEE6sentryC1ERS3_
	.loc 24 274 0
	add	r3, sp, #12
	mov	r0, r3
	bl	_ZNK4_STL13basic_ostreamIcNS_11char_traitsIcEEE6sentrycvbEv
	mov	r3, r0
	cmp	r3, #0
	beq	.L200
.LBB6:
	.loc 24 275 0
	mov	r3, #1
	strb	r3, [sp, #23]
	.loc 24 276 0
	ldr	r0, [sp, #0]
	bl	_ZN4_STL11char_traitsIcE6lengthEPKc
	mov	r3, r0
	str	r3, [sp, #24]
	.loc 24 277 0
	ldr	r2, [sp, #4]
	ldr	r3, [sp, #4]
	ldr	r3, [r3, #0]
	sub	r3, r3, #12
	ldr	r3, [r3, #0]
	add	r3, r2, r3
	mov	r0, r3
	bl	_ZNK4_STL8ios_base5widthEv
	mov	r2, r0
	ldr	r3, [sp, #24]
	cmp	r2, r3
	ble	.L201
	ldr	r2, [sp, #4]
	ldr	r3, [sp, #4]
	ldr	r3, [r3, #0]
	sub	r3, r3, #12
	ldr	r3, [r3, #0]
	add	r3, r2, r3
	mov	r0, r3
	bl	_ZNK4_STL8ios_base5widthEv
	mov	r2, r0
	ldr	r3, [sp, #24]
	rsb	r3, r3, r2
	b	.L202
.L201:
	mov	r3, #0
.L202:
	str	r3, [sp, #28]
	.loc 24 280 0
	ldr	r3, [sp, #28]
	cmp	r3, #0
	bne	.L203
	.loc 24 281 0
	ldr	r2, [sp, #4]
	ldr	r3, [sp, #4]
	ldr	r3, [r3, #0]
	sub	r3, r3, #12
	ldr	r3, [r3, #0]
	add	r3, r2, r3
	mov	r0, r3
	bl	_ZNK4_STL9basic_iosIcNS_11char_traitsIcEEE5rdbufEv
	mov	r3, r0
	mov	r0, r3
	ldr	r1, [sp, #0]
	ldr	r2, [sp, #24]
	bl	_ZN4_STL15basic_streambufIcNS_11char_traitsIcEEE5sputnEPKci
	mov	r2, r0
	ldr	r3, [sp, #24]
	cmp	r2, r3
	moveq	r3, #0
	movne	r3, #1
	strb	r3, [sp, #23]
	b	.L204
.L203:
	.loc 24 282 0
	ldr	r2, [sp, #4]
	ldr	r3, [sp, #4]
	ldr	r3, [r3, #0]
	sub	r3, r3, #12
	ldr	r3, [r3, #0]
	add	r3, r2, r3
	mov	r0, r3
	bl	_ZNK4_STL8ios_base5flagsEv
	mov	r3, r0
	and	r3, r3, #7
	cmp	r3, #1
	movne	r3, #0
	moveq	r3, #1
	and	r3, r3, #255
	cmp	r3, #0
	beq	.L205
	.loc 24 283 0
	ldr	r2, [sp, #4]
	ldr	r3, [sp, #4]
	ldr	r3, [r3, #0]
	sub	r3, r3, #12
	ldr	r3, [r3, #0]
	add	r3, r2, r3
	mov	r0, r3
	bl	_ZNK4_STL9basic_iosIcNS_11char_traitsIcEEE5rdbufEv
	mov	r3, r0
	mov	r0, r3
	ldr	r1, [sp, #0]
	ldr	r2, [sp, #24]
	bl	_ZN4_STL15basic_streambufIcNS_11char_traitsIcEEE5sputnEPKci
	mov	r2, r0
	ldr	r3, [sp, #24]
	cmp	r2, r3
	moveq	r3, #0
	movne	r3, #1
	strb	r3, [sp, #23]
	.loc 24 284 0
	ldrb	r3, [sp, #23]	@ zero_extendqisi2
	cmp	r3, #0
	bne	.L206
	ldr	r2, [sp, #4]
	ldr	r3, [sp, #4]
	ldr	r3, [r3, #0]
	sub	r3, r3, #12
	ldr	r3, [r3, #0]
	add	r3, r2, r3
	mov	r0, r3
	bl	_ZNK4_STL9basic_iosIcNS_11char_traitsIcEEE5rdbufEv
	mov	r4, r0
	ldr	r2, [sp, #4]
	ldr	r3, [sp, #4]
	ldr	r3, [r3, #0]
	sub	r3, r3, #12
	ldr	r3, [r3, #0]
	add	r3, r2, r3
	mov	r0, r3
	bl	_ZNK4_STL9basic_iosIcNS_11char_traitsIcEEE4fillEv
	mov	r3, r0
	mov	r0, r4
	mov	r1, r3
	ldr	r2, [sp, #28]
	bl	_ZN4_STL15basic_streambufIcNS_11char_traitsIcEEE9_M_sputncEci
	mov	r2, r0
	ldr	r3, [sp, #28]
	cmp	r2, r3
	beq	.L207
.L206:
	mov	r3, #1
	b	.L208
.L207:
	mov	r3, #0
.L208:
	strb	r3, [sp, #23]
	b	.L204
.L205:
	.loc 24 288 0
	ldr	r2, [sp, #4]
	ldr	r3, [sp, #4]
	ldr	r3, [r3, #0]
	sub	r3, r3, #12
	ldr	r3, [r3, #0]
	add	r3, r2, r3
	mov	r0, r3
	bl	_ZNK4_STL9basic_iosIcNS_11char_traitsIcEEE5rdbufEv
	mov	r4, r0
	ldr	r2, [sp, #4]
	ldr	r3, [sp, #4]
	ldr	r3, [r3, #0]
	sub	r3, r3, #12
	ldr	r3, [r3, #0]
	add	r3, r2, r3
	mov	r0, r3
	bl	_ZNK4_STL9basic_iosIcNS_11char_traitsIcEEE4fillEv
	mov	r3, r0
	mov	r0, r4
	mov	r1, r3
	ldr	r2, [sp, #28]
	bl	_ZN4_STL15basic_streambufIcNS_11char_traitsIcEEE9_M_sputncEci
	mov	r2, r0
	ldr	r3, [sp, #28]
	cmp	r2, r3
	moveq	r3, #0
	movne	r3, #1
	strb	r3, [sp, #23]
	.loc 24 289 0
	ldrb	r3, [sp, #23]	@ zero_extendqisi2
	cmp	r3, #0
	bne	.L209
	ldr	r2, [sp, #4]
	ldr	r3, [sp, #4]
	ldr	r3, [r3, #0]
	sub	r3, r3, #12
	ldr	r3, [r3, #0]
	add	r3, r2, r3
	mov	r0, r3
	bl	_ZNK4_STL9basic_iosIcNS_11char_traitsIcEEE5rdbufEv
	mov	r3, r0
	mov	r0, r3
	ldr	r1, [sp, #0]
	ldr	r2, [sp, #24]
	bl	_ZN4_STL15basic_streambufIcNS_11char_traitsIcEEE5sputnEPKci
	mov	r2, r0
	ldr	r3, [sp, #24]
	cmp	r2, r3
	beq	.L210
.L209:
	mov	r3, #1
	b	.L211
.L210:
	mov	r3, #0
.L211:
	strb	r3, [sp, #23]
.L204:
	.loc 24 292 0
	ldr	r2, [sp, #4]
	ldr	r3, [sp, #4]
	ldr	r3, [r3, #0]
	sub	r3, r3, #12
	ldr	r3, [r3, #0]
	add	r3, r2, r3
	mov	r0, r3
	mov	r1, #0
	bl	_ZN4_STL8ios_base5widthEi
	.loc 24 298 0
	ldrb	r3, [sp, #23]	@ zero_extendqisi2
	cmp	r3, #0
	beq	.L200
	.loc 24 299 0
	ldr	r2, [sp, #4]
	ldr	r3, [sp, #4]
	ldr	r3, [r3, #0]
	sub	r3, r3, #12
	ldr	r3, [r3, #0]
	add	r3, r2, r3
	mov	r0, r3
	mov	r1, #4
	bl	_ZN4_STL9basic_iosIcNS_11char_traitsIcEEE8setstateEi
.L200:
.LBE6:
	add	r3, sp, #12
	mov	r0, r3
	bl	_ZN4_STL13basic_ostreamIcNS_11char_traitsIcEEE6sentryD1Ev
.LBE5:
	.loc 24 301 0
	add	sp, sp, #32
	ldmfd	sp!, {r4, pc}
	.cfi_endproc
.LFE3688:
	.size	_ZN4_STL13basic_ostreamIcNS_11char_traitsIcEEE14_M_put_nowidenEPKc, .-_ZN4_STL13basic_ostreamIcNS_11char_traitsIcEEE14_M_put_nowidenEPKc
	.section	.text._ZNK4_STL9basic_iosIcNS_11char_traitsIcEEE5widenEc,"axG",%progbits,_ZNK4_STL9basic_iosIcNS_11char_traitsIcEEE5widenEc,comdat
	.align	2
	.weak	_ZNK4_STL9basic_iosIcNS_11char_traitsIcEEE5widenEc
	.hidden	_ZNK4_STL9basic_iosIcNS_11char_traitsIcEEE5widenEc
	.type	_ZNK4_STL9basic_iosIcNS_11char_traitsIcEEE5widenEc, %function
_ZNK4_STL9basic_iosIcNS_11char_traitsIcEEE5widenEc:
.LFB3689:
	.file 25 "c:/marmalade/6.2/s3e/h/std/c++/stl/_ios.h"
	.loc 25 141 0
	.cfi_startproc
	@ args = 0, pretend = 0, frame = 8
	@ frame_needed = 0, uses_anonymous_args = 0
	str	lr, [sp, #-4]!
.LCFI100:
	.cfi_def_cfa_offset 4
	sub	sp, sp, #12
.LCFI101:
	.cfi_def_cfa_offset 16
	str	r0, [sp, #4]
	mov	r3, r1
	strb	r3, [sp, #3]
	.loc 25 143 0
	ldr	r3, [sp, #4]
	mov	r0, r3
	.cfi_offset 14, -4
	bl	_ZNK4_STL8ios_base14_M_ctype_facetEv
	mov	r3, r0
	mov	r2, r3
	ldrb	r3, [sp, #3]	@ zero_extendqisi2
	mov	r0, r2
	mov	r1, r3
	bl	_ZNK4_STL5ctypeIcE5widenEc
	mov	r3, r0
	mov	r0, r3
	add	sp, sp, #12
	ldmfd	sp!, {pc}
	.cfi_endproc
.LFE3689:
	.size	_ZNK4_STL9basic_iosIcNS_11char_traitsIcEEE5widenEc, .-_ZNK4_STL9basic_iosIcNS_11char_traitsIcEEE5widenEc
	.section	.text._ZN4_STL13basic_ostreamIcNS_11char_traitsIcEEE3putEc,"axG",%progbits,_ZN4_STL13basic_ostreamIcNS_11char_traitsIcEEE3putEc,comdat
	.align	2
	.weak	_ZN4_STL13basic_ostreamIcNS_11char_traitsIcEEE3putEc
	.hidden	_ZN4_STL13basic_ostreamIcNS_11char_traitsIcEEE3putEc
	.type	_ZN4_STL13basic_ostreamIcNS_11char_traitsIcEEE3putEc, %function
_ZN4_STL13basic_ostreamIcNS_11char_traitsIcEEE3putEc:
.LFB3690:
	.loc 24 351 0
	.cfi_startproc
	@ args = 0, pretend = 0, frame = 24
	@ frame_needed = 0, uses_anonymous_args = 0
	stmfd	sp!, {r4, lr}
.LCFI102:
	.cfi_def_cfa_offset 8
	sub	sp, sp, #24
.LCFI103:
	.cfi_def_cfa_offset 32
	str	r0, [sp, #4]
	mov	r3, r1
	strb	r3, [sp, #3]
.LBB7:
	.loc 24 353 0
	add	r3, sp, #12
	mov	r0, r3
	ldr	r1, [sp, #4]
	.cfi_offset 14, -4
	.cfi_offset 4, -8
	bl	_ZN4_STL13basic_ostreamIcNS_11char_traitsIcEEE6sentryC1ERS3_
	.loc 24 354 0
	mov	r3, #1
	strb	r3, [sp, #23]
	.loc 24 356 0
	add	r3, sp, #12
	mov	r0, r3
	bl	_ZNK4_STL13basic_ostreamIcNS_11char_traitsIcEEE6sentrycvbEv
	mov	r3, r0
	cmp	r3, #0
	beq	.L216
	.loc 24 358 0
	ldr	r2, [sp, #4]
	ldr	r3, [sp, #4]
	ldr	r3, [r3, #0]
	sub	r3, r3, #12
	ldr	r3, [r3, #0]
	add	r3, r2, r3
	mov	r0, r3
	bl	_ZNK4_STL9basic_iosIcNS_11char_traitsIcEEE5rdbufEv
	mov	r2, r0
	ldrb	r3, [sp, #3]	@ zero_extendqisi2
	mov	r0, r2
	mov	r1, r3
	bl	_ZN4_STL15basic_streambufIcNS_11char_traitsIcEEE5sputcEc
	mov	r3, r0
	mov	r0, r3
	bl	_ZN4_STL9basic_iosIcNS_11char_traitsIcEEE6_S_eofEi
	mov	r3, r0
	strb	r3, [sp, #23]
	.loc 24 360 0
	mov	r0, r0	@ nop
.L216:
	.loc 24 365 0
	ldrb	r3, [sp, #23]	@ zero_extendqisi2
	cmp	r3, #0
	beq	.L217
	.loc 24 366 0
	ldr	r2, [sp, #4]
	ldr	r3, [sp, #4]
	ldr	r3, [r3, #0]
	sub	r3, r3, #12
	ldr	r3, [r3, #0]
	add	r3, r2, r3
	mov	r0, r3
	mov	r1, #1
	bl	_ZN4_STL9basic_iosIcNS_11char_traitsIcEEE8setstateEi
.L217:
	.loc 24 368 0
	ldr	r4, [sp, #4]
	add	r3, sp, #12
	mov	r0, r3
	bl	_ZN4_STL13basic_ostreamIcNS_11char_traitsIcEEE6sentryD1Ev
	mov	r3, r4
.LBE7:
	.loc 24 369 0
	mov	r0, r3
	add	sp, sp, #24
	ldmfd	sp!, {r4, pc}
	.cfi_endproc
.LFE3690:
	.size	_ZN4_STL13basic_ostreamIcNS_11char_traitsIcEEE3putEc, .-_ZN4_STL13basic_ostreamIcNS_11char_traitsIcEEE3putEc
	.section	.text._ZN4_STL13basic_ostreamIcNS_11char_traitsIcEEE5flushEv,"axG",%progbits,_ZN4_STL13basic_ostreamIcNS_11char_traitsIcEEE5flushEv,comdat
	.align	2
	.weak	_ZN4_STL13basic_ostreamIcNS_11char_traitsIcEEE5flushEv
	.hidden	_ZN4_STL13basic_ostreamIcNS_11char_traitsIcEEE5flushEv
	.type	_ZN4_STL13basic_ostreamIcNS_11char_traitsIcEEE5flushEv, %function
_ZN4_STL13basic_ostreamIcNS_11char_traitsIcEEE5flushEv:
.LFB3691:
	.loc 21 128 0
	.cfi_startproc
	@ args = 0, pretend = 0, frame = 8
	@ frame_needed = 0, uses_anonymous_args = 0
	str	lr, [sp, #-4]!
.LCFI104:
	.cfi_def_cfa_offset 4
	sub	sp, sp, #12
.LCFI105:
	.cfi_def_cfa_offset 16
	str	r0, [sp, #4]
	.loc 21 129 0
	ldr	r2, [sp, #4]
	ldr	r3, [sp, #4]
	ldr	r3, [r3, #0]
	sub	r3, r3, #12
	ldr	r3, [r3, #0]
	add	r3, r2, r3
	mov	r0, r3
	.cfi_offset 14, -4
	bl	_ZNK4_STL9basic_iosIcNS_11char_traitsIcEEE5rdbufEv
	mov	r3, r0
	cmp	r3, #0
	moveq	r3, #0
	movne	r3, #1
	and	r3, r3, #255
	cmp	r3, #0
	beq	.L220
	.loc 21 130 0
	ldr	r2, [sp, #4]
	ldr	r3, [sp, #4]
	ldr	r3, [r3, #0]
	sub	r3, r3, #12
	ldr	r3, [r3, #0]
	add	r3, r2, r3
	mov	r0, r3
	bl	_ZNK4_STL9basic_iosIcNS_11char_traitsIcEEE5rdbufEv
	mov	r3, r0
	mov	r0, r3
	bl	_ZN4_STL15basic_streambufIcNS_11char_traitsIcEEE7pubsyncEv
	mov	r3, r0
	cmn	r3, #1
	movne	r3, #0
	moveq	r3, #1
	and	r3, r3, #255
	cmp	r3, #0
	beq	.L220
	.loc 21 131 0
	ldr	r2, [sp, #4]
	ldr	r3, [sp, #4]
	ldr	r3, [r3, #0]
	sub	r3, r3, #12
	ldr	r3, [r3, #0]
	add	r3, r2, r3
	mov	r0, r3
	mov	r1, #1
	bl	_ZN4_STL9basic_iosIcNS_11char_traitsIcEEE8setstateEi
.L220:
	.loc 21 132 0
	ldr	r3, [sp, #4]
	.loc 21 133 0
	mov	r0, r3
	add	sp, sp, #12
	ldmfd	sp!, {pc}
	.cfi_endproc
.LFE3691:
	.size	_ZN4_STL13basic_ostreamIcNS_11char_traitsIcEEE5flushEv, .-_ZN4_STL13basic_ostreamIcNS_11char_traitsIcEEE5flushEv
	.section	.text._ZN15CIwMallocRouterIiE6DoFreeEPv,"axG",%progbits,_ZN15CIwMallocRouterIiE6DoFreeEPv,comdat
	.align	2
	.weak	_ZN15CIwMallocRouterIiE6DoFreeEPv
	.hidden	_ZN15CIwMallocRouterIiE6DoFreeEPv
	.type	_ZN15CIwMallocRouterIiE6DoFreeEPv, %function
_ZN15CIwMallocRouterIiE6DoFreeEPv:
.LFB3704:
	.loc 22 93 0
	.cfi_startproc
	@ args = 0, pretend = 0, frame = 8
	@ frame_needed = 0, uses_anonymous_args = 0
	str	lr, [sp, #-4]!
.LCFI106:
	.cfi_def_cfa_offset 4
	sub	sp, sp, #12
.LCFI107:
	.cfi_def_cfa_offset 16
	str	r0, [sp, #4]
	.loc 22 95 0
	ldr	r0, [sp, #4]
	mov	r1, #4
	.cfi_offset 14, -4
	bl	_ZN22CIwDefaultMallocRouter8BaseFreeEPvj
	.loc 22 96 0
	add	sp, sp, #12
	ldmfd	sp!, {pc}
	.cfi_endproc
.LFE3704:
	.size	_ZN15CIwMallocRouterIiE6DoFreeEPv, .-_ZN15CIwMallocRouterIiE6DoFreeEPv
	.section	.text._ZN4_STL17_STLP_alloc_proxyIP8ObstacleS1_NS_9allocatorIS1_EEEC1ERKS4_S2_,"axG",%progbits,_ZN4_STL17_STLP_alloc_proxyIP8ObstacleS1_NS_9allocatorIS1_EEEC1ERKS4_S2_,comdat
	.align	2
	.weak	_ZN4_STL17_STLP_alloc_proxyIP8ObstacleS1_NS_9allocatorIS1_EEEC1ERKS4_S2_
	.hidden	_ZN4_STL17_STLP_alloc_proxyIP8ObstacleS1_NS_9allocatorIS1_EEEC1ERKS4_S2_
	.type	_ZN4_STL17_STLP_alloc_proxyIP8ObstacleS1_NS_9allocatorIS1_EEEC1ERKS4_S2_, %function
_ZN4_STL17_STLP_alloc_proxyIP8ObstacleS1_NS_9allocatorIS1_EEEC1ERKS4_S2_:
.LFB3708:
	.loc 18 487 0
	.cfi_startproc
	@ args = 0, pretend = 0, frame = 16
	@ frame_needed = 0, uses_anonymous_args = 0
	str	lr, [sp, #-4]!
.LCFI108:
	.cfi_def_cfa_offset 4
	sub	sp, sp, #20
.LCFI109:
	.cfi_def_cfa_offset 24
	str	r0, [sp, #12]
	str	r1, [sp, #8]
	str	r2, [sp, #4]
	.loc 18 487 0
	ldr	r3, [sp, #12]
	mov	r0, r3
	ldr	r1, [sp, #8]
	.cfi_offset 14, -4
	bl	_ZN4_STL9allocatorI8ObstacleEC2ERKS2_
	ldr	r3, [sp, #12]
	ldr	r2, [sp, #4]
	str	r2, [r3, #0]
	ldr	r3, [sp, #12]
	mov	r0, r3
	add	sp, sp, #20
	ldmfd	sp!, {pc}
	.cfi_endproc
.LFE3708:
	.size	_ZN4_STL17_STLP_alloc_proxyIP8ObstacleS1_NS_9allocatorIS1_EEEC1ERKS4_S2_, .-_ZN4_STL17_STLP_alloc_proxyIP8ObstacleS1_NS_9allocatorIS1_EEEC1ERKS4_S2_
	.section	.text._ZN4_STL9allocatorI8ObstacleE10deallocateEPS1_j,"axG",%progbits,_ZN4_STL9allocatorI8ObstacleE10deallocateEPS1_j,comdat
	.align	2
	.weak	_ZN4_STL9allocatorI8ObstacleE10deallocateEPS1_j
	.hidden	_ZN4_STL9allocatorI8ObstacleE10deallocateEPS1_j
	.type	_ZN4_STL9allocatorI8ObstacleE10deallocateEPS1_j, %function
_ZN4_STL9allocatorI8ObstacleE10deallocateEPS1_j:
.LFB3709:
	.loc 18 358 0
	.cfi_startproc
	@ args = 0, pretend = 0, frame = 16
	@ frame_needed = 0, uses_anonymous_args = 0
	str	lr, [sp, #-4]!
.LCFI110:
	.cfi_def_cfa_offset 4
	sub	sp, sp, #20
.LCFI111:
	.cfi_def_cfa_offset 24
	str	r0, [sp, #12]
	str	r1, [sp, #8]
	str	r2, [sp, #4]
	.loc 18 360 0
	ldr	r3, [sp, #8]
	cmp	r3, #0
	beq	.L229
	.cfi_offset 14, -4
	ldr	r3, [sp, #4]
	mov	r3, r3, asl #4
	ldr	r0, [sp, #8]
	mov	r1, r3
	bl	_ZN4_STL14__malloc_allocILi0EE10deallocateEPvj
.L229:
	.loc 18 361 0
	add	sp, sp, #20
	ldmfd	sp!, {pc}
	.cfi_endproc
.LFE3709:
	.size	_ZN4_STL9allocatorI8ObstacleE10deallocateEPS1_j, .-_ZN4_STL9allocatorI8ObstacleE10deallocateEPS1_j
	.section	.text._ZN4_STL9__destroyIP8ObstacleS1_EEvT_S3_PT0_,"axG",%progbits,_ZN4_STL9__destroyIP8ObstacleS1_EEvT_S3_PT0_,comdat
	.align	2
	.weak	_ZN4_STL9__destroyIP8ObstacleS1_EEvT_S3_PT0_
	.hidden	_ZN4_STL9__destroyIP8ObstacleS1_EEvT_S3_PT0_
	.type	_ZN4_STL9__destroyIP8ObstacleS1_EEvT_S3_PT0_, %function
_ZN4_STL9__destroyIP8ObstacleS1_EEvT_S3_PT0_:
.LFB3710:
	.loc 23 132 0
	.cfi_startproc
	@ args = 0, pretend = 0, frame = 24
	@ frame_needed = 0, uses_anonymous_args = 0
	str	lr, [sp, #-4]!
.LCFI112:
	.cfi_def_cfa_offset 4
	sub	sp, sp, #28
.LCFI113:
	.cfi_def_cfa_offset 32
	str	r0, [sp, #12]
	str	r1, [sp, #8]
	str	r2, [sp, #4]
.LBB8:
	.loc 23 134 0
	add	r3, sp, #20
	ldr	r0, [sp, #12]
	ldr	r1, [sp, #8]
	mov	r2, r3
	.cfi_offset 14, -4
	bl	_ZN4_STL13__destroy_auxIP8ObstacleEEvT_S3_RKNS_12__false_typeE
.LBE8:
	.loc 23 135 0
	add	sp, sp, #28
	ldmfd	sp!, {pc}
	.cfi_endproc
.LFE3710:
	.size	_ZN4_STL9__destroyIP8ObstacleS1_EEvT_S3_PT0_, .-_ZN4_STL9__destroyIP8ObstacleS1_EEvT_S3_PT0_
	.section	.rodata
	.align	2
.LC7:
	.ascii	"CORE\000"
	.align	2
.LC8:
	.ascii	"q<=num_p\000"
	.align	2
.LC9:
	.ascii	"c:/marmalade/6.2/modules/iwutil/h/IwArray.h\000"
	.section	.text._ZN8CIwArrayIi12CIwAllocatorIi15CIwMallocRouterIiEE17ReallocateDefaultIiS3_EE8truncateEj,"axG",%progbits,_ZN8CIwArrayIi12CIwAllocatorIi15CIwMallocRouterIiEE17ReallocateDefaultIiS3_EE8truncateEj,comdat
	.align	2
	.weak	_ZN8CIwArrayIi12CIwAllocatorIi15CIwMallocRouterIiEE17ReallocateDefaultIiS3_EE8truncateEj
	.hidden	_ZN8CIwArrayIi12CIwAllocatorIi15CIwMallocRouterIiEE17ReallocateDefaultIiS3_EE8truncateEj
	.type	_ZN8CIwArrayIi12CIwAllocatorIi15CIwMallocRouterIiEE17ReallocateDefaultIiS3_EE8truncateEj, %function
_ZN8CIwArrayIi12CIwAllocatorIi15CIwMallocRouterIiEE17ReallocateDefaultIiS3_EE8truncateEj:
.LFB3711:
	.loc 20 765 0
	.cfi_startproc
	@ args = 0, pretend = 0, frame = 16
	@ frame_needed = 0, uses_anonymous_args = 0
	str	lr, [sp, #-4]!
.LCFI114:
	.cfi_def_cfa_offset 4
	sub	sp, sp, #20
.LCFI115:
	.cfi_def_cfa_offset 24
	str	r0, [sp, #4]
	str	r1, [sp, #0]
.LBB9:
.LBB10:
	.loc 20 767 0
	ldr	r3, [sp, #4]
	ldr	r2, [r3, #4]
	ldr	r3, [sp, #0]
	cmp	r2, r3
	bcs	.L233
	.cfi_offset 14, -4
	ldr	r0, .L246
	bl	IwDebugAssertIsChannelOn
	mov	r3, r0
	cmp	r3, #0
	beq	.L233
	ldr	r3, .L246+4
	ldrb	r3, [r3, #0]	@ zero_extendqisi2
	cmp	r3, #0
	bne	.L233
	mov	r3, #1
	b	.L234
.L233:
	mov	r3, #0
.L234:
	cmp	r3, #0
	beq	.L235
	mov	r0, #0
	bl	IwDebugAssertSetSolution
	mov	r0, #0
	bl	IwDebugAssertSetUID
	mov	r0, #0
	bl	IwDebugAssertSetMessage
	ldr	r0, .L246+8
	ldr	r1, .L246+12
	ldr	r2, .L246+16
	mov	r3, #1
	bl	IwDebugAssertShow
	mov	r3, r0
	cmp	r3, #1
	beq	.L237
	cmp	r3, #2
	beq	.L238
	b	.L236
.L237:
	bl	s3eDebugIsDebuggerPresent
	mov	r3, r0
	cmp	r3, #0
	moveq	r3, #0
	movne	r3, #1
	and	r3, r3, #255
	cmp	r3, #0
	beq	.L239
	bl	s3eDebugIsDebuggerPresent
	mov	r3, r0
	cmp	r3, #0
	moveq	r3, #0
	movne	r3, #1
	and	r3, r3, #255
	cmp	r3, #0
	beq	.L245
	mvn	r3, #11
	mov	r2, #0
	str	r2, [r3, #0]
	b	.L236
.L239:
	bl	_ZL11IwDebugExitv
	b	.L236
.L238:
	ldr	r3, .L246+4
	mov	r2, #1
	strb	r2, [r3, #0]
	b	.L236
.L245:
	mov	r0, r0	@ nop
.L236:
	mov	r0, #0
	bl	IwDebugAssertSetUID
.L235:
.LBE10:
.LBB11:
	.loc 20 769 0
	ldr	r3, [sp, #0]
	str	r3, [sp, #12]
	b	.L242
.L243:
	ldr	r3, [sp, #12]
	add	r3, r3, #1
	str	r3, [sp, #12]
.L242:
	ldr	r3, [sp, #4]
	ldr	r2, [r3, #4]
	ldr	r3, [sp, #12]
	cmp	r2, r3
	movls	r3, #0
	movhi	r3, #1
	and	r3, r3, #255
	cmp	r3, #0
	bne	.L243
.LBE11:
	.loc 20 771 0
	ldr	r3, [sp, #4]
	ldr	r2, [sp, #0]
	str	r2, [r3, #4]
.LBE9:
	.loc 20 772 0
	add	sp, sp, #20
	ldmfd	sp!, {pc}
.L247:
	.align	2
.L246:
	.word	.LC7
	.word	_ZZN8CIwArrayIi12CIwAllocatorIi15CIwMallocRouterIiEE17ReallocateDefaultIiS3_EE8truncateEjE21_s_IwAssertIgnoreThis
	.word	.LC8
	.word	.LC9
	.word	767
	.cfi_endproc
.LFE3711:
	.size	_ZN8CIwArrayIi12CIwAllocatorIi15CIwMallocRouterIiEE17ReallocateDefaultIiS3_EE8truncateEj, .-_ZN8CIwArrayIi12CIwAllocatorIi15CIwMallocRouterIiEE17ReallocateDefaultIiS3_EE8truncateEj
	.section	.rodata
	.align	2
.LC10:
	.ascii	"qty>=0\000"
	.section	.text._ZN8CIwArrayIi12CIwAllocatorIi15CIwMallocRouterIiEE17ReallocateDefaultIiS3_EE13push_back_qtyEi,"axG",%progbits,_ZN8CIwArrayIi12CIwAllocatorIi15CIwMallocRouterIiEE17ReallocateDefaultIiS3_EE13push_back_qtyEi,comdat
	.align	2
	.weak	_ZN8CIwArrayIi12CIwAllocatorIi15CIwMallocRouterIiEE17ReallocateDefaultIiS3_EE13push_back_qtyEi
	.hidden	_ZN8CIwArrayIi12CIwAllocatorIi15CIwMallocRouterIiEE17ReallocateDefaultIiS3_EE13push_back_qtyEi
	.type	_ZN8CIwArrayIi12CIwAllocatorIi15CIwMallocRouterIiEE17ReallocateDefaultIiS3_EE13push_back_qtyEi, %function
_ZN8CIwArrayIi12CIwAllocatorIi15CIwMallocRouterIiEE17ReallocateDefaultIiS3_EE13push_back_qtyEi:
.LFB3712:
	.loc 20 679 0
	.cfi_startproc
	@ args = 0, pretend = 0, frame = 16
	@ frame_needed = 0, uses_anonymous_args = 0
	str	lr, [sp, #-4]!
.LCFI116:
	.cfi_def_cfa_offset 4
	sub	sp, sp, #20
.LCFI117:
	.cfi_def_cfa_offset 24
	str	r0, [sp, #4]
	str	r1, [sp, #0]
.LBB12:
.LBB13:
	.loc 20 681 0
	ldr	r3, [sp, #0]
	cmp	r3, #0
	bge	.L249
	.cfi_offset 14, -4
	ldr	r0, .L262
	bl	IwDebugAssertIsChannelOn
	mov	r3, r0
	cmp	r3, #0
	beq	.L249
	ldr	r3, .L262+4
	ldrb	r3, [r3, #0]	@ zero_extendqisi2
	cmp	r3, #0
	bne	.L249
	mov	r3, #1
	b	.L250
.L249:
	mov	r3, #0
.L250:
	cmp	r3, #0
	beq	.L251
	mov	r0, #0
	bl	IwDebugAssertSetSolution
	mov	r0, #0
	bl	IwDebugAssertSetUID
	mov	r0, #0
	bl	IwDebugAssertSetMessage
	ldr	r0, .L262+8
	ldr	r1, .L262+12
	ldr	r2, .L262+16
	mov	r3, #1
	bl	IwDebugAssertShow
	mov	r3, r0
	cmp	r3, #1
	beq	.L253
	cmp	r3, #2
	beq	.L254
	b	.L252
.L253:
	bl	s3eDebugIsDebuggerPresent
	mov	r3, r0
	cmp	r3, #0
	moveq	r3, #0
	movne	r3, #1
	and	r3, r3, #255
	cmp	r3, #0
	beq	.L255
	bl	s3eDebugIsDebuggerPresent
	mov	r3, r0
	cmp	r3, #0
	moveq	r3, #0
	movne	r3, #1
	and	r3, r3, #255
	cmp	r3, #0
	beq	.L261
	mvn	r3, #11
	mov	r2, #0
	str	r2, [r3, #0]
	b	.L252
.L255:
	bl	_ZL11IwDebugExitv
	b	.L252
.L254:
	ldr	r3, .L262+4
	mov	r2, #1
	strb	r2, [r3, #0]
	b	.L252
.L261:
	mov	r0, r0	@ nop
.L252:
	mov	r0, #0
	bl	IwDebugAssertSetUID
.L251:
.LBE13:
	.loc 20 682 0
	ldr	r3, [sp, #4]
	ldr	r2, [r3, #4]
	ldr	r3, [sp, #0]
	add	r3, r2, r3
	ldr	r0, [sp, #4]
	mov	r1, r3
	bl	_ZN8CIwArrayIi12CIwAllocatorIi15CIwMallocRouterIiEE17ReallocateDefaultIiS3_EE7reserveEj
.LBB14:
	.loc 20 683 0
	mov	r3, #0
	str	r3, [sp, #12]
	b	.L258
.L259:
	.loc 20 684 0
	ldr	r3, [sp, #4]
	ldr	r2, [r3, #0]
	ldr	r3, [sp, #4]
	ldr	r1, [r3, #4]
	ldr	r3, [sp, #12]
	add	r3, r1, r3
	mov	r3, r3, asl #2
	add	r3, r2, r3
	mov	r0, #4
	mov	r1, r3
	bl	_ZnwjPv
	.loc 20 683 0
	ldr	r3, [sp, #12]
	add	r3, r3, #1
	str	r3, [sp, #12]
.L258:
	ldr	r2, [sp, #12]
	ldr	r3, [sp, #0]
	cmp	r2, r3
	movge	r3, #0
	movlt	r3, #1
	and	r3, r3, #255
	cmp	r3, #0
	bne	.L259
.LBE14:
	.loc 20 685 0
	ldr	r3, [sp, #4]
	ldr	r2, [r3, #4]
	ldr	r3, [sp, #0]
	add	r2, r2, r3
	ldr	r3, [sp, #4]
	str	r2, [r3, #4]
.LBE12:
	.loc 20 686 0
	add	sp, sp, #20
	ldmfd	sp!, {pc}
.L263:
	.align	2
.L262:
	.word	.LC7
	.word	_ZZN8CIwArrayIi12CIwAllocatorIi15CIwMallocRouterIiEE17ReallocateDefaultIiS3_EE13push_back_qtyEiE21_s_IwAssertIgnoreThis
	.word	.LC10
	.word	.LC9
	.word	681
	.cfi_endproc
.LFE3712:
	.size	_ZN8CIwArrayIi12CIwAllocatorIi15CIwMallocRouterIiEE17ReallocateDefaultIiS3_EE13push_back_qtyEi, .-_ZN8CIwArrayIi12CIwAllocatorIi15CIwMallocRouterIiEE17ReallocateDefaultIiS3_EE13push_back_qtyEi
	.section	.text._ZN8CIwArrayI12TileObstacle12CIwAllocatorIS0_15CIwMallocRouterIS0_EE17ReallocateDefaultIS0_S4_EE8truncateEj,"axG",%progbits,_ZN8CIwArrayI12TileObstacle12CIwAllocatorIS0_15CIwMallocRouterIS0_EE17ReallocateDefaultIS0_S4_EE8truncateEj,comdat
	.align	2
	.weak	_ZN8CIwArrayI12TileObstacle12CIwAllocatorIS0_15CIwMallocRouterIS0_EE17ReallocateDefaultIS0_S4_EE8truncateEj
	.hidden	_ZN8CIwArrayI12TileObstacle12CIwAllocatorIS0_15CIwMallocRouterIS0_EE17ReallocateDefaultIS0_S4_EE8truncateEj
	.type	_ZN8CIwArrayI12TileObstacle12CIwAllocatorIS0_15CIwMallocRouterIS0_EE17ReallocateDefaultIS0_S4_EE8truncateEj, %function
_ZN8CIwArrayI12TileObstacle12CIwAllocatorIS0_15CIwMallocRouterIS0_EE17ReallocateDefaultIS0_S4_EE8truncateEj:
.LFB3716:
	.loc 20 765 0
	.cfi_startproc
	@ args = 0, pretend = 0, frame = 16
	@ frame_needed = 0, uses_anonymous_args = 0
	str	lr, [sp, #-4]!
.LCFI118:
	.cfi_def_cfa_offset 4
	sub	sp, sp, #20
.LCFI119:
	.cfi_def_cfa_offset 24
	str	r0, [sp, #4]
	str	r1, [sp, #0]
.LBB15:
.LBB16:
	.loc 20 767 0
	ldr	r3, [sp, #4]
	ldr	r2, [r3, #4]
	ldr	r3, [sp, #0]
	cmp	r2, r3
	bcs	.L265
	.cfi_offset 14, -4
	ldr	r0, .L278
	bl	IwDebugAssertIsChannelOn
	mov	r3, r0
	cmp	r3, #0
	beq	.L265
	ldr	r3, .L278+4
	ldrb	r3, [r3, #0]	@ zero_extendqisi2
	cmp	r3, #0
	bne	.L265
	mov	r3, #1
	b	.L266
.L265:
	mov	r3, #0
.L266:
	cmp	r3, #0
	beq	.L267
	mov	r0, #0
	bl	IwDebugAssertSetSolution
	mov	r0, #0
	bl	IwDebugAssertSetUID
	mov	r0, #0
	bl	IwDebugAssertSetMessage
	ldr	r0, .L278+8
	ldr	r1, .L278+12
	ldr	r2, .L278+16
	mov	r3, #1
	bl	IwDebugAssertShow
	mov	r3, r0
	cmp	r3, #1
	beq	.L269
	cmp	r3, #2
	beq	.L270
	b	.L268
.L269:
	bl	s3eDebugIsDebuggerPresent
	mov	r3, r0
	cmp	r3, #0
	moveq	r3, #0
	movne	r3, #1
	and	r3, r3, #255
	cmp	r3, #0
	beq	.L271
	bl	s3eDebugIsDebuggerPresent
	mov	r3, r0
	cmp	r3, #0
	moveq	r3, #0
	movne	r3, #1
	and	r3, r3, #255
	cmp	r3, #0
	beq	.L277
	mvn	r3, #11
	mov	r2, #0
	str	r2, [r3, #0]
	b	.L268
.L271:
	bl	_ZL11IwDebugExitv
	b	.L268
.L270:
	ldr	r3, .L278+4
	mov	r2, #1
	strb	r2, [r3, #0]
	b	.L268
.L277:
	mov	r0, r0	@ nop
.L268:
	mov	r0, #0
	bl	IwDebugAssertSetUID
.L267:
.LBE16:
.LBB17:
	.loc 20 769 0
	ldr	r3, [sp, #0]
	str	r3, [sp, #12]
	b	.L274
.L275:
	.loc 20 770 0
	ldr	r3, [sp, #4]
	ldr	r2, [r3, #0]
	ldr	r3, [sp, #12]
	mov	r1, #44
	mul	r3, r1, r3
	add	r3, r2, r3
	mov	r0, r3
	bl	_ZN12TileObstacleD1Ev
	.loc 20 769 0
	ldr	r3, [sp, #12]
	add	r3, r3, #1
	str	r3, [sp, #12]
.L274:
	ldr	r3, [sp, #4]
	ldr	r2, [r3, #4]
	ldr	r3, [sp, #12]
	cmp	r2, r3
	movls	r3, #0
	movhi	r3, #1
	and	r3, r3, #255
	cmp	r3, #0
	bne	.L275
.LBE17:
	.loc 20 771 0
	ldr	r3, [sp, #4]
	ldr	r2, [sp, #0]
	str	r2, [r3, #4]
.LBE15:
	.loc 20 772 0
	add	sp, sp, #20
	ldmfd	sp!, {pc}
.L279:
	.align	2
.L278:
	.word	.LC7
	.word	_ZZN8CIwArrayI12TileObstacle12CIwAllocatorIS0_15CIwMallocRouterIS0_EE17ReallocateDefaultIS0_S4_EE8truncateEjE21_s_IwAssertIgnoreThis
	.word	.LC8
	.word	.LC9
	.word	767
	.cfi_endproc
.LFE3716:
	.size	_ZN8CIwArrayI12TileObstacle12CIwAllocatorIS0_15CIwMallocRouterIS0_EE17ReallocateDefaultIS0_S4_EE8truncateEj, .-_ZN8CIwArrayI12TileObstacle12CIwAllocatorIS0_15CIwMallocRouterIS0_EE17ReallocateDefaultIS0_S4_EE8truncateEj
	.section	.text._ZN8CIwArrayI12TileObstacle12CIwAllocatorIS0_15CIwMallocRouterIS0_EE17ReallocateDefaultIS0_S4_EE13push_back_qtyEi,"axG",%progbits,_ZN8CIwArrayI12TileObstacle12CIwAllocatorIS0_15CIwMallocRouterIS0_EE17ReallocateDefaultIS0_S4_EE13push_back_qtyEi,comdat
	.align	2
	.weak	_ZN8CIwArrayI12TileObstacle12CIwAllocatorIS0_15CIwMallocRouterIS0_EE17ReallocateDefaultIS0_S4_EE13push_back_qtyEi
	.hidden	_ZN8CIwArrayI12TileObstacle12CIwAllocatorIS0_15CIwMallocRouterIS0_EE17ReallocateDefaultIS0_S4_EE13push_back_qtyEi
	.type	_ZN8CIwArrayI12TileObstacle12CIwAllocatorIS0_15CIwMallocRouterIS0_EE17ReallocateDefaultIS0_S4_EE13push_back_qtyEi, %function
_ZN8CIwArrayI12TileObstacle12CIwAllocatorIS0_15CIwMallocRouterIS0_EE17ReallocateDefaultIS0_S4_EE13push_back_qtyEi:
.LFB3717:
	.loc 20 679 0
	.cfi_startproc
	@ args = 0, pretend = 0, frame = 16
	@ frame_needed = 0, uses_anonymous_args = 0
	str	lr, [sp, #-4]!
.LCFI120:
	.cfi_def_cfa_offset 4
	sub	sp, sp, #20
.LCFI121:
	.cfi_def_cfa_offset 24
	str	r0, [sp, #4]
	str	r1, [sp, #0]
.LBB18:
.LBB19:
	.loc 20 681 0
	ldr	r3, [sp, #0]
	cmp	r3, #0
	bge	.L281
	.cfi_offset 14, -4
	ldr	r0, .L294
	bl	IwDebugAssertIsChannelOn
	mov	r3, r0
	cmp	r3, #0
	beq	.L281
	ldr	r3, .L294+4
	ldrb	r3, [r3, #0]	@ zero_extendqisi2
	cmp	r3, #0
	bne	.L281
	mov	r3, #1
	b	.L282
.L281:
	mov	r3, #0
.L282:
	cmp	r3, #0
	beq	.L283
	mov	r0, #0
	bl	IwDebugAssertSetSolution
	mov	r0, #0
	bl	IwDebugAssertSetUID
	mov	r0, #0
	bl	IwDebugAssertSetMessage
	ldr	r0, .L294+8
	ldr	r1, .L294+12
	ldr	r2, .L294+16
	mov	r3, #1
	bl	IwDebugAssertShow
	mov	r3, r0
	cmp	r3, #1
	beq	.L285
	cmp	r3, #2
	beq	.L286
	b	.L284
.L285:
	bl	s3eDebugIsDebuggerPresent
	mov	r3, r0
	cmp	r3, #0
	moveq	r3, #0
	movne	r3, #1
	and	r3, r3, #255
	cmp	r3, #0
	beq	.L287
	bl	s3eDebugIsDebuggerPresent
	mov	r3, r0
	cmp	r3, #0
	moveq	r3, #0
	movne	r3, #1
	and	r3, r3, #255
	cmp	r3, #0
	beq	.L293
	mvn	r3, #11
	mov	r2, #0
	str	r2, [r3, #0]
	b	.L284
.L287:
	bl	_ZL11IwDebugExitv
	b	.L284
.L286:
	ldr	r3, .L294+4
	mov	r2, #1
	strb	r2, [r3, #0]
	b	.L284
.L293:
	mov	r0, r0	@ nop
.L284:
	mov	r0, #0
	bl	IwDebugAssertSetUID
.L283:
.LBE19:
	.loc 20 682 0
	ldr	r3, [sp, #4]
	ldr	r2, [r3, #4]
	ldr	r3, [sp, #0]
	add	r3, r2, r3
	ldr	r0, [sp, #4]
	mov	r1, r3
	bl	_ZN8CIwArrayI12TileObstacle12CIwAllocatorIS0_15CIwMallocRouterIS0_EE17ReallocateDefaultIS0_S4_EE7reserveEj
.LBB20:
	.loc 20 683 0
	mov	r3, #0
	str	r3, [sp, #12]
	b	.L290
.L291:
	.loc 20 684 0
	ldr	r3, [sp, #4]
	ldr	r2, [r3, #0]
	ldr	r3, [sp, #4]
	ldr	r1, [r3, #4]
	ldr	r3, [sp, #12]
	add	r3, r1, r3
	mov	r1, #44
	mul	r3, r1, r3
	add	r3, r2, r3
	mov	r0, #44
	mov	r1, r3
	bl	_ZnwjPv
	mov	r3, r0
	mov	r0, r3
	bl	_ZN12TileObstacleC1Ev
	.loc 20 683 0
	ldr	r3, [sp, #12]
	add	r3, r3, #1
	str	r3, [sp, #12]
.L290:
	ldr	r2, [sp, #12]
	ldr	r3, [sp, #0]
	cmp	r2, r3
	movge	r3, #0
	movlt	r3, #1
	and	r3, r3, #255
	cmp	r3, #0
	bne	.L291
.LBE20:
	.loc 20 685 0
	ldr	r3, [sp, #4]
	ldr	r2, [r3, #4]
	ldr	r3, [sp, #0]
	add	r2, r2, r3
	ldr	r3, [sp, #4]
	str	r2, [r3, #4]
.LBE18:
	.loc 20 686 0
	add	sp, sp, #20
	ldmfd	sp!, {pc}
.L295:
	.align	2
.L294:
	.word	.LC7
	.word	_ZZN8CIwArrayI12TileObstacle12CIwAllocatorIS0_15CIwMallocRouterIS0_EE17ReallocateDefaultIS0_S4_EE13push_back_qtyEiE21_s_IwAssertIgnoreThis
	.word	.LC10
	.word	.LC9
	.word	681
	.cfi_endproc
.LFE3717:
	.size	_ZN8CIwArrayI12TileObstacle12CIwAllocatorIS0_15CIwMallocRouterIS0_EE17ReallocateDefaultIS0_S4_EE13push_back_qtyEi, .-_ZN8CIwArrayI12TileObstacle12CIwAllocatorIS0_15CIwMallocRouterIS0_EE17ReallocateDefaultIS0_S4_EE13push_back_qtyEi
	.section	.text._ZN15CIwMallocRouterI12TileObstacleE6DoFreeEPv,"axG",%progbits,_ZN15CIwMallocRouterI12TileObstacleE6DoFreeEPv,comdat
	.align	2
	.weak	_ZN15CIwMallocRouterI12TileObstacleE6DoFreeEPv
	.hidden	_ZN15CIwMallocRouterI12TileObstacleE6DoFreeEPv
	.type	_ZN15CIwMallocRouterI12TileObstacleE6DoFreeEPv, %function
_ZN15CIwMallocRouterI12TileObstacleE6DoFreeEPv:
.LFB3718:
	.loc 22 93 0
	.cfi_startproc
	@ args = 0, pretend = 0, frame = 8
	@ frame_needed = 0, uses_anonymous_args = 0
	str	lr, [sp, #-4]!
.LCFI122:
	.cfi_def_cfa_offset 4
	sub	sp, sp, #12
.LCFI123:
	.cfi_def_cfa_offset 16
	str	r0, [sp, #4]
	.loc 22 95 0
	ldr	r0, [sp, #4]
	mov	r1, #44
	.cfi_offset 14, -4
	bl	_ZN22CIwDefaultMallocRouter8BaseFreeEPvj
	.loc 22 96 0
	add	sp, sp, #12
	ldmfd	sp!, {pc}
	.cfi_endproc
.LFE3718:
	.size	_ZN15CIwMallocRouterI12TileObstacleE6DoFreeEPv, .-_ZN15CIwMallocRouterI12TileObstacleE6DoFreeEPv
	.section	.text._ZN4_STL13basic_ostreamIcNS_11char_traitsIcEEE6sentryC1ERS3_,"axG",%progbits,_ZN4_STL13basic_ostreamIcNS_11char_traitsIcEEE6sentryC1ERS3_,comdat
	.align	2
	.weak	_ZN4_STL13basic_ostreamIcNS_11char_traitsIcEEE6sentryC1ERS3_
	.hidden	_ZN4_STL13basic_ostreamIcNS_11char_traitsIcEEE6sentryC1ERS3_
	.type	_ZN4_STL13basic_ostreamIcNS_11char_traitsIcEEE6sentryC1ERS3_, %function
_ZN4_STL13basic_ostreamIcNS_11char_traitsIcEEE6sentryC1ERS3_:
.LFB3741:
	.loc 21 171 0
	.cfi_startproc
	@ args = 0, pretend = 0, frame = 8
	@ frame_needed = 0, uses_anonymous_args = 0
	str	lr, [sp, #-4]!
.LCFI124:
	.cfi_def_cfa_offset 4
	sub	sp, sp, #12
.LCFI125:
	.cfi_def_cfa_offset 16
	str	r0, [sp, #4]
	str	r1, [sp, #0]
	.loc 21 172 0
	ldr	r3, [sp, #4]
	ldr	r2, [sp, #0]
	str	r2, [r3, #0]
	ldr	r0, [sp, #0]
	.cfi_offset 14, -4
	bl	_ZN4_STL7_M_initIcNS_11char_traitsIcEEEEbRNS_13basic_ostreamIT_T0_EE
	mov	r3, r0
	mov	r2, r3
	ldr	r3, [sp, #4]
	strb	r2, [r3, #4]
	.loc 21 173 0
	ldr	r3, [sp, #4]
	.loc 21 174 0
	mov	r0, r3
	add	sp, sp, #12
	ldmfd	sp!, {pc}
	.cfi_endproc
.LFE3741:
	.size	_ZN4_STL13basic_ostreamIcNS_11char_traitsIcEEE6sentryC1ERS3_, .-_ZN4_STL13basic_ostreamIcNS_11char_traitsIcEEE6sentryC1ERS3_
	.section	.text._ZN4_STL13basic_ostreamIcNS_11char_traitsIcEEE6sentryD1Ev,"axG",%progbits,_ZN4_STL13basic_ostreamIcNS_11char_traitsIcEEE6sentryD1Ev,comdat
	.align	2
	.weak	_ZN4_STL13basic_ostreamIcNS_11char_traitsIcEEE6sentryD1Ev
	.hidden	_ZN4_STL13basic_ostreamIcNS_11char_traitsIcEEE6sentryD1Ev
	.type	_ZN4_STL13basic_ostreamIcNS_11char_traitsIcEEE6sentryD1Ev, %function
_ZN4_STL13basic_ostreamIcNS_11char_traitsIcEEE6sentryD1Ev:
.LFB3744:
	.loc 21 176 0
	.cfi_startproc
	@ args = 0, pretend = 0, frame = 8
	@ frame_needed = 0, uses_anonymous_args = 0
	str	lr, [sp, #-4]!
.LCFI126:
	.cfi_def_cfa_offset 4
	sub	sp, sp, #12
.LCFI127:
	.cfi_def_cfa_offset 16
	str	r0, [sp, #4]
	.loc 21 177 0
	ldr	r3, [sp, #4]
	ldr	r3, [r3, #0]
	mov	r2, r3
	ldr	r3, [sp, #4]
	ldr	r3, [r3, #0]
	ldr	r3, [r3, #0]
	sub	r3, r3, #12
	ldr	r3, [r3, #0]
	add	r3, r2, r3
	mov	r0, r3
	.cfi_offset 14, -4
	bl	_ZNK4_STL8ios_base5flagsEv
	mov	r3, r0
	and	r3, r3, #8192
	cmp	r3, #0
	moveq	r3, #0
	movne	r3, #1
	and	r3, r3, #255
	cmp	r3, #0
	beq	.L302
	.loc 21 181 0
	ldr	r3, [sp, #4]
	ldr	r3, [r3, #0]
	mov	r0, r3
	bl	_ZN4_STL13basic_ostreamIcNS_11char_traitsIcEEE5flushEv
.L302:
	ldr	r3, [sp, #4]
	.loc 21 182 0
	mov	r0, r3
	add	sp, sp, #12
	ldmfd	sp!, {pc}
	.cfi_endproc
.LFE3744:
	.size	_ZN4_STL13basic_ostreamIcNS_11char_traitsIcEEE6sentryD1Ev, .-_ZN4_STL13basic_ostreamIcNS_11char_traitsIcEEE6sentryD1Ev
	.section	.text._ZNK4_STL13basic_ostreamIcNS_11char_traitsIcEEE6sentrycvbEv,"axG",%progbits,_ZNK4_STL13basic_ostreamIcNS_11char_traitsIcEEE6sentrycvbEv,comdat
	.align	2
	.weak	_ZNK4_STL13basic_ostreamIcNS_11char_traitsIcEEE6sentrycvbEv
	.hidden	_ZNK4_STL13basic_ostreamIcNS_11char_traitsIcEEE6sentrycvbEv
	.type	_ZNK4_STL13basic_ostreamIcNS_11char_traitsIcEEE6sentrycvbEv, %function
_ZNK4_STL13basic_ostreamIcNS_11char_traitsIcEEE6sentrycvbEv:
.LFB3745:
	.loc 21 184 0
	.cfi_startproc
	@ args = 0, pretend = 0, frame = 8
	@ frame_needed = 0, uses_anonymous_args = 0
	@ link register save eliminated.
	sub	sp, sp, #8
.LCFI128:
	.cfi_def_cfa_offset 8
	str	r0, [sp, #4]
	.loc 21 184 0
	ldr	r3, [sp, #4]
	ldrb	r3, [r3, #4]	@ zero_extendqisi2
	mov	r0, r3
	add	sp, sp, #8
	bx	lr
	.cfi_endproc
.LFE3745:
	.size	_ZNK4_STL13basic_ostreamIcNS_11char_traitsIcEEE6sentrycvbEv, .-_ZNK4_STL13basic_ostreamIcNS_11char_traitsIcEEE6sentrycvbEv
	.section	.text._ZNK4_STL9basic_iosIcNS_11char_traitsIcEEE5rdbufEv,"axG",%progbits,_ZNK4_STL9basic_iosIcNS_11char_traitsIcEEE5rdbufEv,comdat
	.align	2
	.weak	_ZNK4_STL9basic_iosIcNS_11char_traitsIcEEE5rdbufEv
	.hidden	_ZNK4_STL9basic_iosIcNS_11char_traitsIcEEE5rdbufEv
	.type	_ZNK4_STL9basic_iosIcNS_11char_traitsIcEEE5rdbufEv, %function
_ZNK4_STL9basic_iosIcNS_11char_traitsIcEEE5rdbufEv:
.LFB3746:
	.loc 25 71 0
	.cfi_startproc
	@ args = 0, pretend = 0, frame = 8
	@ frame_needed = 0, uses_anonymous_args = 0
	@ link register save eliminated.
	sub	sp, sp, #8
.LCFI129:
	.cfi_def_cfa_offset 8
	str	r0, [sp, #4]
	.loc 25 72 0
	ldr	r3, [sp, #4]
	ldr	r3, [r3, #88]
	mov	r0, r3
	add	sp, sp, #8
	bx	lr
	.cfi_endproc
.LFE3746:
	.size	_ZNK4_STL9basic_iosIcNS_11char_traitsIcEEE5rdbufEv, .-_ZNK4_STL9basic_iosIcNS_11char_traitsIcEEE5rdbufEv
	.section	.text._ZN4_STL15basic_streambufIcNS_11char_traitsIcEEE5sputnEPKci,"axG",%progbits,_ZN4_STL15basic_streambufIcNS_11char_traitsIcEEE5sputnEPKci,comdat
	.align	2
	.weak	_ZN4_STL15basic_streambufIcNS_11char_traitsIcEEE5sputnEPKci
	.hidden	_ZN4_STL15basic_streambufIcNS_11char_traitsIcEEE5sputnEPKci
	.type	_ZN4_STL15basic_streambufIcNS_11char_traitsIcEEE5sputnEPKci, %function
_ZN4_STL15basic_streambufIcNS_11char_traitsIcEEE5sputnEPKci:
.LFB3747:
	.file 26 "c:/marmalade/6.2/s3e/h/std/c++/stl/_streambuf.h"
	.loc 26 208 0
	.cfi_startproc
	@ args = 0, pretend = 0, frame = 16
	@ frame_needed = 0, uses_anonymous_args = 0
	str	lr, [sp, #-4]!
.LCFI130:
	.cfi_def_cfa_offset 4
	sub	sp, sp, #20
.LCFI131:
	.cfi_def_cfa_offset 24
	str	r0, [sp, #12]
	str	r1, [sp, #8]
	str	r2, [sp, #4]
	.loc 26 209 0
	ldr	r3, [sp, #12]
	ldr	r3, [r3, #0]
	add	r3, r3, #44
	ldr	r3, [r3, #0]
	ldr	r0, [sp, #12]
	ldr	r1, [sp, #8]
	ldr	r2, [sp, #4]
	.cfi_offset 14, -4
	blx	r3
	mov	r3, r0
	mov	r0, r3
	add	sp, sp, #20
	ldmfd	sp!, {pc}
	.cfi_endproc
.LFE3747:
	.size	_ZN4_STL15basic_streambufIcNS_11char_traitsIcEEE5sputnEPKci, .-_ZN4_STL15basic_streambufIcNS_11char_traitsIcEEE5sputnEPKci
	.section	.text._ZNK4_STL9basic_iosIcNS_11char_traitsIcEEE4fillEv,"axG",%progbits,_ZNK4_STL9basic_iosIcNS_11char_traitsIcEEE4fillEv,comdat
	.align	2
	.weak	_ZNK4_STL9basic_iosIcNS_11char_traitsIcEEE4fillEv
	.hidden	_ZNK4_STL9basic_iosIcNS_11char_traitsIcEEE4fillEv
	.type	_ZNK4_STL9basic_iosIcNS_11char_traitsIcEEE4fillEv, %function
_ZNK4_STL9basic_iosIcNS_11char_traitsIcEEE4fillEv:
.LFB3748:
	.loc 25 80 0
	.cfi_startproc
	@ args = 0, pretend = 0, frame = 8
	@ frame_needed = 0, uses_anonymous_args = 0
	@ link register save eliminated.
	sub	sp, sp, #8
.LCFI132:
	.cfi_def_cfa_offset 8
	str	r0, [sp, #4]
	.loc 25 80 0
	ldr	r3, [sp, #4]
	ldrb	r3, [r3, #84]	@ zero_extendqisi2
	mov	r0, r3
	add	sp, sp, #8
	bx	lr
	.cfi_endproc
.LFE3748:
	.size	_ZNK4_STL9basic_iosIcNS_11char_traitsIcEEE4fillEv, .-_ZNK4_STL9basic_iosIcNS_11char_traitsIcEEE4fillEv
	.section	.text._ZN4_STL15basic_streambufIcNS_11char_traitsIcEEE9_M_sputncEci,"axG",%progbits,_ZN4_STL15basic_streambufIcNS_11char_traitsIcEEE9_M_sputncEci,comdat
	.align	2
	.weak	_ZN4_STL15basic_streambufIcNS_11char_traitsIcEEE9_M_sputncEci
	.hidden	_ZN4_STL15basic_streambufIcNS_11char_traitsIcEEE9_M_sputncEci
	.type	_ZN4_STL15basic_streambufIcNS_11char_traitsIcEEE9_M_sputncEci, %function
_ZN4_STL15basic_streambufIcNS_11char_traitsIcEEE9_M_sputncEci:
.LFB3749:
	.loc 26 212 0
	.cfi_startproc
	@ args = 0, pretend = 0, frame = 16
	@ frame_needed = 0, uses_anonymous_args = 0
	str	lr, [sp, #-4]!
.LCFI133:
	.cfi_def_cfa_offset 4
	sub	sp, sp, #20
.LCFI134:
	.cfi_def_cfa_offset 24
	str	r0, [sp, #12]
	mov	r3, r1
	str	r2, [sp, #4]
	strb	r3, [sp, #11]
	.loc 26 213 0
	ldr	r3, [sp, #12]
	ldr	r3, [r3, #0]
	add	r3, r3, #48
	ldr	r3, [r3, #0]
	ldrb	r2, [sp, #11]	@ zero_extendqisi2
	ldr	r0, [sp, #12]
	mov	r1, r2
	ldr	r2, [sp, #4]
	.cfi_offset 14, -4
	blx	r3
	mov	r3, r0
	mov	r0, r3
	add	sp, sp, #20
	ldmfd	sp!, {pc}
	.cfi_endproc
.LFE3749:
	.size	_ZN4_STL15basic_streambufIcNS_11char_traitsIcEEE9_M_sputncEci, .-_ZN4_STL15basic_streambufIcNS_11char_traitsIcEEE9_M_sputncEci
	.section	.text._ZN4_STL9basic_iosIcNS_11char_traitsIcEEE8setstateEi,"axG",%progbits,_ZN4_STL9basic_iosIcNS_11char_traitsIcEEE8setstateEi,comdat
	.align	2
	.weak	_ZN4_STL9basic_iosIcNS_11char_traitsIcEEE8setstateEi
	.hidden	_ZN4_STL9basic_iosIcNS_11char_traitsIcEEE8setstateEi
	.type	_ZN4_STL9basic_iosIcNS_11char_traitsIcEEE8setstateEi, %function
_ZN4_STL9basic_iosIcNS_11char_traitsIcEEE8setstateEi:
.LFB3751:
	.loc 25 94 0
	.cfi_startproc
	@ args = 0, pretend = 0, frame = 8
	@ frame_needed = 0, uses_anonymous_args = 0
	str	lr, [sp, #-4]!
.LCFI135:
	.cfi_def_cfa_offset 4
	sub	sp, sp, #12
.LCFI136:
	.cfi_def_cfa_offset 16
	str	r0, [sp, #4]
	str	r1, [sp, #0]
	.loc 25 94 0
	ldr	r3, [sp, #4]
	mov	r0, r3
	.cfi_offset 14, -4
	bl	_ZNK4_STL8ios_base7rdstateEv
	mov	r2, r0
	ldr	r3, [sp, #0]
	orr	r3, r2, r3
	ldr	r0, [sp, #4]
	mov	r1, r3
	bl	_ZN4_STL9basic_iosIcNS_11char_traitsIcEEE5clearEi
	add	sp, sp, #12
	ldmfd	sp!, {pc}
	.cfi_endproc
.LFE3751:
	.size	_ZN4_STL9basic_iosIcNS_11char_traitsIcEEE8setstateEi, .-_ZN4_STL9basic_iosIcNS_11char_traitsIcEEE8setstateEi
	.section	.text._ZN4_STL15basic_streambufIcNS_11char_traitsIcEEE5sputcEc,"axG",%progbits,_ZN4_STL15basic_streambufIcNS_11char_traitsIcEEE5sputcEc,comdat
	.align	2
	.weak	_ZN4_STL15basic_streambufIcNS_11char_traitsIcEEE5sputcEc
	.hidden	_ZN4_STL15basic_streambufIcNS_11char_traitsIcEEE5sputcEc
	.type	_ZN4_STL15basic_streambufIcNS_11char_traitsIcEEE5sputcEc, %function
_ZN4_STL15basic_streambufIcNS_11char_traitsIcEEE5sputcEc:
.LFB3752:
	.loc 26 202 0
	.cfi_startproc
	@ args = 0, pretend = 0, frame = 8
	@ frame_needed = 0, uses_anonymous_args = 0
	stmfd	sp!, {r4, lr}
.LCFI137:
	.cfi_def_cfa_offset 8
	sub	sp, sp, #8
.LCFI138:
	.cfi_def_cfa_offset 16
	str	r0, [sp, #4]
	mov	r3, r1
	strb	r3, [sp, #3]
	.loc 26 204 0
	ldr	r3, [sp, #4]
	ldr	r2, [r3, #20]
	ldr	r3, [sp, #4]
	ldr	r3, [r3, #24]
	cmp	r2, r3
	bcs	.L317
	.cfi_offset 14, -4
	.cfi_offset 4, -8
	ldr	r3, [sp, #4]
	ldr	r2, [r3, #20]
	mov	r3, r2
	ldrb	r1, [sp, #3]	@ zero_extendqisi2
	strb	r1, [r3, #0]
	add	r1, r2, #1
	ldr	r2, [sp, #4]
	str	r1, [r2, #20]
	mov	r0, r3
	bl	_ZN4_STL11char_traitsIcE11to_int_typeERKc
	mov	r3, r0
	b	.L318
.L317:
	ldr	r3, [sp, #4]
	ldr	r3, [r3, #0]
	add	r3, r3, #52
	ldr	r4, [r3, #0]
	add	r3, sp, #3
	mov	r0, r3
	bl	_ZN4_STL11char_traitsIcE11to_int_typeERKc
	mov	r3, r0
	ldr	r0, [sp, #4]
	mov	r1, r3
	blx	r4
	mov	r3, r0
.L318:
	.loc 26 205 0
	mov	r0, r3
	add	sp, sp, #8
	ldmfd	sp!, {r4, pc}
	.cfi_endproc
.LFE3752:
	.size	_ZN4_STL15basic_streambufIcNS_11char_traitsIcEEE5sputcEc, .-_ZN4_STL15basic_streambufIcNS_11char_traitsIcEEE5sputcEc
	.section	.text._ZN4_STL9basic_iosIcNS_11char_traitsIcEEE6_S_eofEi,"axG",%progbits,_ZN4_STL9basic_iosIcNS_11char_traitsIcEEE6_S_eofEi,comdat
	.align	2
	.weak	_ZN4_STL9basic_iosIcNS_11char_traitsIcEEE6_S_eofEi
	.hidden	_ZN4_STL9basic_iosIcNS_11char_traitsIcEEE6_S_eofEi
	.type	_ZN4_STL9basic_iosIcNS_11char_traitsIcEEE6_S_eofEi, %function
_ZN4_STL9basic_iosIcNS_11char_traitsIcEEE6_S_eofEi:
.LFB3753:
	.loc 25 109 0
	.cfi_startproc
	@ args = 0, pretend = 0, frame = 16
	@ frame_needed = 0, uses_anonymous_args = 0
	str	lr, [sp, #-4]!
.LCFI139:
	.cfi_def_cfa_offset 4
	sub	sp, sp, #20
.LCFI140:
	.cfi_def_cfa_offset 24
	str	r0, [sp, #4]
.LBB21:
	.loc 25 110 0
	.cfi_offset 14, -4
	bl	_ZN4_STL18__char_traits_baseIciE3eofEv
	mov	r3, r0
	str	r3, [sp, #12]
	.loc 25 111 0
	add	r2, sp, #4
	add	r3, sp, #12
	mov	r0, r2
	mov	r1, r3
	bl	_ZN4_STL18__char_traits_baseIciE11eq_int_typeERKiS3_
	mov	r3, r0
.LBE21:
	.loc 25 112 0
	mov	r0, r3
	add	sp, sp, #20
	ldmfd	sp!, {pc}
	.cfi_endproc
.LFE3753:
	.size	_ZN4_STL9basic_iosIcNS_11char_traitsIcEEE6_S_eofEi, .-_ZN4_STL9basic_iosIcNS_11char_traitsIcEEE6_S_eofEi
	.section	.text._ZN4_STL15basic_streambufIcNS_11char_traitsIcEEE7pubsyncEv,"axG",%progbits,_ZN4_STL15basic_streambufIcNS_11char_traitsIcEEE7pubsyncEv,comdat
	.align	2
	.weak	_ZN4_STL15basic_streambufIcNS_11char_traitsIcEEE7pubsyncEv
	.hidden	_ZN4_STL15basic_streambufIcNS_11char_traitsIcEEE7pubsyncEv
	.type	_ZN4_STL15basic_streambufIcNS_11char_traitsIcEEE7pubsyncEv, %function
_ZN4_STL15basic_streambufIcNS_11char_traitsIcEEE7pubsyncEv:
.LFB3754:
	.loc 26 157 0
	.cfi_startproc
	@ args = 0, pretend = 0, frame = 8
	@ frame_needed = 0, uses_anonymous_args = 0
	str	lr, [sp, #-4]!
.LCFI141:
	.cfi_def_cfa_offset 4
	sub	sp, sp, #12
.LCFI142:
	.cfi_def_cfa_offset 16
	str	r0, [sp, #4]
	.loc 26 157 0
	ldr	r3, [sp, #4]
	ldr	r3, [r3, #0]
	add	r3, r3, #20
	ldr	r3, [r3, #0]
	ldr	r0, [sp, #4]
	.cfi_offset 14, -4
	blx	r3
	mov	r3, r0
	mov	r0, r3
	add	sp, sp, #12
	ldmfd	sp!, {pc}
	.cfi_endproc
.LFE3754:
	.size	_ZN4_STL15basic_streambufIcNS_11char_traitsIcEEE7pubsyncEv, .-_ZN4_STL15basic_streambufIcNS_11char_traitsIcEEE7pubsyncEv
	.section	.text._ZN4_STL9allocatorI8ObstacleEC2ERKS2_,"axG",%progbits,_ZN4_STL9allocatorI8ObstacleEC2ERKS2_,comdat
	.align	2
	.weak	_ZN4_STL9allocatorI8ObstacleEC2ERKS2_
	.hidden	_ZN4_STL9allocatorI8ObstacleEC2ERKS2_
	.type	_ZN4_STL9allocatorI8ObstacleEC2ERKS2_, %function
_ZN4_STL9allocatorI8ObstacleEC2ERKS2_:
.LFB3762:
	.loc 18 349 0
	.cfi_startproc
	@ args = 0, pretend = 0, frame = 8
	@ frame_needed = 0, uses_anonymous_args = 0
	@ link register save eliminated.
	sub	sp, sp, #8
.LCFI143:
	.cfi_def_cfa_offset 8
	str	r0, [sp, #4]
	str	r1, [sp, #0]
	.loc 18 349 0
	ldr	r3, [sp, #4]
	mov	r0, r3
	add	sp, sp, #8
	bx	lr
	.cfi_endproc
.LFE3762:
	.size	_ZN4_STL9allocatorI8ObstacleEC2ERKS2_, .-_ZN4_STL9allocatorI8ObstacleEC2ERKS2_
	.section	.text._ZN4_STL14__malloc_allocILi0EE10deallocateEPvj,"axG",%progbits,_ZN4_STL14__malloc_allocILi0EE10deallocateEPvj,comdat
	.align	2
	.weak	_ZN4_STL14__malloc_allocILi0EE10deallocateEPvj
	.hidden	_ZN4_STL14__malloc_allocILi0EE10deallocateEPvj
	.type	_ZN4_STL14__malloc_allocILi0EE10deallocateEPvj, %function
_ZN4_STL14__malloc_allocILi0EE10deallocateEPvj:
.LFB3764:
	.loc 18 114 0
	.cfi_startproc
	@ args = 0, pretend = 0, frame = 8
	@ frame_needed = 0, uses_anonymous_args = 0
	str	lr, [sp, #-4]!
.LCFI144:
	.cfi_def_cfa_offset 4
	sub	sp, sp, #12
.LCFI145:
	.cfi_def_cfa_offset 16
	str	r0, [sp, #4]
	str	r1, [sp, #0]
	.loc 18 114 0
	ldr	r3, [sp, #4]
	mov	r0, r3
	.cfi_offset 14, -4
	bl	free
	add	sp, sp, #12
	ldmfd	sp!, {pc}
	.cfi_endproc
.LFE3764:
	.size	_ZN4_STL14__malloc_allocILi0EE10deallocateEPvj, .-_ZN4_STL14__malloc_allocILi0EE10deallocateEPvj
	.section	.text._ZN4_STL13__destroy_auxIP8ObstacleEEvT_S3_RKNS_12__false_typeE,"axG",%progbits,_ZN4_STL13__destroy_auxIP8ObstacleEEvT_S3_RKNS_12__false_typeE,comdat
	.align	2
	.weak	_ZN4_STL13__destroy_auxIP8ObstacleEEvT_S3_RKNS_12__false_typeE
	.hidden	_ZN4_STL13__destroy_auxIP8ObstacleEEvT_S3_RKNS_12__false_typeE
	.type	_ZN4_STL13__destroy_auxIP8ObstacleEEvT_S3_RKNS_12__false_typeE, %function
_ZN4_STL13__destroy_auxIP8ObstacleEEvT_S3_RKNS_12__false_typeE:
.LFB3765:
	.loc 23 122 0
	.cfi_startproc
	@ args = 0, pretend = 0, frame = 16
	@ frame_needed = 0, uses_anonymous_args = 0
	str	lr, [sp, #-4]!
.LCFI146:
	.cfi_def_cfa_offset 4
	sub	sp, sp, #20
.LCFI147:
	.cfi_def_cfa_offset 24
	str	r0, [sp, #12]
	str	r1, [sp, #8]
	str	r2, [sp, #4]
	.loc 23 123 0
	b	.L330
	.cfi_offset 14, -4
.L331:
	.loc 23 124 0
	ldr	r0, [sp, #12]
	bl	_ZN4_STL8_DestroyI8ObstacleEEvPT_
	.loc 23 123 0
	ldr	r3, [sp, #12]
	add	r3, r3, #16
	str	r3, [sp, #12]
.L330:
	ldr	r2, [sp, #12]
	ldr	r3, [sp, #8]
	cmp	r2, r3
	moveq	r3, #0
	movne	r3, #1
	and	r3, r3, #255
	cmp	r3, #0
	bne	.L331
	.loc 23 125 0
	add	sp, sp, #20
	ldmfd	sp!, {pc}
	.cfi_endproc
.LFE3765:
	.size	_ZN4_STL13__destroy_auxIP8ObstacleEEvT_S3_RKNS_12__false_typeE, .-_ZN4_STL13__destroy_auxIP8ObstacleEEvT_S3_RKNS_12__false_typeE
	.section	.text._ZN8CIwArrayIi12CIwAllocatorIi15CIwMallocRouterIiEE17ReallocateDefaultIiS3_EE7reserveEj,"axG",%progbits,_ZN8CIwArrayIi12CIwAllocatorIi15CIwMallocRouterIiEE17ReallocateDefaultIiS3_EE7reserveEj,comdat
	.align	2
	.weak	_ZN8CIwArrayIi12CIwAllocatorIi15CIwMallocRouterIiEE17ReallocateDefaultIiS3_EE7reserveEj
	.hidden	_ZN8CIwArrayIi12CIwAllocatorIi15CIwMallocRouterIiEE17ReallocateDefaultIiS3_EE7reserveEj
	.type	_ZN8CIwArrayIi12CIwAllocatorIi15CIwMallocRouterIiEE17ReallocateDefaultIiS3_EE7reserveEj, %function
_ZN8CIwArrayIi12CIwAllocatorIi15CIwMallocRouterIiEE17ReallocateDefaultIiS3_EE7reserveEj:
.LFB3766:
	.loc 20 253 0
	.cfi_startproc
	@ args = 0, pretend = 0, frame = 8
	@ frame_needed = 0, uses_anonymous_args = 0
	str	lr, [sp, #-4]!
.LCFI148:
	.cfi_def_cfa_offset 4
	sub	sp, sp, #12
.LCFI149:
	.cfi_def_cfa_offset 16
	str	r0, [sp, #4]
	str	r1, [sp, #0]
	.loc 20 255 0
	ldr	r3, [sp, #4]
	ldr	r2, [r3, #8]
	ldr	r3, [sp, #0]
	cmp	r2, r3
	bcs	.L337
	.cfi_offset 14, -4
	.loc 20 257 0
	ldr	r3, [sp, #4]
	ldr	r3, [r3, #8]
	cmp	r3, #15
	bls	.L335
	ldr	r3, [sp, #4]
	ldr	r3, [r3, #8]
	mov	r3, r3, lsr #3
	b	.L336
.L335:
	mov	r3, #2
.L336:
	ldr	r2, [sp, #0]
	add	r3, r3, r2
	ldr	r0, [sp, #4]
	mov	r1, r3
	bl	_ZN8CIwArrayIi12CIwAllocatorIi15CIwMallocRouterIiEE17ReallocateDefaultIiS3_EE12set_capacityEj
.L337:
	.loc 20 259 0
	add	sp, sp, #12
	ldmfd	sp!, {pc}
	.cfi_endproc
.LFE3766:
	.size	_ZN8CIwArrayIi12CIwAllocatorIi15CIwMallocRouterIiEE17ReallocateDefaultIiS3_EE7reserveEj, .-_ZN8CIwArrayIi12CIwAllocatorIi15CIwMallocRouterIiEE17ReallocateDefaultIiS3_EE7reserveEj
	.section	.text._ZN8CIwArrayI12TileObstacle12CIwAllocatorIS0_15CIwMallocRouterIS0_EE17ReallocateDefaultIS0_S4_EE7reserveEj,"axG",%progbits,_ZN8CIwArrayI12TileObstacle12CIwAllocatorIS0_15CIwMallocRouterIS0_EE17ReallocateDefaultIS0_S4_EE7reserveEj,comdat
	.align	2
	.weak	_ZN8CIwArrayI12TileObstacle12CIwAllocatorIS0_15CIwMallocRouterIS0_EE17ReallocateDefaultIS0_S4_EE7reserveEj
	.hidden	_ZN8CIwArrayI12TileObstacle12CIwAllocatorIS0_15CIwMallocRouterIS0_EE17ReallocateDefaultIS0_S4_EE7reserveEj
	.type	_ZN8CIwArrayI12TileObstacle12CIwAllocatorIS0_15CIwMallocRouterIS0_EE17ReallocateDefaultIS0_S4_EE7reserveEj, %function
_ZN8CIwArrayI12TileObstacle12CIwAllocatorIS0_15CIwMallocRouterIS0_EE17ReallocateDefaultIS0_S4_EE7reserveEj:
.LFB3768:
	.loc 20 253 0
	.cfi_startproc
	@ args = 0, pretend = 0, frame = 8
	@ frame_needed = 0, uses_anonymous_args = 0
	str	lr, [sp, #-4]!
.LCFI150:
	.cfi_def_cfa_offset 4
	sub	sp, sp, #12
.LCFI151:
	.cfi_def_cfa_offset 16
	str	r0, [sp, #4]
	str	r1, [sp, #0]
	.loc 20 255 0
	ldr	r3, [sp, #4]
	ldr	r2, [r3, #8]
	ldr	r3, [sp, #0]
	cmp	r2, r3
	bcs	.L342
	.cfi_offset 14, -4
	.loc 20 257 0
	ldr	r3, [sp, #4]
	ldr	r3, [r3, #8]
	cmp	r3, #15
	bls	.L340
	ldr	r3, [sp, #4]
	ldr	r3, [r3, #8]
	mov	r3, r3, lsr #3
	b	.L341
.L340:
	mov	r3, #2
.L341:
	ldr	r2, [sp, #0]
	add	r3, r3, r2
	ldr	r0, [sp, #4]
	mov	r1, r3
	bl	_ZN8CIwArrayI12TileObstacle12CIwAllocatorIS0_15CIwMallocRouterIS0_EE17ReallocateDefaultIS0_S4_EE12set_capacityEj
.L342:
	.loc 20 259 0
	add	sp, sp, #12
	ldmfd	sp!, {pc}
	.cfi_endproc
.LFE3768:
	.size	_ZN8CIwArrayI12TileObstacle12CIwAllocatorIS0_15CIwMallocRouterIS0_EE17ReallocateDefaultIS0_S4_EE7reserveEj, .-_ZN8CIwArrayI12TileObstacle12CIwAllocatorIS0_15CIwMallocRouterIS0_EE17ReallocateDefaultIS0_S4_EE7reserveEj
	.section	.text._ZN4_STL7_M_initIcNS_11char_traitsIcEEEEbRNS_13basic_ostreamIT_T0_EE,"axG",%progbits,_ZN4_STL7_M_initIcNS_11char_traitsIcEEEEbRNS_13basic_ostreamIT_T0_EE,comdat
	.align	2
	.weak	_ZN4_STL7_M_initIcNS_11char_traitsIcEEEEbRNS_13basic_ostreamIT_T0_EE
	.hidden	_ZN4_STL7_M_initIcNS_11char_traitsIcEEEEbRNS_13basic_ostreamIT_T0_EE
	.type	_ZN4_STL7_M_initIcNS_11char_traitsIcEEEEbRNS_13basic_ostreamIT_T0_EE, %function
_ZN4_STL7_M_initIcNS_11char_traitsIcEEEEbRNS_13basic_ostreamIT_T0_EE:
.LFB3783:
	.loc 24 42 0
	.cfi_startproc
	@ args = 0, pretend = 0, frame = 8
	@ frame_needed = 0, uses_anonymous_args = 0
	str	lr, [sp, #-4]!
.LCFI152:
	.cfi_def_cfa_offset 4
	sub	sp, sp, #12
.LCFI153:
	.cfi_def_cfa_offset 16
	str	r0, [sp, #4]
	.loc 24 43 0
	ldr	r2, [sp, #4]
	ldr	r3, [sp, #4]
	ldr	r3, [r3, #0]
	sub	r3, r3, #12
	ldr	r3, [r3, #0]
	add	r3, r2, r3
	mov	r0, r3
	.cfi_offset 14, -4
	bl	_ZNK4_STL8ios_base4goodEv
	mov	r3, r0
	cmp	r3, #0
	beq	.L344
	.loc 24 45 0
	ldr	r2, [sp, #4]
	ldr	r3, [sp, #4]
	ldr	r3, [r3, #0]
	sub	r3, r3, #12
	ldr	r3, [r3, #0]
	add	r3, r2, r3
	mov	r0, r3
	bl	_ZNK4_STL9basic_iosIcNS_11char_traitsIcEEE5rdbufEv
	mov	r3, r0
	cmp	r3, #0
	movne	r3, #0
	moveq	r3, #1
	and	r3, r3, #255
	cmp	r3, #0
	beq	.L345
	.loc 24 46 0
	ldr	r2, [sp, #4]
	ldr	r3, [sp, #4]
	ldr	r3, [r3, #0]
	sub	r3, r3, #12
	ldr	r3, [r3, #0]
	add	r3, r2, r3
	mov	r0, r3
	mov	r1, #1
	bl	_ZN4_STL9basic_iosIcNS_11char_traitsIcEEE8setstateEi
.L345:
	.loc 24 47 0
	ldr	r2, [sp, #4]
	ldr	r3, [sp, #4]
	ldr	r3, [r3, #0]
	sub	r3, r3, #12
	ldr	r3, [r3, #0]
	add	r3, r2, r3
	mov	r0, r3
	bl	_ZNK4_STL9basic_iosIcNS_11char_traitsIcEEE3tieEv
	mov	r3, r0
	cmp	r3, #0
	moveq	r3, #0
	movne	r3, #1
	and	r3, r3, #255
	cmp	r3, #0
	beq	.L346
	.loc 24 48 0
	ldr	r2, [sp, #4]
	ldr	r3, [sp, #4]
	ldr	r3, [r3, #0]
	sub	r3, r3, #12
	ldr	r3, [r3, #0]
	add	r3, r2, r3
	mov	r0, r3
	bl	_ZNK4_STL9basic_iosIcNS_11char_traitsIcEEE3tieEv
	mov	r3, r0
	mov	r0, r3
	bl	_ZN4_STL13basic_ostreamIcNS_11char_traitsIcEEE5flushEv
.L346:
	.loc 24 49 0
	ldr	r2, [sp, #4]
	ldr	r3, [sp, #4]
	ldr	r3, [r3, #0]
	sub	r3, r3, #12
	ldr	r3, [r3, #0]
	add	r3, r2, r3
	mov	r0, r3
	bl	_ZNK4_STL8ios_base4goodEv
	mov	r3, r0
	b	.L347
.L344:
	.loc 24 51 0
	mov	r3, #0
.L347:
	.loc 24 52 0
	mov	r0, r3
	add	sp, sp, #12
	ldmfd	sp!, {pc}
	.cfi_endproc
.LFE3783:
	.size	_ZN4_STL7_M_initIcNS_11char_traitsIcEEEEbRNS_13basic_ostreamIT_T0_EE, .-_ZN4_STL7_M_initIcNS_11char_traitsIcEEEEbRNS_13basic_ostreamIT_T0_EE
	.section	.text._ZN4_STL9basic_iosIcNS_11char_traitsIcEEE5clearEi,"axG",%progbits,_ZN4_STL9basic_iosIcNS_11char_traitsIcEEE5clearEi,comdat
	.align	2
	.weak	_ZN4_STL9basic_iosIcNS_11char_traitsIcEEE5clearEi
	.hidden	_ZN4_STL9basic_iosIcNS_11char_traitsIcEEE5clearEi
	.type	_ZN4_STL9basic_iosIcNS_11char_traitsIcEEE5clearEi, %function
_ZN4_STL9basic_iosIcNS_11char_traitsIcEEE5clearEi:
.LFB3786:
	.loc 25 90 0
	.cfi_startproc
	@ args = 0, pretend = 0, frame = 8
	@ frame_needed = 0, uses_anonymous_args = 0
	stmfd	sp!, {r4, lr}
.LCFI154:
	.cfi_def_cfa_offset 8
	sub	sp, sp, #8
.LCFI155:
	.cfi_def_cfa_offset 16
	str	r0, [sp, #4]
	str	r1, [sp, #0]
	.loc 25 91 0
	ldr	r4, [sp, #4]
	.cfi_offset 14, -4
	.cfi_offset 4, -8
	ldr	r0, [sp, #4]
	bl	_ZNK4_STL9basic_iosIcNS_11char_traitsIcEEE5rdbufEv
	mov	r3, r0
	cmp	r3, #0
	bne	.L350
	ldr	r3, [sp, #0]
	orr	r3, r3, #1
	b	.L351
.L350:
	ldr	r3, [sp, #0]
.L351:
	mov	r0, r4
	mov	r1, r3
	bl	_ZN4_STL8ios_base16_M_clear_nothrowEi
	.loc 25 92 0
	ldr	r3, [sp, #4]
	mov	r0, r3
	bl	_ZN4_STL8ios_base23_M_check_exception_maskEv
	.loc 25 93 0
	add	sp, sp, #8
	ldmfd	sp!, {r4, pc}
	.cfi_endproc
.LFE3786:
	.size	_ZN4_STL9basic_iosIcNS_11char_traitsIcEEE5clearEi, .-_ZN4_STL9basic_iosIcNS_11char_traitsIcEEE5clearEi
	.section	.text._ZN4_STL18__char_traits_baseIciE3eofEv,"axG",%progbits,_ZN4_STL18__char_traits_baseIciE3eofEv,comdat
	.align	2
	.weak	_ZN4_STL18__char_traits_baseIciE3eofEv
	.hidden	_ZN4_STL18__char_traits_baseIciE3eofEv
	.type	_ZN4_STL18__char_traits_baseIciE3eofEv, %function
_ZN4_STL18__char_traits_baseIciE3eofEv:
.LFB3788:
	.loc 13 196 0
	.cfi_startproc
	@ args = 0, pretend = 0, frame = 0
	@ frame_needed = 0, uses_anonymous_args = 0
	@ link register save eliminated.
	.loc 13 197 0
	mvn	r3, #0
	.loc 13 199 0
	mov	r0, r3
	bx	lr
	.cfi_endproc
.LFE3788:
	.size	_ZN4_STL18__char_traits_baseIciE3eofEv, .-_ZN4_STL18__char_traits_baseIciE3eofEv
	.section	.text._ZN4_STL18__char_traits_baseIciE11eq_int_typeERKiS3_,"axG",%progbits,_ZN4_STL18__char_traits_baseIciE11eq_int_typeERKiS3_,comdat
	.align	2
	.weak	_ZN4_STL18__char_traits_baseIciE11eq_int_typeERKiS3_
	.hidden	_ZN4_STL18__char_traits_baseIciE11eq_int_typeERKiS3_
	.type	_ZN4_STL18__char_traits_baseIciE11eq_int_typeERKiS3_, %function
_ZN4_STL18__char_traits_baseIciE11eq_int_typeERKiS3_:
.LFB3789:
	.loc 13 192 0
	.cfi_startproc
	@ args = 0, pretend = 0, frame = 8
	@ frame_needed = 0, uses_anonymous_args = 0
	@ link register save eliminated.
	sub	sp, sp, #8
.LCFI156:
	.cfi_def_cfa_offset 8
	str	r0, [sp, #4]
	str	r1, [sp, #0]
	.loc 13 193 0
	ldr	r3, [sp, #4]
	ldr	r2, [r3, #0]
	ldr	r3, [sp, #0]
	ldr	r3, [r3, #0]
	cmp	r2, r3
	movne	r3, #0
	moveq	r3, #1
	and	r3, r3, #255
	.loc 13 194 0
	mov	r0, r3
	add	sp, sp, #8
	bx	lr
	.cfi_endproc
.LFE3789:
	.size	_ZN4_STL18__char_traits_baseIciE11eq_int_typeERKiS3_, .-_ZN4_STL18__char_traits_baseIciE11eq_int_typeERKiS3_
	.section	.text._ZN4_STL8_DestroyI8ObstacleEEvPT_,"axG",%progbits,_ZN4_STL8_DestroyI8ObstacleEEvPT_,comdat
	.align	2
	.weak	_ZN4_STL8_DestroyI8ObstacleEEvPT_
	.hidden	_ZN4_STL8_DestroyI8ObstacleEEvPT_
	.type	_ZN4_STL8_DestroyI8ObstacleEEvPT_, %function
_ZN4_STL8_DestroyI8ObstacleEEvPT_:
.LFB3797:
	.loc 23 56 0
	.cfi_startproc
	@ args = 0, pretend = 0, frame = 8
	@ frame_needed = 0, uses_anonymous_args = 0
	str	lr, [sp, #-4]!
.LCFI157:
	.cfi_def_cfa_offset 4
	sub	sp, sp, #12
.LCFI158:
	.cfi_def_cfa_offset 16
	str	r0, [sp, #4]
	.loc 23 67 0
	ldr	r0, [sp, #4]
	.cfi_offset 14, -4
	bl	_ZN8ObstacleD1Ev
	.loc 23 73 0
	add	sp, sp, #12
	ldmfd	sp!, {pc}
	.cfi_endproc
.LFE3797:
	.size	_ZN4_STL8_DestroyI8ObstacleEEvPT_, .-_ZN4_STL8_DestroyI8ObstacleEEvPT_
	.section	.rodata
	.align	2
.LC11:
	.ascii	"Attempting to change capacity of an array that does"
	.ascii	"n't own its data allocation.\000"
	.align	2
.LC12:
	.ascii	"!block_delete\000"
	.align	2
.LC13:
	.ascii	"Attempting to expand an array that has its size loc"
	.ascii	"ked.\000"
	.align	2
.LC14:
	.ascii	"!no_grow || q <= max_p\000"
	.align	2
.LC15:
	.ascii	"q>=num_p\000"
	.section	.text._ZN8CIwArrayIi12CIwAllocatorIi15CIwMallocRouterIiEE17ReallocateDefaultIiS3_EE12set_capacityEj,"axG",%progbits,_ZN8CIwArrayIi12CIwAllocatorIi15CIwMallocRouterIiEE17ReallocateDefaultIiS3_EE12set_capacityEj,comdat
	.align	2
	.weak	_ZN8CIwArrayIi12CIwAllocatorIi15CIwMallocRouterIiEE17ReallocateDefaultIiS3_EE12set_capacityEj
	.hidden	_ZN8CIwArrayIi12CIwAllocatorIi15CIwMallocRouterIiEE17ReallocateDefaultIiS3_EE12set_capacityEj
	.type	_ZN8CIwArrayIi12CIwAllocatorIi15CIwMallocRouterIiEE17ReallocateDefaultIiS3_EE12set_capacityEj, %function
_ZN8CIwArrayIi12CIwAllocatorIi15CIwMallocRouterIiEE17ReallocateDefaultIiS3_EE12set_capacityEj:
.LFB3798:
	.loc 20 804 0
	.cfi_startproc
	@ args = 0, pretend = 0, frame = 8
	@ frame_needed = 0, uses_anonymous_args = 0
	str	lr, [sp, #-4]!
.LCFI159:
	.cfi_def_cfa_offset 4
	sub	sp, sp, #20
.LCFI160:
	.cfi_def_cfa_offset 24
	str	r0, [sp, #12]
	str	r1, [sp, #8]
.LBB22:
.LBB23:
	.loc 20 806 0
	ldr	r3, [sp, #12]
	ldrb	r3, [r3, #12]
	and	r3, r3, #1
	and	r3, r3, #255
	cmp	r3, #0
	beq	.L360
	.cfi_offset 14, -4
	ldr	r0, .L397
	bl	IwDebugAssertIsChannelOn
	mov	r3, r0
	cmp	r3, #0
	beq	.L361
	ldr	r3, .L397+4
	ldrb	r3, [r3, #0]	@ zero_extendqisi2
	cmp	r3, #0
	bne	.L361
	mov	r3, #1
	b	.L362
.L361:
	mov	r3, #0
.L362:
	cmp	r3, #0
	beq	.L392
	ldr	r0, .L397+8
	bl	IwDebugAssertSetUID
	ldr	r0, .L397+12
	bl	IwDebugAssertSetMessage
	ldr	r0, .L397+16
	ldr	r1, .L397+20
	ldr	r2, .L397+24
	mov	r3, #1
	bl	IwDebugAssertShow
	mov	r3, r0
	cmp	r3, #1
	beq	.L365
	cmp	r3, #2
	beq	.L366
	b	.L364
.L365:
	bl	s3eDebugIsDebuggerPresent
	mov	r3, r0
	cmp	r3, #0
	moveq	r3, #0
	movne	r3, #1
	and	r3, r3, #255
	cmp	r3, #0
	beq	.L367
	bl	s3eDebugIsDebuggerPresent
	mov	r3, r0
	cmp	r3, #0
	moveq	r3, #0
	movne	r3, #1
	and	r3, r3, #255
	cmp	r3, #0
	beq	.L393
	mvn	r3, #11
	mov	r2, #0
	str	r2, [r3, #0]
	b	.L364
.L367:
	bl	_ZL11IwDebugExitv
	b	.L364
.L366:
	ldr	r3, .L397+4
	mov	r2, #1
	strb	r2, [r3, #0]
	b	.L364
.L393:
	mov	r0, r0	@ nop
.L364:
	mov	r0, #0
	bl	IwDebugAssertSetUID
	b	.L391
.L360:
.LBE23:
.LBB24:
	.loc 20 807 0
	ldr	r3, [sp, #12]
	ldrb	r3, [r3, #12]	@ zero_extendqisi2
	mov	r3, r3, lsr #1
	and	r3, r3, #1
	and	r3, r3, #255
	cmp	r3, #0
	beq	.L371
	ldr	r3, [sp, #12]
	ldr	r2, [r3, #8]
	ldr	r3, [sp, #8]
	cmp	r2, r3
	bcs	.L371
	ldr	r0, .L397
	bl	IwDebugAssertIsChannelOn
	mov	r3, r0
	cmp	r3, #0
	beq	.L371
	ldr	r3, .L397+28
	ldrb	r3, [r3, #0]	@ zero_extendqisi2
	cmp	r3, #0
	bne	.L371
	mov	r3, #1
	b	.L372
.L371:
	mov	r3, #0
.L372:
	cmp	r3, #0
	beq	.L373
	mov	r0, #0
	bl	IwDebugAssertSetSolution
	ldr	r0, .L397+32
	bl	IwDebugAssertSetUID
	ldr	r0, .L397+36
	bl	IwDebugAssertSetMessage
	ldr	r0, .L397+40
	ldr	r1, .L397+20
	ldr	r2, .L397+44
	mov	r3, #1
	bl	IwDebugAssertShow
	mov	r3, r0
	cmp	r3, #1
	beq	.L375
	cmp	r3, #2
	beq	.L376
	b	.L374
.L375:
	bl	s3eDebugIsDebuggerPresent
	mov	r3, r0
	cmp	r3, #0
	moveq	r3, #0
	movne	r3, #1
	and	r3, r3, #255
	cmp	r3, #0
	beq	.L377
	bl	s3eDebugIsDebuggerPresent
	mov	r3, r0
	cmp	r3, #0
	moveq	r3, #0
	movne	r3, #1
	and	r3, r3, #255
	cmp	r3, #0
	beq	.L394
	mvn	r3, #11
	mov	r2, #0
	str	r2, [r3, #0]
	b	.L374
.L377:
	bl	_ZL11IwDebugExitv
	b	.L374
.L376:
	ldr	r3, .L397+28
	mov	r2, #1
	strb	r2, [r3, #0]
	b	.L374
.L394:
	mov	r0, r0	@ nop
.L374:
	mov	r0, #0
	bl	IwDebugAssertSetUID
.L373:
.LBE24:
.LBB25:
	.loc 20 808 0
	ldr	r3, [sp, #12]
	ldr	r2, [r3, #4]
	ldr	r3, [sp, #8]
	cmp	r2, r3
	bls	.L380
	ldr	r0, .L397
	bl	IwDebugAssertIsChannelOn
	mov	r3, r0
	cmp	r3, #0
	beq	.L380
	ldr	r3, .L397+48
	ldrb	r3, [r3, #0]	@ zero_extendqisi2
	cmp	r3, #0
	bne	.L380
	mov	r3, #1
	b	.L381
.L380:
	mov	r3, #0
.L381:
	cmp	r3, #0
	beq	.L382
	mov	r0, #0
	bl	IwDebugAssertSetSolution
	mov	r0, #0
	bl	IwDebugAssertSetUID
	mov	r0, #0
	bl	IwDebugAssertSetMessage
	ldr	r0, .L397+52
	ldr	r1, .L397+20
	mov	r2, #808
	mov	r3, #1
	bl	IwDebugAssertShow
	mov	r3, r0
	cmp	r3, #1
	beq	.L384
	cmp	r3, #2
	beq	.L385
	b	.L383
.L384:
	bl	s3eDebugIsDebuggerPresent
	mov	r3, r0
	cmp	r3, #0
	moveq	r3, #0
	movne	r3, #1
	and	r3, r3, #255
	cmp	r3, #0
	beq	.L386
	bl	s3eDebugIsDebuggerPresent
	mov	r3, r0
	cmp	r3, #0
	moveq	r3, #0
	movne	r3, #1
	and	r3, r3, #255
	cmp	r3, #0
	beq	.L395
	mvn	r3, #11
	mov	r2, #0
	str	r2, [r3, #0]
	b	.L383
.L386:
	bl	_ZL11IwDebugExitv
	b	.L383
.L385:
	ldr	r3, .L397+48
	mov	r2, #1
	strb	r2, [r3, #0]
	b	.L383
.L395:
	mov	r0, r0	@ nop
.L383:
	mov	r0, #0
	bl	IwDebugAssertSetUID
.L382:
.LBE25:
	.loc 20 809 0
	ldr	r3, [sp, #12]
	ldr	r2, [r3, #8]
	ldr	r3, [sp, #8]
	cmp	r2, r3
	beq	.L396
.L389:
	.loc 20 810 0
	ldr	r3, [sp, #12]
	ldr	r2, [sp, #8]
	str	r2, [r3, #8]
	.loc 20 811 0
	ldr	r3, [sp, #8]
	cmp	r3, #0
	bne	.L390
	.loc 20 813 0
	ldr	r3, [sp, #12]
	add	r1, r3, #13
	ldr	r3, [sp, #12]
	ldr	r2, [r3, #0]
	ldr	r3, [sp, #12]
	ldr	r3, [r3, #8]
	mov	r0, r1
	mov	r1, r2
	mov	r2, r3
	bl	_ZN12CIwAllocatorIi15CIwMallocRouterIiEE10deallocateEPij
	.loc 20 814 0
	ldr	r3, [sp, #12]
	mov	r2, #0
	str	r2, [r3, #0]
	b	.L391
.L390:
	.loc 20 818 0
	ldr	r3, [sp, #12]
	ldr	r1, [r3, #4]
	ldr	r3, [sp, #12]
	ldr	r2, [r3, #8]
	ldr	r3, [sp, #12]
	ldr	r3, [r3, #0]
	ldr	r0, [sp, #12]
	add	r0, r0, #13
	str	r0, [sp, #0]
	ldr	r0, [sp, #8]
	bl	_ZN17ReallocateDefaultIi12CIwAllocatorIi15CIwMallocRouterIiEEE10ReallocateEjjjPiRS3_
	mov	r2, r0
	ldr	r3, [sp, #12]
	str	r2, [r3, #0]
	b	.L391
.L392:
.LBB26:
	.loc 20 806 0
	mov	r0, r0	@ nop
	b	.L391
.L396:
.LBE26:
	.loc 20 809 0
	mov	r0, r0	@ nop
.L391:
.LBE22:
	.loc 20 820 0
	add	sp, sp, #20
	ldmfd	sp!, {pc}
.L398:
	.align	2
.L397:
	.word	.LC7
	.word	_ZZN8CIwArrayIi12CIwAllocatorIi15CIwMallocRouterIiEE17ReallocateDefaultIiS3_EE12set_capacityEjE21_s_IwAssertIgnoreThis
	.word	1733
	.word	.LC11
	.word	.LC12
	.word	.LC9
	.word	806
	.word	_ZZN8CIwArrayIi12CIwAllocatorIi15CIwMallocRouterIiEE17ReallocateDefaultIiS3_EE12set_capacityEjE21_s_IwAssertIgnoreThis_0
	.word	1732
	.word	.LC13
	.word	.LC14
	.word	807
	.word	_ZZN8CIwArrayIi12CIwAllocatorIi15CIwMallocRouterIiEE17ReallocateDefaultIiS3_EE12set_capacityEjE21_s_IwAssertIgnoreThis_1
	.word	.LC15
	.cfi_endproc
.LFE3798:
	.size	_ZN8CIwArrayIi12CIwAllocatorIi15CIwMallocRouterIiEE17ReallocateDefaultIiS3_EE12set_capacityEj, .-_ZN8CIwArrayIi12CIwAllocatorIi15CIwMallocRouterIiEE17ReallocateDefaultIiS3_EE12set_capacityEj
	.section	.text._ZN8CIwArrayI12TileObstacle12CIwAllocatorIS0_15CIwMallocRouterIS0_EE17ReallocateDefaultIS0_S4_EE12set_capacityEj,"axG",%progbits,_ZN8CIwArrayI12TileObstacle12CIwAllocatorIS0_15CIwMallocRouterIS0_EE17ReallocateDefaultIS0_S4_EE12set_capacityEj,comdat
	.align	2
	.weak	_ZN8CIwArrayI12TileObstacle12CIwAllocatorIS0_15CIwMallocRouterIS0_EE17ReallocateDefaultIS0_S4_EE12set_capacityEj
	.hidden	_ZN8CIwArrayI12TileObstacle12CIwAllocatorIS0_15CIwMallocRouterIS0_EE17ReallocateDefaultIS0_S4_EE12set_capacityEj
	.type	_ZN8CIwArrayI12TileObstacle12CIwAllocatorIS0_15CIwMallocRouterIS0_EE17ReallocateDefaultIS0_S4_EE12set_capacityEj, %function
_ZN8CIwArrayI12TileObstacle12CIwAllocatorIS0_15CIwMallocRouterIS0_EE17ReallocateDefaultIS0_S4_EE12set_capacityEj:
.LFB3800:
	.loc 20 804 0
	.cfi_startproc
	@ args = 0, pretend = 0, frame = 8
	@ frame_needed = 0, uses_anonymous_args = 0
	str	lr, [sp, #-4]!
.LCFI161:
	.cfi_def_cfa_offset 4
	sub	sp, sp, #20
.LCFI162:
	.cfi_def_cfa_offset 24
	str	r0, [sp, #12]
	str	r1, [sp, #8]
.LBB27:
.LBB28:
	.loc 20 806 0
	ldr	r3, [sp, #12]
	ldrb	r3, [r3, #12]
	and	r3, r3, #1
	and	r3, r3, #255
	cmp	r3, #0
	beq	.L400
	.cfi_offset 14, -4
	ldr	r0, .L437
	bl	IwDebugAssertIsChannelOn
	mov	r3, r0
	cmp	r3, #0
	beq	.L401
	ldr	r3, .L437+4
	ldrb	r3, [r3, #0]	@ zero_extendqisi2
	cmp	r3, #0
	bne	.L401
	mov	r3, #1
	b	.L402
.L401:
	mov	r3, #0
.L402:
	cmp	r3, #0
	beq	.L432
	ldr	r0, .L437+8
	bl	IwDebugAssertSetUID
	ldr	r0, .L437+12
	bl	IwDebugAssertSetMessage
	ldr	r0, .L437+16
	ldr	r1, .L437+20
	ldr	r2, .L437+24
	mov	r3, #1
	bl	IwDebugAssertShow
	mov	r3, r0
	cmp	r3, #1
	beq	.L405
	cmp	r3, #2
	beq	.L406
	b	.L404
.L405:
	bl	s3eDebugIsDebuggerPresent
	mov	r3, r0
	cmp	r3, #0
	moveq	r3, #0
	movne	r3, #1
	and	r3, r3, #255
	cmp	r3, #0
	beq	.L407
	bl	s3eDebugIsDebuggerPresent
	mov	r3, r0
	cmp	r3, #0
	moveq	r3, #0
	movne	r3, #1
	and	r3, r3, #255
	cmp	r3, #0
	beq	.L433
	mvn	r3, #11
	mov	r2, #0
	str	r2, [r3, #0]
	b	.L404
.L407:
	bl	_ZL11IwDebugExitv
	b	.L404
.L406:
	ldr	r3, .L437+4
	mov	r2, #1
	strb	r2, [r3, #0]
	b	.L404
.L433:
	mov	r0, r0	@ nop
.L404:
	mov	r0, #0
	bl	IwDebugAssertSetUID
	b	.L431
.L400:
.LBE28:
.LBB29:
	.loc 20 807 0
	ldr	r3, [sp, #12]
	ldrb	r3, [r3, #12]	@ zero_extendqisi2
	mov	r3, r3, lsr #1
	and	r3, r3, #1
	and	r3, r3, #255
	cmp	r3, #0
	beq	.L411
	ldr	r3, [sp, #12]
	ldr	r2, [r3, #8]
	ldr	r3, [sp, #8]
	cmp	r2, r3
	bcs	.L411
	ldr	r0, .L437
	bl	IwDebugAssertIsChannelOn
	mov	r3, r0
	cmp	r3, #0
	beq	.L411
	ldr	r3, .L437+28
	ldrb	r3, [r3, #0]	@ zero_extendqisi2
	cmp	r3, #0
	bne	.L411
	mov	r3, #1
	b	.L412
.L411:
	mov	r3, #0
.L412:
	cmp	r3, #0
	beq	.L413
	mov	r0, #0
	bl	IwDebugAssertSetSolution
	ldr	r0, .L437+32
	bl	IwDebugAssertSetUID
	ldr	r0, .L437+36
	bl	IwDebugAssertSetMessage
	ldr	r0, .L437+40
	ldr	r1, .L437+20
	ldr	r2, .L437+44
	mov	r3, #1
	bl	IwDebugAssertShow
	mov	r3, r0
	cmp	r3, #1
	beq	.L415
	cmp	r3, #2
	beq	.L416
	b	.L414
.L415:
	bl	s3eDebugIsDebuggerPresent
	mov	r3, r0
	cmp	r3, #0
	moveq	r3, #0
	movne	r3, #1
	and	r3, r3, #255
	cmp	r3, #0
	beq	.L417
	bl	s3eDebugIsDebuggerPresent
	mov	r3, r0
	cmp	r3, #0
	moveq	r3, #0
	movne	r3, #1
	and	r3, r3, #255
	cmp	r3, #0
	beq	.L434
	mvn	r3, #11
	mov	r2, #0
	str	r2, [r3, #0]
	b	.L414
.L417:
	bl	_ZL11IwDebugExitv
	b	.L414
.L416:
	ldr	r3, .L437+28
	mov	r2, #1
	strb	r2, [r3, #0]
	b	.L414
.L434:
	mov	r0, r0	@ nop
.L414:
	mov	r0, #0
	bl	IwDebugAssertSetUID
.L413:
.LBE29:
.LBB30:
	.loc 20 808 0
	ldr	r3, [sp, #12]
	ldr	r2, [r3, #4]
	ldr	r3, [sp, #8]
	cmp	r2, r3
	bls	.L420
	ldr	r0, .L437
	bl	IwDebugAssertIsChannelOn
	mov	r3, r0
	cmp	r3, #0
	beq	.L420
	ldr	r3, .L437+48
	ldrb	r3, [r3, #0]	@ zero_extendqisi2
	cmp	r3, #0
	bne	.L420
	mov	r3, #1
	b	.L421
.L420:
	mov	r3, #0
.L421:
	cmp	r3, #0
	beq	.L422
	mov	r0, #0
	bl	IwDebugAssertSetSolution
	mov	r0, #0
	bl	IwDebugAssertSetUID
	mov	r0, #0
	bl	IwDebugAssertSetMessage
	ldr	r0, .L437+52
	ldr	r1, .L437+20
	mov	r2, #808
	mov	r3, #1
	bl	IwDebugAssertShow
	mov	r3, r0
	cmp	r3, #1
	beq	.L424
	cmp	r3, #2
	beq	.L425
	b	.L423
.L424:
	bl	s3eDebugIsDebuggerPresent
	mov	r3, r0
	cmp	r3, #0
	moveq	r3, #0
	movne	r3, #1
	and	r3, r3, #255
	cmp	r3, #0
	beq	.L426
	bl	s3eDebugIsDebuggerPresent
	mov	r3, r0
	cmp	r3, #0
	moveq	r3, #0
	movne	r3, #1
	and	r3, r3, #255
	cmp	r3, #0
	beq	.L435
	mvn	r3, #11
	mov	r2, #0
	str	r2, [r3, #0]
	b	.L423
.L426:
	bl	_ZL11IwDebugExitv
	b	.L423
.L425:
	ldr	r3, .L437+48
	mov	r2, #1
	strb	r2, [r3, #0]
	b	.L423
.L435:
	mov	r0, r0	@ nop
.L423:
	mov	r0, #0
	bl	IwDebugAssertSetUID
.L422:
.LBE30:
	.loc 20 809 0
	ldr	r3, [sp, #12]
	ldr	r2, [r3, #8]
	ldr	r3, [sp, #8]
	cmp	r2, r3
	beq	.L436
.L429:
	.loc 20 810 0
	ldr	r3, [sp, #12]
	ldr	r2, [sp, #8]
	str	r2, [r3, #8]
	.loc 20 811 0
	ldr	r3, [sp, #8]
	cmp	r3, #0
	bne	.L430
	.loc 20 813 0
	ldr	r3, [sp, #12]
	add	r1, r3, #13
	ldr	r3, [sp, #12]
	ldr	r2, [r3, #0]
	ldr	r3, [sp, #12]
	ldr	r3, [r3, #8]
	mov	r0, r1
	mov	r1, r2
	mov	r2, r3
	bl	_ZN12CIwAllocatorI12TileObstacle15CIwMallocRouterIS0_EE10deallocateEPS0_j
	.loc 20 814 0
	ldr	r3, [sp, #12]
	mov	r2, #0
	str	r2, [r3, #0]
	b	.L431
.L430:
	.loc 20 818 0
	ldr	r3, [sp, #12]
	ldr	r1, [r3, #4]
	ldr	r3, [sp, #12]
	ldr	r2, [r3, #8]
	ldr	r3, [sp, #12]
	ldr	r3, [r3, #0]
	ldr	r0, [sp, #12]
	add	r0, r0, #13
	str	r0, [sp, #0]
	ldr	r0, [sp, #8]
	bl	_ZN17ReallocateDefaultI12TileObstacle12CIwAllocatorIS0_15CIwMallocRouterIS0_EEE10ReallocateEjjjPS0_RS4_
	mov	r2, r0
	ldr	r3, [sp, #12]
	str	r2, [r3, #0]
	b	.L431
.L432:
.LBB31:
	.loc 20 806 0
	mov	r0, r0	@ nop
	b	.L431
.L436:
.LBE31:
	.loc 20 809 0
	mov	r0, r0	@ nop
.L431:
.LBE27:
	.loc 20 820 0
	add	sp, sp, #20
	ldmfd	sp!, {pc}
.L438:
	.align	2
.L437:
	.word	.LC7
	.word	_ZZN8CIwArrayI12TileObstacle12CIwAllocatorIS0_15CIwMallocRouterIS0_EE17ReallocateDefaultIS0_S4_EE12set_capacityEjE21_s_IwAssertIgnoreThis
	.word	1733
	.word	.LC11
	.word	.LC12
	.word	.LC9
	.word	806
	.word	_ZZN8CIwArrayI12TileObstacle12CIwAllocatorIS0_15CIwMallocRouterIS0_EE17ReallocateDefaultIS0_S4_EE12set_capacityEjE21_s_IwAssertIgnoreThis_0
	.word	1732
	.word	.LC13
	.word	.LC14
	.word	807
	.word	_ZZN8CIwArrayI12TileObstacle12CIwAllocatorIS0_15CIwMallocRouterIS0_EE17ReallocateDefaultIS0_S4_EE12set_capacityEjE21_s_IwAssertIgnoreThis_1
	.word	.LC15
	.cfi_endproc
.LFE3800:
	.size	_ZN8CIwArrayI12TileObstacle12CIwAllocatorIS0_15CIwMallocRouterIS0_EE17ReallocateDefaultIS0_S4_EE12set_capacityEj, .-_ZN8CIwArrayI12TileObstacle12CIwAllocatorIS0_15CIwMallocRouterIS0_EE17ReallocateDefaultIS0_S4_EE12set_capacityEj
	.section	.text._ZNK4_STL9basic_iosIcNS_11char_traitsIcEEE3tieEv,"axG",%progbits,_ZNK4_STL9basic_iosIcNS_11char_traitsIcEEE3tieEv,comdat
	.align	2
	.weak	_ZNK4_STL9basic_iosIcNS_11char_traitsIcEEE3tieEv
	.hidden	_ZNK4_STL9basic_iosIcNS_11char_traitsIcEEE3tieEv
	.type	_ZNK4_STL9basic_iosIcNS_11char_traitsIcEEE3tieEv, %function
_ZNK4_STL9basic_iosIcNS_11char_traitsIcEEE3tieEv:
.LFB3817:
	.loc 25 61 0
	.cfi_startproc
	@ args = 0, pretend = 0, frame = 8
	@ frame_needed = 0, uses_anonymous_args = 0
	@ link register save eliminated.
	sub	sp, sp, #8
.LCFI163:
	.cfi_def_cfa_offset 8
	str	r0, [sp, #4]
	.loc 25 62 0
	ldr	r3, [sp, #4]
	ldr	r3, [r3, #92]
	.loc 25 63 0
	mov	r0, r3
	add	sp, sp, #8
	bx	lr
	.cfi_endproc
.LFE3817:
	.size	_ZNK4_STL9basic_iosIcNS_11char_traitsIcEEE3tieEv, .-_ZNK4_STL9basic_iosIcNS_11char_traitsIcEEE3tieEv
	.section	.text._ZN17ReallocateDefaultIi12CIwAllocatorIi15CIwMallocRouterIiEEE10ReallocateEjjjPiRS3_,"axG",%progbits,_ZN17ReallocateDefaultIi12CIwAllocatorIi15CIwMallocRouterIiEEE10ReallocateEjjjPiRS3_,comdat
	.align	2
	.weak	_ZN17ReallocateDefaultIi12CIwAllocatorIi15CIwMallocRouterIiEEE10ReallocateEjjjPiRS3_
	.hidden	_ZN17ReallocateDefaultIi12CIwAllocatorIi15CIwMallocRouterIiEEE10ReallocateEjjjPiRS3_
	.type	_ZN17ReallocateDefaultIi12CIwAllocatorIi15CIwMallocRouterIiEEE10ReallocateEjjjPiRS3_, %function
_ZN17ReallocateDefaultIi12CIwAllocatorIi15CIwMallocRouterIiEEE10ReallocateEjjjPiRS3_:
.LFB3822:
	.loc 20 52 0
	.cfi_startproc
	@ args = 4, pretend = 0, frame = 16
	@ frame_needed = 0, uses_anonymous_args = 0
	str	lr, [sp, #-4]!
.LCFI164:
	.cfi_def_cfa_offset 4
	sub	sp, sp, #20
.LCFI165:
	.cfi_def_cfa_offset 24
	str	r0, [sp, #12]
	str	r1, [sp, #8]
	str	r2, [sp, #4]
	str	r3, [sp, #0]
	.loc 20 54 0
	ldr	r3, [sp, #12]
	mov	r3, r3, asl #2
	ldr	r0, [sp, #24]
	ldr	r1, [sp, #0]
	mov	r2, r3
	.cfi_offset 14, -4
	bl	_ZN12CIwAllocatorIi15CIwMallocRouterIiEE10reallocateEPij
	mov	r3, r0
	.loc 20 55 0
	mov	r0, r3
	add	sp, sp, #20
	ldmfd	sp!, {pc}
	.cfi_endproc
.LFE3822:
	.size	_ZN17ReallocateDefaultIi12CIwAllocatorIi15CIwMallocRouterIiEEE10ReallocateEjjjPiRS3_, .-_ZN17ReallocateDefaultIi12CIwAllocatorIi15CIwMallocRouterIiEEE10ReallocateEjjjPiRS3_
	.section	.text._ZN17ReallocateDefaultI12TileObstacle12CIwAllocatorIS0_15CIwMallocRouterIS0_EEE10ReallocateEjjjPS0_RS4_,"axG",%progbits,_ZN17ReallocateDefaultI12TileObstacle12CIwAllocatorIS0_15CIwMallocRouterIS0_EEE10ReallocateEjjjPS0_RS4_,comdat
	.align	2
	.weak	_ZN17ReallocateDefaultI12TileObstacle12CIwAllocatorIS0_15CIwMallocRouterIS0_EEE10ReallocateEjjjPS0_RS4_
	.hidden	_ZN17ReallocateDefaultI12TileObstacle12CIwAllocatorIS0_15CIwMallocRouterIS0_EEE10ReallocateEjjjPS0_RS4_
	.type	_ZN17ReallocateDefaultI12TileObstacle12CIwAllocatorIS0_15CIwMallocRouterIS0_EEE10ReallocateEjjjPS0_RS4_, %function
_ZN17ReallocateDefaultI12TileObstacle12CIwAllocatorIS0_15CIwMallocRouterIS0_EEE10ReallocateEjjjPS0_RS4_:
.LFB3824:
	.loc 20 52 0
	.cfi_startproc
	@ args = 4, pretend = 0, frame = 16
	@ frame_needed = 0, uses_anonymous_args = 0
	str	lr, [sp, #-4]!
.LCFI166:
	.cfi_def_cfa_offset 4
	sub	sp, sp, #20
.LCFI167:
	.cfi_def_cfa_offset 24
	str	r0, [sp, #12]
	str	r1, [sp, #8]
	str	r2, [sp, #4]
	str	r3, [sp, #0]
	.loc 20 54 0
	ldr	r3, [sp, #12]
	mov	r2, #44
	mul	r3, r2, r3
	ldr	r0, [sp, #24]
	ldr	r1, [sp, #0]
	mov	r2, r3
	.cfi_offset 14, -4
	bl	_ZN12CIwAllocatorI12TileObstacle15CIwMallocRouterIS0_EE10reallocateEPS0_j
	mov	r3, r0
	.loc 20 55 0
	mov	r0, r3
	add	sp, sp, #20
	ldmfd	sp!, {pc}
	.cfi_endproc
.LFE3824:
	.size	_ZN17ReallocateDefaultI12TileObstacle12CIwAllocatorIS0_15CIwMallocRouterIS0_EEE10ReallocateEjjjPS0_RS4_, .-_ZN17ReallocateDefaultI12TileObstacle12CIwAllocatorIS0_15CIwMallocRouterIS0_EEE10ReallocateEjjjPS0_RS4_
	.section	.text._ZN12CIwAllocatorIi15CIwMallocRouterIiEE10reallocateEPij,"axG",%progbits,_ZN12CIwAllocatorIi15CIwMallocRouterIiEE10reallocateEPij,comdat
	.align	2
	.weak	_ZN12CIwAllocatorIi15CIwMallocRouterIiEE10reallocateEPij
	.hidden	_ZN12CIwAllocatorIi15CIwMallocRouterIiEE10reallocateEPij
	.type	_ZN12CIwAllocatorIi15CIwMallocRouterIiEE10reallocateEPij, %function
_ZN12CIwAllocatorIi15CIwMallocRouterIiEE10reallocateEPij:
.LFB3833:
	.loc 22 142 0
	.cfi_startproc
	@ args = 0, pretend = 0, frame = 16
	@ frame_needed = 0, uses_anonymous_args = 0
	str	lr, [sp, #-4]!
.LCFI168:
	.cfi_def_cfa_offset 4
	sub	sp, sp, #20
.LCFI169:
	.cfi_def_cfa_offset 24
	str	r0, [sp, #12]
	str	r1, [sp, #8]
	str	r2, [sp, #4]
	.loc 22 144 0
	ldr	r0, [sp, #8]
	ldr	r1, [sp, #4]
	.cfi_offset 14, -4
	bl	_ZN15CIwMallocRouterIiE9DoReallocEPvj
	mov	r3, r0
	.loc 22 145 0
	mov	r0, r3
	add	sp, sp, #20
	ldmfd	sp!, {pc}
	.cfi_endproc
.LFE3833:
	.size	_ZN12CIwAllocatorIi15CIwMallocRouterIiEE10reallocateEPij, .-_ZN12CIwAllocatorIi15CIwMallocRouterIiEE10reallocateEPij
	.section	.text._ZN12CIwAllocatorI12TileObstacle15CIwMallocRouterIS0_EE10reallocateEPS0_j,"axG",%progbits,_ZN12CIwAllocatorI12TileObstacle15CIwMallocRouterIS0_EE10reallocateEPS0_j,comdat
	.align	2
	.weak	_ZN12CIwAllocatorI12TileObstacle15CIwMallocRouterIS0_EE10reallocateEPS0_j
	.hidden	_ZN12CIwAllocatorI12TileObstacle15CIwMallocRouterIS0_EE10reallocateEPS0_j
	.type	_ZN12CIwAllocatorI12TileObstacle15CIwMallocRouterIS0_EE10reallocateEPS0_j, %function
_ZN12CIwAllocatorI12TileObstacle15CIwMallocRouterIS0_EE10reallocateEPS0_j:
.LFB3835:
	.loc 22 142 0
	.cfi_startproc
	@ args = 0, pretend = 0, frame = 16
	@ frame_needed = 0, uses_anonymous_args = 0
	str	lr, [sp, #-4]!
.LCFI170:
	.cfi_def_cfa_offset 4
	sub	sp, sp, #20
.LCFI171:
	.cfi_def_cfa_offset 24
	str	r0, [sp, #12]
	str	r1, [sp, #8]
	str	r2, [sp, #4]
	.loc 22 144 0
	ldr	r0, [sp, #8]
	ldr	r1, [sp, #4]
	.cfi_offset 14, -4
	bl	_ZN15CIwMallocRouterI12TileObstacleE9DoReallocEPvj
	mov	r3, r0
	.loc 22 145 0
	mov	r0, r3
	add	sp, sp, #20
	ldmfd	sp!, {pc}
	.cfi_endproc
.LFE3835:
	.size	_ZN12CIwAllocatorI12TileObstacle15CIwMallocRouterIS0_EE10reallocateEPS0_j, .-_ZN12CIwAllocatorI12TileObstacle15CIwMallocRouterIS0_EE10reallocateEPS0_j
	.section	.text._ZN15CIwMallocRouterIiE9DoReallocEPvj,"axG",%progbits,_ZN15CIwMallocRouterIiE9DoReallocEPvj,comdat
	.align	2
	.weak	_ZN15CIwMallocRouterIiE9DoReallocEPvj
	.hidden	_ZN15CIwMallocRouterIiE9DoReallocEPvj
	.type	_ZN15CIwMallocRouterIiE9DoReallocEPvj, %function
_ZN15CIwMallocRouterIiE9DoReallocEPvj:
.LFB3841:
	.loc 22 97 0
	.cfi_startproc
	@ args = 0, pretend = 0, frame = 8
	@ frame_needed = 0, uses_anonymous_args = 0
	str	lr, [sp, #-4]!
.LCFI172:
	.cfi_def_cfa_offset 4
	sub	sp, sp, #12
.LCFI173:
	.cfi_def_cfa_offset 16
	str	r0, [sp, #4]
	str	r1, [sp, #0]
	.loc 22 99 0
	ldr	r0, [sp, #4]
	ldr	r1, [sp, #0]
	mov	r2, #4
	.cfi_offset 14, -4
	bl	_ZN22CIwDefaultMallocRouter11BaseReallocEPvjj
	mov	r3, r0
	.loc 22 100 0
	mov	r0, r3
	add	sp, sp, #12
	ldmfd	sp!, {pc}
	.cfi_endproc
.LFE3841:
	.size	_ZN15CIwMallocRouterIiE9DoReallocEPvj, .-_ZN15CIwMallocRouterIiE9DoReallocEPvj
	.section	.text._ZN15CIwMallocRouterI12TileObstacleE9DoReallocEPvj,"axG",%progbits,_ZN15CIwMallocRouterI12TileObstacleE9DoReallocEPvj,comdat
	.align	2
	.weak	_ZN15CIwMallocRouterI12TileObstacleE9DoReallocEPvj
	.hidden	_ZN15CIwMallocRouterI12TileObstacleE9DoReallocEPvj
	.type	_ZN15CIwMallocRouterI12TileObstacleE9DoReallocEPvj, %function
_ZN15CIwMallocRouterI12TileObstacleE9DoReallocEPvj:
.LFB3843:
	.loc 22 97 0
	.cfi_startproc
	@ args = 0, pretend = 0, frame = 8
	@ frame_needed = 0, uses_anonymous_args = 0
	str	lr, [sp, #-4]!
.LCFI174:
	.cfi_def_cfa_offset 4
	sub	sp, sp, #12
.LCFI175:
	.cfi_def_cfa_offset 16
	str	r0, [sp, #4]
	str	r1, [sp, #0]
	.loc 22 99 0
	ldr	r0, [sp, #4]
	ldr	r1, [sp, #0]
	mov	r2, #44
	.cfi_offset 14, -4
	bl	_ZN22CIwDefaultMallocRouter11BaseReallocEPvjj
	mov	r3, r0
	.loc 22 100 0
	mov	r0, r3
	add	sp, sp, #12
	ldmfd	sp!, {pc}
	.cfi_endproc
.LFE3843:
	.size	_ZN15CIwMallocRouterI12TileObstacleE9DoReallocEPvj, .-_ZN15CIwMallocRouterI12TileObstacleE9DoReallocEPvj
	.hidden	_ZTV5Music
	.weak	_ZTV5Music
	.section	.rodata._ZTV5Music,"aG",%progbits,_ZTV5Music,comdat
	.align	3
	.type	_ZTV5Music, %object
	.size	_ZTV5Music, 20
_ZTV5Music:
	.word	0
	.word	_ZTI5Music
	.word	_ZN5MusicD1Ev
	.word	_ZN5MusicD0Ev
	.word	_ZN5Audio4PlayEv
	.hidden	_ZTS5Music
	.weak	_ZTS5Music
	.section	.rodata._ZTS5Music,"aG",%progbits,_ZTS5Music,comdat
	.align	2
	.type	_ZTS5Music, %object
	.size	_ZTS5Music, 7
_ZTS5Music:
	.ascii	"5Music\000"
	.hidden	_ZTI5Music
	.weak	_ZTI5Music
	.section	.rodata._ZTI5Music,"aG",%progbits,_ZTI5Music,comdat
	.align	2
	.type	_ZTI5Music, %object
	.size	_ZTI5Music, 12
_ZTI5Music:
	.word	_ZTVN10__cxxabiv120__si_class_type_infoE+8
	.word	_ZTS5Music
	.word	_ZTI5Audio
	.section	.text._Z41__static_initialization_and_destruction_0ii,"ax",%progbits
	.align	2
	.type	_Z41__static_initialization_and_destruction_0ii, %function
_Z41__static_initialization_and_destruction_0ii:
.LFB3845:
	.loc 17 111 0
	.cfi_startproc
	@ args = 0, pretend = 0, frame = 8
	@ frame_needed = 0, uses_anonymous_args = 0
	str	lr, [sp, #-4]!
.LCFI176:
	.cfi_def_cfa_offset 4
	sub	sp, sp, #12
.LCFI177:
	.cfi_def_cfa_offset 16
	str	r0, [sp, #4]
	str	r1, [sp, #0]
	.loc 17 111 0
	ldr	r3, [sp, #4]
	cmp	r3, #1
	bne	.L455
	.cfi_offset 14, -4
	ldr	r2, [sp, #0]
	ldr	r3, .L456
	cmp	r2, r3
	bne	.L455
	.file 27 "c:/marmalade/6.2/s3e/h/std/c++/iostream"
	.loc 27 69 0
	ldr	r0, .L456+4
	bl	_ZN4_STL8ios_base9_Loc_initC1Ev
	ldr	r3, .L456+8
	ldr	r0, .L456+4
	mov	r1, r3
	ldr	r2, .L456+12
	bl	__aeabi_atexit
	.loc 27 75 0
	ldr	r0, .L456+16
	bl	_ZN4_STL8ios_base4InitC1Ev
	ldr	r3, .L456+20
	ldr	r0, .L456+16
	mov	r1, r3
	ldr	r2, .L456+12
	bl	__aeabi_atexit
.L455:
	.loc 17 111 0
	add	sp, sp, #12
	ldmfd	sp!, {pc}
.L457:
	.align	2
.L456:
	.word	65535
	.word	_ZN4_STLL8_LocInitE
	.word	_ZN4_STL8ios_base9_Loc_initD1Ev
	.word	__dso_handle
	.word	_ZN4_STLL8_IosInitE
	.word	_ZN4_STL8ios_base4InitD1Ev
	.cfi_endproc
.LFE3845:
	.size	_Z41__static_initialization_and_destruction_0ii, .-_Z41__static_initialization_and_destruction_0ii
	.section	.text._GLOBAL__I__ZN5CGameD2Ev,"ax",%progbits
	.align	2
	.type	_GLOBAL__I__ZN5CGameD2Ev, %function
_GLOBAL__I__ZN5CGameD2Ev:
.LFB3926:
	.loc 17 111 0
	.cfi_startproc
	@ args = 0, pretend = 0, frame = 0
	@ frame_needed = 0, uses_anonymous_args = 0
	stmfd	sp!, {r3, lr}
.LCFI178:
	.cfi_def_cfa_offset 8
	.loc 17 111 0
	mov	r0, #1
	ldr	r1, .L460
	.cfi_offset 14, -4
	.cfi_offset 3, -8
	bl	_Z41__static_initialization_and_destruction_0ii
	ldmfd	sp!, {r3, pc}
.L461:
	.align	2
.L460:
	.word	65535
	.cfi_endproc
.LFE3926:
	.size	_GLOBAL__I__ZN5CGameD2Ev, .-_GLOBAL__I__ZN5CGameD2Ev
	.section	.init_array,"aw",%init_array
	.align	2
	.word	_GLOBAL__I__ZN5CGameD2Ev(target1)
	.hidden	_ZZN8CIwArrayI12TileObstacle12CIwAllocatorIS0_15CIwMallocRouterIS0_EE17ReallocateDefaultIS0_S4_EE8truncateEjE21_s_IwAssertIgnoreThis
	.weak	_ZZN8CIwArrayI12TileObstacle12CIwAllocatorIS0_15CIwMallocRouterIS0_EE17ReallocateDefaultIS0_S4_EE8truncateEjE21_s_IwAssertIgnoreThis
	.section	.bss._ZZN8CIwArrayI12TileObstacle12CIwAllocatorIS0_15CIwMallocRouterIS0_EE17ReallocateDefaultIS0_S4_EE8truncateEjE21_s_IwAssertIgnoreThis,"awG",%nobits,_ZZN8CIwArrayI12TileObstacle12CIwAllocatorIS0_15CIwMallocRouterIS0_EE17ReallocateDefaultIS0_S4_EE8truncateEjE21_s_IwAssertIgnoreThis,comdat
	.type	_ZZN8CIwArrayI12TileObstacle12CIwAllocatorIS0_15CIwMallocRouterIS0_EE17ReallocateDefaultIS0_S4_EE8truncateEjE21_s_IwAssertIgnoreThis, %object
	.size	_ZZN8CIwArrayI12TileObstacle12CIwAllocatorIS0_15CIwMallocRouterIS0_EE17ReallocateDefaultIS0_S4_EE8truncateEjE21_s_IwAssertIgnoreThis, 1
_ZZN8CIwArrayI12TileObstacle12CIwAllocatorIS0_15CIwMallocRouterIS0_EE17ReallocateDefaultIS0_S4_EE8truncateEjE21_s_IwAssertIgnoreThis:
	.space	1
	.hidden	_ZZN8CIwArrayI12TileObstacle12CIwAllocatorIS0_15CIwMallocRouterIS0_EE17ReallocateDefaultIS0_S4_EE13push_back_qtyEiE21_s_IwAssertIgnoreThis
	.weak	_ZZN8CIwArrayI12TileObstacle12CIwAllocatorIS0_15CIwMallocRouterIS0_EE17ReallocateDefaultIS0_S4_EE13push_back_qtyEiE21_s_IwAssertIgnoreThis
	.section	.bss._ZZN8CIwArrayI12TileObstacle12CIwAllocatorIS0_15CIwMallocRouterIS0_EE17ReallocateDefaultIS0_S4_EE13push_back_qtyEiE21_s_IwAssertIgnoreThis,"awG",%nobits,_ZZN8CIwArrayI12TileObstacle12CIwAllocatorIS0_15CIwMallocRouterIS0_EE17ReallocateDefaultIS0_S4_EE13push_back_qtyEiE21_s_IwAssertIgnoreThis,comdat
	.type	_ZZN8CIwArrayI12TileObstacle12CIwAllocatorIS0_15CIwMallocRouterIS0_EE17ReallocateDefaultIS0_S4_EE13push_back_qtyEiE21_s_IwAssertIgnoreThis, %object
	.size	_ZZN8CIwArrayI12TileObstacle12CIwAllocatorIS0_15CIwMallocRouterIS0_EE17ReallocateDefaultIS0_S4_EE13push_back_qtyEiE21_s_IwAssertIgnoreThis, 1
_ZZN8CIwArrayI12TileObstacle12CIwAllocatorIS0_15CIwMallocRouterIS0_EE17ReallocateDefaultIS0_S4_EE13push_back_qtyEiE21_s_IwAssertIgnoreThis:
	.space	1
	.hidden	_ZZN8CIwArrayI12TileObstacle12CIwAllocatorIS0_15CIwMallocRouterIS0_EE17ReallocateDefaultIS0_S4_EE12set_capacityEjE21_s_IwAssertIgnoreThis
	.weak	_ZZN8CIwArrayI12TileObstacle12CIwAllocatorIS0_15CIwMallocRouterIS0_EE17ReallocateDefaultIS0_S4_EE12set_capacityEjE21_s_IwAssertIgnoreThis
	.section	.bss._ZZN8CIwArrayI12TileObstacle12CIwAllocatorIS0_15CIwMallocRouterIS0_EE17ReallocateDefaultIS0_S4_EE12set_capacityEjE21_s_IwAssertIgnoreThis,"awG",%nobits,_ZZN8CIwArrayI12TileObstacle12CIwAllocatorIS0_15CIwMallocRouterIS0_EE17ReallocateDefaultIS0_S4_EE12set_capacityEjE21_s_IwAssertIgnoreThis,comdat
	.type	_ZZN8CIwArrayI12TileObstacle12CIwAllocatorIS0_15CIwMallocRouterIS0_EE17ReallocateDefaultIS0_S4_EE12set_capacityEjE21_s_IwAssertIgnoreThis, %object
	.size	_ZZN8CIwArrayI12TileObstacle12CIwAllocatorIS0_15CIwMallocRouterIS0_EE17ReallocateDefaultIS0_S4_EE12set_capacityEjE21_s_IwAssertIgnoreThis, 1
_ZZN8CIwArrayI12TileObstacle12CIwAllocatorIS0_15CIwMallocRouterIS0_EE17ReallocateDefaultIS0_S4_EE12set_capacityEjE21_s_IwAssertIgnoreThis:
	.space	1
	.hidden	_ZZN8CIwArrayI12TileObstacle12CIwAllocatorIS0_15CIwMallocRouterIS0_EE17ReallocateDefaultIS0_S4_EE12set_capacityEjE21_s_IwAssertIgnoreThis_0
	.weak	_ZZN8CIwArrayI12TileObstacle12CIwAllocatorIS0_15CIwMallocRouterIS0_EE17ReallocateDefaultIS0_S4_EE12set_capacityEjE21_s_IwAssertIgnoreThis_0
	.section	.bss._ZZN8CIwArrayI12TileObstacle12CIwAllocatorIS0_15CIwMallocRouterIS0_EE17ReallocateDefaultIS0_S4_EE12set_capacityEjE21_s_IwAssertIgnoreThis_0,"awG",%nobits,_ZZN8CIwArrayI12TileObstacle12CIwAllocatorIS0_15CIwMallocRouterIS0_EE17ReallocateDefaultIS0_S4_EE12set_capacityEjE21_s_IwAssertIgnoreThis_0,comdat
	.type	_ZZN8CIwArrayI12TileObstacle12CIwAllocatorIS0_15CIwMallocRouterIS0_EE17ReallocateDefaultIS0_S4_EE12set_capacityEjE21_s_IwAssertIgnoreThis_0, %object
	.size	_ZZN8CIwArrayI12TileObstacle12CIwAllocatorIS0_15CIwMallocRouterIS0_EE17ReallocateDefaultIS0_S4_EE12set_capacityEjE21_s_IwAssertIgnoreThis_0, 1
_ZZN8CIwArrayI12TileObstacle12CIwAllocatorIS0_15CIwMallocRouterIS0_EE17ReallocateDefaultIS0_S4_EE12set_capacityEjE21_s_IwAssertIgnoreThis_0:
	.space	1
	.hidden	_ZZN8CIwArrayI12TileObstacle12CIwAllocatorIS0_15CIwMallocRouterIS0_EE17ReallocateDefaultIS0_S4_EE12set_capacityEjE21_s_IwAssertIgnoreThis_1
	.weak	_ZZN8CIwArrayI12TileObstacle12CIwAllocatorIS0_15CIwMallocRouterIS0_EE17ReallocateDefaultIS0_S4_EE12set_capacityEjE21_s_IwAssertIgnoreThis_1
	.section	.bss._ZZN8CIwArrayI12TileObstacle12CIwAllocatorIS0_15CIwMallocRouterIS0_EE17ReallocateDefaultIS0_S4_EE12set_capacityEjE21_s_IwAssertIgnoreThis_1,"awG",%nobits,_ZZN8CIwArrayI12TileObstacle12CIwAllocatorIS0_15CIwMallocRouterIS0_EE17ReallocateDefaultIS0_S4_EE12set_capacityEjE21_s_IwAssertIgnoreThis_1,comdat
	.type	_ZZN8CIwArrayI12TileObstacle12CIwAllocatorIS0_15CIwMallocRouterIS0_EE17ReallocateDefaultIS0_S4_EE12set_capacityEjE21_s_IwAssertIgnoreThis_1, %object
	.size	_ZZN8CIwArrayI12TileObstacle12CIwAllocatorIS0_15CIwMallocRouterIS0_EE17ReallocateDefaultIS0_S4_EE12set_capacityEjE21_s_IwAssertIgnoreThis_1, 1
_ZZN8CIwArrayI12TileObstacle12CIwAllocatorIS0_15CIwMallocRouterIS0_EE17ReallocateDefaultIS0_S4_EE12set_capacityEjE21_s_IwAssertIgnoreThis_1:
	.space	1
	.hidden	_ZZN8CIwArrayIi12CIwAllocatorIi15CIwMallocRouterIiEE17ReallocateDefaultIiS3_EE8truncateEjE21_s_IwAssertIgnoreThis
	.weak	_ZZN8CIwArrayIi12CIwAllocatorIi15CIwMallocRouterIiEE17ReallocateDefaultIiS3_EE8truncateEjE21_s_IwAssertIgnoreThis
	.section	.bss._ZZN8CIwArrayIi12CIwAllocatorIi15CIwMallocRouterIiEE17ReallocateDefaultIiS3_EE8truncateEjE21_s_IwAssertIgnoreThis,"awG",%nobits,_ZZN8CIwArrayIi12CIwAllocatorIi15CIwMallocRouterIiEE17ReallocateDefaultIiS3_EE8truncateEjE21_s_IwAssertIgnoreThis,comdat
	.type	_ZZN8CIwArrayIi12CIwAllocatorIi15CIwMallocRouterIiEE17ReallocateDefaultIiS3_EE8truncateEjE21_s_IwAssertIgnoreThis, %object
	.size	_ZZN8CIwArrayIi12CIwAllocatorIi15CIwMallocRouterIiEE17ReallocateDefaultIiS3_EE8truncateEjE21_s_IwAssertIgnoreThis, 1
_ZZN8CIwArrayIi12CIwAllocatorIi15CIwMallocRouterIiEE17ReallocateDefaultIiS3_EE8truncateEjE21_s_IwAssertIgnoreThis:
	.space	1
	.hidden	_ZZN8CIwArrayIi12CIwAllocatorIi15CIwMallocRouterIiEE17ReallocateDefaultIiS3_EE13push_back_qtyEiE21_s_IwAssertIgnoreThis
	.weak	_ZZN8CIwArrayIi12CIwAllocatorIi15CIwMallocRouterIiEE17ReallocateDefaultIiS3_EE13push_back_qtyEiE21_s_IwAssertIgnoreThis
	.section	.bss._ZZN8CIwArrayIi12CIwAllocatorIi15CIwMallocRouterIiEE17ReallocateDefaultIiS3_EE13push_back_qtyEiE21_s_IwAssertIgnoreThis,"awG",%nobits,_ZZN8CIwArrayIi12CIwAllocatorIi15CIwMallocRouterIiEE17ReallocateDefaultIiS3_EE13push_back_qtyEiE21_s_IwAssertIgnoreThis,comdat
	.type	_ZZN8CIwArrayIi12CIwAllocatorIi15CIwMallocRouterIiEE17ReallocateDefaultIiS3_EE13push_back_qtyEiE21_s_IwAssertIgnoreThis, %object
	.size	_ZZN8CIwArrayIi12CIwAllocatorIi15CIwMallocRouterIiEE17ReallocateDefaultIiS3_EE13push_back_qtyEiE21_s_IwAssertIgnoreThis, 1
_ZZN8CIwArrayIi12CIwAllocatorIi15CIwMallocRouterIiEE17ReallocateDefaultIiS3_EE13push_back_qtyEiE21_s_IwAssertIgnoreThis:
	.space	1
	.hidden	_ZZN8CIwArrayIi12CIwAllocatorIi15CIwMallocRouterIiEE17ReallocateDefaultIiS3_EE12set_capacityEjE21_s_IwAssertIgnoreThis
	.weak	_ZZN8CIwArrayIi12CIwAllocatorIi15CIwMallocRouterIiEE17ReallocateDefaultIiS3_EE12set_capacityEjE21_s_IwAssertIgnoreThis
	.section	.bss._ZZN8CIwArrayIi12CIwAllocatorIi15CIwMallocRouterIiEE17ReallocateDefaultIiS3_EE12set_capacityEjE21_s_IwAssertIgnoreThis,"awG",%nobits,_ZZN8CIwArrayIi12CIwAllocatorIi15CIwMallocRouterIiEE17ReallocateDefaultIiS3_EE12set_capacityEjE21_s_IwAssertIgnoreThis,comdat
	.type	_ZZN8CIwArrayIi12CIwAllocatorIi15CIwMallocRouterIiEE17ReallocateDefaultIiS3_EE12set_capacityEjE21_s_IwAssertIgnoreThis, %object
	.size	_ZZN8CIwArrayIi12CIwAllocatorIi15CIwMallocRouterIiEE17ReallocateDefaultIiS3_EE12set_capacityEjE21_s_IwAssertIgnoreThis, 1
_ZZN8CIwArrayIi12CIwAllocatorIi15CIwMallocRouterIiEE17ReallocateDefaultIiS3_EE12set_capacityEjE21_s_IwAssertIgnoreThis:
	.space	1
	.hidden	_ZZN8CIwArrayIi12CIwAllocatorIi15CIwMallocRouterIiEE17ReallocateDefaultIiS3_EE12set_capacityEjE21_s_IwAssertIgnoreThis_0
	.weak	_ZZN8CIwArrayIi12CIwAllocatorIi15CIwMallocRouterIiEE17ReallocateDefaultIiS3_EE12set_capacityEjE21_s_IwAssertIgnoreThis_0
	.section	.bss._ZZN8CIwArrayIi12CIwAllocatorIi15CIwMallocRouterIiEE17ReallocateDefaultIiS3_EE12set_capacityEjE21_s_IwAssertIgnoreThis_0,"awG",%nobits,_ZZN8CIwArrayIi12CIwAllocatorIi15CIwMallocRouterIiEE17ReallocateDefaultIiS3_EE12set_capacityEjE21_s_IwAssertIgnoreThis_0,comdat
	.type	_ZZN8CIwArrayIi12CIwAllocatorIi15CIwMallocRouterIiEE17ReallocateDefaultIiS3_EE12set_capacityEjE21_s_IwAssertIgnoreThis_0, %object
	.size	_ZZN8CIwArrayIi12CIwAllocatorIi15CIwMallocRouterIiEE17ReallocateDefaultIiS3_EE12set_capacityEjE21_s_IwAssertIgnoreThis_0, 1
_ZZN8CIwArrayIi12CIwAllocatorIi15CIwMallocRouterIiEE17ReallocateDefaultIiS3_EE12set_capacityEjE21_s_IwAssertIgnoreThis_0:
	.space	1
	.hidden	_ZZN8CIwArrayIi12CIwAllocatorIi15CIwMallocRouterIiEE17ReallocateDefaultIiS3_EE12set_capacityEjE21_s_IwAssertIgnoreThis_1
	.weak	_ZZN8CIwArrayIi12CIwAllocatorIi15CIwMallocRouterIiEE17ReallocateDefaultIiS3_EE12set_capacityEjE21_s_IwAssertIgnoreThis_1
	.section	.bss._ZZN8CIwArrayIi12CIwAllocatorIi15CIwMallocRouterIiEE17ReallocateDefaultIiS3_EE12set_capacityEjE21_s_IwAssertIgnoreThis_1,"awG",%nobits,_ZZN8CIwArrayIi12CIwAllocatorIi15CIwMallocRouterIiEE17ReallocateDefaultIiS3_EE12set_capacityEjE21_s_IwAssertIgnoreThis_1,comdat
	.type	_ZZN8CIwArrayIi12CIwAllocatorIi15CIwMallocRouterIiEE17ReallocateDefaultIiS3_EE12set_capacityEjE21_s_IwAssertIgnoreThis_1, %object
	.size	_ZZN8CIwArrayIi12CIwAllocatorIi15CIwMallocRouterIiEE17ReallocateDefaultIiS3_EE12set_capacityEjE21_s_IwAssertIgnoreThis_1, 1
_ZZN8CIwArrayIi12CIwAllocatorIi15CIwMallocRouterIiEE17ReallocateDefaultIiS3_EE12set_capacityEjE21_s_IwAssertIgnoreThis_1:
	.space	1
	.text
.Letext0: