	.arch armv5te
	.eabi_attribute 27, 3
	.fpu vfp
	.eabi_attribute 20, 1
	.eabi_attribute 21, 1
	.eabi_attribute 23, 3
	.eabi_attribute 24, 1
	.eabi_attribute 25, 1
	.eabi_attribute 26, 2
	.eabi_attribute 30, 6
	.eabi_attribute 18, 2
	.file	"map.cpp"
	.text
.Ltext0:
	.cfi_sections	.debug_frame
	.section	.text._ZL11IwDebugExitv,"ax",%progbits
	.align	2
	.type	_ZL11IwDebugExitv, %function
_ZL11IwDebugExitv:
.LFB0:
	.file 1 "c:/marmalade/6.2/modules/iwutil/h/IwDebug.h"
	.loc 1 354 0
	.cfi_startproc
	@ args = 0, pretend = 0, frame = 0
	@ frame_needed = 0, uses_anonymous_args = 0
	stmfd	sp!, {r3, lr}
.LCFI0:
	.cfi_def_cfa_offset 8
	.loc 1 355 0
	.cfi_offset 14, -4
	.cfi_offset 3, -8
	bl	abort
	.cfi_endproc
.LFE0:
	.size	_ZL11IwDebugExitv, .-_ZL11IwDebugExitv
	.section	.text._ZN8CIwSVec2C1Ev,"axG",%progbits,_ZN8CIwSVec2C1Ev,comdat
	.align	2
	.weak	_ZN8CIwSVec2C1Ev
	.hidden	_ZN8CIwSVec2C1Ev
	.type	_ZN8CIwSVec2C1Ev, %function
_ZN8CIwSVec2C1Ev:
.LFB128:
	.file 2 "c:/marmalade/6.2/modules/iwgeom/h/IwGeomSVec2.h"
	.loc 2 65 0
	.cfi_startproc
	@ args = 0, pretend = 0, frame = 8
	@ frame_needed = 0, uses_anonymous_args = 0
	@ link register save eliminated.
	sub	sp, sp, #8
.LCFI1:
	.cfi_def_cfa_offset 8
	str	r0, [sp, #4]
	.loc 2 65 0
	ldr	r3, [sp, #4]
	mov	r0, r3
	add	sp, sp, #8
	bx	lr
	.cfi_endproc
.LFE128:
	.size	_ZN8CIwSVec2C1Ev, .-_ZN8CIwSVec2C1Ev
	.section	.text._ZN8CIwSVec2C1Ess,"axG",%progbits,_ZN8CIwSVec2C1Ess,comdat
	.align	2
	.weak	_ZN8CIwSVec2C1Ess
	.hidden	_ZN8CIwSVec2C1Ess
	.type	_ZN8CIwSVec2C1Ess, %function
_ZN8CIwSVec2C1Ess:
.LFB131:
	.loc 2 72 0
	.cfi_startproc
	@ args = 0, pretend = 0, frame = 8
	@ frame_needed = 0, uses_anonymous_args = 0
	@ link register save eliminated.
	sub	sp, sp, #8
.LCFI2:
	.cfi_def_cfa_offset 8
	str	r0, [sp, #4]
	mov	r3, r2
	strh	r1, [sp, #2]	@ movhi
	strh	r3, [sp, #0]	@ movhi
	.loc 2 72 0
	ldr	r3, [sp, #4]
	ldrh	r2, [sp, #2]	@ movhi
	strh	r2, [r3, #0]	@ movhi
	ldr	r3, [sp, #4]
	ldrh	r2, [sp, #0]	@ movhi
	strh	r2, [r3, #2]	@ movhi
	ldr	r3, [sp, #4]
	mov	r0, r3
	add	sp, sp, #8
	bx	lr
	.cfi_endproc
.LFE131:
	.size	_ZN8CIwSVec2C1Ess, .-_ZN8CIwSVec2C1Ess
	.section	.text._ZN8CIwSVec2aSERKS_,"axG",%progbits,_ZN8CIwSVec2aSERKS_,comdat
	.align	2
	.weak	_ZN8CIwSVec2aSERKS_
	.hidden	_ZN8CIwSVec2aSERKS_
	.type	_ZN8CIwSVec2aSERKS_, %function
_ZN8CIwSVec2aSERKS_:
.LFB134:
	.loc 2 359 0
	.cfi_startproc
	@ args = 0, pretend = 0, frame = 8
	@ frame_needed = 0, uses_anonymous_args = 0
	@ link register save eliminated.
	sub	sp, sp, #8
.LCFI3:
	.cfi_def_cfa_offset 8
	str	r0, [sp, #4]
	str	r1, [sp, #0]
	.loc 2 360 0
	ldr	r3, [sp, #0]
	ldrh	r2, [r3, #0]
	ldr	r3, [sp, #4]
	strh	r2, [r3, #0]	@ movhi
	.loc 2 361 0
	ldr	r3, [sp, #0]
	ldrh	r2, [r3, #2]
	ldr	r3, [sp, #4]
	strh	r2, [r3, #2]	@ movhi
	.loc 2 362 0
	ldr	r3, [sp, #4]
	.loc 2 363 0
	mov	r0, r3
	add	sp, sp, #8
	bx	lr
	.cfi_endproc
.LFE134:
	.size	_ZN8CIwSVec2aSERKS_, .-_ZN8CIwSVec2aSERKS_
	.section	.text._ZN8CIwFVec2C1Ev,"axG",%progbits,_ZN8CIwFVec2C1Ev,comdat
	.align	2
	.weak	_ZN8CIwFVec2C1Ev
	.hidden	_ZN8CIwFVec2C1Ev
	.type	_ZN8CIwFVec2C1Ev, %function
_ZN8CIwFVec2C1Ev:
.LFB192:
	.file 3 "c:/marmalade/6.2/modules/iwgeom/h/IwGeomFVec2.h"
	.loc 3 65 0
	.cfi_startproc
	@ args = 0, pretend = 0, frame = 8
	@ frame_needed = 0, uses_anonymous_args = 0
	@ link register save eliminated.
	sub	sp, sp, #8
.LCFI4:
	.cfi_def_cfa_offset 8
	str	r0, [sp, #4]
	.loc 3 65 0
	ldr	r3, [sp, #4]
	mov	r0, r3
	add	sp, sp, #8
	bx	lr
	.cfi_endproc
.LFE192:
	.size	_ZN8CIwFVec2C1Ev, .-_ZN8CIwFVec2C1Ev
	.section	.text._ZN8CIwFVec2C1Eff,"axG",%progbits,_ZN8CIwFVec2C1Eff,comdat
	.align	2
	.weak	_ZN8CIwFVec2C1Eff
	.hidden	_ZN8CIwFVec2C1Eff
	.type	_ZN8CIwFVec2C1Eff, %function
_ZN8CIwFVec2C1Eff:
.LFB195:
	.loc 3 72 0
	.cfi_startproc
	@ args = 0, pretend = 0, frame = 16
	@ frame_needed = 0, uses_anonymous_args = 0
	@ link register save eliminated.
	sub	sp, sp, #16
.LCFI5:
	.cfi_def_cfa_offset 16
	str	r0, [sp, #12]
	str	r1, [sp, #8]	@ float
	str	r2, [sp, #4]	@ float
	.loc 3 72 0
	ldr	r3, [sp, #12]
	flds	s15, [sp, #8]
	fsts	s15, [r3, #0]
	ldr	r3, [sp, #12]
	flds	s15, [sp, #4]
	fsts	s15, [r3, #4]
	ldr	r3, [sp, #12]
	mov	r0, r3
	add	sp, sp, #16
	bx	lr
	.cfi_endproc
.LFE195:
	.size	_ZN8CIwFVec2C1Eff, .-_ZN8CIwFVec2C1Eff
	.section	.text._ZN8CIwFVec2aSERKS_,"axG",%progbits,_ZN8CIwFVec2aSERKS_,comdat
	.align	2
	.weak	_ZN8CIwFVec2aSERKS_
	.hidden	_ZN8CIwFVec2aSERKS_
	.type	_ZN8CIwFVec2aSERKS_, %function
_ZN8CIwFVec2aSERKS_:
.LFB198:
	.loc 3 285 0
	.cfi_startproc
	@ args = 0, pretend = 0, frame = 8
	@ frame_needed = 0, uses_anonymous_args = 0
	@ link register save eliminated.
	sub	sp, sp, #8
.LCFI6:
	.cfi_def_cfa_offset 8
	str	r0, [sp, #4]
	str	r1, [sp, #0]
	.loc 3 286 0
	ldr	r3, [sp, #0]
	flds	s15, [r3, #0]
	ldr	r3, [sp, #4]
	fsts	s15, [r3, #0]
	.loc 3 287 0
	ldr	r3, [sp, #0]
	flds	s15, [r3, #4]
	ldr	r3, [sp, #4]
	fsts	s15, [r3, #4]
	.loc 3 288 0
	ldr	r3, [sp, #4]
	.loc 3 289 0
	mov	r0, r3
	add	sp, sp, #8
	bx	lr
	.cfi_endproc
.LFE198:
	.size	_ZN8CIwFVec2aSERKS_, .-_ZN8CIwFVec2aSERKS_
	.section	.text._ZNK8CIwFVec2plERKS_,"axG",%progbits,_ZNK8CIwFVec2plERKS_,comdat
	.align	2
	.weak	_ZNK8CIwFVec2plERKS_
	.hidden	_ZNK8CIwFVec2plERKS_
	.type	_ZNK8CIwFVec2plERKS_, %function
_ZNK8CIwFVec2plERKS_:
.LFB199:
	.loc 3 295 0
	.cfi_startproc
	@ args = 0, pretend = 0, frame = 8
	@ frame_needed = 0, uses_anonymous_args = 0
	stmfd	sp!, {r4, lr}
.LCFI7:
	.cfi_def_cfa_offset 8
	sub	sp, sp, #8
.LCFI8:
	.cfi_def_cfa_offset 16
	mov	r4, r0
	.cfi_offset 14, -4
	.cfi_offset 4, -8
	str	r1, [sp, #4]
	str	r2, [sp, #0]
	.loc 3 299 0
	ldr	r3, [sp, #4]
	flds	s14, [r3, #0]
	ldr	r3, [sp, #0]
	flds	s15, [r3, #0]
	fadds	s13, s14, s15
	ldr	r3, [sp, #4]
	flds	s14, [r3, #4]
	ldr	r3, [sp, #0]
	flds	s15, [r3, #4]
	fadds	s15, s14, s15
	mov	r0, r4
	fmrs	r1, s13
	fmrs	r2, s15
	bl	_ZN8CIwFVec2C1Eff
	.loc 3 300 0
	mov	r0, r4
	add	sp, sp, #8
	ldmfd	sp!, {r4, pc}
	.cfi_endproc
.LFE199:
	.size	_ZNK8CIwFVec2plERKS_, .-_ZNK8CIwFVec2plERKS_
	.section	.text._ZnwjPv,"axG",%progbits,_ZnwjPv,comdat
	.align	2
	.weak	_ZnwjPv
	.hidden	_ZnwjPv
	.type	_ZnwjPv, %function
_ZnwjPv:
.LFB993:
	.file 4 "c:/marmalade/6.2/s3e/h/std/c++/new.h"
	.loc 4 52 0
	.cfi_startproc
	@ args = 0, pretend = 0, frame = 8
	@ frame_needed = 0, uses_anonymous_args = 0
	@ link register save eliminated.
	sub	sp, sp, #8
.LCFI9:
	.cfi_def_cfa_offset 8
	str	r0, [sp, #4]
	str	r1, [sp, #0]
	.loc 4 52 0
	ldr	r3, [sp, #0]
	mov	r0, r3
	add	sp, sp, #8
	bx	lr
	.cfi_endproc
.LFE993:
	.size	_ZnwjPv, .-_ZnwjPv
	.section	.text._ZN8ObstacleD1Ev,"axG",%progbits,_ZN8ObstacleD1Ev,comdat
	.align	2
	.weak	_ZN8ObstacleD1Ev
	.hidden	_ZN8ObstacleD1Ev
	.type	_ZN8ObstacleD1Ev, %function
_ZN8ObstacleD1Ev:
.LFB1983:
	.file 5 "c:/users/1106786/dropbox/dropbox/pg life/project impact/code/demos/demo_5_puzzle_gameplayflow/h/obstacle.h"
	.loc 5 13 0
	.cfi_startproc
	@ args = 0, pretend = 0, frame = 8
	@ frame_needed = 0, uses_anonymous_args = 0
	@ link register save eliminated.
	sub	sp, sp, #8
.LCFI10:
	.cfi_def_cfa_offset 8
	str	r0, [sp, #4]
	.loc 5 13 0
	ldr	r3, [sp, #4]
	mov	r0, r3
	add	sp, sp, #8
	bx	lr
	.cfi_endproc
.LFE1983:
	.size	_ZN8ObstacleD1Ev, .-_ZN8ObstacleD1Ev
	.section	.text._Z12IwGetGxStatev,"axG",%progbits,_Z12IwGetGxStatev,comdat
	.align	2
	.weak	_Z12IwGetGxStatev
	.hidden	_Z12IwGetGxStatev
	.type	_Z12IwGetGxStatev, %function
_Z12IwGetGxStatev:
.LFB2069:
	.file 6 "c:/marmalade/6.2/modules/iwgx/h/IwGxState.h"
	.loc 6 474 0
	.cfi_startproc
	@ args = 0, pretend = 0, frame = 0
	@ frame_needed = 0, uses_anonymous_args = 0
	@ link register save eliminated.
	.loc 6 474 0
	ldr	r3, .L28
	ldr	r3, [r3, #0]
	mov	r0, r3
	bx	lr
.L29:
	.align	2
.L28:
	.word	g_IwGxState
	.cfi_endproc
.LFE2069:
	.size	_Z12IwGetGxStatev, .-_Z12IwGetGxStatev
	.section	.text.IwGxGetScreenWidth,"ax",%progbits
	.align	2
	.type	IwGxGetScreenWidth, %function
IwGxGetScreenWidth:
.LFB2088:
	.file 7 "c:/marmalade/6.2/modules/iwgx/h/IwGx.h"
	.loc 7 400 0
	.cfi_startproc
	@ args = 0, pretend = 0, frame = 0
	@ frame_needed = 0, uses_anonymous_args = 0
	stmfd	sp!, {r3, lr}
.LCFI11:
	.cfi_def_cfa_offset 8
	.loc 7 400 0
	.cfi_offset 14, -4
	.cfi_offset 3, -8
	bl	_Z12IwGetGxStatev
	mov	r3, r0
	ldr	r3, [r3, #528]
	mov	r0, r3
	ldmfd	sp!, {r3, pc}
	.cfi_endproc
.LFE2088:
	.size	IwGxGetScreenWidth, .-IwGxGetScreenWidth
	.section	.text.IwGxGetScreenHeight,"ax",%progbits
	.align	2
	.type	IwGxGetScreenHeight, %function
IwGxGetScreenHeight:
.LFB2089:
	.loc 7 411 0
	.cfi_startproc
	@ args = 0, pretend = 0, frame = 0
	@ frame_needed = 0, uses_anonymous_args = 0
	stmfd	sp!, {r3, lr}
.LCFI12:
	.cfi_def_cfa_offset 8
	.loc 7 411 0
	.cfi_offset 14, -4
	.cfi_offset 3, -8
	bl	_Z12IwGetGxStatev
	mov	r3, r0
	ldr	r3, [r3, #532]
	mov	r0, r3
	ldmfd	sp!, {r3, pc}
	.cfi_endproc
.LFE2089:
	.size	IwGxGetScreenHeight, .-IwGxGetScreenHeight
	.section	.text._ZN12TileObstacleC1Ev,"axG",%progbits,_ZN12TileObstacleC1Ev,comdat
	.align	2
	.weak	_ZN12TileObstacleC1Ev
	.hidden	_ZN12TileObstacleC1Ev
	.type	_ZN12TileObstacleC1Ev, %function
_ZN12TileObstacleC1Ev:
.LFB2469:
	.file 8 "c:/users/1106786/dropbox/dropbox/pg life/project impact/code/demos/demo_5_puzzle_gameplayflow/h/tileobstacle.h"
	.loc 8 16 0
	.cfi_startproc
	@ args = 0, pretend = 0, frame = 16
	@ frame_needed = 0, uses_anonymous_args = 0
	stmfd	sp!, {r4, lr}
.LCFI13:
	.cfi_def_cfa_offset 8
	sub	sp, sp, #16
.LCFI14:
	.cfi_def_cfa_offset 24
	str	r0, [sp, #4]
	.loc 8 16 0
	ldr	r3, [sp, #4]
	mov	r0, r3
	.cfi_offset 14, -4
	.cfi_offset 4, -8
	bl	_ZN8CIwFVec2C1Ev
	ldr	r3, [sp, #4]
	add	r4, r3, #24
	add	r3, sp, #12
	mov	r0, r3
	bl	_ZN4_STL9allocatorI8ObstacleEC1Ev
	add	r3, sp, #12
	mov	r0, r4
	mov	r1, r3
	bl	_ZN4_STL6vectorI8ObstacleNS_9allocatorIS1_EEEC1ERKS3_
	add	r3, sp, #12
	mov	r0, r3
	bl	_ZN4_STL9allocatorI8ObstacleED1Ev
	ldr	r3, [sp, #4]
	add	r3, r3, #36
	mov	r0, r3
	bl	_ZN8CIwSVec2C1Ev
	ldr	r3, [sp, #4]
	mov	r0, r3
	add	sp, sp, #16
	ldmfd	sp!, {r4, pc}
	.cfi_endproc
.LFE2469:
	.size	_ZN12TileObstacleC1Ev, .-_ZN12TileObstacleC1Ev
	.section	.text._ZN12TileObstacleD1Ev,"axG",%progbits,_ZN12TileObstacleD1Ev,comdat
	.align	2
	.weak	_ZN12TileObstacleD1Ev
	.hidden	_ZN12TileObstacleD1Ev
	.type	_ZN12TileObstacleD1Ev, %function
_ZN12TileObstacleD1Ev:
.LFB2472:
	.loc 8 17 0
	.cfi_startproc
	@ args = 0, pretend = 0, frame = 8
	@ frame_needed = 0, uses_anonymous_args = 0
	str	lr, [sp, #-4]!
.LCFI15:
	.cfi_def_cfa_offset 4
	sub	sp, sp, #12
.LCFI16:
	.cfi_def_cfa_offset 16
	str	r0, [sp, #4]
	.loc 8 17 0
	ldr	r3, [sp, #4]
	add	r3, r3, #24
	mov	r0, r3
	.cfi_offset 14, -4
	bl	_ZN4_STL6vectorI8ObstacleNS_9allocatorIS1_EEED1Ev
	ldr	r3, [sp, #4]
	mov	r0, r3
	add	sp, sp, #12
	ldmfd	sp!, {pc}
	.cfi_endproc
.LFE2472:
	.size	_ZN12TileObstacleD1Ev, .-_ZN12TileObstacleD1Ev
	.section	.text._ZN5LayerC1Ev,"axG",%progbits,_ZN5LayerC1Ev,comdat
	.align	2
	.weak	_ZN5LayerC1Ev
	.hidden	_ZN5LayerC1Ev
	.type	_ZN5LayerC1Ev, %function
_ZN5LayerC1Ev:
.LFB2475:
	.file 9 "c:/users/1106786/dropbox/dropbox/pg life/project impact/code/demos/demo_5_puzzle_gameplayflow/h/layer.h"
	.loc 9 13 0
	.cfi_startproc
	@ args = 0, pretend = 0, frame = 8
	@ frame_needed = 0, uses_anonymous_args = 0
	str	lr, [sp, #-4]!
.LCFI17:
	.cfi_def_cfa_offset 4
	sub	sp, sp, #12
.LCFI18:
	.cfi_def_cfa_offset 16
	str	r0, [sp, #4]
	.loc 9 13 0
	ldr	r3, [sp, #4]
	mov	r0, r3
	mov	r1, #0
	.cfi_offset 14, -4
	bl	_ZN8CIwArrayIi12CIwAllocatorIi15CIwMallocRouterIiEE17ReallocateDefaultIiS3_EEC1Ej
	ldr	r3, [sp, #4]
	mov	r0, r3
	add	sp, sp, #12
	ldmfd	sp!, {pc}
	.cfi_endproc
.LFE2475:
	.size	_ZN5LayerC1Ev, .-_ZN5LayerC1Ev
	.section	.text._ZN5LayerD1Ev,"axG",%progbits,_ZN5LayerD1Ev,comdat
	.align	2
	.weak	_ZN5LayerD1Ev
	.hidden	_ZN5LayerD1Ev
	.type	_ZN5LayerD1Ev, %function
_ZN5LayerD1Ev:
.LFB2478:
	.loc 9 14 0
	.cfi_startproc
	@ args = 0, pretend = 0, frame = 8
	@ frame_needed = 0, uses_anonymous_args = 0
	str	lr, [sp, #-4]!
.LCFI19:
	.cfi_def_cfa_offset 4
	sub	sp, sp, #12
.LCFI20:
	.cfi_def_cfa_offset 16
	str	r0, [sp, #4]
	.loc 9 14 0
	ldr	r3, [sp, #4]
	mov	r0, r3
	.cfi_offset 14, -4
	bl	_ZN8CIwArrayIi12CIwAllocatorIi15CIwMallocRouterIiEE17ReallocateDefaultIiS3_EED1Ev
	ldr	r3, [sp, #4]
	mov	r0, r3
	add	sp, sp, #12
	ldmfd	sp!, {pc}
	.cfi_endproc
.LFE2478:
	.size	_ZN5LayerD1Ev, .-_ZN5LayerD1Ev
	.section	.text._ZN8TileUnitC1Ev,"axG",%progbits,_ZN8TileUnitC1Ev,comdat
	.align	2
	.weak	_ZN8TileUnitC1Ev
	.hidden	_ZN8TileUnitC1Ev
	.type	_ZN8TileUnitC1Ev, %function
_ZN8TileUnitC1Ev:
.LFB2482:
	.file 10 "c:/users/1106786/dropbox/dropbox/pg life/project impact/code/demos/demo_5_puzzle_gameplayflow/h/tileunit.h"
	.loc 10 9 0
	.cfi_startproc
	@ args = 0, pretend = 0, frame = 8
	@ frame_needed = 0, uses_anonymous_args = 0
	@ link register save eliminated.
	sub	sp, sp, #8
.LCFI21:
	.cfi_def_cfa_offset 8
	str	r0, [sp, #4]
	.loc 10 9 0
	ldr	r3, [sp, #4]
	mov	r0, r3
	add	sp, sp, #8
	bx	lr
	.cfi_endproc
.LFE2482:
	.size	_ZN8TileUnitC1Ev, .-_ZN8TileUnitC1Ev
	.section	.text._ZN8TileUnitD1Ev,"axG",%progbits,_ZN8TileUnitD1Ev,comdat
	.align	2
	.weak	_ZN8TileUnitD1Ev
	.hidden	_ZN8TileUnitD1Ev
	.type	_ZN8TileUnitD1Ev, %function
_ZN8TileUnitD1Ev:
.LFB2485:
	.loc 10 10 0
	.cfi_startproc
	@ args = 0, pretend = 0, frame = 8
	@ frame_needed = 0, uses_anonymous_args = 0
	@ link register save eliminated.
	sub	sp, sp, #8
.LCFI22:
	.cfi_def_cfa_offset 8
	str	r0, [sp, #4]
	.loc 10 10 0
	ldr	r3, [sp, #4]
	mov	r0, r3
	add	sp, sp, #8
	bx	lr
	.cfi_endproc
.LFE2485:
	.size	_ZN8TileUnitD1Ev, .-_ZN8TileUnitD1Ev
	.section	.text._ZN7TileSetC1Ev,"axG",%progbits,_ZN7TileSetC1Ev,comdat
	.align	2
	.weak	_ZN7TileSetC1Ev
	.hidden	_ZN7TileSetC1Ev
	.type	_ZN7TileSetC1Ev, %function
_ZN7TileSetC1Ev:
.LFB2488:
	.file 11 "c:/users/1106786/dropbox/dropbox/pg life/project impact/code/demos/demo_5_puzzle_gameplayflow/h/tileset.h"
	.loc 11 17 0
	.cfi_startproc
	@ args = 0, pretend = 0, frame = 8
	@ frame_needed = 0, uses_anonymous_args = 0
	str	lr, [sp, #-4]!
.LCFI23:
	.cfi_def_cfa_offset 4
	sub	sp, sp, #12
.LCFI24:
	.cfi_def_cfa_offset 16
	str	r0, [sp, #4]
	.loc 11 17 0
	ldr	r3, [sp, #4]
	mov	r0, r3
	mov	r1, #0
	.cfi_offset 14, -4
	bl	_ZN8CIwArrayIi12CIwAllocatorIi15CIwMallocRouterIiEE17ReallocateDefaultIiS3_EEC1Ej
	ldr	r3, [sp, #4]
	add	r3, r3, #16
	mov	r0, r3
	mov	r1, #0
	bl	_ZN8CIwArrayI8TileUnit12CIwAllocatorIS0_15CIwMallocRouterIS0_EE17ReallocateDefaultIS0_S4_EEC1Ej
	ldr	r3, [sp, #4]
	add	r3, r3, #72
	mov	r0, r3
	bl	_ZN8CIwSVec2C1Ev
	ldr	r3, [sp, #4]
	mov	r0, r3
	add	sp, sp, #12
	ldmfd	sp!, {pc}
	.cfi_endproc
.LFE2488:
	.size	_ZN7TileSetC1Ev, .-_ZN7TileSetC1Ev
	.section	.text._ZN7TileSetD1Ev,"axG",%progbits,_ZN7TileSetD1Ev,comdat
	.align	2
	.weak	_ZN7TileSetD1Ev
	.hidden	_ZN7TileSetD1Ev
	.type	_ZN7TileSetD1Ev, %function
_ZN7TileSetD1Ev:
.LFB2491:
	.loc 11 18 0
	.cfi_startproc
	@ args = 0, pretend = 0, frame = 8
	@ frame_needed = 0, uses_anonymous_args = 0
	str	lr, [sp, #-4]!
.LCFI25:
	.cfi_def_cfa_offset 4
	sub	sp, sp, #12
.LCFI26:
	.cfi_def_cfa_offset 16
	str	r0, [sp, #4]
	.loc 11 18 0
	ldr	r3, [sp, #4]
	ldr	r3, [r3, #36]
	cmp	r3, #0
	beq	.L56
	.cfi_offset 14, -4
	ldr	r3, [sp, #4]
	ldr	r3, [r3, #36]
	ldr	r3, [r3, #0]
	add	r3, r3, #16
	ldr	r3, [r3, #0]
	ldr	r2, [sp, #4]
	ldr	r2, [r2, #36]
	mov	r0, r2
	blx	r3
.L56:
	ldr	r3, [sp, #4]
	add	r3, r3, #16
	mov	r0, r3
	bl	_ZN8CIwArrayI8TileUnit12CIwAllocatorIS0_15CIwMallocRouterIS0_EE17ReallocateDefaultIS0_S4_EED1Ev
	ldr	r3, [sp, #4]
	mov	r0, r3
	bl	_ZN8CIwArrayIi12CIwAllocatorIi15CIwMallocRouterIiEE17ReallocateDefaultIiS3_EED1Ev
	ldr	r3, [sp, #4]
	mov	r0, r3
	add	sp, sp, #12
	ldmfd	sp!, {pc}
	.cfi_endproc
.LFE2491:
	.size	_ZN7TileSetD1Ev, .-_ZN7TileSetD1Ev
	.section	.text._ZN7TileSet7GetSizeEv,"axG",%progbits,_ZN7TileSet7GetSizeEv,comdat
	.align	2
	.weak	_ZN7TileSet7GetSizeEv
	.hidden	_ZN7TileSet7GetSizeEv
	.type	_ZN7TileSet7GetSizeEv, %function
_ZN7TileSet7GetSizeEv:
.LFB2492:
	.loc 11 21 0
	.cfi_startproc
	@ args = 0, pretend = 0, frame = 16
	@ frame_needed = 0, uses_anonymous_args = 0
	@ link register save eliminated.
	sub	sp, sp, #16
.LCFI27:
	.cfi_def_cfa_offset 16
	str	r0, [sp, #4]
	.loc 11 21 0
	ldr	r3, [sp, #4]
	ldr	r3, [r3, #72]
	str	r3, [sp, #12]
	mov	r3, #0
	ldrh	r2, [sp, #12]
	mov	r2, r2, asl #16
	mov	r3, r3, lsr #16
	orr	r3, r3, r2
	mov	r3, r3, ror #16
	ldrh	r2, [sp, #14]
	mov	r2, r2, asl #16
	mov	r3, r3, asl #16
	mov	r3, r3, lsr #16
	orr	r3, r3, r2
	mov	r0, r3
	add	sp, sp, #16
	bx	lr
	.cfi_endproc
.LFE2492:
	.size	_ZN7TileSet7GetSizeEv, .-_ZN7TileSet7GetSizeEv
	.section	.text._ZN4_STL11char_traitsIcE11to_int_typeERKc,"axG",%progbits,_ZN4_STL11char_traitsIcE11to_int_typeERKc,comdat
	.align	2
	.weak	_ZN4_STL11char_traitsIcE11to_int_typeERKc
	.hidden	_ZN4_STL11char_traitsIcE11to_int_typeERKc
	.type	_ZN4_STL11char_traitsIcE11to_int_typeERKc, %function
_ZN4_STL11char_traitsIcE11to_int_typeERKc:
.LFB2523:
	.file 12 "c:/marmalade/6.2/s3e/h/std/c++/stl/char_traits.h"
	.loc 12 231 0
	.cfi_startproc
	@ args = 0, pretend = 0, frame = 8
	@ frame_needed = 0, uses_anonymous_args = 0
	@ link register save eliminated.
	sub	sp, sp, #8
.LCFI28:
	.cfi_def_cfa_offset 8
	str	r0, [sp, #4]
	.loc 12 232 0
	ldr	r3, [sp, #4]
	ldrb	r3, [r3, #0]	@ zero_extendqisi2
	.loc 12 233 0
	mov	r0, r3
	add	sp, sp, #8
	bx	lr
	.cfi_endproc
.LFE2523:
	.size	_ZN4_STL11char_traitsIcE11to_int_typeERKc, .-_ZN4_STL11char_traitsIcE11to_int_typeERKc
	.section	.text._ZN4_STL11char_traitsIcE6lengthEPKc,"axG",%progbits,_ZN4_STL11char_traitsIcE6lengthEPKc,comdat
	.align	2
	.weak	_ZN4_STL11char_traitsIcE6lengthEPKc
	.hidden	_ZN4_STL11char_traitsIcE6lengthEPKc
	.type	_ZN4_STL11char_traitsIcE6lengthEPKc, %function
_ZN4_STL11char_traitsIcE6lengthEPKc:
.LFB2525:
	.loc 12 238 0
	.cfi_startproc
	@ args = 0, pretend = 0, frame = 8
	@ frame_needed = 0, uses_anonymous_args = 0
	str	lr, [sp, #-4]!
.LCFI29:
	.cfi_def_cfa_offset 4
	sub	sp, sp, #12
.LCFI30:
	.cfi_def_cfa_offset 16
	str	r0, [sp, #4]
	.loc 12 238 0
	ldr	r0, [sp, #4]
	.cfi_offset 14, -4
	bl	strlen
	mov	r3, r0
	mov	r0, r3
	add	sp, sp, #12
	ldmfd	sp!, {pc}
	.cfi_endproc
.LFE2525:
	.size	_ZN4_STL11char_traitsIcE6lengthEPKc, .-_ZN4_STL11char_traitsIcE6lengthEPKc
	.section	.text._ZNK4_STL5ctypeIcE5widenEc,"axG",%progbits,_ZNK4_STL5ctypeIcE5widenEc,comdat
	.align	2
	.weak	_ZNK4_STL5ctypeIcE5widenEc
	.hidden	_ZNK4_STL5ctypeIcE5widenEc
	.type	_ZNK4_STL5ctypeIcE5widenEc, %function
_ZNK4_STL5ctypeIcE5widenEc:
.LFB2913:
	.file 13 "c:/marmalade/6.2/s3e/h/std/c++/stl/_ctype.h"
	.loc 13 102 0
	.cfi_startproc
	@ args = 0, pretend = 0, frame = 8
	@ frame_needed = 0, uses_anonymous_args = 0
	str	lr, [sp, #-4]!
.LCFI31:
	.cfi_def_cfa_offset 4
	sub	sp, sp, #12
.LCFI32:
	.cfi_def_cfa_offset 16
	str	r0, [sp, #4]
	mov	r3, r1
	strb	r3, [sp, #3]
	.loc 13 102 0
	ldr	r3, [sp, #4]
	ldr	r3, [r3, #0]
	add	r3, r3, #24
	ldr	r3, [r3, #0]
	ldrb	r2, [sp, #3]	@ zero_extendqisi2
	ldr	r0, [sp, #4]
	mov	r1, r2
	.cfi_offset 14, -4
	blx	r3
	mov	r3, r0
	mov	r0, r3
	add	sp, sp, #12
	ldmfd	sp!, {pc}
	.cfi_endproc
.LFE2913:
	.size	_ZNK4_STL5ctypeIcE5widenEc, .-_ZNK4_STL5ctypeIcE5widenEc
	.section	.text._ZNK4_STL8ios_base5flagsEv,"axG",%progbits,_ZNK4_STL8ios_base5flagsEv,comdat
	.align	2
	.weak	_ZNK4_STL8ios_base5flagsEv
	.hidden	_ZNK4_STL8ios_base5flagsEv
	.type	_ZNK4_STL8ios_base5flagsEv, %function
_ZNK4_STL8ios_base5flagsEv:
.LFB2961:
	.file 14 "c:/marmalade/6.2/s3e/h/std/c++/stl/_ios_base.h"
	.loc 14 115 0
	.cfi_startproc
	@ args = 0, pretend = 0, frame = 8
	@ frame_needed = 0, uses_anonymous_args = 0
	@ link register save eliminated.
	sub	sp, sp, #8
.LCFI33:
	.cfi_def_cfa_offset 8
	str	r0, [sp, #4]
	.loc 14 115 0
	ldr	r3, [sp, #4]
	ldr	r3, [r3, #4]
	mov	r0, r3
	add	sp, sp, #8
	bx	lr
	.cfi_endproc
.LFE2961:
	.size	_ZNK4_STL8ios_base5flagsEv, .-_ZNK4_STL8ios_base5flagsEv
	.section	.text._ZNK4_STL8ios_base5widthEv,"axG",%progbits,_ZNK4_STL8ios_base5widthEv,comdat
	.align	2
	.weak	_ZNK4_STL8ios_base5widthEv
	.hidden	_ZNK4_STL8ios_base5widthEv
	.type	_ZNK4_STL8ios_base5widthEv, %function
_ZNK4_STL8ios_base5widthEv:
.LFB2968:
	.loc 14 142 0
	.cfi_startproc
	@ args = 0, pretend = 0, frame = 8
	@ frame_needed = 0, uses_anonymous_args = 0
	@ link register save eliminated.
	sub	sp, sp, #8
.LCFI34:
	.cfi_def_cfa_offset 8
	str	r0, [sp, #4]
	.loc 14 142 0
	ldr	r3, [sp, #4]
	ldr	r3, [r3, #28]
	mov	r0, r3
	add	sp, sp, #8
	bx	lr
	.cfi_endproc
.LFE2968:
	.size	_ZNK4_STL8ios_base5widthEv, .-_ZNK4_STL8ios_base5widthEv
	.section	.text._ZN4_STL8ios_base5widthEi,"axG",%progbits,_ZN4_STL8ios_base5widthEi,comdat
	.align	2
	.weak	_ZN4_STL8ios_base5widthEi
	.hidden	_ZN4_STL8ios_base5widthEi
	.type	_ZN4_STL8ios_base5widthEi, %function
_ZN4_STL8ios_base5widthEi:
.LFB2969:
	.loc 14 143 0
	.cfi_startproc
	@ args = 0, pretend = 0, frame = 16
	@ frame_needed = 0, uses_anonymous_args = 0
	@ link register save eliminated.
	sub	sp, sp, #16
.LCFI35:
	.cfi_def_cfa_offset 16
	str	r0, [sp, #4]
	str	r1, [sp, #0]
.LBB2:
	.loc 14 144 0
	ldr	r3, [sp, #4]
	ldr	r3, [r3, #28]
	str	r3, [sp, #12]
	.loc 14 145 0
	ldr	r3, [sp, #4]
	ldr	r2, [sp, #0]
	str	r2, [r3, #28]
	.loc 14 146 0
	ldr	r3, [sp, #12]
.LBE2:
	.loc 14 147 0
	mov	r0, r3
	add	sp, sp, #16
	bx	lr
	.cfi_endproc
.LFE2969:
	.size	_ZN4_STL8ios_base5widthEi, .-_ZN4_STL8ios_base5widthEi
	.section	.text._ZNK4_STL8ios_base6getlocEv,"axG",%progbits,_ZNK4_STL8ios_base6getlocEv,comdat
	.align	2
	.weak	_ZNK4_STL8ios_base6getlocEv
	.hidden	_ZNK4_STL8ios_base6getlocEv
	.type	_ZNK4_STL8ios_base6getlocEv, %function
_ZNK4_STL8ios_base6getlocEv:
.LFB2970:
	.loc 14 151 0
	.cfi_startproc
	@ args = 0, pretend = 0, frame = 8
	@ frame_needed = 0, uses_anonymous_args = 0
	stmfd	sp!, {r4, lr}
.LCFI36:
	.cfi_def_cfa_offset 8
	sub	sp, sp, #8
.LCFI37:
	.cfi_def_cfa_offset 16
	mov	r4, r0
	.cfi_offset 14, -4
	.cfi_offset 4, -8
	str	r1, [sp, #4]
	.loc 14 151 0
	mov	r2, r4
	ldr	r3, [sp, #4]
	add	r3, r3, #32
	mov	r0, r2
	mov	r1, r3
	bl	_ZN4_STL6localeC1ERKS0_
	mov	r0, r4
	mov	r0, r4
	add	sp, sp, #8
	ldmfd	sp!, {r4, pc}
	.cfi_endproc
.LFE2970:
	.size	_ZNK4_STL8ios_base6getlocEv, .-_ZNK4_STL8ios_base6getlocEv
	.section	.text._ZNK4_STL8ios_base7rdstateEv,"axG",%progbits,_ZNK4_STL8ios_base7rdstateEv,comdat
	.align	2
	.weak	_ZNK4_STL8ios_base7rdstateEv
	.hidden	_ZNK4_STL8ios_base7rdstateEv
	.type	_ZNK4_STL8ios_base7rdstateEv, %function
_ZNK4_STL8ios_base7rdstateEv:
.LFB2973:
	.loc 14 178 0
	.cfi_startproc
	@ args = 0, pretend = 0, frame = 8
	@ frame_needed = 0, uses_anonymous_args = 0
	@ link register save eliminated.
	sub	sp, sp, #8
.LCFI38:
	.cfi_def_cfa_offset 8
	str	r0, [sp, #4]
	.loc 14 178 0
	ldr	r3, [sp, #4]
	ldr	r3, [r3, #8]
	mov	r0, r3
	add	sp, sp, #8
	bx	lr
	.cfi_endproc
.LFE2973:
	.size	_ZNK4_STL8ios_base7rdstateEv, .-_ZNK4_STL8ios_base7rdstateEv
	.section	.text._ZNK4_STL8ios_base4goodEv,"axG",%progbits,_ZNK4_STL8ios_base4goodEv,comdat
	.align	2
	.weak	_ZNK4_STL8ios_base4goodEv
	.hidden	_ZNK4_STL8ios_base4goodEv
	.type	_ZNK4_STL8ios_base4goodEv, %function
_ZNK4_STL8ios_base4goodEv:
.LFB2974:
	.loc 14 180 0
	.cfi_startproc
	@ args = 0, pretend = 0, frame = 8
	@ frame_needed = 0, uses_anonymous_args = 0
	@ link register save eliminated.
	sub	sp, sp, #8
.LCFI39:
	.cfi_def_cfa_offset 8
	str	r0, [sp, #4]
	.loc 14 180 0
	ldr	r3, [sp, #4]
	ldr	r3, [r3, #8]
	cmp	r3, #0
	movne	r3, #0
	moveq	r3, #1
	and	r3, r3, #255
	mov	r0, r3
	add	sp, sp, #8
	bx	lr
	.cfi_endproc
.LFE2974:
	.size	_ZNK4_STL8ios_base4goodEv, .-_ZNK4_STL8ios_base4goodEv
	.section	.text._ZN4_STL8ios_base16_M_clear_nothrowEi,"axG",%progbits,_ZN4_STL8ios_base16_M_clear_nothrowEi,comdat
	.align	2
	.weak	_ZN4_STL8ios_base16_M_clear_nothrowEi
	.hidden	_ZN4_STL8ios_base16_M_clear_nothrowEi
	.type	_ZN4_STL8ios_base16_M_clear_nothrowEi, %function
_ZN4_STL8ios_base16_M_clear_nothrowEi:
.LFB2979:
	.loc 14 194 0
	.cfi_startproc
	@ args = 0, pretend = 0, frame = 8
	@ frame_needed = 0, uses_anonymous_args = 0
	@ link register save eliminated.
	sub	sp, sp, #8
.LCFI40:
	.cfi_def_cfa_offset 8
	str	r0, [sp, #4]
	str	r1, [sp, #0]
	.loc 14 194 0
	ldr	r3, [sp, #4]
	ldr	r2, [sp, #0]
	str	r2, [r3, #8]
	add	sp, sp, #8
	bx	lr
	.cfi_endproc
.LFE2979:
	.size	_ZN4_STL8ios_base16_M_clear_nothrowEi, .-_ZN4_STL8ios_base16_M_clear_nothrowEi
	.section	.text._ZN4_STL8ios_base23_M_check_exception_maskEv,"axG",%progbits,_ZN4_STL8ios_base23_M_check_exception_maskEv,comdat
	.align	2
	.weak	_ZN4_STL8ios_base23_M_check_exception_maskEv
	.hidden	_ZN4_STL8ios_base23_M_check_exception_maskEv
	.type	_ZN4_STL8ios_base23_M_check_exception_maskEv, %function
_ZN4_STL8ios_base23_M_check_exception_maskEv:
.LFB2982:
	.loc 14 197 0
	.cfi_startproc
	@ args = 0, pretend = 0, frame = 8
	@ frame_needed = 0, uses_anonymous_args = 0
	str	lr, [sp, #-4]!
.LCFI41:
	.cfi_def_cfa_offset 4
	sub	sp, sp, #12
.LCFI42:
	.cfi_def_cfa_offset 16
	str	r0, [sp, #4]
	.loc 14 198 0
	ldr	r3, [sp, #4]
	ldr	r2, [r3, #8]
	ldr	r3, [sp, #4]
	ldr	r3, [r3, #20]
	and	r3, r2, r3
	cmp	r3, #0
	beq	.L83
	.cfi_offset 14, -4
	.loc 14 199 0
	ldr	r0, [sp, #4]
	bl	_ZN4_STL8ios_base16_M_throw_failureEv
.L83:
	.loc 14 200 0
	add	sp, sp, #12
	ldmfd	sp!, {pc}
	.cfi_endproc
.LFE2982:
	.size	_ZN4_STL8ios_base23_M_check_exception_maskEv, .-_ZN4_STL8ios_base23_M_check_exception_maskEv
	.section	.text._ZNK4_STL8ios_base14_M_ctype_facetEv,"axG",%progbits,_ZNK4_STL8ios_base14_M_ctype_facetEv,comdat
	.align	2
	.weak	_ZNK4_STL8ios_base14_M_ctype_facetEv
	.hidden	_ZNK4_STL8ios_base14_M_ctype_facetEv
	.type	_ZNK4_STL8ios_base14_M_ctype_facetEv, %function
_ZNK4_STL8ios_base14_M_ctype_facetEv:
.LFB2983:
	.loc 14 250 0
	.cfi_startproc
	@ args = 0, pretend = 0, frame = 8
	@ frame_needed = 0, uses_anonymous_args = 0
	@ link register save eliminated.
	sub	sp, sp, #8
.LCFI43:
	.cfi_def_cfa_offset 8
	str	r0, [sp, #4]
	.loc 14 250 0
	ldr	r3, [sp, #4]
	ldr	r3, [r3, #64]
	mov	r0, r3
	add	sp, sp, #8
	bx	lr
	.cfi_endproc
.LFE2983:
	.size	_ZNK4_STL8ios_base14_M_ctype_facetEv, .-_ZNK4_STL8ios_base14_M_ctype_facetEv
	.bss
	.align	2
_ZN4_STLL8_LocInitE:
	.space	1
	.align	2
_ZN4_STLL8_IosInitE:
	.space	1
	.section	.text._ZN3MapD2Ev,"ax",%progbits
	.align	2
	.global	_ZN3MapD2Ev
	.hidden	_ZN3MapD2Ev
	.type	_ZN3MapD2Ev, %function
_ZN3MapD2Ev:
.LFB3373:
	.file 15 "c:/users/1106786/dropbox/dropbox/pg life/project impact/code/demos/demo_5_puzzle_gameplayflow/src/map.cpp"
	.loc 15 7 0
	.cfi_startproc
	@ args = 0, pretend = 0, frame = 8
	@ frame_needed = 0, uses_anonymous_args = 0
	stmfd	sp!, {r4, lr}
.LCFI44:
	.cfi_def_cfa_offset 8
	sub	sp, sp, #8
.LCFI45:
	.cfi_def_cfa_offset 16
	str	r0, [sp, #4]
	.loc 15 9 0
	ldr	r3, [sp, #4]
	ldr	r4, [r3, #28]
	.cfi_offset 14, -4
	.cfi_offset 4, -8
	cmp	r4, #0
	beq	.L87
	mov	r0, r4
	bl	_ZN5LayerD1Ev
	mov	r0, r4
	bl	_ZdlPv
.L87:
	.loc 15 10 0
	ldr	r3, [sp, #4]
	ldr	r4, [r3, #32]
	cmp	r4, #0
	beq	.L88
	mov	r0, r4
	bl	_ZN5LayerD1Ev
	mov	r0, r4
	bl	_ZdlPv
.L88:
	.loc 15 11 0
	ldr	r3, [sp, #4]
	ldr	r4, [r3, #36]
	cmp	r4, #0
	beq	.L89
	mov	r0, r4
	bl	_ZN5LayerD1Ev
	mov	r0, r4
	bl	_ZdlPv
.L89:
	.loc 15 12 0
	ldr	r3, [sp, #4]
	ldr	r4, [r3, #40]
	cmp	r4, #0
	beq	.L90
	mov	r0, r4
	bl	_ZN7TileSetD1Ev
	mov	r0, r4
	bl	_ZdlPv
.L90:
	.loc 15 13 0
	ldr	r3, [sp, #4]
	ldr	r4, [r3, #44]
	cmp	r4, #0
	beq	.L91
	mov	r0, r4
	bl	_ZN7TileSetD1Ev
	mov	r0, r4
	bl	_ZdlPv
.L91:
	.loc 15 14 0
	ldr	r3, [sp, #4]
	add	r3, r3, #116
	mov	r0, r3
	bl	_ZN8CIwArrayIi12CIwAllocatorIi15CIwMallocRouterIiEE17ReallocateDefaultIiS3_EED1Ev
	ldr	r3, [sp, #4]
	add	r3, r3, #84
	mov	r0, r3
	bl	_ZN8CIwArrayI12TileObstacle12CIwAllocatorIS0_15CIwMallocRouterIS0_EE17ReallocateDefaultIS0_S4_EED1Ev
	ldr	r3, [sp, #4]
	add	r3, r3, #68
	mov	r0, r3
	bl	_ZN8CIwArrayIi12CIwAllocatorIi15CIwMallocRouterIiEE17ReallocateDefaultIiS3_EED1Ev
	ldr	r3, [sp, #4]
	mov	r0, r3
	add	sp, sp, #8
	ldmfd	sp!, {r4, pc}
	.cfi_endproc
.LFE3373:
	.size	_ZN3MapD2Ev, .-_ZN3MapD2Ev
	.section	.text._ZN3MapD1Ev,"ax",%progbits
	.align	2
	.global	_ZN3MapD1Ev
	.hidden	_ZN3MapD1Ev
	.type	_ZN3MapD1Ev, %function
_ZN3MapD1Ev:
.LFB3374:
	.loc 15 7 0
	.cfi_startproc
	@ args = 0, pretend = 0, frame = 8
	@ frame_needed = 0, uses_anonymous_args = 0
	stmfd	sp!, {r4, lr}
.LCFI46:
	.cfi_def_cfa_offset 8
	sub	sp, sp, #8
.LCFI47:
	.cfi_def_cfa_offset 16
	str	r0, [sp, #4]
	.loc 15 9 0
	ldr	r3, [sp, #4]
	ldr	r4, [r3, #28]
	.cfi_offset 14, -4
	.cfi_offset 4, -8
	cmp	r4, #0
	beq	.L95
	mov	r0, r4
	bl	_ZN5LayerD1Ev
	mov	r0, r4
	bl	_ZdlPv
.L95:
	.loc 15 10 0
	ldr	r3, [sp, #4]
	ldr	r4, [r3, #32]
	cmp	r4, #0
	beq	.L96
	mov	r0, r4
	bl	_ZN5LayerD1Ev
	mov	r0, r4
	bl	_ZdlPv
.L96:
	.loc 15 11 0
	ldr	r3, [sp, #4]
	ldr	r4, [r3, #36]
	cmp	r4, #0
	beq	.L97
	mov	r0, r4
	bl	_ZN5LayerD1Ev
	mov	r0, r4
	bl	_ZdlPv
.L97:
	.loc 15 12 0
	ldr	r3, [sp, #4]
	ldr	r4, [r3, #40]
	cmp	r4, #0
	beq	.L98
	mov	r0, r4
	bl	_ZN7TileSetD1Ev
	mov	r0, r4
	bl	_ZdlPv
.L98:
	.loc 15 13 0
	ldr	r3, [sp, #4]
	ldr	r4, [r3, #44]
	cmp	r4, #0
	beq	.L99
	mov	r0, r4
	bl	_ZN7TileSetD1Ev
	mov	r0, r4
	bl	_ZdlPv
.L99:
	.loc 15 14 0
	ldr	r3, [sp, #4]
	add	r3, r3, #116
	mov	r0, r3
	bl	_ZN8CIwArrayIi12CIwAllocatorIi15CIwMallocRouterIiEE17ReallocateDefaultIiS3_EED1Ev
	ldr	r3, [sp, #4]
	add	r3, r3, #84
	mov	r0, r3
	bl	_ZN8CIwArrayI12TileObstacle12CIwAllocatorIS0_15CIwMallocRouterIS0_EE17ReallocateDefaultIS0_S4_EED1Ev
	ldr	r3, [sp, #4]
	add	r3, r3, #68
	mov	r0, r3
	bl	_ZN8CIwArrayIi12CIwAllocatorIi15CIwMallocRouterIiEE17ReallocateDefaultIiS3_EED1Ev
	ldr	r3, [sp, #4]
	mov	r0, r3
	add	sp, sp, #8
	ldmfd	sp!, {r4, pc}
	.cfi_endproc
.LFE3374:
	.size	_ZN3MapD1Ev, .-_ZN3MapD1Ev
	.section	.rodata
	.align	2
.LC0:
	.ascii	"rb\000"
	.align	2
.LC1:
	.ascii	"height\000"
	.align	2
.LC2:
	.ascii	"layers\000"
	.align	2
.LC3:
	.ascii	"tileheight\000"
	.align	2
.LC4:
	.ascii	"tilewidth\000"
	.align	2
.LC5:
	.ascii	"width\000"
	.align	2
.LC6:
	.ascii	"tilesets\000"
	.section	.text._ZN3Map12ReadJsonFileEPc,"ax",%progbits
	.align	2
	.global	_ZN3Map12ReadJsonFileEPc
	.hidden	_ZN3Map12ReadJsonFileEPc
	.type	_ZN3Map12ReadJsonFileEPc, %function
_ZN3Map12ReadJsonFileEPc:
.LFB3375:
	.loc 15 16 0
	.cfi_startproc
	@ args = 0, pretend = 0, frame = 40
	@ frame_needed = 0, uses_anonymous_args = 0
	stmfd	sp!, {r4, lr}
.LCFI48:
	.cfi_def_cfa_offset 8
	sub	sp, sp, #40
.LCFI49:
	.cfi_def_cfa_offset 48
	str	r0, [sp, #4]
	str	r1, [sp, #0]
.LBB3:
	.loc 15 20 0
	ldr	r0, [sp, #0]
	ldr	r1, .L109
	.cfi_offset 14, -4
	.cfi_offset 4, -8
	bl	s3eFileOpen
	mov	r3, r0
	str	r3, [sp, #24]
	.loc 15 21 0
	ldr	r3, [sp, #24]
	cmp	r3, #0
	beq	.L103
.LBB4:
	.loc 15 24 0
	ldr	r0, [sp, #24]
	bl	s3eFileGetSize
	mov	r3, r0
	str	r3, [sp, #36]
	.loc 15 25 0
	ldr	r3, [sp, #36]
	add	r3, r3, #1
	mov	r0, r3
	bl	s3eMallocBase
	mov	r3, r0
	str	r3, [sp, #20]
	.loc 15 28 0
	ldr	r3, [sp, #36]
	add	r3, r3, #1
	ldr	r0, [sp, #20]
	mov	r1, r3
	mov	r2, #1
	ldr	r3, [sp, #24]
	bl	s3eFileRead
	mov	r3, r0
	cmp	r3, #1
	moveq	r3, #0
	movne	r3, #1
	and	r3, r3, #255
	cmp	r3, #0
	beq	.L104
	.loc 15 31 0
	bl	s3eFileGetErrorString
	mov	r3, r0
	ldr	r0, .L109+4
	mov	r1, r3
	bl	_ZN4_STLlsINS_11char_traitsIcEEEERNS_13basic_ostreamIcT_EES6_PKc
	mov	r3, r0
	mov	r0, r3
	ldr	r1, .L109+8
	bl	_ZN4_STL13basic_ostreamIcNS_11char_traitsIcEEElsEPFRS3_S4_E
	.loc 15 36 0
	b	.L106
.L104:
	ldr	r2, [sp, #36]
	ldr	r3, [sp, #20]
	add	r3, r2, r3
	mov	r2, #0
	strb	r2, [r3, #0]
	b	.L106
.L103:
.LBE4:
	.loc 15 42 0
	bl	s3eFileGetErrorString
	mov	r3, r0
	ldr	r0, .L109+4
	mov	r1, r3
	bl	_ZN4_STLlsINS_11char_traitsIcEEEERNS_13basic_ostreamIcT_EES6_PKc
	mov	r3, r0
	mov	r0, r3
	ldr	r1, .L109+8
	bl	_ZN4_STL13basic_ostreamIcNS_11char_traitsIcEEElsEPFRS3_S4_E
.L106:
	.loc 15 44 0
	ldr	r3, [sp, #24]
	cmp	r3, #0
	beq	.L107
	.loc 15 45 0
	ldr	r0, [sp, #24]
	bl	s3eFileClose
.L107:
	.loc 15 46 0
	ldr	r0, [sp, #20]
	bl	cJSON_Parse
	mov	r3, r0
	str	r3, [sp, #16]
	.loc 15 47 0
	ldr	r0, [sp, #24]
	bl	s3eFileFlush
	.loc 15 49 0
	ldr	r0, [sp, #16]
	ldr	r1, .L109+12
	bl	cJSON_GetObjectItem
	mov	r3, r0
	ldr	r2, [r3, #20]
	ldr	r3, [sp, #4]
	str	r2, [r3, #48]
	.loc 15 50 0
	ldr	r0, [sp, #16]
	ldr	r1, .L109+16
	bl	cJSON_GetObjectItem
	mov	r3, r0
	str	r3, [sp, #28]
	.loc 15 51 0
	ldr	r0, [sp, #16]
	ldr	r1, .L109+20
	bl	cJSON_GetObjectItem
	mov	r3, r0
	ldr	r2, [r3, #20]
	ldr	r3, [sp, #4]
	str	r2, [r3, #60]
	.loc 15 52 0
	ldr	r0, [sp, #16]
	ldr	r1, .L109+24
	bl	cJSON_GetObjectItem
	mov	r3, r0
	ldr	r2, [r3, #20]
	ldr	r3, [sp, #4]
	str	r2, [r3, #64]
	.loc 15 53 0
	ldr	r0, [sp, #16]
	ldr	r1, .L109+28
	bl	cJSON_GetObjectItem
	mov	r3, r0
	ldr	r2, [r3, #20]
	ldr	r3, [sp, #4]
	str	r2, [r3, #52]
	.loc 15 54 0
	ldr	r3, [sp, #4]
	ldr	r4, [r3, #28]
	ldr	r0, [sp, #28]
	mov	r1, #0
	bl	cJSON_GetArrayItem
	mov	r3, r0
	mov	r0, r4
	mov	r1, r3
	bl	_ZN5Layer4InitEP5cJSON
	.loc 15 55 0
	ldr	r3, [sp, #4]
	ldr	r4, [r3, #32]
	ldr	r0, [sp, #28]
	mov	r1, #1
	bl	cJSON_GetArrayItem
	mov	r3, r0
	mov	r0, r4
	mov	r1, r3
	bl	_ZN5Layer4InitEP5cJSON
	.loc 15 56 0
	ldr	r3, [sp, #4]
	ldr	r4, [r3, #36]
	ldr	r0, [sp, #28]
	mov	r1, #2
	bl	cJSON_GetArrayItem
	mov	r3, r0
	mov	r0, r4
	mov	r1, r3
	bl	_ZN5Layer4InitEP5cJSON
	.loc 15 57 0
	ldr	r0, [sp, #16]
	ldr	r1, .L109+32
	bl	cJSON_GetObjectItem
	mov	r3, r0
	str	r3, [sp, #32]
	.loc 15 58 0
	ldr	r3, [sp, #4]
	ldr	r4, [r3, #40]
	ldr	r0, [sp, #32]
	mov	r1, #0
	bl	cJSON_GetArrayItem
	mov	r3, r0
	mov	r0, r4
	mov	r1, r3
	bl	_ZN7TileSet4InitEP5cJSON
	.loc 15 59 0
	ldr	r3, [sp, #4]
	ldr	r4, [r3, #44]
	ldr	r0, [sp, #32]
	mov	r1, #1
	bl	cJSON_GetArrayItem
	mov	r3, r0
	mov	r0, r4
	mov	r1, r3
	bl	_ZN7TileSet4InitEP5cJSON
	.loc 15 63 0
	ldr	r3, [sp, #4]
	ldr	r3, [r3, #48]
	ldr	r2, [sp, #4]
	ldr	r2, [r2, #52]
	mul	r2, r3, r2
	ldr	r3, [sp, #4]
	str	r2, [r3, #56]
	.loc 15 64 0
	ldr	r3, [sp, #4]
	add	r4, r3, #24
	ldr	r3, [sp, #4]
	ldr	r3, [r3, #52]
	mov	r3, r3, asl #16
	mov	r3, r3, lsr #16
	ldr	r2, [sp, #4]
	ldr	r2, [r2, #64]
	mov	r2, r2, asl #16
	mov	r2, r2, lsr #16
	mul	r3, r2, r3
	mov	r3, r3, asl #16
	mov	r3, r3, lsr #16
	mov	r2, r3
	ldr	r3, [sp, #4]
	ldr	r3, [r3, #48]
	mov	r3, r3, asl #16
	mov	r3, r3, lsr #16
	ldr	r1, [sp, #4]
	ldr	r1, [r1, #60]
	mov	r1, r1, asl #16
	mov	r1, r1, lsr #16
	mul	r3, r1, r3
	mov	r3, r3, asl #16
	mov	r3, r3, lsr #16
	add	r1, sp, #12
	mov	r2, r2, asl #16
	mov	r2, r2, asr #16
	mov	r3, r3, asl #16
	mov	r3, r3, asr #16
	mov	r0, r1
	mov	r1, r2
	mov	r2, r3
	bl	_ZN8CIwSVec2C1Ess
	add	r3, sp, #12
	mov	r0, r4
	mov	r1, r3
	bl	_ZN8CIwSVec2aSERKS_
.LBE3:
	.loc 15 66 0
	add	sp, sp, #40
	ldmfd	sp!, {r4, pc}
.L110:
	.align	2
.L109:
	.word	.LC0
	.word	_ZN4_STL4coutE
	.word	_ZN4_STL4endlIcNS_11char_traitsIcEEEERNS_13basic_ostreamIT_T0_EES7_
	.word	.LC1
	.word	.LC2
	.word	.LC3
	.word	.LC4
	.word	.LC5
	.word	.LC6
	.cfi_endproc
.LFE3375:
	.size	_ZN3Map12ReadJsonFileEPc, .-_ZN3Map12ReadJsonFileEPc
	.section	.text._ZN12TileObstacleC1ERKS_,"axG",%progbits,_ZN12TileObstacleC1ERKS_,comdat
	.align	2
	.weak	_ZN12TileObstacleC1ERKS_
	.hidden	_ZN12TileObstacleC1ERKS_
	.type	_ZN12TileObstacleC1ERKS_, %function
_ZN12TileObstacleC1ERKS_:
.LFB3379:
	.loc 8 10 0
	.cfi_startproc
	@ args = 0, pretend = 0, frame = 8
	@ frame_needed = 0, uses_anonymous_args = 0
	str	lr, [sp, #-4]!
.LCFI50:
	.cfi_def_cfa_offset 4
	sub	sp, sp, #12
.LCFI51:
	.cfi_def_cfa_offset 16
	str	r0, [sp, #4]
	str	r1, [sp, #0]
	.loc 8 10 0
	ldr	r3, [sp, #4]
	ldr	r2, [sp, #0]
	ldmia	r2, {r0, r1}
	stmia	r3, {r0, r1}
	ldr	r2, [sp, #4]
	ldr	r3, [sp, #0]
	add	ip, r2, #8
	add	r3, r3, #8
	ldmia	r3, {r0, r1, r2, r3}
	stmia	ip, {r0, r1, r2, r3}
	ldr	r3, [sp, #4]
	add	r2, r3, #24
	ldr	r3, [sp, #0]
	add	r3, r3, #24
	mov	r0, r2
	mov	r1, r3
	.cfi_offset 14, -4
	bl	_ZN4_STL6vectorI8ObstacleNS_9allocatorIS1_EEEC1ERKS4_
	ldr	r3, [sp, #4]
	ldr	r2, [sp, #0]
	ldr	r2, [r2, #36]
	str	r2, [r3, #36]
	ldr	r3, [sp, #0]
	ldrb	r2, [r3, #40]	@ zero_extendqisi2
	ldr	r3, [sp, #4]
	strb	r2, [r3, #40]
	ldr	r3, [sp, #4]
	mov	r0, r3
	add	sp, sp, #12
	ldmfd	sp!, {pc}
	.cfi_endproc
.LFE3379:
	.size	_ZN12TileObstacleC1ERKS_, .-_ZN12TileObstacleC1ERKS_
	.section	.text._ZN3Map4LoadEPc,"ax",%progbits
	.align	2
	.global	_ZN3Map4LoadEPc
	.hidden	_ZN3Map4LoadEPc
	.type	_ZN3Map4LoadEPc, %function
_ZN3Map4LoadEPc:
.LFB3376:
	.loc 15 68 0
	.cfi_startproc
	@ args = 0, pretend = 0, frame = 96
	@ frame_needed = 0, uses_anonymous_args = 0
	stmfd	sp!, {r4, lr}
.LCFI52:
	.cfi_def_cfa_offset 8
	fstmfdd	sp!, {d8}
.LCFI53:
	.cfi_def_cfa_offset 16
	sub	sp, sp, #96
.LCFI54:
	.cfi_def_cfa_offset 112
	str	r0, [sp, #4]
	str	r1, [sp, #0]
.LBB5:
	.loc 15 69 0
	.cfi_offset 80, -16
	.cfi_offset 14, -4
	.cfi_offset 4, -8
	bl	IwGxGetScreenHeight
	mov	r3, r0
	mov	r2, r3
	ldr	r3, [sp, #4]
	str	r2, [r3, #16]
	.loc 15 70 0
	bl	IwGxGetScreenWidth
	mov	r3, r0
	mov	r2, r3
	ldr	r3, [sp, #4]
	str	r2, [r3, #20]
	.loc 15 71 0
	mov	r0, #44
	bl	_Znwj
	mov	r3, r0
	mov	r4, r3
	mov	r3, r4
	mov	r0, r3
	bl	_ZN5LayerC1Ev
	mov	r2, r4
	ldr	r3, [sp, #4]
	str	r2, [r3, #28]
	.loc 15 72 0
	mov	r0, #44
	bl	_Znwj
	mov	r3, r0
	mov	r4, r3
	mov	r3, r4
	mov	r0, r3
	bl	_ZN5LayerC1Ev
	mov	r2, r4
	ldr	r3, [sp, #4]
	str	r2, [r3, #32]
	.loc 15 73 0
	mov	r0, #44
	bl	_Znwj
	mov	r3, r0
	mov	r4, r3
	mov	r3, r4
	mov	r0, r3
	bl	_ZN5LayerC1Ev
	mov	r2, r4
	ldr	r3, [sp, #4]
	str	r2, [r3, #36]
	.loc 15 74 0
	mov	r0, #76
	bl	_Znwj
	mov	r3, r0
	mov	r4, r3
	mov	r3, r4
	mov	r0, r3
	bl	_ZN7TileSetC1Ev
	mov	r2, r4
	ldr	r3, [sp, #4]
	str	r2, [r3, #40]
	.loc 15 75 0
	mov	r0, #76
	bl	_Znwj
	mov	r3, r0
	mov	r4, r3
	mov	r3, r4
	mov	r0, r3
	bl	_ZN7TileSetC1Ev
	mov	r2, r4
	ldr	r3, [sp, #4]
	str	r2, [r3, #44]
	.loc 15 76 0
	ldr	r0, [sp, #4]
	ldr	r1, [sp, #0]
	bl	_ZN3Map12ReadJsonFileEPc
	.loc 15 78 0
	mov	r3, #20
	str	r3, [sp, #80]
	.loc 15 79 0
	mov	r3, #28
	str	r3, [sp, #84]
	.loc 15 80 0
	ldr	r4, [sp, #4]
	ldr	r3, [sp, #4]
	ldr	r3, [r3, #64]
	ldr	r2, [sp, #80]
	mul	r1, r2, r3
	fmsr	s15, r1	@ int
	fsitos	s16, s15
	bl	_Z19Iw2DGetSurfaceWidthv
	fmsr	s15, r0	@ int
	fsitos	s14, s15
	flds	s15, .L120
	fdivs	s15, s14, s15
	fadds	s17, s16, s15
	ldr	r3, [sp, #4]
	ldr	r3, [r3, #60]
	ldr	r2, [sp, #84]
	mul	r1, r2, r3
	fmsr	s15, r1	@ int
	fsitos	s16, s15
	bl	_Z20Iw2DGetSurfaceHeightv
	fmsr	s15, r0	@ int
	fsitos	s14, s15
	flds	s15, .L120
	fdivs	s15, s14, s15
	fadds	s15, s16, s15
	add	r3, sp, #52
	mov	r0, r3
	fmrs	r1, s17
	fmrs	r2, s15
	bl	_ZN8CIwFVec2C1Eff
	add	r3, sp, #52
	mov	r0, r4
	mov	r1, r3
	bl	_ZN8CIwFVec2aSERKS_
.LBB6:
	.loc 15 82 0
	mov	r3, #0
	str	r3, [sp, #88]
	b	.L115
.L116:
	.loc 15 84 0
	ldr	r3, [sp, #4]
	add	r2, r3, #68
	mov	r3, #0
	str	r3, [sp, #60]
	add	r3, sp, #60
	mov	r0, r2
	mov	r1, r3
	bl	_ZN8CIwArrayIi12CIwAllocatorIi15CIwMallocRouterIiEE17ReallocateDefaultIiS3_EE6appendERKi
	.loc 15 82 0
	ldr	r3, [sp, #88]
	add	r3, r3, #1
	str	r3, [sp, #88]
.L115:
	ldr	r3, [sp, #4]
	ldr	r2, [r3, #56]
	ldr	r3, [sp, #88]
	cmp	r2, r3
	moveq	r3, #0
	movne	r3, #1
	and	r3, r3, #255
	cmp	r3, #0
	bne	.L116
.LBE6:
.LBB7:
	.loc 15 86 0
	mov	r3, #0
	str	r3, [sp, #92]
	b	.L117
.L118:
.LBB8:
	.loc 15 88 0
	add	r3, sp, #8
	mov	r0, r3
	bl	_ZN12TileObstacleC1Ev
	.loc 15 89 0
	add	r3, sp, #64
	mov	r0, r3
	ldr	r1, .L120+4	@ float
	ldr	r2, .L120+4	@ float
	bl	_ZN8CIwFVec2C1Eff
	ldr	r3, [sp, #4]
	ldr	r3, [r3, #64]
	mov	r3, r3, asl #16
	mov	r2, r3, lsr #16
	ldr	r3, [sp, #4]
	ldr	r3, [r3, #60]
	mov	r3, r3, asl #16
	mov	r3, r3, lsr #16
	add	r1, sp, #72
	mov	r2, r2, asl #16
	mov	r2, r2, asr #16
	mov	r3, r3, asl #16
	mov	r3, r3, asr #16
	mov	r0, r1
	mov	r1, r2
	mov	r2, r3
	bl	_ZN8CIwSVec2C1Ess
	add	r3, sp, #8
	mov	r0, r3
	add	r3, sp, #64
	ldmia	r3, {r1, r2}
	ldr	r3, [sp, #72]
	bl	_ZN12TileObstacle15InitialObstacleE8CIwFVec28CIwSVec2
	.loc 15 90 0
	ldr	r3, [sp, #4]
	add	r2, r3, #84
	add	r3, sp, #8
	mov	r0, r2
	mov	r1, r3
	bl	_ZN8CIwArrayI12TileObstacle12CIwAllocatorIS0_15CIwMallocRouterIS0_EE17ReallocateDefaultIS0_S4_EE6appendERKS0_
	.loc 15 86 0
	add	r3, sp, #8
	mov	r0, r3
	bl	_ZN12TileObstacleD1Ev
.LBE8:
	ldr	r3, [sp, #92]
	add	r3, r3, #1
	str	r3, [sp, #92]
.L117:
	ldr	r3, [sp, #92]
	cmp	r3, #9
	moveq	r3, #0
	movne	r3, #1
	and	r3, r3, #255
	cmp	r3, #0
	bne	.L118
.LBE7:
	.loc 15 92 0
	ldr	r3, [sp, #4]
	add	r2, r3, #116
	ldr	r3, .L120+8
	str	r3, [sp, #76]
	add	r3, sp, #76
	mov	r0, r2
	mov	r1, r3
	bl	_ZN8CIwArrayIi12CIwAllocatorIi15CIwMallocRouterIiEE17ReallocateDefaultIiS3_EE6appendERKi
.LBE5:
	.loc 15 93 0
	add	sp, sp, #96
	fldmfdd	sp!, {d8}
	ldmfd	sp!, {r4, pc}
.L121:
	.align	2
.L120:
	.word	-1073741824
	.word	0
	.word	4322
	.cfi_endproc
.LFE3376:
	.size	_ZN3Map4LoadEPc, .-_ZN3Map4LoadEPc
	.section	.text._ZN3Map6UpdateEi,"ax",%progbits
	.align	2
	.global	_ZN3Map6UpdateEi
	.hidden	_ZN3Map6UpdateEi
	.type	_ZN3Map6UpdateEi, %function
_ZN3Map6UpdateEi:
.LFB3380:
	.loc 15 95 0
	.cfi_startproc
	@ args = 0, pretend = 0, frame = 8
	@ frame_needed = 0, uses_anonymous_args = 0
	@ link register save eliminated.
	sub	sp, sp, #8
.LCFI55:
	.cfi_def_cfa_offset 8
	str	r0, [sp, #4]
	str	r1, [sp, #0]
	.loc 15 97 0
	add	sp, sp, #8
	bx	lr
	.cfi_endproc
.LFE3380:
	.size	_ZN3Map6UpdateEi, .-_ZN3Map6UpdateEi
	.global	__aeabi_idiv
	.section	.text._ZN3Map10CheckBlockE8CIwFVec2,"ax",%progbits
	.align	2
	.global	_ZN3Map10CheckBlockE8CIwFVec2
	.hidden	_ZN3Map10CheckBlockE8CIwFVec2
	.type	_ZN3Map10CheckBlockE8CIwFVec2, %function
_ZN3Map10CheckBlockE8CIwFVec2:
.LFB3381:
	.loc 15 100 0
	.cfi_startproc
	@ args = 0, pretend = 0, frame = 24
	@ frame_needed = 0, uses_anonymous_args = 0
	str	lr, [sp, #-4]!
.LCFI56:
	.cfi_def_cfa_offset 4
	sub	sp, sp, #28
.LCFI57:
	.cfi_def_cfa_offset 32
	str	r0, [sp, #12]
	add	r3, sp, #4
	stmia	r3, {r1, r2}
.LBB9:
	.loc 15 101 0
	flds	s15, [sp, #4]
	ftosizs	s15, s15
	ldr	r3, [sp, #12]
	ldr	r3, [r3, #64]
	fmrs	r0, s15	@ int
	mov	r1, r3
	.cfi_offset 14, -4
	bl	__aeabi_idiv
	mov	r3, r0
	mov	r2, r3
	ldr	r3, [sp, #12]
	str	r2, [r3, #108]
	.loc 15 102 0
	flds	s15, [sp, #8]
	ftosizs	s15, s15
	ldr	r3, [sp, #12]
	ldr	r3, [r3, #60]
	fmrs	r0, s15	@ int
	mov	r1, r3
	bl	__aeabi_idiv
	mov	r3, r0
	mov	r2, r3
	ldr	r3, [sp, #12]
	str	r2, [r3, #112]
	.loc 15 103 0
	ldr	r3, [sp, #12]
	ldr	r2, [r3, #108]
	ldr	r3, [sp, #12]
	ldr	r3, [r3, #112]
	ldr	r1, [sp, #12]
	ldr	r1, [r1, #52]
	mul	r3, r1, r3
	add	r2, r2, r3
	ldr	r3, [sp, #12]
	str	r2, [r3, #104]
.LBB10:
	.loc 15 104 0
	ldr	r3, [sp, #12]
	add	r3, r3, #116
	mov	r0, r3
	bl	_ZNK8CIwArrayIi12CIwAllocatorIi15CIwMallocRouterIiEE17ReallocateDefaultIiS3_EE4sizeEv
	mov	r3, r0
	sub	r3, r3, #1
	str	r3, [sp, #20]
	b	.L125
.L128:
	.loc 15 106 0
	ldr	r3, [sp, #12]
	add	r3, r3, #116
	mov	r0, r3
	ldr	r1, [sp, #20]
	bl	_ZNK8CIwArrayIi12CIwAllocatorIi15CIwMallocRouterIiEE17ReallocateDefaultIiS3_EEixEi
	mov	r3, r0
	ldr	r2, [r3, #0]
	ldr	r3, [sp, #12]
	ldr	r3, [r3, #104]
	cmp	r2, r3
	movne	r3, #0
	moveq	r3, #1
	and	r3, r3, #255
	cmp	r3, #0
	beq	.L126
	.loc 15 107 0
	mov	r3, #1
	b	.L127
.L126:
	.loc 15 104 0
	ldr	r3, [sp, #20]
	sub	r3, r3, #1
	str	r3, [sp, #20]
.L125:
	ldr	r3, [sp, #20]
	cmn	r3, #1
	moveq	r3, #0
	movne	r3, #1
	and	r3, r3, #255
	cmp	r3, #0
	bne	.L128
.LBE10:
	.loc 15 109 0
	mov	r3, #0
.L127:
.LBE9:
	.loc 15 110 0
	mov	r0, r3
	add	sp, sp, #28
	ldmfd	sp!, {pc}
	.cfi_endproc
.LFE3381:
	.size	_ZN3Map10CheckBlockE8CIwFVec2, .-_ZN3Map10CheckBlockE8CIwFVec2
	.section	.rodata
	.align	2
.LC7:
	.ascii	"x:\000"
	.align	2
.LC8:
	.ascii	", y:\000"
	.align	2
.LC9:
	.ascii	", index: \000"
	.global	__aeabi_idivmod
	.section	.text._ZN3Map6RenderE8CIwSVec2,"ax",%progbits
	.align	2
	.global	_ZN3Map6RenderE8CIwSVec2
	.hidden	_ZN3Map6RenderE8CIwSVec2
	.type	_ZN3Map6RenderE8CIwSVec2, %function
_ZN3Map6RenderE8CIwSVec2:
.LFB3382:
	.loc 15 112 0
	.cfi_startproc
	@ args = 0, pretend = 0, frame = 80
	@ frame_needed = 0, uses_anonymous_args = 0
	stmfd	sp!, {r4, r5, lr}
.LCFI58:
	.cfi_def_cfa_offset 12
	fstmfdd	sp!, {d8}
.LCFI59:
	.cfi_def_cfa_offset 20
	sub	sp, sp, #92
.LCFI60:
	.cfi_def_cfa_offset 112
	str	r0, [sp, #20]
	str	r1, [sp, #16]
.LBB11:
	.loc 15 113 0
	mvn	r3, #0
	str	r3, [sp, #52]
	.loc 15 114 0
	ldr	r3, .L145
	ldr	r3, [r3, #0]
	cmp	r3, #1
	bne	.L131
	.cfi_offset 80, -20
	.cfi_offset 14, -4
	.cfi_offset 5, -8
	.cfi_offset 4, -12
.LBB12:
	.loc 15 116 0
	ldr	r4, [sp, #20]
	add	r3, sp, #36
	mov	r0, r3
	mov	r1, #1
	bl	_Z10GetTouches15s3ePointerState
	add	r2, sp, #28
	add	r3, sp, #36
	mov	r0, r2
	mov	r1, r4
	mov	r2, r3
	bl	_ZNK8CIwFVec2plERKS_
	.loc 15 117 0
	flds	s15, [sp, #32]
	ftosizs	s16, s15
	ldr	r3, [sp, #20]
	ldr	r3, [r3, #40]
	mov	r0, r3
	bl	_ZN7TileSet7GetSizeEv
	strh	r0, [sp, #8]	@ movhi
	mov	r3, r0, lsr #16
	strh	r3, [sp, #10]	@ movhi
	ldr	r3, [sp, #8]
	str	r3, [sp, #44]
	ldrh	r3, [sp, #46]
	mov	r3, r3, asl #16
	mov	r3, r3, asr #16
	fmrs	r0, s16	@ int
	mov	r1, r3
	bl	__aeabi_idiv
	mov	r3, r0
	str	r3, [sp, #64]
	.loc 15 118 0
	flds	s15, [sp, #28]
	ftosizs	s16, s15
	ldr	r3, [sp, #20]
	ldr	r3, [r3, #40]
	mov	r0, r3
	bl	_ZN7TileSet7GetSizeEv
	strh	r0, [sp, #8]	@ movhi
	mov	r3, r0, lsr #16
	strh	r3, [sp, #10]	@ movhi
	ldr	r3, [sp, #8]
	str	r3, [sp, #48]
	ldrh	r3, [sp, #48]
	mov	r3, r3, asl #16
	mov	r3, r3, asr #16
	fmrs	r0, s16	@ int
	mov	r1, r3
	bl	__aeabi_idiv
	mov	r3, r0
	str	r3, [sp, #68]
	.loc 15 119 0
	ldr	r3, [sp, #20]
	ldr	r3, [r3, #52]
	ldr	r2, [sp, #64]
	mul	r2, r3, r2
	ldr	r3, [sp, #68]
	add	r3, r2, r3
	str	r3, [sp, #52]
	.loc 15 120 0
	ldr	r3, [sp, #20]
	add	r3, r3, #68
	mov	r0, r3
	ldr	r1, [sp, #52]
	bl	_ZNK8CIwArrayIi12CIwAllocatorIi15CIwMallocRouterIiEE17ReallocateDefaultIiS3_EEixEi
	mov	r3, r0
	ldr	r2, [r3, #0]
	add	r2, r2, #1
	str	r2, [r3, #0]
	.loc 15 121 0
	ldr	r3, [sp, #20]
	add	r3, r3, #68
	mov	r0, r3
	ldr	r1, [sp, #52]
	bl	_ZNK8CIwArrayIi12CIwAllocatorIi15CIwMallocRouterIiEE17ReallocateDefaultIiS3_EEixEi
	mov	r3, r0
	ldr	r3, [r3, #0]
	cmp	r3, #4
	movne	r3, #0
	moveq	r3, #1
	and	r3, r3, #255
	cmp	r3, #0
	beq	.L132
	.loc 15 122 0
	ldr	r3, [sp, #20]
	add	r3, r3, #68
	mov	r0, r3
	ldr	r1, [sp, #52]
	bl	_ZNK8CIwArrayIi12CIwAllocatorIi15CIwMallocRouterIiEE17ReallocateDefaultIiS3_EEixEi
	mov	r3, r0
	mov	r2, #0
	str	r2, [r3, #0]
.L132:
	.loc 15 123 0
	ldr	r0, .L145+4
	ldr	r1, .L145+8
	bl	_ZN4_STLlsINS_11char_traitsIcEEEERNS_13basic_ostreamIcT_EES6_PKc
	mov	r3, r0
	mov	r0, r3
	ldr	r1, [sp, #68]
	bl	_ZN4_STL13basic_ostreamIcNS_11char_traitsIcEEElsEi
	mov	r3, r0
	mov	r0, r3
	ldr	r1, .L145+12
	bl	_ZN4_STLlsINS_11char_traitsIcEEEERNS_13basic_ostreamIcT_EES6_PKc
	mov	r3, r0
	mov	r0, r3
	ldr	r1, [sp, #64]
	bl	_ZN4_STL13basic_ostreamIcNS_11char_traitsIcEEElsEi
	mov	r3, r0
	mov	r0, r3
	ldr	r1, .L145+16
	bl	_ZN4_STLlsINS_11char_traitsIcEEEERNS_13basic_ostreamIcT_EES6_PKc
	mov	r3, r0
	mov	r0, r3
	ldr	r1, [sp, #52]
	bl	_ZN4_STL13basic_ostreamIcNS_11char_traitsIcEEElsEi
	mov	r3, r0
	mov	r0, r3
	ldr	r1, .L145+20
	bl	_ZN4_STL13basic_ostreamIcNS_11char_traitsIcEEElsEPFRS3_S4_E
.L131:
.LBE12:
	.loc 15 126 0
	ldr	r3, [sp, #20]
	flds	s15, [r3, #0]
	ftosizs	s15, s15
	ldr	r3, [sp, #20]
	ldr	r3, [r3, #64]
	fmrs	r0, s15	@ int
	mov	r1, r3
	bl	__aeabi_idiv
	mov	r3, r0
	mov	r4, r3
	ldr	r3, [sp, #20]
	flds	s15, [r3, #4]
	ftosizs	s15, s15
	ldr	r3, [sp, #20]
	ldr	r3, [r3, #60]
	fmrs	r0, s15	@ int
	mov	r1, r3
	bl	__aeabi_idiv
	mov	r3, r0
	ldr	r2, [sp, #20]
	ldr	r2, [r2, #52]
	mul	r3, r2, r3
	add	r3, r4, r3
	str	r3, [sp, #56]
	.loc 15 127 0
	ldr	r3, [sp, #20]
	ldr	r2, [r3, #52]
	ldr	r3, [sp, #56]
	cmp	r2, r3
	bgt	.L133
	.loc 15 128 0
	ldr	r3, [sp, #20]
	ldr	r3, [r3, #52]
	ldr	r2, [sp, #56]
	rsb	r3, r3, r2
	str	r3, [sp, #56]
.L133:
	.loc 15 129 0
	ldr	r3, [sp, #20]
	flds	s15, [r3, #0]
	ftosizs	s15, s15
	ldr	r3, [sp, #20]
	ldr	r3, [r3, #20]
	fmrs	r0, s15	@ int
	add	r2, r0, r3
	ldr	r3, [sp, #20]
	ldr	r3, [r3, #64]
	mov	r0, r2
	mov	r1, r3
	bl	__aeabi_idiv
	mov	r3, r0
	mov	r4, r3
	ldr	r3, [sp, #20]
	flds	s15, [r3, #4]
	ftosizs	s15, s15
	ldr	r3, [sp, #20]
	ldr	r3, [r3, #16]
	fmrs	r1, s15	@ int
	add	r2, r1, r3
	ldr	r3, [sp, #20]
	ldr	r3, [r3, #60]
	mov	r0, r2
	mov	r1, r3
	bl	__aeabi_idiv
	mov	r3, r0
	ldr	r2, [sp, #20]
	ldr	r2, [r2, #52]
	mul	r3, r2, r3
	add	r3, r4, r3
	add	r3, r3, #1
	str	r3, [sp, #60]
.LBB13:
	.loc 15 130 0
	ldr	r3, [sp, #56]
	str	r3, [sp, #72]
	b	.L134
.L141:
.LBB14:
	.loc 15 132 0
	ldr	r3, [sp, #20]
	ldr	r3, [r3, #52]
	ldr	r2, [sp, #72]
	mov	r0, r2
	mov	r1, r3
	bl	__aeabi_idivmod
	mov	r3, r1
	str	r3, [sp, #76]
	.loc 15 133 0
	ldr	r3, [sp, #20]
	ldr	r3, [r3, #52]
	ldr	r0, [sp, #72]
	mov	r1, r3
	bl	__aeabi_idiv
	mov	r3, r0
	str	r3, [sp, #80]
	.loc 15 135 0
	ldr	r3, [sp, #20]
	ldr	r3, [r3, #64]
	ldr	r2, [sp, #76]
	mul	r0, r2, r3
	fmsr	s15, r0	@ int
	fsitos	s14, s15
	ldr	r3, [sp, #20]
	flds	s15, [r3, #0]
	fsubs	s15, s14, s15
	ftosizs	s15, s15
	fmrs	r1, s15	@ int
	mov	r3, r1, asl #16
	mov	r2, r3, lsr #16
	ldr	r3, [sp, #20]
	ldr	r3, [r3, #60]
	ldr	r1, [sp, #80]
	mul	r0, r1, r3
	fmsr	s15, r0	@ int
	fsitos	s14, s15
	ldr	r3, [sp, #20]
	flds	s15, [r3, #4]
	fsubs	s15, s14, s15
	ftosizs	s15, s15
	fmrs	r1, s15	@ int
	mov	r3, r1, asl #16
	mov	r3, r3, lsr #16
	add	r1, sp, #24
	mov	r2, r2, asl #16
	mov	r2, r2, asr #16
	mov	r3, r3, asl #16
	mov	r3, r3, asr #16
	mov	r0, r1
	mov	r1, r2
	mov	r2, r3
	bl	_ZN8CIwSVec2C1Ess
	.loc 15 137 0
	ldr	r3, [sp, #20]
	ldr	r5, [r3, #40]
	ldr	r3, [sp, #20]
	ldr	r3, [r3, #28]
	mov	r0, r3
	ldr	r1, [sp, #72]
	bl	_ZNK8CIwArrayIi12CIwAllocatorIi15CIwMallocRouterIiEE17ReallocateDefaultIiS3_EEixEi
	mov	r3, r0
	ldr	r4, [r3, #0]
	ldr	r3, [sp, #20]
	ldr	r3, [r3, #28]
	ldrb	r3, [r3, #16]	@ zero_extendqisi2
	cmp	r3, #0
	beq	.L135
	ldr	r3, [sp, #20]
	add	r3, r3, #68
	mov	r0, r3
	ldr	r1, [sp, #72]
	bl	_ZNK8CIwArrayIi12CIwAllocatorIi15CIwMallocRouterIiEE17ReallocateDefaultIiS3_EEixEi
	mov	r3, r0
	ldr	r3, [r3, #0]
	b	.L136
.L135:
	mov	r3, #0
.L136:
	mov	r0, r5
	mov	r1, r4
	ldr	r2, [sp, #24]
	bl	_ZN7TileSet6RenderEi8CIwSVec2i
	.loc 15 138 0
	ldr	r3, [sp, #20]
	ldr	r5, [r3, #40]
	ldr	r3, [sp, #20]
	ldr	r3, [r3, #32]
	mov	r0, r3
	ldr	r1, [sp, #72]
	bl	_ZNK8CIwArrayIi12CIwAllocatorIi15CIwMallocRouterIiEE17ReallocateDefaultIiS3_EEixEi
	mov	r3, r0
	ldr	r4, [r3, #0]
	ldr	r3, [sp, #20]
	ldr	r3, [r3, #32]
	ldrb	r3, [r3, #16]	@ zero_extendqisi2
	cmp	r3, #0
	beq	.L137
	ldr	r3, [sp, #20]
	add	r3, r3, #68
	mov	r0, r3
	ldr	r1, [sp, #72]
	bl	_ZNK8CIwArrayIi12CIwAllocatorIi15CIwMallocRouterIiEE17ReallocateDefaultIiS3_EEixEi
	mov	r3, r0
	ldr	r3, [r3, #0]
	b	.L138
.L137:
	mov	r3, #0
.L138:
	mov	r0, r5
	mov	r1, r4
	ldr	r2, [sp, #24]
	bl	_ZN7TileSet6RenderEi8CIwSVec2i
	.loc 15 139 0
	ldr	r3, [sp, #20]
	ldr	r5, [r3, #44]
	ldr	r3, [sp, #20]
	ldr	r3, [r3, #36]
	mov	r0, r3
	ldr	r1, [sp, #72]
	bl	_ZNK8CIwArrayIi12CIwAllocatorIi15CIwMallocRouterIiEE17ReallocateDefaultIiS3_EEixEi
	mov	r3, r0
	ldr	r4, [r3, #0]
	ldr	r3, [sp, #20]
	ldr	r3, [r3, #36]
	ldrb	r3, [r3, #16]	@ zero_extendqisi2
	cmp	r3, #0
	beq	.L139
	ldr	r3, [sp, #20]
	add	r3, r3, #68
	mov	r0, r3
	ldr	r1, [sp, #72]
	bl	_ZNK8CIwArrayIi12CIwAllocatorIi15CIwMallocRouterIiEE17ReallocateDefaultIiS3_EEixEi
	mov	r3, r0
	ldr	r3, [r3, #0]
	b	.L140
.L139:
	mov	r3, #0
.L140:
	mov	r0, r5
	mov	r1, r4
	ldr	r2, [sp, #24]
	bl	_ZN7TileSet6RenderEi8CIwSVec2i
.LBE14:
	.loc 15 130 0
	ldr	r3, [sp, #72]
	add	r3, r3, #1
	str	r3, [sp, #72]
.L134:
	ldr	r2, [sp, #72]
	ldr	r3, [sp, #60]
	cmp	r2, r3
	moveq	r3, #0
	movne	r3, #1
	and	r3, r3, #255
	cmp	r3, #0
	bne	.L141
.LBE13:
.LBB15:
	.loc 15 141 0
	mov	r3, #0
	str	r3, [sp, #84]
	b	.L142
.L143:
	.loc 15 143 0
	ldr	r3, [sp, #20]
	add	r3, r3, #84
	mov	r0, r3
	ldr	r1, [sp, #84]
	bl	_ZNK8CIwArrayI12TileObstacle12CIwAllocatorIS0_15CIwMallocRouterIS0_EE17ReallocateDefaultIS0_S4_EEixEi
	mov	r2, r0
	ldr	r3, [sp, #20]
	ldr	r1, [sp, #16]
	str	r1, [sp, #0]
	ldr	r1, [sp, #84]
	str	r1, [sp, #4]
	mov	r0, r2
	ldmia	r3, {r1, r2}
	mov	r3, #0
	bl	_ZN12TileObstacle6RenderE8CIwFVec2b8CIwSVec2i
	.loc 15 141 0
	ldr	r3, [sp, #84]
	add	r3, r3, #1
	str	r3, [sp, #84]
.L142:
	ldr	r3, [sp, #84]
	cmp	r3, #9
	moveq	r3, #0
	movne	r3, #1
	and	r3, r3, #255
	cmp	r3, #0
	bne	.L143
.LBE15:
.LBE11:
	.loc 15 145 0
	add	sp, sp, #92
	fldmfdd	sp!, {d8}
	ldmfd	sp!, {r4, r5, pc}
.L146:
	.align	2
.L145:
	.word	current_States
	.word	_ZN4_STL4coutE
	.word	.LC7
	.word	.LC8
	.word	.LC9
	.word	_ZN4_STL4endlIcNS_11char_traitsIcEEEERNS_13basic_ostreamIT_T0_EES7_
	.cfi_endproc
.LFE3382:
	.size	_ZN3Map6RenderE8CIwSVec2, .-_ZN3Map6RenderE8CIwSVec2
	.section	.text._ZN3Map12CheckMapEdgeER8CIwFVec2,"ax",%progbits
	.align	2
	.global	_ZN3Map12CheckMapEdgeER8CIwFVec2
	.hidden	_ZN3Map12CheckMapEdgeER8CIwFVec2
	.type	_ZN3Map12CheckMapEdgeER8CIwFVec2, %function
_ZN3Map12CheckMapEdgeER8CIwFVec2:
.LFB3383:
	.loc 15 148 0
	.cfi_startproc
	@ args = 0, pretend = 0, frame = 8
	@ frame_needed = 0, uses_anonymous_args = 0
	str	lr, [sp, #-4]!
.LCFI61:
	.cfi_def_cfa_offset 4
	fstmfdd	sp!, {d8}
.LCFI62:
	.cfi_def_cfa_offset 12
	sub	sp, sp, #12
.LCFI63:
	.cfi_def_cfa_offset 24
	str	r0, [sp, #4]
	str	r1, [sp, #0]
	.loc 15 149 0
	ldr	r3, [sp, #0]
	flds	s15, [r3, #0]
	fcmpezs	s15
	fmstat
	movpl	r3, #0
	movmi	r3, #1
	and	r3, r3, #255
	cmp	r3, #0
	beq	.L148
	.cfi_offset 80, -12
	.cfi_offset 14, -4
	.loc 15 151 0
	ldr	r3, [sp, #0]
	flds	s15, .L154
	fsts	s15, [r3, #0]
	.loc 15 152 0
	mov	r3, #0
	b	.L149
.L148:
	.loc 15 154 0
	ldr	r3, [sp, #0]
	flds	s15, [r3, #4]
	fcmpezs	s15
	fmstat
	movpl	r3, #0
	movmi	r3, #1
	and	r3, r3, #255
	cmp	r3, #0
	beq	.L150
	.loc 15 156 0
	ldr	r3, [sp, #0]
	flds	s15, .L154
	fsts	s15, [r3, #4]
	.loc 15 157 0
	mov	r3, #0
	b	.L149
.L150:
	.loc 15 159 0
	ldr	r3, [sp, #0]
	flds	s16, [r3, #0]
	bl	_Z19Iw2DGetSurfaceWidthv
	fmsr	s15, r0	@ int
	fsitos	s15, s15
	fadds	s14, s16, s15
	ldr	r3, [sp, #4]
	ldrh	r3, [r3, #24]
	mov	r3, r3, asl #16
	mov	r3, r3, asr #16
	fmsr	s15, r3	@ int
	fsitos	s15, s15
	fcmpes	s14, s15
	fmstat
	movle	r3, #0
	movgt	r3, #1
	and	r3, r3, #255
	cmp	r3, #0
	beq	.L151
	.loc 15 161 0
	ldr	r3, [sp, #4]
	ldrh	r3, [r3, #24]
	mov	r3, r3, asl #16
	mov	r3, r3, asr #16
	fmsr	s15, r3	@ int
	fsitos	s16, s15
	bl	_Z19Iw2DGetSurfaceWidthv
	fmsr	s15, r0	@ int
	fsitos	s15, s15
	fsubs	s15, s16, s15
	ldr	r3, [sp, #0]
	fsts	s15, [r3, #0]
	.loc 15 162 0
	mov	r3, #0
	b	.L149
.L151:
	.loc 15 164 0
	ldr	r3, [sp, #0]
	flds	s16, [r3, #4]
	bl	_Z20Iw2DGetSurfaceHeightv
	fmsr	s15, r0	@ int
	fsitos	s15, s15
	fadds	s14, s16, s15
	ldr	r3, [sp, #4]
	ldrh	r3, [r3, #26]
	mov	r3, r3, asl #16
	mov	r3, r3, asr #16
	fmsr	s15, r3	@ int
	fsitos	s15, s15
	fcmpes	s14, s15
	fmstat
	movle	r3, #0
	movgt	r3, #1
	and	r3, r3, #255
	cmp	r3, #0
	beq	.L152
	.loc 15 166 0
	ldr	r3, [sp, #4]
	ldrh	r3, [r3, #26]
	mov	r3, r3, asl #16
	mov	r3, r3, asr #16
	fmsr	s15, r3	@ int
	fsitos	s16, s15
	bl	_Z20Iw2DGetSurfaceHeightv
	fmsr	s15, r0	@ int
	fsitos	s15, s15
	fsubs	s15, s16, s15
	ldr	r3, [sp, #0]
	fsts	s15, [r3, #4]
	.loc 15 167 0
	mov	r3, #0
	b	.L149
.L152:
	.loc 15 169 0
	mov	r3, #1
.L149:
	.loc 15 170 0
	mov	r0, r3
	add	sp, sp, #12
	fldmfdd	sp!, {d8}
	ldmfd	sp!, {pc}
.L155:
	.align	2
.L154:
	.word	0
	.cfi_endproc
.LFE3383:
	.size	_ZN3Map12CheckMapEdgeER8CIwFVec2, .-_ZN3Map12CheckMapEdgeER8CIwFVec2
	.section	.text._ZN3Map12CheckMapEdgeEv,"ax",%progbits
	.align	2
	.global	_ZN3Map12CheckMapEdgeEv
	.hidden	_ZN3Map12CheckMapEdgeEv
	.type	_ZN3Map12CheckMapEdgeEv, %function
_ZN3Map12CheckMapEdgeEv:
.LFB3384:
	.loc 15 173 0
	.cfi_startproc
	@ args = 0, pretend = 0, frame = 8
	@ frame_needed = 0, uses_anonymous_args = 0
	str	lr, [sp, #-4]!
.LCFI64:
	.cfi_def_cfa_offset 4
	fstmfdd	sp!, {d8}
.LCFI65:
	.cfi_def_cfa_offset 12
	sub	sp, sp, #12
.LCFI66:
	.cfi_def_cfa_offset 24
	str	r0, [sp, #4]
	.loc 15 174 0
	ldr	r3, [sp, #4]
	flds	s15, [r3, #0]
	fcmpezs	s15
	fmstat
	movpl	r3, #0
	movmi	r3, #1
	and	r3, r3, #255
	cmp	r3, #0
	beq	.L157
	.cfi_offset 80, -12
	.cfi_offset 14, -4
	.loc 15 176 0
	ldr	r3, [sp, #4]
	flds	s15, .L163
	fsts	s15, [r3, #0]
	.loc 15 177 0
	mov	r3, #0
	b	.L158
.L157:
	.loc 15 179 0
	ldr	r3, [sp, #4]
	flds	s15, [r3, #4]
	fcmpezs	s15
	fmstat
	movpl	r3, #0
	movmi	r3, #1
	and	r3, r3, #255
	cmp	r3, #0
	beq	.L159
	.loc 15 181 0
	ldr	r3, [sp, #4]
	flds	s15, .L163
	fsts	s15, [r3, #4]
	.loc 15 182 0
	mov	r3, #0
	b	.L158
.L159:
	.loc 15 184 0
	ldr	r3, [sp, #4]
	flds	s16, [r3, #0]
	bl	_Z19Iw2DGetSurfaceWidthv
	fmsr	s15, r0	@ int
	fsitos	s15, s15
	fadds	s14, s16, s15
	ldr	r3, [sp, #4]
	ldrh	r3, [r3, #24]
	mov	r3, r3, asl #16
	mov	r3, r3, asr #16
	fmsr	s15, r3	@ int
	fsitos	s15, s15
	fcmpes	s14, s15
	fmstat
	movle	r3, #0
	movgt	r3, #1
	and	r3, r3, #255
	cmp	r3, #0
	beq	.L160
	.loc 15 186 0
	ldr	r3, [sp, #4]
	ldrh	r3, [r3, #24]
	mov	r3, r3, asl #16
	mov	r3, r3, asr #16
	fmsr	s15, r3	@ int
	fsitos	s16, s15
	bl	_Z19Iw2DGetSurfaceWidthv
	fmsr	s15, r0	@ int
	fsitos	s15, s15
	fsubs	s15, s16, s15
	ldr	r3, [sp, #4]
	fsts	s15, [r3, #0]
	.loc 15 187 0
	mov	r3, #0
	b	.L158
.L160:
	.loc 15 189 0
	ldr	r3, [sp, #4]
	flds	s16, [r3, #4]
	bl	_Z20Iw2DGetSurfaceHeightv
	fmsr	s15, r0	@ int
	fsitos	s15, s15
	fadds	s14, s16, s15
	ldr	r3, [sp, #4]
	ldrh	r3, [r3, #26]
	mov	r3, r3, asl #16
	mov	r3, r3, asr #16
	fmsr	s15, r3	@ int
	fsitos	s15, s15
	fcmpes	s14, s15
	fmstat
	movle	r3, #0
	movgt	r3, #1
	and	r3, r3, #255
	cmp	r3, #0
	beq	.L161
	.loc 15 191 0
	ldr	r3, [sp, #4]
	ldrh	r3, [r3, #26]
	mov	r3, r3, asl #16
	mov	r3, r3, asr #16
	fmsr	s15, r3	@ int
	fsitos	s16, s15
	bl	_Z20Iw2DGetSurfaceHeightv
	fmsr	s15, r0	@ int
	fsitos	s15, s15
	fsubs	s15, s16, s15
	ldr	r3, [sp, #4]
	fsts	s15, [r3, #4]
	.loc 15 192 0
	mov	r3, #0
	b	.L158
.L161:
	.loc 15 194 0
	mov	r3, #1
.L158:
	.loc 15 195 0
	mov	r0, r3
	add	sp, sp, #12
	fldmfdd	sp!, {d8}
	ldmfd	sp!, {pc}
.L164:
	.align	2
.L163:
	.word	0
	.cfi_endproc
.LFE3384:
	.size	_ZN3Map12CheckMapEdgeEv, .-_ZN3Map12CheckMapEdgeEv
	.section	.text._ZN3Map14CheckCollisionE8CIwFVec28CIwSVec2RS0_S0_,"ax",%progbits
	.align	2
	.global	_ZN3Map14CheckCollisionE8CIwFVec28CIwSVec2RS0_S0_
	.hidden	_ZN3Map14CheckCollisionE8CIwFVec28CIwSVec2RS0_S0_
	.type	_ZN3Map14CheckCollisionE8CIwFVec28CIwSVec2RS0_S0_, %function
_ZN3Map14CheckCollisionE8CIwFVec28CIwSVec2RS0_S0_:
.LFB3385:
	.loc 15 199 0
	.cfi_startproc
	@ args = 12, pretend = 0, frame = 248
	@ frame_needed = 0, uses_anonymous_args = 0
	stmfd	sp!, {r4, r5, lr}
.LCFI67:
	.cfi_def_cfa_offset 12
	sub	sp, sp, #268
.LCFI68:
	.cfi_def_cfa_offset 280
	str	r0, [sp, #28]
	add	r0, sp, #20
	stmia	r0, {r1, r2}
	str	r3, [sp, #16]
.LBB16:
	.loc 15 206 0
	ldr	r3, [sp, #28]
	ldr	r2, [r3, #100]
	ldr	r3, [sp, #28]
	ldr	r3, [r3, #104]
	cmp	r2, r3
	beq	.L166
	.cfi_offset 14, -4
	.cfi_offset 5, -8
	.cfi_offset 4, -12
.LBB17:
	.loc 15 212 0
	ldr	r3, [sp, #28]
	ldr	r2, [r3, #104]
	ldr	r3, [sp, #28]
	ldr	r3, [r3, #52]
	rsb	r3, r3, r2
	sub	r3, r3, #1
	str	r3, [sp, #104]
	.loc 15 213 0
	ldr	r3, [sp, #28]
	ldr	r2, [r3, #104]
	ldr	r3, [sp, #28]
	ldr	r3, [r3, #52]
	rsb	r3, r3, r2
	str	r3, [sp, #108]
	.loc 15 214 0
	ldr	r3, [sp, #28]
	ldr	r2, [r3, #104]
	ldr	r3, [sp, #28]
	ldr	r3, [r3, #52]
	rsb	r3, r3, r2
	add	r3, r3, #1
	str	r3, [sp, #112]
	.loc 15 215 0
	ldr	r3, [sp, #28]
	ldr	r3, [r3, #104]
	sub	r3, r3, #1
	str	r3, [sp, #116]
	.loc 15 216 0
	ldr	r3, [sp, #28]
	ldr	r3, [r3, #104]
	str	r3, [sp, #120]
	.loc 15 217 0
	ldr	r3, [sp, #28]
	ldr	r3, [r3, #104]
	add	r3, r3, #1
	str	r3, [sp, #124]
	.loc 15 218 0
	ldr	r3, [sp, #28]
	ldr	r2, [r3, #104]
	ldr	r3, [sp, #28]
	ldr	r3, [r3, #52]
	add	r3, r2, r3
	sub	r3, r3, #1
	str	r3, [sp, #128]
	.loc 15 219 0
	ldr	r3, [sp, #28]
	ldr	r2, [r3, #104]
	ldr	r3, [sp, #28]
	ldr	r3, [r3, #52]
	add	r3, r2, r3
	str	r3, [sp, #132]
	.loc 15 220 0
	ldr	r3, [sp, #28]
	ldr	r2, [r3, #104]
	ldr	r3, [sp, #28]
	ldr	r3, [r3, #52]
	add	r3, r2, r3
	add	r3, r3, #1
	str	r3, [sp, #136]
	.loc 15 223 0
	add	r3, sp, #32
	mov	r5, r3
	mov	r4, #8
	b	.L167
.L168:
	mov	r0, r5
	bl	_ZN8CIwFVec2C1Ev
	add	r5, r5, #8
	sub	r4, r4, #1
.L167:
	cmn	r4, #1
	moveq	r3, #0
	movne	r3, #1
	and	r3, r3, #255
	cmp	r3, #0
	bne	.L168
	.loc 15 224 0
	ldr	r3, [sp, #28]
	ldr	r3, [r3, #108]
	ldr	r2, [sp, #28]
	ldr	r2, [r2, #64]
	mul	r0, r2, r3
	fmsr	s15, r0	@ int
	fsitos	s14, s15
	ldr	r3, [sp, #28]
	ldr	r3, [r3, #112]
	ldr	r2, [sp, #28]
	ldr	r2, [r2, #60]
	mul	r1, r2, r3
	fmsr	s15, r1	@ int
	fsitos	s15, s15
	add	r3, sp, #156
	mov	r0, r3
	fmrs	r1, s14
	fmrs	r2, s15
	bl	_ZN8CIwFVec2C1Eff
	add	r3, sp, #32
	add	r2, r3, #32
	add	r3, sp, #156
	mov	r0, r2
	mov	r1, r3
	bl	_ZN8CIwFVec2aSERKS_
	.loc 15 225 0
	ldr	r3, [sp, #28]
	ldr	r3, [r3, #108]
	sub	r3, r3, #1
	ldr	r2, [sp, #28]
	ldr	r2, [r2, #64]
	mul	ip, r2, r3
	fmsr	s15, ip	@ int
	fsitos	s14, s15
	ldr	r3, [sp, #28]
	ldr	r3, [r3, #112]
	sub	r3, r3, #1
	ldr	r2, [sp, #28]
	ldr	r2, [r2, #60]
	mul	r0, r2, r3
	fmsr	s15, r0	@ int
	fsitos	s15, s15
	add	r3, sp, #164
	mov	r0, r3
	fmrs	r1, s14
	fmrs	r2, s15
	bl	_ZN8CIwFVec2C1Eff
	add	r2, sp, #32
	add	r3, sp, #164
	mov	r0, r2
	mov	r1, r3
	bl	_ZN8CIwFVec2aSERKS_
	.loc 15 226 0
	ldr	r3, [sp, #28]
	ldr	r3, [r3, #108]
	ldr	r2, [sp, #28]
	ldr	r2, [r2, #64]
	mul	r1, r2, r3
	fmsr	s15, r1	@ int
	fsitos	s14, s15
	ldr	r3, [sp, #28]
	ldr	r3, [r3, #112]
	sub	r3, r3, #1
	ldr	r2, [sp, #28]
	ldr	r2, [r2, #60]
	mul	ip, r2, r3
	fmsr	s15, ip	@ int
	fsitos	s15, s15
	add	r3, sp, #172
	mov	r0, r3
	fmrs	r1, s14
	fmrs	r2, s15
	bl	_ZN8CIwFVec2C1Eff
	add	r3, sp, #32
	add	r2, r3, #8
	add	r3, sp, #172
	mov	r0, r2
	mov	r1, r3
	bl	_ZN8CIwFVec2aSERKS_
	.loc 15 227 0
	ldr	r3, [sp, #28]
	ldr	r3, [r3, #108]
	add	r3, r3, #1
	ldr	r2, [sp, #28]
	ldr	r2, [r2, #64]
	mul	r0, r2, r3
	fmsr	s15, r0	@ int
	fsitos	s14, s15
	ldr	r3, [sp, #28]
	ldr	r3, [r3, #112]
	sub	r3, r3, #1
	ldr	r2, [sp, #28]
	ldr	r2, [r2, #60]
	mul	r1, r2, r3
	fmsr	s15, r1	@ int
	fsitos	s15, s15
	add	r3, sp, #180
	mov	r0, r3
	fmrs	r1, s14
	fmrs	r2, s15
	bl	_ZN8CIwFVec2C1Eff
	add	r3, sp, #32
	add	r2, r3, #16
	add	r3, sp, #180
	mov	r0, r2
	mov	r1, r3
	bl	_ZN8CIwFVec2aSERKS_
	.loc 15 228 0
	ldr	r3, [sp, #28]
	ldr	r3, [r3, #108]
	sub	r3, r3, #1
	ldr	r2, [sp, #28]
	ldr	r2, [r2, #64]
	mul	ip, r2, r3
	fmsr	s15, ip	@ int
	fsitos	s14, s15
	ldr	r3, [sp, #28]
	ldr	r3, [r3, #112]
	ldr	r2, [sp, #28]
	ldr	r2, [r2, #60]
	mul	r0, r2, r3
	fmsr	s15, r0	@ int
	fsitos	s15, s15
	add	r3, sp, #188
	mov	r0, r3
	fmrs	r1, s14
	fmrs	r2, s15
	bl	_ZN8CIwFVec2C1Eff
	add	r3, sp, #32
	add	r2, r3, #24
	add	r3, sp, #188
	mov	r0, r2
	mov	r1, r3
	bl	_ZN8CIwFVec2aSERKS_
	.loc 15 229 0
	ldr	r3, [sp, #28]
	ldr	r3, [r3, #108]
	add	r3, r3, #1
	ldr	r2, [sp, #28]
	ldr	r2, [r2, #64]
	mul	r1, r2, r3
	fmsr	s15, r1	@ int
	fsitos	s14, s15
	ldr	r3, [sp, #28]
	ldr	r3, [r3, #112]
	ldr	r2, [sp, #28]
	ldr	r2, [r2, #60]
	mul	ip, r2, r3
	fmsr	s15, ip	@ int
	fsitos	s15, s15
	add	r3, sp, #196
	mov	r0, r3
	fmrs	r1, s14
	fmrs	r2, s15
	bl	_ZN8CIwFVec2C1Eff
	add	r3, sp, #32
	add	r2, r3, #40
	add	r3, sp, #196
	mov	r0, r2
	mov	r1, r3
	bl	_ZN8CIwFVec2aSERKS_
	.loc 15 230 0
	ldr	r3, [sp, #28]
	ldr	r3, [r3, #108]
	sub	r3, r3, #1
	ldr	r2, [sp, #28]
	ldr	r2, [r2, #64]
	mul	r0, r2, r3
	fmsr	s15, r0	@ int
	fsitos	s14, s15
	ldr	r3, [sp, #28]
	ldr	r3, [r3, #112]
	add	r3, r3, #1
	ldr	r2, [sp, #28]
	ldr	r2, [r2, #60]
	mul	r1, r2, r3
	fmsr	s15, r1	@ int
	fsitos	s15, s15
	add	r3, sp, #204
	mov	r0, r3
	fmrs	r1, s14
	fmrs	r2, s15
	bl	_ZN8CIwFVec2C1Eff
	add	r3, sp, #32
	add	r2, r3, #48
	add	r3, sp, #204
	mov	r0, r2
	mov	r1, r3
	bl	_ZN8CIwFVec2aSERKS_
	.loc 15 231 0
	ldr	r3, [sp, #28]
	ldr	r3, [r3, #108]
	ldr	r2, [sp, #28]
	ldr	r2, [r2, #64]
	mul	ip, r2, r3
	fmsr	s15, ip	@ int
	fsitos	s14, s15
	ldr	r3, [sp, #28]
	ldr	r3, [r3, #112]
	add	r3, r3, #1
	ldr	r2, [sp, #28]
	ldr	r2, [r2, #60]
	mul	r0, r2, r3
	fmsr	s15, r0	@ int
	fsitos	s15, s15
	add	r3, sp, #212
	mov	r0, r3
	fmrs	r1, s14
	fmrs	r2, s15
	bl	_ZN8CIwFVec2C1Eff
	add	r3, sp, #32
	add	r2, r3, #56
	add	r3, sp, #212
	mov	r0, r2
	mov	r1, r3
	bl	_ZN8CIwFVec2aSERKS_
	.loc 15 232 0
	ldr	r3, [sp, #28]
	ldr	r3, [r3, #108]
	add	r3, r3, #1
	ldr	r2, [sp, #28]
	ldr	r2, [r2, #64]
	mul	r1, r2, r3
	fmsr	s15, r1	@ int
	fsitos	s14, s15
	ldr	r3, [sp, #28]
	ldr	r3, [r3, #112]
	add	r3, r3, #1
	ldr	r2, [sp, #28]
	ldr	r2, [r2, #60]
	mul	ip, r2, r3
	fmsr	s15, ip	@ int
	fsitos	s15, s15
	add	r3, sp, #220
	mov	r0, r3
	fmrs	r1, s14
	fmrs	r2, s15
	bl	_ZN8CIwFVec2C1Eff
	add	r3, sp, #32
	add	r2, r3, #64
	add	r3, sp, #220
	mov	r0, r2
	mov	r1, r3
	bl	_ZN8CIwFVec2aSERKS_
.LBB18:
	.loc 15 236 0
	mov	r3, #0
	str	r3, [sp, #240]
	b	.L169
.L180:
.LBB19:
	.loc 15 239 0
	mvn	r3, #0
	str	r3, [sp, #228]
	.loc 15 240 0
	mvn	r3, #0
	str	r3, [sp, #232]
	.loc 15 241 0
	mvn	r3, #0
	str	r3, [sp, #236]
	.loc 15 243 0
	mov	r3, #0
	strb	r3, [sp, #152]
	mov	r3, #0
	strb	r3, [sp, #153]
	mov	r3, #0
	strb	r3, [sp, #154]
	mov	r3, #0
	strb	r3, [sp, #155]
	.loc 15 244 0
	ldr	r2, [sp, #240]
	mvn	r3, #159
	mov	r2, r2, asl #2
	add	r0, sp, #264
	add	r2, r2, r0
	add	r3, r2, r3
	ldr	r3, [r3, #0]
	cmp	r3, #0
	blt	.L170
	ldr	r2, [sp, #240]
	mvn	r3, #159
	mov	r2, r2, asl #2
	add	r1, sp, #264
	add	r2, r2, r1
	add	r3, r2, r3
	ldr	r2, [r3, #0]
	ldr	r3, [sp, #28]
	ldr	r3, [r3, #56]
	cmp	r2, r3
	bgt	.L170
.LBB20:
	.loc 15 247 0
	ldr	r3, [sp, #28]
	ldr	r3, [r3, #28]
	mov	r2, r3
	ldr	r1, [sp, #240]
	mvn	r3, #159
	mov	r1, r1, asl #2
	add	ip, sp, #264
	add	r1, r1, ip
	add	r3, r1, r3
	ldr	r3, [r3, #0]
	mov	r0, r2
	mov	r1, r3
	bl	_ZNK8CIwArrayIi12CIwAllocatorIi15CIwMallocRouterIiEE17ReallocateDefaultIiS3_EEixEi
	mov	r3, r0
	ldr	r2, [r3, #0]
	ldr	r3, [sp, #28]
	ldr	r3, [r3, #40]
	ldr	r3, [r3, #32]
	rsb	r3, r3, r2
	str	r3, [sp, #228]
	.loc 15 248 0
	ldr	r3, [sp, #28]
	ldr	r3, [r3, #32]
	mov	r2, r3
	ldr	r1, [sp, #240]
	mvn	r3, #159
	mov	r1, r1, asl #2
	add	r0, sp, #264
	add	r1, r1, r0
	add	r3, r1, r3
	ldr	r3, [r3, #0]
	mov	r0, r2
	mov	r1, r3
	bl	_ZNK8CIwArrayIi12CIwAllocatorIi15CIwMallocRouterIiEE17ReallocateDefaultIiS3_EEixEi
	mov	r3, r0
	ldr	r2, [r3, #0]
	ldr	r3, [sp, #28]
	ldr	r3, [r3, #40]
	ldr	r3, [r3, #32]
	rsb	r3, r3, r2
	str	r3, [sp, #232]
	.loc 15 249 0
	ldr	r3, [sp, #28]
	ldr	r3, [r3, #36]
	mov	r2, r3
	ldr	r1, [sp, #240]
	mvn	r3, #159
	mov	r1, r1, asl #2
	add	ip, sp, #264
	add	r1, r1, ip
	add	r3, r1, r3
	ldr	r3, [r3, #0]
	mov	r0, r2
	mov	r1, r3
	bl	_ZNK8CIwArrayIi12CIwAllocatorIi15CIwMallocRouterIiEE17ReallocateDefaultIiS3_EEixEi
	mov	r3, r0
	ldr	r2, [r3, #0]
	ldr	r3, [sp, #28]
	ldr	r3, [r3, #44]
	ldr	r3, [r3, #32]
	rsb	r3, r3, r2
	str	r3, [sp, #236]
	.loc 15 251 0
	mov	r3, #0
	strb	r3, [sp, #148]
	mov	r3, #0
	strb	r3, [sp, #149]
	mov	r3, #0
	strb	r3, [sp, #150]
	mov	r3, #0
	strb	r3, [sp, #151]
	.loc 15 252 0
	mov	r3, #0
	strb	r3, [sp, #144]
	mov	r3, #0
	strb	r3, [sp, #145]
	mov	r3, #0
	strb	r3, [sp, #146]
	mov	r3, #0
	strb	r3, [sp, #147]
	.loc 15 253 0
	mov	r3, #0
	strb	r3, [sp, #140]
	mov	r3, #0
	strb	r3, [sp, #141]
	mov	r3, #0
	strb	r3, [sp, #142]
	mov	r3, #0
	strb	r3, [sp, #143]
	.loc 15 254 0
	ldr	r3, [sp, #228]
	cmp	r3, #0
	blt	.L171
.LBB21:
	.loc 15 256 0
	ldr	r3, [sp, #28]
	ldr	r3, [r3, #40]
	mov	r0, r3
	ldr	r1, [sp, #228]
	bl	_ZN7TileSet11GetTileUnitEi
	mov	r3, r0
	str	r3, [sp, #244]
	.loc 15 257 0
	ldr	r3, [sp, #244]
	add	r2, sp, #148
	mov	r0, r2
	mov	r1, r3
	mov	r2, #4
	bl	memcpy
.L171:
.LBE21:
	.loc 15 264 0
	ldr	r3, [sp, #232]
	cmp	r3, #0
	blt	.L172
.LBB22:
	.loc 15 266 0
	ldr	r3, [sp, #28]
	ldr	r3, [r3, #40]
	mov	r0, r3
	ldr	r1, [sp, #232]
	bl	_ZN7TileSet11GetTileUnitEi
	mov	r3, r0
	str	r3, [sp, #248]
	.loc 15 267 0
	ldr	r3, [sp, #248]
	add	r2, sp, #144
	mov	r0, r2
	mov	r1, r3
	mov	r2, #4
	bl	memcpy
.L172:
.LBE22:
	.loc 15 273 0
	ldr	r3, [sp, #236]
	cmp	r3, #0
	blt	.L173
.LBB23:
	.loc 15 275 0
	ldr	r3, [sp, #28]
	ldr	r3, [r3, #44]
	mov	r0, r3
	ldr	r1, [sp, #236]
	bl	_ZN7TileSet11GetTileUnitEi
	mov	r3, r0
	str	r3, [sp, #252]
	.loc 15 276 0
	ldr	r3, [sp, #28]
	ldr	r3, [r3, #36]
	ldrb	r3, [r3, #16]	@ zero_extendqisi2
	cmp	r3, #0
	beq	.L174
	ldr	r3, [sp, #28]
	add	r2, r3, #68
	ldr	r1, [sp, #240]
	mvn	r3, #159
	mov	r1, r1, asl #2
	add	r0, sp, #264
	add	r1, r1, r0
	add	r3, r1, r3
	ldr	r3, [r3, #0]
	mov	r0, r2
	mov	r1, r3
	bl	_ZNK8CIwArrayIi12CIwAllocatorIi15CIwMallocRouterIiEE17ReallocateDefaultIiS3_EEixEi
	mov	r3, r0
	ldr	r3, [r3, #0]
	b	.L175
.L174:
	mov	r3, #0
.L175:
	ldr	r0, [sp, #252]
	mov	r1, r3
	bl	_ZN8TileUnit6RotateEi
	.loc 15 277 0
	ldr	r3, [sp, #252]
	add	r3, r3, #4
	add	r2, sp, #140
	mov	r0, r2
	mov	r1, r3
	mov	r2, #4
	bl	memcpy
.L173:
.LBE23:
.LBB24:
	.loc 15 285 0
	mov	r3, #0
	str	r3, [sp, #256]
	b	.L176
.L177:
	.loc 15 286 0
	ldr	r1, [sp, #256]
	ldr	r2, [sp, #256]
	mvn	r3, #115
	add	ip, sp, #264
	add	r2, ip, r2
	add	r3, r2, r3
	ldrb	r3, [r3, #0]	@ zero_extendqisi2
	mov	r2, r3
	ldr	r0, [sp, #256]
	mvn	r3, #119
	add	ip, sp, #264
	add	r0, ip, r0
	add	r3, r0, r3
	ldrb	r3, [r3, #0]	@ zero_extendqisi2
	orr	r2, r2, r3
	ldr	r0, [sp, #256]
	mvn	r3, #123
	add	ip, sp, #264
	add	r0, ip, r0
	add	r3, r0, r3
	ldrb	r3, [r3, #0]	@ zero_extendqisi2
	orr	r3, r2, r3
	cmp	r3, #0
	moveq	r3, #0
	movne	r3, #1
	and	r2, r3, #255
	mvn	r3, #111
	add	r0, sp, #264
	add	r1, r0, r1
	add	r3, r1, r3
	strb	r2, [r3, #0]
	.loc 15 285 0
	ldr	r3, [sp, #256]
	add	r3, r3, #1
	str	r3, [sp, #256]
.L176:
	ldr	r3, [sp, #256]
	cmp	r3, #4
	moveq	r3, #0
	movne	r3, #1
	and	r3, r3, #255
	cmp	r3, #0
	bne	.L177
.L170:
.LBE24:
.LBE20:
	.loc 15 293 0
	ldr	r3, [sp, #28]
	add	r3, r3, #84
	mov	r0, r3
	ldr	r1, [sp, #240]
	bl	_ZNK8CIwArrayI12TileObstacle12CIwAllocatorIS0_15CIwMallocRouterIS0_EE17ReallocateDefaultIS0_S4_EEixEi
	mov	r1, r0
	ldr	r0, [sp, #240]
	add	r2, sp, #152
	mvn	r3, #231
	mov	r0, r0, asl #3
	add	ip, sp, #264
	add	r0, r0, ip
	add	r3, r0, r3
	mov	r0, r1
	mov	r1, r2
	ldmia	r3, {r2, r3}
	bl	_ZN12TileObstacle14UpdateObstacleEPb8CIwFVec2
	.loc 15 294 0
	ldr	r3, [sp, #28]
	add	r3, r3, #84
	mov	r0, r3
	ldr	r1, [sp, #240]
	bl	_ZNK8CIwArrayI12TileObstacle12CIwAllocatorIS0_15CIwMallocRouterIS0_EE17ReallocateDefaultIS0_S4_EEixEi
	mov	r3, r0
	ldr	r2, [sp, #280]
	str	r2, [sp, #0]
	add	ip, sp, #4
	add	r2, sp, #284
	ldmia	r2, {r0, r1}
	stmia	ip, {r0, r1}
	mov	r0, r3
	add	r3, sp, #20
	ldmia	r3, {r1, r2}
	ldr	r3, [sp, #16]
	bl	_ZN12TileObstacle14CheckCollisionE8CIwFVec28CIwSVec2RS0_S0_
	mov	r3, r0
	cmp	r3, #0
	beq	.L178
	.loc 15 295 0
	mov	r3, #1
	b	.L179
.L178:
.LBE19:
	.loc 15 236 0
	ldr	r3, [sp, #240]
	add	r3, r3, #1
	str	r3, [sp, #240]
.L169:
	ldr	r3, [sp, #240]
	cmp	r3, #9
	moveq	r3, #0
	movne	r3, #1
	and	r3, r3, #255
	cmp	r3, #0
	bne	.L180
	b	.L181
.L166:
.LBE18:
.LBE17:
.LBB25:
	.loc 15 300 0
	mov	r3, #0
	str	r3, [sp, #260]
	b	.L182
.L184:
	.loc 15 302 0
	ldr	r3, [sp, #28]
	add	r3, r3, #84
	mov	r0, r3
	ldr	r1, [sp, #260]
	bl	_ZNK8CIwArrayI12TileObstacle12CIwAllocatorIS0_15CIwMallocRouterIS0_EE17ReallocateDefaultIS0_S4_EEixEi
	mov	r3, r0
	ldr	r2, [sp, #280]
	str	r2, [sp, #0]
	add	ip, sp, #4
	add	r2, sp, #284
	ldmia	r2, {r0, r1}
	stmia	ip, {r0, r1}
	mov	r0, r3
	add	r3, sp, #20
	ldmia	r3, {r1, r2}
	ldr	r3, [sp, #16]
	bl	_ZN12TileObstacle14CheckCollisionE8CIwFVec28CIwSVec2RS0_S0_
	mov	r3, r0
	cmp	r3, #0
	beq	.L183
	.loc 15 303 0
	mov	r3, #1
	b	.L179
.L183:
	.loc 15 300 0
	ldr	r3, [sp, #260]
	add	r3, r3, #1
	str	r3, [sp, #260]
.L182:
	ldr	r3, [sp, #260]
	cmp	r3, #9
	moveq	r3, #0
	movne	r3, #1
	and	r3, r3, #255
	cmp	r3, #0
	bne	.L184
.L181:
.LBE25:
	.loc 15 306 0
	mov	r3, #0
.L179:
.LBE16:
	.loc 15 307 0
	mov	r0, r3
	add	sp, sp, #268
	ldmfd	sp!, {r4, r5, pc}
	.cfi_endproc
.LFE3385:
	.size	_ZN3Map14CheckCollisionE8CIwFVec28CIwSVec2RS0_S0_, .-_ZN3Map14CheckCollisionE8CIwFVec28CIwSVec2RS0_S0_
	.section	.text._ZN8CIwArrayIi12CIwAllocatorIi15CIwMallocRouterIiEE17ReallocateDefaultIiS3_EED1Ev,"axG",%progbits,_ZN8CIwArrayIi12CIwAllocatorIi15CIwMallocRouterIiEE17ReallocateDefaultIiS3_EED1Ev,comdat
	.align	2
	.weak	_ZN8CIwArrayIi12CIwAllocatorIi15CIwMallocRouterIiEE17ReallocateDefaultIiS3_EED1Ev
	.hidden	_ZN8CIwArrayIi12CIwAllocatorIi15CIwMallocRouterIiEE17ReallocateDefaultIiS3_EED1Ev
	.type	_ZN8CIwArrayIi12CIwAllocatorIi15CIwMallocRouterIiEE17ReallocateDefaultIiS3_EED1Ev, %function
_ZN8CIwArrayIi12CIwAllocatorIi15CIwMallocRouterIiEE17ReallocateDefaultIiS3_EED1Ev:
.LFB3466:
	.file 16 "c:/marmalade/6.2/modules/iwutil/h/IwArray.h"
	.loc 16 137 0
	.cfi_startproc
	@ args = 0, pretend = 0, frame = 16
	@ frame_needed = 0, uses_anonymous_args = 0
	str	lr, [sp, #-4]!
.LCFI69:
	.cfi_def_cfa_offset 4
	sub	sp, sp, #20
.LCFI70:
	.cfi_def_cfa_offset 24
	str	r0, [sp, #4]
.LBB26:
	.loc 16 139 0
	mov	r3, #0
	str	r3, [sp, #12]
	b	.L187
	.cfi_offset 14, -4
.L188:
	ldr	r3, [sp, #12]
	add	r3, r3, #1
	str	r3, [sp, #12]
.L187:
	ldr	r3, [sp, #4]
	ldr	r2, [r3, #4]
	ldr	r3, [sp, #12]
	cmp	r2, r3
	movls	r3, #0
	movhi	r3, #1
	and	r3, r3, #255
	cmp	r3, #0
	bne	.L188
.LBE26:
	.loc 16 141 0
	ldr	r3, [sp, #4]
	ldrb	r3, [r3, #12]
	and	r3, r3, #1
	and	r3, r3, #255
	eor	r3, r3, #1
	and	r3, r3, #255
	cmp	r3, #0
	beq	.L189
	.loc 16 143 0
	ldr	r3, [sp, #4]
	add	r1, r3, #13
	ldr	r3, [sp, #4]
	ldr	r2, [r3, #0]
	ldr	r3, [sp, #4]
	ldr	r3, [r3, #4]
	mov	r0, r1
	mov	r1, r2
	mov	r2, r3
	bl	_ZN12CIwAllocatorIi15CIwMallocRouterIiEE10deallocateEPij
	.loc 16 144 0
	ldr	r3, [sp, #4]
	mov	r2, #0
	str	r2, [r3, #0]
.L189:
	ldr	r3, [sp, #4]
	.loc 16 146 0
	mov	r0, r3
	add	sp, sp, #20
	ldmfd	sp!, {pc}
	.cfi_endproc
.LFE3466:
	.size	_ZN8CIwArrayIi12CIwAllocatorIi15CIwMallocRouterIiEE17ReallocateDefaultIiS3_EED1Ev, .-_ZN8CIwArrayIi12CIwAllocatorIi15CIwMallocRouterIiEE17ReallocateDefaultIiS3_EED1Ev
	.section	.text._ZN4_STL9allocatorI8ObstacleEC1Ev,"axG",%progbits,_ZN4_STL9allocatorI8ObstacleEC1Ev,comdat
	.align	2
	.weak	_ZN4_STL9allocatorI8ObstacleEC1Ev
	.hidden	_ZN4_STL9allocatorI8ObstacleEC1Ev
	.type	_ZN4_STL9allocatorI8ObstacleEC1Ev, %function
_ZN4_STL9allocatorI8ObstacleEC1Ev:
.LFB3471:
	.file 17 "c:/marmalade/6.2/s3e/h/std/c++/stl/_alloc.h"
	.loc 17 345 0
	.cfi_startproc
	@ args = 0, pretend = 0, frame = 8
	@ frame_needed = 0, uses_anonymous_args = 0
	@ link register save eliminated.
	sub	sp, sp, #8
.LCFI71:
	.cfi_def_cfa_offset 8
	str	r0, [sp, #4]
	.loc 17 345 0
	ldr	r3, [sp, #4]
	mov	r0, r3
	add	sp, sp, #8
	bx	lr
	.cfi_endproc
.LFE3471:
	.size	_ZN4_STL9allocatorI8ObstacleEC1Ev, .-_ZN4_STL9allocatorI8ObstacleEC1Ev
	.section	.text._ZN4_STL9allocatorI8ObstacleED2Ev,"axG",%progbits,_ZN4_STL9allocatorI8ObstacleED2Ev,comdat
	.align	2
	.weak	_ZN4_STL9allocatorI8ObstacleED2Ev
	.hidden	_ZN4_STL9allocatorI8ObstacleED2Ev
	.type	_ZN4_STL9allocatorI8ObstacleED2Ev, %function
_ZN4_STL9allocatorI8ObstacleED2Ev:
.LFB3473:
	.loc 17 350 0
	.cfi_startproc
	@ args = 0, pretend = 0, frame = 8
	@ frame_needed = 0, uses_anonymous_args = 0
	@ link register save eliminated.
	sub	sp, sp, #8
.LCFI72:
	.cfi_def_cfa_offset 8
	str	r0, [sp, #4]
	.loc 17 350 0
	ldr	r3, [sp, #4]
	mov	r0, r3
	add	sp, sp, #8
	bx	lr
	.cfi_endproc
.LFE3473:
	.size	_ZN4_STL9allocatorI8ObstacleED2Ev, .-_ZN4_STL9allocatorI8ObstacleED2Ev
	.section	.text._ZN4_STL9allocatorI8ObstacleED1Ev,"axG",%progbits,_ZN4_STL9allocatorI8ObstacleED1Ev,comdat
	.align	2
	.weak	_ZN4_STL9allocatorI8ObstacleED1Ev
	.hidden	_ZN4_STL9allocatorI8ObstacleED1Ev
	.type	_ZN4_STL9allocatorI8ObstacleED1Ev, %function
_ZN4_STL9allocatorI8ObstacleED1Ev:
.LFB3474:
	.loc 17 350 0
	.cfi_startproc
	@ args = 0, pretend = 0, frame = 8
	@ frame_needed = 0, uses_anonymous_args = 0
	@ link register save eliminated.
	sub	sp, sp, #8
.LCFI73:
	.cfi_def_cfa_offset 8
	str	r0, [sp, #4]
	.loc 17 350 0
	ldr	r3, [sp, #4]
	mov	r0, r3
	add	sp, sp, #8
	bx	lr
	.cfi_endproc
.LFE3474:
	.size	_ZN4_STL9allocatorI8ObstacleED1Ev, .-_ZN4_STL9allocatorI8ObstacleED1Ev
	.section	.text._ZN4_STL6vectorI8ObstacleNS_9allocatorIS1_EEEC1ERKS3_,"axG",%progbits,_ZN4_STL6vectorI8ObstacleNS_9allocatorIS1_EEEC1ERKS3_,comdat
	.align	2
	.weak	_ZN4_STL6vectorI8ObstacleNS_9allocatorIS1_EEEC1ERKS3_
	.hidden	_ZN4_STL6vectorI8ObstacleNS_9allocatorIS1_EEEC1ERKS3_
	.type	_ZN4_STL6vectorI8ObstacleNS_9allocatorIS1_EEEC1ERKS3_, %function
_ZN4_STL6vectorI8ObstacleNS_9allocatorIS1_EEEC1ERKS3_:
.LFB3477:
	.file 18 "c:/marmalade/6.2/s3e/h/std/c++/stl/_vector.h"
	.loc 18 198 0
	.cfi_startproc
	@ args = 0, pretend = 0, frame = 8
	@ frame_needed = 0, uses_anonymous_args = 0
	str	lr, [sp, #-4]!
.LCFI74:
	.cfi_def_cfa_offset 4
	sub	sp, sp, #12
.LCFI75:
	.cfi_def_cfa_offset 16
	str	r0, [sp, #4]
	str	r1, [sp, #0]
	.loc 18 199 0
	ldr	r3, [sp, #4]
	mov	r0, r3
	ldr	r1, [sp, #0]
	.cfi_offset 14, -4
	bl	_ZN4_STL12_Vector_baseI8ObstacleNS_9allocatorIS1_EEEC2ERKS3_
	ldr	r3, [sp, #4]
	mov	r0, r3
	add	sp, sp, #12
	ldmfd	sp!, {pc}
	.cfi_endproc
.LFE3477:
	.size	_ZN4_STL6vectorI8ObstacleNS_9allocatorIS1_EEEC1ERKS3_, .-_ZN4_STL6vectorI8ObstacleNS_9allocatorIS1_EEEC1ERKS3_
	.section	.text._ZN4_STL6vectorI8ObstacleNS_9allocatorIS1_EEED1Ev,"axG",%progbits,_ZN4_STL6vectorI8ObstacleNS_9allocatorIS1_EEED1Ev,comdat
	.align	2
	.weak	_ZN4_STL6vectorI8ObstacleNS_9allocatorIS1_EEED1Ev
	.hidden	_ZN4_STL6vectorI8ObstacleNS_9allocatorIS1_EEED1Ev
	.type	_ZN4_STL6vectorI8ObstacleNS_9allocatorIS1_EEED1Ev, %function
_ZN4_STL6vectorI8ObstacleNS_9allocatorIS1_EEED1Ev:
.LFB3480:
	.loc 18 258 0
	.cfi_startproc
	@ args = 0, pretend = 0, frame = 8
	@ frame_needed = 0, uses_anonymous_args = 0
	str	lr, [sp, #-4]!
.LCFI76:
	.cfi_def_cfa_offset 4
	sub	sp, sp, #12
.LCFI77:
	.cfi_def_cfa_offset 16
	str	r0, [sp, #4]
	.loc 18 258 0
	ldr	r3, [sp, #4]
	ldr	r2, [r3, #0]
	ldr	r3, [sp, #4]
	ldr	r3, [r3, #4]
	mov	r0, r2
	mov	r1, r3
	.cfi_offset 14, -4
	bl	_ZN4_STL8_DestroyIP8ObstacleEEvT_S3_
	ldr	r3, [sp, #4]
	mov	r0, r3
	bl	_ZN4_STL12_Vector_baseI8ObstacleNS_9allocatorIS1_EEED2Ev
	ldr	r3, [sp, #4]
	mov	r0, r3
	add	sp, sp, #12
	ldmfd	sp!, {pc}
	.cfi_endproc
.LFE3480:
	.size	_ZN4_STL6vectorI8ObstacleNS_9allocatorIS1_EEED1Ev, .-_ZN4_STL6vectorI8ObstacleNS_9allocatorIS1_EEED1Ev
	.section	.text._ZN8CIwArrayIi12CIwAllocatorIi15CIwMallocRouterIiEE17ReallocateDefaultIiS3_EEC1Ej,"axG",%progbits,_ZN8CIwArrayIi12CIwAllocatorIi15CIwMallocRouterIiEE17ReallocateDefaultIiS3_EEC1Ej,comdat
	.align	2
	.weak	_ZN8CIwArrayIi12CIwAllocatorIi15CIwMallocRouterIiEE17ReallocateDefaultIiS3_EEC1Ej
	.hidden	_ZN8CIwArrayIi12CIwAllocatorIi15CIwMallocRouterIiEE17ReallocateDefaultIiS3_EEC1Ej
	.type	_ZN8CIwArrayIi12CIwAllocatorIi15CIwMallocRouterIiEE17ReallocateDefaultIiS3_EEC1Ej, %function
_ZN8CIwArrayIi12CIwAllocatorIi15CIwMallocRouterIiEE17ReallocateDefaultIiS3_EEC1Ej:
.LFB3483:
	.loc 16 131 0
	.cfi_startproc
	@ args = 0, pretend = 0, frame = 8
	@ frame_needed = 0, uses_anonymous_args = 0
	str	lr, [sp, #-4]!
.LCFI78:
	.cfi_def_cfa_offset 4
	sub	sp, sp, #12
.LCFI79:
	.cfi_def_cfa_offset 16
	str	r0, [sp, #4]
	str	r1, [sp, #0]
	.loc 16 131 0
	ldr	r3, [sp, #4]
	mov	r2, #0
	str	r2, [r3, #0]
	ldr	r3, [sp, #4]
	mov	r2, #0
	str	r2, [r3, #4]
	ldr	r3, [sp, #4]
	mov	r2, #0
	str	r2, [r3, #8]
	ldr	r2, [sp, #4]
	ldrb	r3, [r2, #12]
	bic	r3, r3, #1
	strb	r3, [r2, #12]
	ldr	r2, [sp, #4]
	ldrb	r3, [r2, #12]
	bic	r3, r3, #2
	strb	r3, [r2, #12]
	.loc 16 133 0
	ldr	r0, [sp, #4]
	ldr	r1, [sp, #0]
	.cfi_offset 14, -4
	bl	_ZN8CIwArrayIi12CIwAllocatorIi15CIwMallocRouterIiEE17ReallocateDefaultIiS3_EE6resizeEj
	.loc 16 134 0
	ldr	r0, [sp, #4]
	bl	_ZN8CIwArrayIi12CIwAllocatorIi15CIwMallocRouterIiEE17ReallocateDefaultIiS3_EE5clearEv
	ldr	r3, [sp, #4]
	.loc 16 135 0
	mov	r0, r3
	add	sp, sp, #12
	ldmfd	sp!, {pc}
	.cfi_endproc
.LFE3483:
	.size	_ZN8CIwArrayIi12CIwAllocatorIi15CIwMallocRouterIiEE17ReallocateDefaultIiS3_EEC1Ej, .-_ZN8CIwArrayIi12CIwAllocatorIi15CIwMallocRouterIiEE17ReallocateDefaultIiS3_EEC1Ej
	.section	.text._ZN8CIwArrayI8TileUnit12CIwAllocatorIS0_15CIwMallocRouterIS0_EE17ReallocateDefaultIS0_S4_EEC1Ej,"axG",%progbits,_ZN8CIwArrayI8TileUnit12CIwAllocatorIS0_15CIwMallocRouterIS0_EE17ReallocateDefaultIS0_S4_EEC1Ej,comdat
	.align	2
	.weak	_ZN8CIwArrayI8TileUnit12CIwAllocatorIS0_15CIwMallocRouterIS0_EE17ReallocateDefaultIS0_S4_EEC1Ej
	.hidden	_ZN8CIwArrayI8TileUnit12CIwAllocatorIS0_15CIwMallocRouterIS0_EE17ReallocateDefaultIS0_S4_EEC1Ej
	.type	_ZN8CIwArrayI8TileUnit12CIwAllocatorIS0_15CIwMallocRouterIS0_EE17ReallocateDefaultIS0_S4_EEC1Ej, %function
_ZN8CIwArrayI8TileUnit12CIwAllocatorIS0_15CIwMallocRouterIS0_EE17ReallocateDefaultIS0_S4_EEC1Ej:
.LFB3486:
	.loc 16 131 0
	.cfi_startproc
	@ args = 0, pretend = 0, frame = 8
	@ frame_needed = 0, uses_anonymous_args = 0
	str	lr, [sp, #-4]!
.LCFI80:
	.cfi_def_cfa_offset 4
	sub	sp, sp, #12
.LCFI81:
	.cfi_def_cfa_offset 16
	str	r0, [sp, #4]
	str	r1, [sp, #0]
	.loc 16 131 0
	ldr	r3, [sp, #4]
	mov	r2, #0
	str	r2, [r3, #0]
	ldr	r3, [sp, #4]
	mov	r2, #0
	str	r2, [r3, #4]
	ldr	r3, [sp, #4]
	mov	r2, #0
	str	r2, [r3, #8]
	ldr	r2, [sp, #4]
	ldrb	r3, [r2, #12]
	bic	r3, r3, #1
	strb	r3, [r2, #12]
	ldr	r2, [sp, #4]
	ldrb	r3, [r2, #12]
	bic	r3, r3, #2
	strb	r3, [r2, #12]
	.loc 16 133 0
	ldr	r0, [sp, #4]
	ldr	r1, [sp, #0]
	.cfi_offset 14, -4
	bl	_ZN8CIwArrayI8TileUnit12CIwAllocatorIS0_15CIwMallocRouterIS0_EE17ReallocateDefaultIS0_S4_EE6resizeEj
	.loc 16 134 0
	ldr	r0, [sp, #4]
	bl	_ZN8CIwArrayI8TileUnit12CIwAllocatorIS0_15CIwMallocRouterIS0_EE17ReallocateDefaultIS0_S4_EE5clearEv
	ldr	r3, [sp, #4]
	.loc 16 135 0
	mov	r0, r3
	add	sp, sp, #12
	ldmfd	sp!, {pc}
	.cfi_endproc
.LFE3486:
	.size	_ZN8CIwArrayI8TileUnit12CIwAllocatorIS0_15CIwMallocRouterIS0_EE17ReallocateDefaultIS0_S4_EEC1Ej, .-_ZN8CIwArrayI8TileUnit12CIwAllocatorIS0_15CIwMallocRouterIS0_EE17ReallocateDefaultIS0_S4_EEC1Ej
	.section	.text._ZN8CIwArrayI8TileUnit12CIwAllocatorIS0_15CIwMallocRouterIS0_EE17ReallocateDefaultIS0_S4_EED1Ev,"axG",%progbits,_ZN8CIwArrayI8TileUnit12CIwAllocatorIS0_15CIwMallocRouterIS0_EE17ReallocateDefaultIS0_S4_EED1Ev,comdat
	.align	2
	.weak	_ZN8CIwArrayI8TileUnit12CIwAllocatorIS0_15CIwMallocRouterIS0_EE17ReallocateDefaultIS0_S4_EED1Ev
	.hidden	_ZN8CIwArrayI8TileUnit12CIwAllocatorIS0_15CIwMallocRouterIS0_EE17ReallocateDefaultIS0_S4_EED1Ev
	.type	_ZN8CIwArrayI8TileUnit12CIwAllocatorIS0_15CIwMallocRouterIS0_EE17ReallocateDefaultIS0_S4_EED1Ev, %function
_ZN8CIwArrayI8TileUnit12CIwAllocatorIS0_15CIwMallocRouterIS0_EE17ReallocateDefaultIS0_S4_EED1Ev:
.LFB3489:
	.loc 16 137 0
	.cfi_startproc
	@ args = 0, pretend = 0, frame = 16
	@ frame_needed = 0, uses_anonymous_args = 0
	str	lr, [sp, #-4]!
.LCFI82:
	.cfi_def_cfa_offset 4
	sub	sp, sp, #20
.LCFI83:
	.cfi_def_cfa_offset 24
	str	r0, [sp, #4]
.LBB27:
	.loc 16 139 0
	mov	r3, #0
	str	r3, [sp, #12]
	b	.L213
	.cfi_offset 14, -4
.L214:
	.loc 16 140 0
	ldr	r3, [sp, #4]
	ldr	r2, [r3, #0]
	ldr	r3, [sp, #12]
	mov	r3, r3, asl #3
	add	r3, r2, r3
	mov	r0, r3
	bl	_ZN8TileUnitD1Ev
	.loc 16 139 0
	ldr	r3, [sp, #12]
	add	r3, r3, #1
	str	r3, [sp, #12]
.L213:
	ldr	r3, [sp, #4]
	ldr	r2, [r3, #4]
	ldr	r3, [sp, #12]
	cmp	r2, r3
	movls	r3, #0
	movhi	r3, #1
	and	r3, r3, #255
	cmp	r3, #0
	bne	.L214
.LBE27:
	.loc 16 141 0
	ldr	r3, [sp, #4]
	ldrb	r3, [r3, #12]
	and	r3, r3, #1
	and	r3, r3, #255
	eor	r3, r3, #1
	and	r3, r3, #255
	cmp	r3, #0
	beq	.L215
	.loc 16 143 0
	ldr	r3, [sp, #4]
	add	r1, r3, #13
	ldr	r3, [sp, #4]
	ldr	r2, [r3, #0]
	ldr	r3, [sp, #4]
	ldr	r3, [r3, #4]
	mov	r0, r1
	mov	r1, r2
	mov	r2, r3
	bl	_ZN12CIwAllocatorI8TileUnit15CIwMallocRouterIS0_EE10deallocateEPS0_j
	.loc 16 144 0
	ldr	r3, [sp, #4]
	mov	r2, #0
	str	r2, [r3, #0]
.L215:
	ldr	r3, [sp, #4]
	.loc 16 146 0
	mov	r0, r3
	add	sp, sp, #20
	ldmfd	sp!, {pc}
	.cfi_endproc
.LFE3489:
	.size	_ZN8CIwArrayI8TileUnit12CIwAllocatorIS0_15CIwMallocRouterIS0_EE17ReallocateDefaultIS0_S4_EED1Ev, .-_ZN8CIwArrayI8TileUnit12CIwAllocatorIS0_15CIwMallocRouterIS0_EE17ReallocateDefaultIS0_S4_EED1Ev
	.section	.text._ZN8CIwArrayI12TileObstacle12CIwAllocatorIS0_15CIwMallocRouterIS0_EE17ReallocateDefaultIS0_S4_EED1Ev,"axG",%progbits,_ZN8CIwArrayI12TileObstacle12CIwAllocatorIS0_15CIwMallocRouterIS0_EE17ReallocateDefaultIS0_S4_EED1Ev,comdat
	.align	2
	.weak	_ZN8CIwArrayI12TileObstacle12CIwAllocatorIS0_15CIwMallocRouterIS0_EE17ReallocateDefaultIS0_S4_EED1Ev
	.hidden	_ZN8CIwArrayI12TileObstacle12CIwAllocatorIS0_15CIwMallocRouterIS0_EE17ReallocateDefaultIS0_S4_EED1Ev
	.type	_ZN8CIwArrayI12TileObstacle12CIwAllocatorIS0_15CIwMallocRouterIS0_EE17ReallocateDefaultIS0_S4_EED1Ev, %function
_ZN8CIwArrayI12TileObstacle12CIwAllocatorIS0_15CIwMallocRouterIS0_EE17ReallocateDefaultIS0_S4_EED1Ev:
.LFB3495:
	.loc 16 137 0
	.cfi_startproc
	@ args = 0, pretend = 0, frame = 16
	@ frame_needed = 0, uses_anonymous_args = 0
	str	lr, [sp, #-4]!
.LCFI84:
	.cfi_def_cfa_offset 4
	sub	sp, sp, #20
.LCFI85:
	.cfi_def_cfa_offset 24
	str	r0, [sp, #4]
.LBB28:
	.loc 16 139 0
	mov	r3, #0
	str	r3, [sp, #12]
	b	.L218
	.cfi_offset 14, -4
.L219:
	.loc 16 140 0
	ldr	r3, [sp, #4]
	ldr	r2, [r3, #0]
	ldr	r3, [sp, #12]
	mov	r1, #44
	mul	r3, r1, r3
	add	r3, r2, r3
	mov	r0, r3
	bl	_ZN12TileObstacleD1Ev
	.loc 16 139 0
	ldr	r3, [sp, #12]
	add	r3, r3, #1
	str	r3, [sp, #12]
.L218:
	ldr	r3, [sp, #4]
	ldr	r2, [r3, #4]
	ldr	r3, [sp, #12]
	cmp	r2, r3
	movls	r3, #0
	movhi	r3, #1
	and	r3, r3, #255
	cmp	r3, #0
	bne	.L219
.LBE28:
	.loc 16 141 0
	ldr	r3, [sp, #4]
	ldrb	r3, [r3, #12]
	and	r3, r3, #1
	and	r3, r3, #255
	eor	r3, r3, #1
	and	r3, r3, #255
	cmp	r3, #0
	beq	.L220
	.loc 16 143 0
	ldr	r3, [sp, #4]
	add	r1, r3, #13
	ldr	r3, [sp, #4]
	ldr	r2, [r3, #0]
	ldr	r3, [sp, #4]
	ldr	r3, [r3, #4]
	mov	r0, r1
	mov	r1, r2
	mov	r2, r3
	bl	_ZN12CIwAllocatorI12TileObstacle15CIwMallocRouterIS0_EE10deallocateEPS0_j
	.loc 16 144 0
	ldr	r3, [sp, #4]
	mov	r2, #0
	str	r2, [r3, #0]
.L220:
	ldr	r3, [sp, #4]
	.loc 16 146 0
	mov	r0, r3
	add	sp, sp, #20
	ldmfd	sp!, {pc}
	.cfi_endproc
.LFE3495:
	.size	_ZN8CIwArrayI12TileObstacle12CIwAllocatorIS0_15CIwMallocRouterIS0_EE17ReallocateDefaultIS0_S4_EED1Ev, .-_ZN8CIwArrayI12TileObstacle12CIwAllocatorIS0_15CIwMallocRouterIS0_EE17ReallocateDefaultIS0_S4_EED1Ev
	.section	.text._ZN4_STLlsINS_11char_traitsIcEEEERNS_13basic_ostreamIcT_EES6_PKc,"axG",%progbits,_ZN4_STLlsINS_11char_traitsIcEEEERNS_13basic_ostreamIcT_EES6_PKc,comdat
	.align	2
	.weak	_ZN4_STLlsINS_11char_traitsIcEEEERNS_13basic_ostreamIcT_EES6_PKc
	.hidden	_ZN4_STLlsINS_11char_traitsIcEEEERNS_13basic_ostreamIcT_EES6_PKc
	.type	_ZN4_STLlsINS_11char_traitsIcEEEERNS_13basic_ostreamIcT_EES6_PKc, %function
_ZN4_STLlsINS_11char_traitsIcEEEERNS_13basic_ostreamIcT_EES6_PKc:
.LFB3508:
	.file 19 "c:/marmalade/6.2/s3e/h/std/c++/stl/_ostream.h"
	.loc 19 307 0
	.cfi_startproc
	@ args = 0, pretend = 0, frame = 8
	@ frame_needed = 0, uses_anonymous_args = 0
	str	lr, [sp, #-4]!
.LCFI86:
	.cfi_def_cfa_offset 4
	sub	sp, sp, #12
.LCFI87:
	.cfi_def_cfa_offset 16
	str	r0, [sp, #4]
	str	r1, [sp, #0]
	.loc 19 308 0
	ldr	r0, [sp, #4]
	ldr	r1, [sp, #0]
	.cfi_offset 14, -4
	bl	_ZN4_STL13basic_ostreamIcNS_11char_traitsIcEEE14_M_put_nowidenEPKc
	.loc 19 309 0
	ldr	r3, [sp, #4]
	.loc 19 310 0
	mov	r0, r3
	add	sp, sp, #12
	ldmfd	sp!, {pc}
	.cfi_endproc
.LFE3508:
	.size	_ZN4_STLlsINS_11char_traitsIcEEEERNS_13basic_ostreamIcT_EES6_PKc, .-_ZN4_STLlsINS_11char_traitsIcEEEERNS_13basic_ostreamIcT_EES6_PKc
	.section	.text._ZN4_STL4endlIcNS_11char_traitsIcEEEERNS_13basic_ostreamIT_T0_EES7_,"axG",%progbits,_ZN4_STL4endlIcNS_11char_traitsIcEEEERNS_13basic_ostreamIT_T0_EES7_,comdat
	.align	2
	.weak	_ZN4_STL4endlIcNS_11char_traitsIcEEEERNS_13basic_ostreamIT_T0_EES7_
	.hidden	_ZN4_STL4endlIcNS_11char_traitsIcEEEERNS_13basic_ostreamIT_T0_EES7_
	.type	_ZN4_STL4endlIcNS_11char_traitsIcEEEERNS_13basic_ostreamIT_T0_EES7_, %function
_ZN4_STL4endlIcNS_11char_traitsIcEEEERNS_13basic_ostreamIT_T0_EES7_:
.LFB3509:
	.loc 19 332 0
	.cfi_startproc
	@ args = 0, pretend = 0, frame = 8
	@ frame_needed = 0, uses_anonymous_args = 0
	str	lr, [sp, #-4]!
.LCFI88:
	.cfi_def_cfa_offset 4
	sub	sp, sp, #12
.LCFI89:
	.cfi_def_cfa_offset 16
	str	r0, [sp, #4]
	.loc 19 333 0
	ldr	r2, [sp, #4]
	ldr	r3, [sp, #4]
	ldr	r3, [r3, #0]
	sub	r3, r3, #12
	ldr	r3, [r3, #0]
	add	r3, r2, r3
	mov	r0, r3
	mov	r1, #10
	.cfi_offset 14, -4
	bl	_ZNK4_STL9basic_iosIcNS_11char_traitsIcEEE5widenEc
	mov	r3, r0
	ldr	r0, [sp, #4]
	mov	r1, r3
	bl	_ZN4_STL13basic_ostreamIcNS_11char_traitsIcEEE3putEc
	.loc 19 334 0
	ldr	r0, [sp, #4]
	bl	_ZN4_STL13basic_ostreamIcNS_11char_traitsIcEEE5flushEv
	.loc 19 335 0
	ldr	r3, [sp, #4]
	.loc 19 336 0
	mov	r0, r3
	add	sp, sp, #12
	ldmfd	sp!, {pc}
	.cfi_endproc
.LFE3509:
	.size	_ZN4_STL4endlIcNS_11char_traitsIcEEEERNS_13basic_ostreamIT_T0_EES7_, .-_ZN4_STL4endlIcNS_11char_traitsIcEEEERNS_13basic_ostreamIT_T0_EES7_
	.section	.text._ZN4_STL13basic_ostreamIcNS_11char_traitsIcEEElsEPFRS3_S4_E,"axG",%progbits,_ZN4_STL13basic_ostreamIcNS_11char_traitsIcEEElsEPFRS3_S4_E,comdat
	.align	2
	.weak	_ZN4_STL13basic_ostreamIcNS_11char_traitsIcEEElsEPFRS3_S4_E
	.hidden	_ZN4_STL13basic_ostreamIcNS_11char_traitsIcEEElsEPFRS3_S4_E
	.type	_ZN4_STL13basic_ostreamIcNS_11char_traitsIcEEElsEPFRS3_S4_E, %function
_ZN4_STL13basic_ostreamIcNS_11char_traitsIcEEElsEPFRS3_S4_E:
.LFB3510:
	.loc 19 78 0
	.cfi_startproc
	@ args = 0, pretend = 0, frame = 8
	@ frame_needed = 0, uses_anonymous_args = 0
	str	lr, [sp, #-4]!
.LCFI90:
	.cfi_def_cfa_offset 4
	sub	sp, sp, #12
.LCFI91:
	.cfi_def_cfa_offset 16
	str	r0, [sp, #4]
	str	r1, [sp, #0]
	.loc 19 78 0
	ldr	r3, [sp, #0]
	ldr	r0, [sp, #4]
	.cfi_offset 14, -4
	blx	r3
	mov	r3, r0
	mov	r0, r3
	add	sp, sp, #12
	ldmfd	sp!, {pc}
	.cfi_endproc
.LFE3510:
	.size	_ZN4_STL13basic_ostreamIcNS_11char_traitsIcEEElsEPFRS3_S4_E, .-_ZN4_STL13basic_ostreamIcNS_11char_traitsIcEEElsEPFRS3_S4_E
	.section	.text._ZN8CIwArrayIi12CIwAllocatorIi15CIwMallocRouterIiEE17ReallocateDefaultIiS3_EE6appendERKi,"axG",%progbits,_ZN8CIwArrayIi12CIwAllocatorIi15CIwMallocRouterIiEE17ReallocateDefaultIiS3_EE6appendERKi,comdat
	.align	2
	.weak	_ZN8CIwArrayIi12CIwAllocatorIi15CIwMallocRouterIiEE17ReallocateDefaultIiS3_EE6appendERKi
	.hidden	_ZN8CIwArrayIi12CIwAllocatorIi15CIwMallocRouterIiEE17ReallocateDefaultIiS3_EE6appendERKi
	.type	_ZN8CIwArrayIi12CIwAllocatorIi15CIwMallocRouterIiEE17ReallocateDefaultIiS3_EE6appendERKi, %function
_ZN8CIwArrayIi12CIwAllocatorIi15CIwMallocRouterIiEE17ReallocateDefaultIiS3_EE6appendERKi:
.LFB3511:
	.loc 16 594 0
	.cfi_startproc
	@ args = 0, pretend = 0, frame = 8
	@ frame_needed = 0, uses_anonymous_args = 0
	str	lr, [sp, #-4]!
.LCFI92:
	.cfi_def_cfa_offset 4
	sub	sp, sp, #12
.LCFI93:
	.cfi_def_cfa_offset 16
	str	r0, [sp, #4]
	str	r1, [sp, #0]
	.loc 16 594 0
	ldr	r0, [sp, #4]
	ldr	r1, [sp, #0]
	.cfi_offset 14, -4
	bl	_ZN8CIwArrayIi12CIwAllocatorIi15CIwMallocRouterIiEE17ReallocateDefaultIiS3_EE9push_backERKi
	mov	r3, r0
	mov	r0, r3
	add	sp, sp, #12
	ldmfd	sp!, {pc}
	.cfi_endproc
.LFE3511:
	.size	_ZN8CIwArrayIi12CIwAllocatorIi15CIwMallocRouterIiEE17ReallocateDefaultIiS3_EE6appendERKi, .-_ZN8CIwArrayIi12CIwAllocatorIi15CIwMallocRouterIiEE17ReallocateDefaultIiS3_EE6appendERKi
	.section	.text._ZN4_STL6vectorI8ObstacleNS_9allocatorIS1_EEEC1ERKS4_,"axG",%progbits,_ZN4_STL6vectorI8ObstacleNS_9allocatorIS1_EEEC1ERKS4_,comdat
	.align	2
	.weak	_ZN4_STL6vectorI8ObstacleNS_9allocatorIS1_EEEC1ERKS4_
	.hidden	_ZN4_STL6vectorI8ObstacleNS_9allocatorIS1_EEEC1ERKS4_
	.type	_ZN4_STL6vectorI8ObstacleNS_9allocatorIS1_EEEC1ERKS4_, %function
_ZN4_STL6vectorI8ObstacleNS_9allocatorIS1_EEEC1ERKS4_:
.LFB3514:
	.loc 18 212 0
	.cfi_startproc
	@ args = 0, pretend = 0, frame = 16
	@ frame_needed = 0, uses_anonymous_args = 0
	stmfd	sp!, {r4, r5, lr}
.LCFI94:
	.cfi_def_cfa_offset 12
	sub	sp, sp, #20
.LCFI95:
	.cfi_def_cfa_offset 32
	str	r0, [sp, #4]
	str	r1, [sp, #0]
	.loc 18 213 0
	ldr	r5, [sp, #4]
	.cfi_offset 14, -4
	.cfi_offset 5, -8
	.cfi_offset 4, -12
	ldr	r0, [sp, #0]
	bl	_ZNK4_STL6vectorI8ObstacleNS_9allocatorIS1_EEE4sizeEv
	mov	r4, r0
	add	r3, sp, #8
	mov	r0, r3
	ldr	r1, [sp, #0]
	bl	_ZNK4_STL6vectorI8ObstacleNS_9allocatorIS1_EEE13get_allocatorEv
	add	r3, sp, #8
	mov	r0, r5
	mov	r1, r4
	mov	r2, r3
	bl	_ZN4_STL12_Vector_baseI8ObstacleNS_9allocatorIS1_EEEC2EjRKS3_
	add	r3, sp, #8
	mov	r0, r3
	bl	_ZN4_STL9allocatorI8ObstacleED1Ev
	.loc 18 214 0
	ldr	r3, [sp, #0]
	ldr	r0, [r3, #0]
	ldr	r3, [sp, #0]
	ldr	r1, [r3, #4]
	ldr	r3, [sp, #4]
	ldr	r2, [r3, #0]
	add	r3, sp, #12
	bl	_ZN4_STL20__uninitialized_copyIPK8ObstaclePS1_EET0_T_S6_S5_RKNS_12__false_typeE
	mov	r2, r0
	ldr	r3, [sp, #4]
	str	r2, [r3, #4]
	ldr	r3, [sp, #4]
	.loc 18 216 0
	mov	r0, r3
	add	sp, sp, #20
	ldmfd	sp!, {r4, r5, pc}
	.cfi_endproc
.LFE3514:
	.size	_ZN4_STL6vectorI8ObstacleNS_9allocatorIS1_EEEC1ERKS4_, .-_ZN4_STL6vectorI8ObstacleNS_9allocatorIS1_EEEC1ERKS4_
	.section	.text._ZN8CIwArrayI12TileObstacle12CIwAllocatorIS0_15CIwMallocRouterIS0_EE17ReallocateDefaultIS0_S4_EE6appendERKS0_,"axG",%progbits,_ZN8CIwArrayI12TileObstacle12CIwAllocatorIS0_15CIwMallocRouterIS0_EE17ReallocateDefaultIS0_S4_EE6appendERKS0_,comdat
	.align	2
	.weak	_ZN8CIwArrayI12TileObstacle12CIwAllocatorIS0_15CIwMallocRouterIS0_EE17ReallocateDefaultIS0_S4_EE6appendERKS0_
	.hidden	_ZN8CIwArrayI12TileObstacle12CIwAllocatorIS0_15CIwMallocRouterIS0_EE17ReallocateDefaultIS0_S4_EE6appendERKS0_
	.type	_ZN8CIwArrayI12TileObstacle12CIwAllocatorIS0_15CIwMallocRouterIS0_EE17ReallocateDefaultIS0_S4_EE6appendERKS0_, %function
_ZN8CIwArrayI12TileObstacle12CIwAllocatorIS0_15CIwMallocRouterIS0_EE17ReallocateDefaultIS0_S4_EE6appendERKS0_:
.LFB3515:
	.loc 16 594 0
	.cfi_startproc
	@ args = 0, pretend = 0, frame = 8
	@ frame_needed = 0, uses_anonymous_args = 0
	str	lr, [sp, #-4]!
.LCFI96:
	.cfi_def_cfa_offset 4
	sub	sp, sp, #12
.LCFI97:
	.cfi_def_cfa_offset 16
	str	r0, [sp, #4]
	str	r1, [sp, #0]
	.loc 16 594 0
	ldr	r0, [sp, #4]
	ldr	r1, [sp, #0]
	.cfi_offset 14, -4
	bl	_ZN8CIwArrayI12TileObstacle12CIwAllocatorIS0_15CIwMallocRouterIS0_EE17ReallocateDefaultIS0_S4_EE9push_backERKS0_
	mov	r3, r0
	mov	r0, r3
	add	sp, sp, #12
	ldmfd	sp!, {pc}
	.cfi_endproc
.LFE3515:
	.size	_ZN8CIwArrayI12TileObstacle12CIwAllocatorIS0_15CIwMallocRouterIS0_EE17ReallocateDefaultIS0_S4_EE6appendERKS0_, .-_ZN8CIwArrayI12TileObstacle12CIwAllocatorIS0_15CIwMallocRouterIS0_EE17ReallocateDefaultIS0_S4_EE6appendERKS0_
	.section	.text._ZNK8CIwArrayIi12CIwAllocatorIi15CIwMallocRouterIiEE17ReallocateDefaultIiS3_EE4sizeEv,"axG",%progbits,_ZNK8CIwArrayIi12CIwAllocatorIi15CIwMallocRouterIiEE17ReallocateDefaultIiS3_EE4sizeEv,comdat
	.align	2
	.weak	_ZNK8CIwArrayIi12CIwAllocatorIi15CIwMallocRouterIiEE17ReallocateDefaultIiS3_EE4sizeEv
	.hidden	_ZNK8CIwArrayIi12CIwAllocatorIi15CIwMallocRouterIiEE17ReallocateDefaultIiS3_EE4sizeEv
	.type	_ZNK8CIwArrayIi12CIwAllocatorIi15CIwMallocRouterIiEE17ReallocateDefaultIiS3_EE4sizeEv, %function
_ZNK8CIwArrayIi12CIwAllocatorIi15CIwMallocRouterIiEE17ReallocateDefaultIiS3_EE4sizeEv:
.LFB3516:
	.loc 16 113 0
	.cfi_startproc
	@ args = 0, pretend = 0, frame = 8
	@ frame_needed = 0, uses_anonymous_args = 0
	@ link register save eliminated.
	sub	sp, sp, #8
.LCFI98:
	.cfi_def_cfa_offset 8
	str	r0, [sp, #4]
	.loc 16 113 0
	ldr	r3, [sp, #4]
	ldr	r3, [r3, #4]
	mov	r0, r3
	add	sp, sp, #8
	bx	lr
	.cfi_endproc
.LFE3516:
	.size	_ZNK8CIwArrayIi12CIwAllocatorIi15CIwMallocRouterIiEE17ReallocateDefaultIiS3_EE4sizeEv, .-_ZNK8CIwArrayIi12CIwAllocatorIi15CIwMallocRouterIiEE17ReallocateDefaultIiS3_EE4sizeEv
	.section	.rodata
	.align	2
.LC10:
	.ascii	"CORE\000"
	.align	2
.LC11:
	.ascii	"invalid index (%d) into array of size %u\000"
	.align	2
.LC12:
	.ascii	"i>=0 && index<num_p\000"
	.align	2
.LC13:
	.ascii	"c:/marmalade/6.2/modules/iwutil/h/IwArray.h\000"
	.section	.text._ZNK8CIwArrayIi12CIwAllocatorIi15CIwMallocRouterIiEE17ReallocateDefaultIiS3_EEixEi,"axG",%progbits,_ZNK8CIwArrayIi12CIwAllocatorIi15CIwMallocRouterIiEE17ReallocateDefaultIiS3_EEixEi,comdat
	.align	2
	.weak	_ZNK8CIwArrayIi12CIwAllocatorIi15CIwMallocRouterIiEE17ReallocateDefaultIiS3_EEixEi
	.hidden	_ZNK8CIwArrayIi12CIwAllocatorIi15CIwMallocRouterIiEE17ReallocateDefaultIiS3_EEixEi
	.type	_ZNK8CIwArrayIi12CIwAllocatorIi15CIwMallocRouterIiEE17ReallocateDefaultIiS3_EEixEi, %function
_ZNK8CIwArrayIi12CIwAllocatorIi15CIwMallocRouterIiEE17ReallocateDefaultIiS3_EEixEi:
.LFB3517:
	.loc 16 694 0
	.cfi_startproc
	@ args = 0, pretend = 0, frame = 16
	@ frame_needed = 0, uses_anonymous_args = 0
	str	lr, [sp, #-4]!
.LCFI99:
	.cfi_def_cfa_offset 4
	sub	sp, sp, #20
.LCFI100:
	.cfi_def_cfa_offset 24
	str	r0, [sp, #4]
	str	r1, [sp, #0]
.LBB29:
	.loc 16 696 0
	ldr	r3, [sp, #0]
	str	r3, [sp, #12]
.LBB30:
	.loc 16 697 0
	ldr	r3, [sp, #0]
	cmp	r3, #0
	blt	.L238
	.cfi_offset 14, -4
	ldr	r3, [sp, #4]
	ldr	r2, [r3, #4]
	ldr	r3, [sp, #12]
	cmp	r2, r3
	bhi	.L239
.L238:
	ldr	r0, .L250
	bl	IwDebugAssertIsChannelOn
	mov	r3, r0
	cmp	r3, #0
	beq	.L239
	ldr	r3, .L250+4
	ldrb	r3, [r3, #0]	@ zero_extendqisi2
	cmp	r3, #0
	bne	.L239
	mov	r3, #1
	b	.L240
.L239:
	mov	r3, #0
.L240:
	cmp	r3, #0
	beq	.L241
	mov	r0, #0
	bl	IwDebugAssertSetSolution
	ldr	r0, .L250+8
	bl	IwDebugAssertSetUID
	ldr	r3, [sp, #4]
	ldr	r3, [r3, #4]
	ldr	r0, .L250+12
	ldr	r1, [sp, #0]
	mov	r2, r3
	bl	IwDebugAssertSetMessage
	ldr	r0, .L250+16
	ldr	r1, .L250+20
	ldr	r2, .L250+24
	mov	r3, #1
	bl	IwDebugAssertShow
	mov	r3, r0
	cmp	r3, #1
	beq	.L243
	cmp	r3, #2
	beq	.L244
	b	.L242
.L243:
	bl	s3eDebugIsDebuggerPresent
	mov	r3, r0
	cmp	r3, #0
	moveq	r3, #0
	movne	r3, #1
	and	r3, r3, #255
	cmp	r3, #0
	beq	.L245
	bl	s3eDebugIsDebuggerPresent
	mov	r3, r0
	cmp	r3, #0
	moveq	r3, #0
	movne	r3, #1
	and	r3, r3, #255
	cmp	r3, #0
	beq	.L249
	mvn	r3, #11
	mov	r2, #0
	str	r2, [r3, #0]
	b	.L242
.L245:
	bl	_ZL11IwDebugExitv
	b	.L242
.L244:
	ldr	r3, .L250+4
	mov	r2, #1
	strb	r2, [r3, #0]
	b	.L242
.L249:
	mov	r0, r0	@ nop
.L242:
	mov	r0, #0
	bl	IwDebugAssertSetUID
.L241:
.LBE30:
	.loc 16 698 0
	ldr	r3, [sp, #4]
	ldr	r2, [r3, #0]
	ldr	r3, [sp, #12]
	mov	r3, r3, asl #2
	add	r3, r2, r3
.LBE29:
	.loc 16 699 0
	mov	r0, r3
	add	sp, sp, #20
	ldmfd	sp!, {pc}
.L251:
	.align	2
.L250:
	.word	.LC10
	.word	_ZZNK8CIwArrayIi12CIwAllocatorIi15CIwMallocRouterIiEE17ReallocateDefaultIiS3_EEixEiE21_s_IwAssertIgnoreThis
	.word	1731
	.word	.LC11
	.word	.LC12
	.word	.LC13
	.word	697
	.cfi_endproc
.LFE3517:
	.size	_ZNK8CIwArrayIi12CIwAllocatorIi15CIwMallocRouterIiEE17ReallocateDefaultIiS3_EEixEi, .-_ZNK8CIwArrayIi12CIwAllocatorIi15CIwMallocRouterIiEE17ReallocateDefaultIiS3_EEixEi
	.section	.text._ZN4_STL13basic_ostreamIcNS_11char_traitsIcEEElsEi,"axG",%progbits,_ZN4_STL13basic_ostreamIcNS_11char_traitsIcEEElsEi,comdat
	.align	2
	.weak	_ZN4_STL13basic_ostreamIcNS_11char_traitsIcEEElsEi
	.hidden	_ZN4_STL13basic_ostreamIcNS_11char_traitsIcEEElsEi
	.type	_ZN4_STL13basic_ostreamIcNS_11char_traitsIcEEElsEi, %function
_ZN4_STL13basic_ostreamIcNS_11char_traitsIcEEElsEi:
.LFB3518:
	.loc 19 108 0
	.cfi_startproc
	@ args = 0, pretend = 0, frame = 8
	@ frame_needed = 0, uses_anonymous_args = 0
	str	lr, [sp, #-4]!
.LCFI101:
	.cfi_def_cfa_offset 4
	sub	sp, sp, #12
.LCFI102:
	.cfi_def_cfa_offset 16
	str	r0, [sp, #4]
	str	r1, [sp, #0]
	.loc 19 108 0
	ldr	r0, [sp, #4]
	ldr	r1, [sp, #0]
	.cfi_offset 14, -4
	bl	_ZN4_STL10_M_put_numIcNS_11char_traitsIcEElEERNS_13basic_ostreamIT_T0_EES7_T1_
	mov	r3, r0
	mov	r0, r3
	add	sp, sp, #12
	ldmfd	sp!, {pc}
	.cfi_endproc
.LFE3518:
	.size	_ZN4_STL13basic_ostreamIcNS_11char_traitsIcEEElsEi, .-_ZN4_STL13basic_ostreamIcNS_11char_traitsIcEEElsEi
	.section	.text._ZNK8CIwArrayI12TileObstacle12CIwAllocatorIS0_15CIwMallocRouterIS0_EE17ReallocateDefaultIS0_S4_EEixEi,"axG",%progbits,_ZNK8CIwArrayI12TileObstacle12CIwAllocatorIS0_15CIwMallocRouterIS0_EE17ReallocateDefaultIS0_S4_EEixEi,comdat
	.align	2
	.weak	_ZNK8CIwArrayI12TileObstacle12CIwAllocatorIS0_15CIwMallocRouterIS0_EE17ReallocateDefaultIS0_S4_EEixEi
	.hidden	_ZNK8CIwArrayI12TileObstacle12CIwAllocatorIS0_15CIwMallocRouterIS0_EE17ReallocateDefaultIS0_S4_EEixEi
	.type	_ZNK8CIwArrayI12TileObstacle12CIwAllocatorIS0_15CIwMallocRouterIS0_EE17ReallocateDefaultIS0_S4_EEixEi, %function
_ZNK8CIwArrayI12TileObstacle12CIwAllocatorIS0_15CIwMallocRouterIS0_EE17ReallocateDefaultIS0_S4_EEixEi:
.LFB3519:
	.loc 16 694 0
	.cfi_startproc
	@ args = 0, pretend = 0, frame = 16
	@ frame_needed = 0, uses_anonymous_args = 0
	str	lr, [sp, #-4]!
.LCFI103:
	.cfi_def_cfa_offset 4
	sub	sp, sp, #20
.LCFI104:
	.cfi_def_cfa_offset 24
	str	r0, [sp, #4]
	str	r1, [sp, #0]
.LBB31:
	.loc 16 696 0
	ldr	r3, [sp, #0]
	str	r3, [sp, #12]
.LBB32:
	.loc 16 697 0
	ldr	r3, [sp, #0]
	cmp	r3, #0
	blt	.L255
	.cfi_offset 14, -4
	ldr	r3, [sp, #4]
	ldr	r2, [r3, #4]
	ldr	r3, [sp, #12]
	cmp	r2, r3
	bhi	.L256
.L255:
	ldr	r0, .L267
	bl	IwDebugAssertIsChannelOn
	mov	r3, r0
	cmp	r3, #0
	beq	.L256
	ldr	r3, .L267+4
	ldrb	r3, [r3, #0]	@ zero_extendqisi2
	cmp	r3, #0
	bne	.L256
	mov	r3, #1
	b	.L257
.L256:
	mov	r3, #0
.L257:
	cmp	r3, #0
	beq	.L258
	mov	r0, #0
	bl	IwDebugAssertSetSolution
	ldr	r0, .L267+8
	bl	IwDebugAssertSetUID
	ldr	r3, [sp, #4]
	ldr	r3, [r3, #4]
	ldr	r0, .L267+12
	ldr	r1, [sp, #0]
	mov	r2, r3
	bl	IwDebugAssertSetMessage
	ldr	r0, .L267+16
	ldr	r1, .L267+20
	ldr	r2, .L267+24
	mov	r3, #1
	bl	IwDebugAssertShow
	mov	r3, r0
	cmp	r3, #1
	beq	.L260
	cmp	r3, #2
	beq	.L261
	b	.L259
.L260:
	bl	s3eDebugIsDebuggerPresent
	mov	r3, r0
	cmp	r3, #0
	moveq	r3, #0
	movne	r3, #1
	and	r3, r3, #255
	cmp	r3, #0
	beq	.L262
	bl	s3eDebugIsDebuggerPresent
	mov	r3, r0
	cmp	r3, #0
	moveq	r3, #0
	movne	r3, #1
	and	r3, r3, #255
	cmp	r3, #0
	beq	.L266
	mvn	r3, #11
	mov	r2, #0
	str	r2, [r3, #0]
	b	.L259
.L262:
	bl	_ZL11IwDebugExitv
	b	.L259
.L261:
	ldr	r3, .L267+4
	mov	r2, #1
	strb	r2, [r3, #0]
	b	.L259
.L266:
	mov	r0, r0	@ nop
.L259:
	mov	r0, #0
	bl	IwDebugAssertSetUID
.L258:
.LBE32:
	.loc 16 698 0
	ldr	r3, [sp, #4]
	ldr	r2, [r3, #0]
	ldr	r3, [sp, #12]
	mov	r1, #44
	mul	r3, r1, r3
	add	r3, r2, r3
.LBE31:
	.loc 16 699 0
	mov	r0, r3
	add	sp, sp, #20
	ldmfd	sp!, {pc}
.L268:
	.align	2
.L267:
	.word	.LC10
	.word	_ZZNK8CIwArrayI12TileObstacle12CIwAllocatorIS0_15CIwMallocRouterIS0_EE17ReallocateDefaultIS0_S4_EEixEiE21_s_IwAssertIgnoreThis
	.word	1731
	.word	.LC11
	.word	.LC12
	.word	.LC13
	.word	697
	.cfi_endproc
.LFE3519:
	.size	_ZNK8CIwArrayI12TileObstacle12CIwAllocatorIS0_15CIwMallocRouterIS0_EE17ReallocateDefaultIS0_S4_EEixEi, .-_ZNK8CIwArrayI12TileObstacle12CIwAllocatorIS0_15CIwMallocRouterIS0_EE17ReallocateDefaultIS0_S4_EEixEi
	.section	.text._ZN12CIwAllocatorIi15CIwMallocRouterIiEE10deallocateEPij,"axG",%progbits,_ZN12CIwAllocatorIi15CIwMallocRouterIiEE10deallocateEPij,comdat
	.align	2
	.weak	_ZN12CIwAllocatorIi15CIwMallocRouterIiEE10deallocateEPij
	.hidden	_ZN12CIwAllocatorIi15CIwMallocRouterIiEE10deallocateEPij
	.type	_ZN12CIwAllocatorIi15CIwMallocRouterIiEE10deallocateEPij, %function
_ZN12CIwAllocatorIi15CIwMallocRouterIiEE10deallocateEPij:
.LFB3550:
	.file 20 "c:/marmalade/6.2/modules/iwutil/h/IwAllocator.h"
	.loc 20 147 0
	.cfi_startproc
	@ args = 0, pretend = 0, frame = 16
	@ frame_needed = 0, uses_anonymous_args = 0
	str	lr, [sp, #-4]!
.LCFI105:
	.cfi_def_cfa_offset 4
	sub	sp, sp, #20
.LCFI106:
	.cfi_def_cfa_offset 24
	str	r0, [sp, #12]
	str	r1, [sp, #8]
	str	r2, [sp, #4]
	.loc 20 147 0
	ldr	r0, [sp, #8]
	.cfi_offset 14, -4
	bl	_ZN15CIwMallocRouterIiE6DoFreeEPv
	add	sp, sp, #20
	ldmfd	sp!, {pc}
	.cfi_endproc
.LFE3550:
	.size	_ZN12CIwAllocatorIi15CIwMallocRouterIiEE10deallocateEPij, .-_ZN12CIwAllocatorIi15CIwMallocRouterIiEE10deallocateEPij
	.section	.text._ZN4_STL17_STLP_alloc_proxyIP8ObstacleS1_NS_9allocatorIS1_EEED1Ev,"axG",%progbits,_ZN4_STL17_STLP_alloc_proxyIP8ObstacleS1_NS_9allocatorIS1_EEED1Ev,comdat
	.align	2
	.weak	_ZN4_STL17_STLP_alloc_proxyIP8ObstacleS1_NS_9allocatorIS1_EEED1Ev
	.hidden	_ZN4_STL17_STLP_alloc_proxyIP8ObstacleS1_NS_9allocatorIS1_EEED1Ev
	.type	_ZN4_STL17_STLP_alloc_proxyIP8ObstacleS1_NS_9allocatorIS1_EEED1Ev, %function
_ZN4_STL17_STLP_alloc_proxyIP8ObstacleS1_NS_9allocatorIS1_EEED1Ev:
.LFB3556:
	.loc 17 481 0
	.cfi_startproc
	@ args = 0, pretend = 0, frame = 8
	@ frame_needed = 0, uses_anonymous_args = 0
	str	lr, [sp, #-4]!
.LCFI107:
	.cfi_def_cfa_offset 4
	sub	sp, sp, #12
.LCFI108:
	.cfi_def_cfa_offset 16
	str	r0, [sp, #4]
	.loc 17 481 0
	ldr	r3, [sp, #4]
	mov	r0, r3
	.cfi_offset 14, -4
	bl	_ZN4_STL9allocatorI8ObstacleED2Ev
	ldr	r3, [sp, #4]
	mov	r0, r3
	add	sp, sp, #12
	ldmfd	sp!, {pc}
	.cfi_endproc
.LFE3556:
	.size	_ZN4_STL17_STLP_alloc_proxyIP8ObstacleS1_NS_9allocatorIS1_EEED1Ev, .-_ZN4_STL17_STLP_alloc_proxyIP8ObstacleS1_NS_9allocatorIS1_EEED1Ev
	.section	.text._ZN4_STL12_Vector_baseI8ObstacleNS_9allocatorIS1_EEEC2ERKS3_,"axG",%progbits,_ZN4_STL12_Vector_baseI8ObstacleNS_9allocatorIS1_EEEC2ERKS3_,comdat
	.align	2
	.weak	_ZN4_STL12_Vector_baseI8ObstacleNS_9allocatorIS1_EEEC2ERKS3_
	.hidden	_ZN4_STL12_Vector_baseI8ObstacleNS_9allocatorIS1_EEEC2ERKS3_
	.type	_ZN4_STL12_Vector_baseI8ObstacleNS_9allocatorIS1_EEEC2ERKS3_, %function
_ZN4_STL12_Vector_baseI8ObstacleNS_9allocatorIS1_EEEC2ERKS3_:
.LFB3557:
	.loc 18 71 0
	.cfi_startproc
	@ args = 0, pretend = 0, frame = 8
	@ frame_needed = 0, uses_anonymous_args = 0
	str	lr, [sp, #-4]!
.LCFI109:
	.cfi_def_cfa_offset 4
	sub	sp, sp, #12
.LCFI110:
	.cfi_def_cfa_offset 16
	str	r0, [sp, #4]
	str	r1, [sp, #0]
	.loc 18 72 0
	ldr	r3, [sp, #4]
	mov	r2, #0
	str	r2, [r3, #0]
	ldr	r3, [sp, #4]
	mov	r2, #0
	str	r2, [r3, #4]
	ldr	r3, [sp, #4]
	add	r3, r3, #8
	mov	r0, r3
	ldr	r1, [sp, #0]
	mov	r2, #0
	.cfi_offset 14, -4
	bl	_ZN4_STL17_STLP_alloc_proxyIP8ObstacleS1_NS_9allocatorIS1_EEEC1ERKS4_S2_
	ldr	r3, [sp, #4]
	.loc 18 73 0
	mov	r0, r3
	add	sp, sp, #12
	ldmfd	sp!, {pc}
	.cfi_endproc
.LFE3557:
	.size	_ZN4_STL12_Vector_baseI8ObstacleNS_9allocatorIS1_EEEC2ERKS3_, .-_ZN4_STL12_Vector_baseI8ObstacleNS_9allocatorIS1_EEEC2ERKS3_
	.section	.text._ZN4_STL12_Vector_baseI8ObstacleNS_9allocatorIS1_EEED2Ev,"axG",%progbits,_ZN4_STL12_Vector_baseI8ObstacleNS_9allocatorIS1_EEED2Ev,comdat
	.align	2
	.weak	_ZN4_STL12_Vector_baseI8ObstacleNS_9allocatorIS1_EEED2Ev
	.hidden	_ZN4_STL12_Vector_baseI8ObstacleNS_9allocatorIS1_EEED2Ev
	.type	_ZN4_STL12_Vector_baseI8ObstacleNS_9allocatorIS1_EEED2Ev, %function
_ZN4_STL12_Vector_baseI8ObstacleNS_9allocatorIS1_EEED2Ev:
.LFB3560:
	.loc 18 83 0
	.cfi_startproc
	@ args = 0, pretend = 0, frame = 8
	@ frame_needed = 0, uses_anonymous_args = 0
	str	lr, [sp, #-4]!
.LCFI111:
	.cfi_def_cfa_offset 4
	sub	sp, sp, #12
.LCFI112:
	.cfi_def_cfa_offset 16
	str	r0, [sp, #4]
	.loc 18 84 0
	ldr	r3, [sp, #4]
	ldr	r3, [r3, #0]
	cmp	r3, #0
	beq	.L278
	.cfi_offset 14, -4
	.loc 18 85 0
	ldr	r3, [sp, #4]
	add	r3, r3, #8
	mov	r1, r3
	ldr	r3, [sp, #4]
	ldr	r2, [r3, #0]
	ldr	r3, [sp, #4]
	ldr	r3, [r3, #8]
	mov	r0, r3
	ldr	r3, [sp, #4]
	ldr	r3, [r3, #0]
	rsb	r3, r3, r0
	mov	r3, r3, asr #4
	mov	r0, r1
	mov	r1, r2
	mov	r2, r3
	bl	_ZN4_STL9allocatorI8ObstacleE10deallocateEPS1_j
.L278:
	ldr	r3, [sp, #4]
	add	r3, r3, #8
	mov	r0, r3
	bl	_ZN4_STL17_STLP_alloc_proxyIP8ObstacleS1_NS_9allocatorIS1_EEED1Ev
	ldr	r3, [sp, #4]
	.loc 18 86 0
	mov	r0, r3
	add	sp, sp, #12
	ldmfd	sp!, {pc}
	.cfi_endproc
.LFE3560:
	.size	_ZN4_STL12_Vector_baseI8ObstacleNS_9allocatorIS1_EEED2Ev, .-_ZN4_STL12_Vector_baseI8ObstacleNS_9allocatorIS1_EEED2Ev
	.section	.text._ZN4_STL8_DestroyIP8ObstacleEEvT_S3_,"axG",%progbits,_ZN4_STL8_DestroyIP8ObstacleEEvT_S3_,comdat
	.align	2
	.weak	_ZN4_STL8_DestroyIP8ObstacleEEvT_S3_
	.hidden	_ZN4_STL8_DestroyIP8ObstacleEEvT_S3_
	.type	_ZN4_STL8_DestroyIP8ObstacleEEvT_S3_, %function
_ZN4_STL8_DestroyIP8ObstacleEEvT_S3_:
.LFB3562:
	.file 21 "c:/marmalade/6.2/s3e/h/std/c++/stl/_construct.h"
	.loc 21 138 0
	.cfi_startproc
	@ args = 0, pretend = 0, frame = 8
	@ frame_needed = 0, uses_anonymous_args = 0
	str	lr, [sp, #-4]!
.LCFI113:
	.cfi_def_cfa_offset 4
	sub	sp, sp, #12
.LCFI114:
	.cfi_def_cfa_offset 16
	str	r0, [sp, #4]
	str	r1, [sp, #0]
	.loc 21 139 0
	ldr	r0, [sp, #4]
	ldr	r1, [sp, #0]
	mov	r2, #0
	.cfi_offset 14, -4
	bl	_ZN4_STL9__destroyIP8ObstacleS1_EEvT_S3_PT0_
	.loc 21 140 0
	add	sp, sp, #12
	ldmfd	sp!, {pc}
	.cfi_endproc
.LFE3562:
	.size	_ZN4_STL8_DestroyIP8ObstacleEEvT_S3_, .-_ZN4_STL8_DestroyIP8ObstacleEEvT_S3_
	.section	.text._ZN8CIwArrayIi12CIwAllocatorIi15CIwMallocRouterIiEE17ReallocateDefaultIiS3_EE6resizeEj,"axG",%progbits,_ZN8CIwArrayIi12CIwAllocatorIi15CIwMallocRouterIiEE17ReallocateDefaultIiS3_EE6resizeEj,comdat
	.align	2
	.weak	_ZN8CIwArrayIi12CIwAllocatorIi15CIwMallocRouterIiEE17ReallocateDefaultIiS3_EE6resizeEj
	.hidden	_ZN8CIwArrayIi12CIwAllocatorIi15CIwMallocRouterIiEE17ReallocateDefaultIiS3_EE6resizeEj
	.type	_ZN8CIwArrayIi12CIwAllocatorIi15CIwMallocRouterIiEE17ReallocateDefaultIiS3_EE6resizeEj, %function
_ZN8CIwArrayIi12CIwAllocatorIi15CIwMallocRouterIiEE17ReallocateDefaultIiS3_EE6resizeEj:
.LFB3563:
	.loc 16 292 0
	.cfi_startproc
	@ args = 0, pretend = 0, frame = 8
	@ frame_needed = 0, uses_anonymous_args = 0
	str	lr, [sp, #-4]!
.LCFI115:
	.cfi_def_cfa_offset 4
	sub	sp, sp, #12
.LCFI116:
	.cfi_def_cfa_offset 16
	str	r0, [sp, #4]
	str	r1, [sp, #0]
	.loc 16 294 0
	ldr	r3, [sp, #4]
	ldr	r2, [r3, #4]
	ldr	r3, [sp, #0]
	cmp	r2, r3
	bcc	.L284
	.cfi_offset 14, -4
	.loc 16 295 0
	ldr	r0, [sp, #4]
	ldr	r1, [sp, #0]
	bl	_ZN8CIwArrayIi12CIwAllocatorIi15CIwMallocRouterIiEE17ReallocateDefaultIiS3_EE8truncateEj
	b	.L286
.L284:
	.loc 16 297 0
	ldr	r3, [sp, #4]
	ldr	r3, [r3, #4]
	ldr	r2, [sp, #0]
	rsb	r3, r3, r2
	ldr	r0, [sp, #4]
	mov	r1, r3
	bl	_ZN8CIwArrayIi12CIwAllocatorIi15CIwMallocRouterIiEE17ReallocateDefaultIiS3_EE13push_back_qtyEi
.L286:
	.loc 16 298 0
	add	sp, sp, #12
	ldmfd	sp!, {pc}
	.cfi_endproc
.LFE3563:
	.size	_ZN8CIwArrayIi12CIwAllocatorIi15CIwMallocRouterIiEE17ReallocateDefaultIiS3_EE6resizeEj, .-_ZN8CIwArrayIi12CIwAllocatorIi15CIwMallocRouterIiEE17ReallocateDefaultIiS3_EE6resizeEj
	.section	.text._ZN8CIwArrayIi12CIwAllocatorIi15CIwMallocRouterIiEE17ReallocateDefaultIiS3_EE5clearEv,"axG",%progbits,_ZN8CIwArrayIi12CIwAllocatorIi15CIwMallocRouterIiEE17ReallocateDefaultIiS3_EE5clearEv,comdat
	.align	2
	.weak	_ZN8CIwArrayIi12CIwAllocatorIi15CIwMallocRouterIiEE17ReallocateDefaultIiS3_EE5clearEv
	.hidden	_ZN8CIwArrayIi12CIwAllocatorIi15CIwMallocRouterIiEE17ReallocateDefaultIiS3_EE5clearEv
	.type	_ZN8CIwArrayIi12CIwAllocatorIi15CIwMallocRouterIiEE17ReallocateDefaultIiS3_EE5clearEv, %function
_ZN8CIwArrayIi12CIwAllocatorIi15CIwMallocRouterIiEE17ReallocateDefaultIiS3_EE5clearEv:
.LFB3564:
	.loc 16 199 0
	.cfi_startproc
	@ args = 0, pretend = 0, frame = 8
	@ frame_needed = 0, uses_anonymous_args = 0
	str	lr, [sp, #-4]!
.LCFI117:
	.cfi_def_cfa_offset 4
	sub	sp, sp, #12
.LCFI118:
	.cfi_def_cfa_offset 16
	str	r0, [sp, #4]
	.loc 16 201 0
	ldr	r0, [sp, #4]
	mov	r1, #0
	.cfi_offset 14, -4
	bl	_ZN8CIwArrayIi12CIwAllocatorIi15CIwMallocRouterIiEE17ReallocateDefaultIiS3_EE8truncateEj
	.loc 16 202 0
	add	sp, sp, #12
	ldmfd	sp!, {pc}
	.cfi_endproc
.LFE3564:
	.size	_ZN8CIwArrayIi12CIwAllocatorIi15CIwMallocRouterIiEE17ReallocateDefaultIiS3_EE5clearEv, .-_ZN8CIwArrayIi12CIwAllocatorIi15CIwMallocRouterIiEE17ReallocateDefaultIiS3_EE5clearEv
	.section	.text._ZN8CIwArrayI8TileUnit12CIwAllocatorIS0_15CIwMallocRouterIS0_EE17ReallocateDefaultIS0_S4_EE6resizeEj,"axG",%progbits,_ZN8CIwArrayI8TileUnit12CIwAllocatorIS0_15CIwMallocRouterIS0_EE17ReallocateDefaultIS0_S4_EE6resizeEj,comdat
	.align	2
	.weak	_ZN8CIwArrayI8TileUnit12CIwAllocatorIS0_15CIwMallocRouterIS0_EE17ReallocateDefaultIS0_S4_EE6resizeEj
	.hidden	_ZN8CIwArrayI8TileUnit12CIwAllocatorIS0_15CIwMallocRouterIS0_EE17ReallocateDefaultIS0_S4_EE6resizeEj
	.type	_ZN8CIwArrayI8TileUnit12CIwAllocatorIS0_15CIwMallocRouterIS0_EE17ReallocateDefaultIS0_S4_EE6resizeEj, %function
_ZN8CIwArrayI8TileUnit12CIwAllocatorIS0_15CIwMallocRouterIS0_EE17ReallocateDefaultIS0_S4_EE6resizeEj:
.LFB3565:
	.loc 16 292 0
	.cfi_startproc
	@ args = 0, pretend = 0, frame = 8
	@ frame_needed = 0, uses_anonymous_args = 0
	str	lr, [sp, #-4]!
.LCFI119:
	.cfi_def_cfa_offset 4
	sub	sp, sp, #12
.LCFI120:
	.cfi_def_cfa_offset 16
	str	r0, [sp, #4]
	str	r1, [sp, #0]
	.loc 16 294 0
	ldr	r3, [sp, #4]
	ldr	r2, [r3, #4]
	ldr	r3, [sp, #0]
	cmp	r2, r3
	bcc	.L290
	.cfi_offset 14, -4
	.loc 16 295 0
	ldr	r0, [sp, #4]
	ldr	r1, [sp, #0]
	bl	_ZN8CIwArrayI8TileUnit12CIwAllocatorIS0_15CIwMallocRouterIS0_EE17ReallocateDefaultIS0_S4_EE8truncateEj
	b	.L292
.L290:
	.loc 16 297 0
	ldr	r3, [sp, #4]
	ldr	r3, [r3, #4]
	ldr	r2, [sp, #0]
	rsb	r3, r3, r2
	ldr	r0, [sp, #4]
	mov	r1, r3
	bl	_ZN8CIwArrayI8TileUnit12CIwAllocatorIS0_15CIwMallocRouterIS0_EE17ReallocateDefaultIS0_S4_EE13push_back_qtyEi
.L292:
	.loc 16 298 0
	add	sp, sp, #12
	ldmfd	sp!, {pc}
	.cfi_endproc
.LFE3565:
	.size	_ZN8CIwArrayI8TileUnit12CIwAllocatorIS0_15CIwMallocRouterIS0_EE17ReallocateDefaultIS0_S4_EE6resizeEj, .-_ZN8CIwArrayI8TileUnit12CIwAllocatorIS0_15CIwMallocRouterIS0_EE17ReallocateDefaultIS0_S4_EE6resizeEj
	.section	.text._ZN8CIwArrayI8TileUnit12CIwAllocatorIS0_15CIwMallocRouterIS0_EE17ReallocateDefaultIS0_S4_EE5clearEv,"axG",%progbits,_ZN8CIwArrayI8TileUnit12CIwAllocatorIS0_15CIwMallocRouterIS0_EE17ReallocateDefaultIS0_S4_EE5clearEv,comdat
	.align	2
	.weak	_ZN8CIwArrayI8TileUnit12CIwAllocatorIS0_15CIwMallocRouterIS0_EE17ReallocateDefaultIS0_S4_EE5clearEv
	.hidden	_ZN8CIwArrayI8TileUnit12CIwAllocatorIS0_15CIwMallocRouterIS0_EE17ReallocateDefaultIS0_S4_EE5clearEv
	.type	_ZN8CIwArrayI8TileUnit12CIwAllocatorIS0_15CIwMallocRouterIS0_EE17ReallocateDefaultIS0_S4_EE5clearEv, %function
_ZN8CIwArrayI8TileUnit12CIwAllocatorIS0_15CIwMallocRouterIS0_EE17ReallocateDefaultIS0_S4_EE5clearEv:
.LFB3566:
	.loc 16 199 0
	.cfi_startproc
	@ args = 0, pretend = 0, frame = 8
	@ frame_needed = 0, uses_anonymous_args = 0
	str	lr, [sp, #-4]!
.LCFI121:
	.cfi_def_cfa_offset 4
	sub	sp, sp, #12
.LCFI122:
	.cfi_def_cfa_offset 16
	str	r0, [sp, #4]
	.loc 16 201 0
	ldr	r0, [sp, #4]
	mov	r1, #0
	.cfi_offset 14, -4
	bl	_ZN8CIwArrayI8TileUnit12CIwAllocatorIS0_15CIwMallocRouterIS0_EE17ReallocateDefaultIS0_S4_EE8truncateEj
	.loc 16 202 0
	add	sp, sp, #12
	ldmfd	sp!, {pc}
	.cfi_endproc
.LFE3566:
	.size	_ZN8CIwArrayI8TileUnit12CIwAllocatorIS0_15CIwMallocRouterIS0_EE17ReallocateDefaultIS0_S4_EE5clearEv, .-_ZN8CIwArrayI8TileUnit12CIwAllocatorIS0_15CIwMallocRouterIS0_EE17ReallocateDefaultIS0_S4_EE5clearEv
	.section	.text._ZN12CIwAllocatorI8TileUnit15CIwMallocRouterIS0_EE10deallocateEPS0_j,"axG",%progbits,_ZN12CIwAllocatorI8TileUnit15CIwMallocRouterIS0_EE10deallocateEPS0_j,comdat
	.align	2
	.weak	_ZN12CIwAllocatorI8TileUnit15CIwMallocRouterIS0_EE10deallocateEPS0_j
	.hidden	_ZN12CIwAllocatorI8TileUnit15CIwMallocRouterIS0_EE10deallocateEPS0_j
	.type	_ZN12CIwAllocatorI8TileUnit15CIwMallocRouterIS0_EE10deallocateEPS0_j, %function
_ZN12CIwAllocatorI8TileUnit15CIwMallocRouterIS0_EE10deallocateEPS0_j:
.LFB3567:
	.loc 20 147 0
	.cfi_startproc
	@ args = 0, pretend = 0, frame = 16
	@ frame_needed = 0, uses_anonymous_args = 0
	str	lr, [sp, #-4]!
.LCFI123:
	.cfi_def_cfa_offset 4
	sub	sp, sp, #20
.LCFI124:
	.cfi_def_cfa_offset 24
	str	r0, [sp, #12]
	str	r1, [sp, #8]
	str	r2, [sp, #4]
	.loc 20 147 0
	ldr	r0, [sp, #8]
	.cfi_offset 14, -4
	bl	_ZN15CIwMallocRouterI8TileUnitE6DoFreeEPv
	add	sp, sp, #20
	ldmfd	sp!, {pc}
	.cfi_endproc
.LFE3567:
	.size	_ZN12CIwAllocatorI8TileUnit15CIwMallocRouterIS0_EE10deallocateEPS0_j, .-_ZN12CIwAllocatorI8TileUnit15CIwMallocRouterIS0_EE10deallocateEPS0_j
	.section	.text._ZN12CIwAllocatorI12TileObstacle15CIwMallocRouterIS0_EE10deallocateEPS0_j,"axG",%progbits,_ZN12CIwAllocatorI12TileObstacle15CIwMallocRouterIS0_EE10deallocateEPS0_j,comdat
	.align	2
	.weak	_ZN12CIwAllocatorI12TileObstacle15CIwMallocRouterIS0_EE10deallocateEPS0_j
	.hidden	_ZN12CIwAllocatorI12TileObstacle15CIwMallocRouterIS0_EE10deallocateEPS0_j
	.type	_ZN12CIwAllocatorI12TileObstacle15CIwMallocRouterIS0_EE10deallocateEPS0_j, %function
_ZN12CIwAllocatorI12TileObstacle15CIwMallocRouterIS0_EE10deallocateEPS0_j:
.LFB3570:
	.loc 20 147 0
	.cfi_startproc
	@ args = 0, pretend = 0, frame = 16
	@ frame_needed = 0, uses_anonymous_args = 0
	str	lr, [sp, #-4]!
.LCFI125:
	.cfi_def_cfa_offset 4
	sub	sp, sp, #20
.LCFI126:
	.cfi_def_cfa_offset 24
	str	r0, [sp, #12]
	str	r1, [sp, #8]
	str	r2, [sp, #4]
	.loc 20 147 0
	ldr	r0, [sp, #8]
	.cfi_offset 14, -4
	bl	_ZN15CIwMallocRouterI12TileObstacleE6DoFreeEPv
	add	sp, sp, #20
	ldmfd	sp!, {pc}
	.cfi_endproc
.LFE3570:
	.size	_ZN12CIwAllocatorI12TileObstacle15CIwMallocRouterIS0_EE10deallocateEPS0_j, .-_ZN12CIwAllocatorI12TileObstacle15CIwMallocRouterIS0_EE10deallocateEPS0_j
	.section	.text._ZN4_STL13basic_ostreamIcNS_11char_traitsIcEEE14_M_put_nowidenEPKc,"axG",%progbits,_ZN4_STL13basic_ostreamIcNS_11char_traitsIcEEE14_M_put_nowidenEPKc,comdat
	.align	2
	.weak	_ZN4_STL13basic_ostreamIcNS_11char_traitsIcEEE14_M_put_nowidenEPKc
	.hidden	_ZN4_STL13basic_ostreamIcNS_11char_traitsIcEEE14_M_put_nowidenEPKc
	.type	_ZN4_STL13basic_ostreamIcNS_11char_traitsIcEEE14_M_put_nowidenEPKc, %function
_ZN4_STL13basic_ostreamIcNS_11char_traitsIcEEE14_M_put_nowidenEPKc:
.LFB3599:
	.file 22 "c:/marmalade/6.2/s3e/h/std/c++/stl/_ostream.c"
	.loc 22 271 0
	.cfi_startproc
	@ args = 0, pretend = 0, frame = 32
	@ frame_needed = 0, uses_anonymous_args = 0
	stmfd	sp!, {r4, lr}
.LCFI127:
	.cfi_def_cfa_offset 8
	sub	sp, sp, #32
.LCFI128:
	.cfi_def_cfa_offset 40
	str	r0, [sp, #4]
	str	r1, [sp, #0]
.LBB33:
	.loc 22 273 0
	add	r3, sp, #12
	mov	r0, r3
	ldr	r1, [sp, #4]
	.cfi_offset 14, -4
	.cfi_offset 4, -8
	bl	_ZN4_STL13basic_ostreamIcNS_11char_traitsIcEEE6sentryC1ERS3_
	.loc 22 274 0
	add	r3, sp, #12
	mov	r0, r3
	bl	_ZNK4_STL13basic_ostreamIcNS_11char_traitsIcEEE6sentrycvbEv
	mov	r3, r0
	cmp	r3, #0
	beq	.L300
.LBB34:
	.loc 22 275 0
	mov	r3, #1
	strb	r3, [sp, #23]
	.loc 22 276 0
	ldr	r0, [sp, #0]
	bl	_ZN4_STL11char_traitsIcE6lengthEPKc
	mov	r3, r0
	str	r3, [sp, #24]
	.loc 22 277 0
	ldr	r2, [sp, #4]
	ldr	r3, [sp, #4]
	ldr	r3, [r3, #0]
	sub	r3, r3, #12
	ldr	r3, [r3, #0]
	add	r3, r2, r3
	mov	r0, r3
	bl	_ZNK4_STL8ios_base5widthEv
	mov	r2, r0
	ldr	r3, [sp, #24]
	cmp	r2, r3
	ble	.L301
	ldr	r2, [sp, #4]
	ldr	r3, [sp, #4]
	ldr	r3, [r3, #0]
	sub	r3, r3, #12
	ldr	r3, [r3, #0]
	add	r3, r2, r3
	mov	r0, r3
	bl	_ZNK4_STL8ios_base5widthEv
	mov	r2, r0
	ldr	r3, [sp, #24]
	rsb	r3, r3, r2
	b	.L302
.L301:
	mov	r3, #0
.L302:
	str	r3, [sp, #28]
	.loc 22 280 0
	ldr	r3, [sp, #28]
	cmp	r3, #0
	bne	.L303
	.loc 22 281 0
	ldr	r2, [sp, #4]
	ldr	r3, [sp, #4]
	ldr	r3, [r3, #0]
	sub	r3, r3, #12
	ldr	r3, [r3, #0]
	add	r3, r2, r3
	mov	r0, r3
	bl	_ZNK4_STL9basic_iosIcNS_11char_traitsIcEEE5rdbufEv
	mov	r3, r0
	mov	r0, r3
	ldr	r1, [sp, #0]
	ldr	r2, [sp, #24]
	bl	_ZN4_STL15basic_streambufIcNS_11char_traitsIcEEE5sputnEPKci
	mov	r2, r0
	ldr	r3, [sp, #24]
	cmp	r2, r3
	moveq	r3, #0
	movne	r3, #1
	strb	r3, [sp, #23]
	b	.L304
.L303:
	.loc 22 282 0
	ldr	r2, [sp, #4]
	ldr	r3, [sp, #4]
	ldr	r3, [r3, #0]
	sub	r3, r3, #12
	ldr	r3, [r3, #0]
	add	r3, r2, r3
	mov	r0, r3
	bl	_ZNK4_STL8ios_base5flagsEv
	mov	r3, r0
	and	r3, r3, #7
	cmp	r3, #1
	movne	r3, #0
	moveq	r3, #1
	and	r3, r3, #255
	cmp	r3, #0
	beq	.L305
	.loc 22 283 0
	ldr	r2, [sp, #4]
	ldr	r3, [sp, #4]
	ldr	r3, [r3, #0]
	sub	r3, r3, #12
	ldr	r3, [r3, #0]
	add	r3, r2, r3
	mov	r0, r3
	bl	_ZNK4_STL9basic_iosIcNS_11char_traitsIcEEE5rdbufEv
	mov	r3, r0
	mov	r0, r3
	ldr	r1, [sp, #0]
	ldr	r2, [sp, #24]
	bl	_ZN4_STL15basic_streambufIcNS_11char_traitsIcEEE5sputnEPKci
	mov	r2, r0
	ldr	r3, [sp, #24]
	cmp	r2, r3
	moveq	r3, #0
	movne	r3, #1
	strb	r3, [sp, #23]
	.loc 22 284 0
	ldrb	r3, [sp, #23]	@ zero_extendqisi2
	cmp	r3, #0
	bne	.L306
	ldr	r2, [sp, #4]
	ldr	r3, [sp, #4]
	ldr	r3, [r3, #0]
	sub	r3, r3, #12
	ldr	r3, [r3, #0]
	add	r3, r2, r3
	mov	r0, r3
	bl	_ZNK4_STL9basic_iosIcNS_11char_traitsIcEEE5rdbufEv
	mov	r4, r0
	ldr	r2, [sp, #4]
	ldr	r3, [sp, #4]
	ldr	r3, [r3, #0]
	sub	r3, r3, #12
	ldr	r3, [r3, #0]
	add	r3, r2, r3
	mov	r0, r3
	bl	_ZNK4_STL9basic_iosIcNS_11char_traitsIcEEE4fillEv
	mov	r3, r0
	mov	r0, r4
	mov	r1, r3
	ldr	r2, [sp, #28]
	bl	_ZN4_STL15basic_streambufIcNS_11char_traitsIcEEE9_M_sputncEci
	mov	r2, r0
	ldr	r3, [sp, #28]
	cmp	r2, r3
	beq	.L307
.L306:
	mov	r3, #1
	b	.L308
.L307:
	mov	r3, #0
.L308:
	strb	r3, [sp, #23]
	b	.L304
.L305:
	.loc 22 288 0
	ldr	r2, [sp, #4]
	ldr	r3, [sp, #4]
	ldr	r3, [r3, #0]
	sub	r3, r3, #12
	ldr	r3, [r3, #0]
	add	r3, r2, r3
	mov	r0, r3
	bl	_ZNK4_STL9basic_iosIcNS_11char_traitsIcEEE5rdbufEv
	mov	r4, r0
	ldr	r2, [sp, #4]
	ldr	r3, [sp, #4]
	ldr	r3, [r3, #0]
	sub	r3, r3, #12
	ldr	r3, [r3, #0]
	add	r3, r2, r3
	mov	r0, r3
	bl	_ZNK4_STL9basic_iosIcNS_11char_traitsIcEEE4fillEv
	mov	r3, r0
	mov	r0, r4
	mov	r1, r3
	ldr	r2, [sp, #28]
	bl	_ZN4_STL15basic_streambufIcNS_11char_traitsIcEEE9_M_sputncEci
	mov	r2, r0
	ldr	r3, [sp, #28]
	cmp	r2, r3
	moveq	r3, #0
	movne	r3, #1
	strb	r3, [sp, #23]
	.loc 22 289 0
	ldrb	r3, [sp, #23]	@ zero_extendqisi2
	cmp	r3, #0
	bne	.L309
	ldr	r2, [sp, #4]
	ldr	r3, [sp, #4]
	ldr	r3, [r3, #0]
	sub	r3, r3, #12
	ldr	r3, [r3, #0]
	add	r3, r2, r3
	mov	r0, r3
	bl	_ZNK4_STL9basic_iosIcNS_11char_traitsIcEEE5rdbufEv
	mov	r3, r0
	mov	r0, r3
	ldr	r1, [sp, #0]
	ldr	r2, [sp, #24]
	bl	_ZN4_STL15basic_streambufIcNS_11char_traitsIcEEE5sputnEPKci
	mov	r2, r0
	ldr	r3, [sp, #24]
	cmp	r2, r3
	beq	.L310
.L309:
	mov	r3, #1
	b	.L311
.L310:
	mov	r3, #0
.L311:
	strb	r3, [sp, #23]
.L304:
	.loc 22 292 0
	ldr	r2, [sp, #4]
	ldr	r3, [sp, #4]
	ldr	r3, [r3, #0]
	sub	r3, r3, #12
	ldr	r3, [r3, #0]
	add	r3, r2, r3
	mov	r0, r3
	mov	r1, #0
	bl	_ZN4_STL8ios_base5widthEi
	.loc 22 298 0
	ldrb	r3, [sp, #23]	@ zero_extendqisi2
	cmp	r3, #0
	beq	.L300
	.loc 22 299 0
	ldr	r2, [sp, #4]
	ldr	r3, [sp, #4]
	ldr	r3, [r3, #0]
	sub	r3, r3, #12
	ldr	r3, [r3, #0]
	add	r3, r2, r3
	mov	r0, r3
	mov	r1, #4
	bl	_ZN4_STL9basic_iosIcNS_11char_traitsIcEEE8setstateEi
.L300:
.LBE34:
	add	r3, sp, #12
	mov	r0, r3
	bl	_ZN4_STL13basic_ostreamIcNS_11char_traitsIcEEE6sentryD1Ev
.LBE33:
	.loc 22 301 0
	add	sp, sp, #32
	ldmfd	sp!, {r4, pc}
	.cfi_endproc
.LFE3599:
	.size	_ZN4_STL13basic_ostreamIcNS_11char_traitsIcEEE14_M_put_nowidenEPKc, .-_ZN4_STL13basic_ostreamIcNS_11char_traitsIcEEE14_M_put_nowidenEPKc
	.section	.text._ZNK4_STL9basic_iosIcNS_11char_traitsIcEEE5widenEc,"axG",%progbits,_ZNK4_STL9basic_iosIcNS_11char_traitsIcEEE5widenEc,comdat
	.align	2
	.weak	_ZNK4_STL9basic_iosIcNS_11char_traitsIcEEE5widenEc
	.hidden	_ZNK4_STL9basic_iosIcNS_11char_traitsIcEEE5widenEc
	.type	_ZNK4_STL9basic_iosIcNS_11char_traitsIcEEE5widenEc, %function
_ZNK4_STL9basic_iosIcNS_11char_traitsIcEEE5widenEc:
.LFB3600:
	.file 23 "c:/marmalade/6.2/s3e/h/std/c++/stl/_ios.h"
	.loc 23 141 0
	.cfi_startproc
	@ args = 0, pretend = 0, frame = 8
	@ frame_needed = 0, uses_anonymous_args = 0
	str	lr, [sp, #-4]!
.LCFI129:
	.cfi_def_cfa_offset 4
	sub	sp, sp, #12
.LCFI130:
	.cfi_def_cfa_offset 16
	str	r0, [sp, #4]
	mov	r3, r1
	strb	r3, [sp, #3]
	.loc 23 143 0
	ldr	r3, [sp, #4]
	mov	r0, r3
	.cfi_offset 14, -4
	bl	_ZNK4_STL8ios_base14_M_ctype_facetEv
	mov	r3, r0
	mov	r2, r3
	ldrb	r3, [sp, #3]	@ zero_extendqisi2
	mov	r0, r2
	mov	r1, r3
	bl	_ZNK4_STL5ctypeIcE5widenEc
	mov	r3, r0
	mov	r0, r3
	add	sp, sp, #12
	ldmfd	sp!, {pc}
	.cfi_endproc
.LFE3600:
	.size	_ZNK4_STL9basic_iosIcNS_11char_traitsIcEEE5widenEc, .-_ZNK4_STL9basic_iosIcNS_11char_traitsIcEEE5widenEc
	.section	.text._ZN4_STL13basic_ostreamIcNS_11char_traitsIcEEE3putEc,"axG",%progbits,_ZN4_STL13basic_ostreamIcNS_11char_traitsIcEEE3putEc,comdat
	.align	2
	.weak	_ZN4_STL13basic_ostreamIcNS_11char_traitsIcEEE3putEc
	.hidden	_ZN4_STL13basic_ostreamIcNS_11char_traitsIcEEE3putEc
	.type	_ZN4_STL13basic_ostreamIcNS_11char_traitsIcEEE3putEc, %function
_ZN4_STL13basic_ostreamIcNS_11char_traitsIcEEE3putEc:
.LFB3601:
	.loc 22 351 0
	.cfi_startproc
	@ args = 0, pretend = 0, frame = 24
	@ frame_needed = 0, uses_anonymous_args = 0
	stmfd	sp!, {r4, lr}
.LCFI131:
	.cfi_def_cfa_offset 8
	sub	sp, sp, #24
.LCFI132:
	.cfi_def_cfa_offset 32
	str	r0, [sp, #4]
	mov	r3, r1
	strb	r3, [sp, #3]
.LBB35:
	.loc 22 353 0
	add	r3, sp, #12
	mov	r0, r3
	ldr	r1, [sp, #4]
	.cfi_offset 14, -4
	.cfi_offset 4, -8
	bl	_ZN4_STL13basic_ostreamIcNS_11char_traitsIcEEE6sentryC1ERS3_
	.loc 22 354 0
	mov	r3, #1
	strb	r3, [sp, #23]
	.loc 22 356 0
	add	r3, sp, #12
	mov	r0, r3
	bl	_ZNK4_STL13basic_ostreamIcNS_11char_traitsIcEEE6sentrycvbEv
	mov	r3, r0
	cmp	r3, #0
	beq	.L316
	.loc 22 358 0
	ldr	r2, [sp, #4]
	ldr	r3, [sp, #4]
	ldr	r3, [r3, #0]
	sub	r3, r3, #12
	ldr	r3, [r3, #0]
	add	r3, r2, r3
	mov	r0, r3
	bl	_ZNK4_STL9basic_iosIcNS_11char_traitsIcEEE5rdbufEv
	mov	r2, r0
	ldrb	r3, [sp, #3]	@ zero_extendqisi2
	mov	r0, r2
	mov	r1, r3
	bl	_ZN4_STL15basic_streambufIcNS_11char_traitsIcEEE5sputcEc
	mov	r3, r0
	mov	r0, r3
	bl	_ZN4_STL9basic_iosIcNS_11char_traitsIcEEE6_S_eofEi
	mov	r3, r0
	strb	r3, [sp, #23]
	.loc 22 360 0
	mov	r0, r0	@ nop
.L316:
	.loc 22 365 0
	ldrb	r3, [sp, #23]	@ zero_extendqisi2
	cmp	r3, #0
	beq	.L317
	.loc 22 366 0
	ldr	r2, [sp, #4]
	ldr	r3, [sp, #4]
	ldr	r3, [r3, #0]
	sub	r3, r3, #12
	ldr	r3, [r3, #0]
	add	r3, r2, r3
	mov	r0, r3
	mov	r1, #1
	bl	_ZN4_STL9basic_iosIcNS_11char_traitsIcEEE8setstateEi
.L317:
	.loc 22 368 0
	ldr	r4, [sp, #4]
	add	r3, sp, #12
	mov	r0, r3
	bl	_ZN4_STL13basic_ostreamIcNS_11char_traitsIcEEE6sentryD1Ev
	mov	r3, r4
.LBE35:
	.loc 22 369 0
	mov	r0, r3
	add	sp, sp, #24
	ldmfd	sp!, {r4, pc}
	.cfi_endproc
.LFE3601:
	.size	_ZN4_STL13basic_ostreamIcNS_11char_traitsIcEEE3putEc, .-_ZN4_STL13basic_ostreamIcNS_11char_traitsIcEEE3putEc
	.section	.text._ZN4_STL13basic_ostreamIcNS_11char_traitsIcEEE5flushEv,"axG",%progbits,_ZN4_STL13basic_ostreamIcNS_11char_traitsIcEEE5flushEv,comdat
	.align	2
	.weak	_ZN4_STL13basic_ostreamIcNS_11char_traitsIcEEE5flushEv
	.hidden	_ZN4_STL13basic_ostreamIcNS_11char_traitsIcEEE5flushEv
	.type	_ZN4_STL13basic_ostreamIcNS_11char_traitsIcEEE5flushEv, %function
_ZN4_STL13basic_ostreamIcNS_11char_traitsIcEEE5flushEv:
.LFB3602:
	.loc 19 128 0
	.cfi_startproc
	@ args = 0, pretend = 0, frame = 8
	@ frame_needed = 0, uses_anonymous_args = 0
	str	lr, [sp, #-4]!
.LCFI133:
	.cfi_def_cfa_offset 4
	sub	sp, sp, #12
.LCFI134:
	.cfi_def_cfa_offset 16
	str	r0, [sp, #4]
	.loc 19 129 0
	ldr	r2, [sp, #4]
	ldr	r3, [sp, #4]
	ldr	r3, [r3, #0]
	sub	r3, r3, #12
	ldr	r3, [r3, #0]
	add	r3, r2, r3
	mov	r0, r3
	.cfi_offset 14, -4
	bl	_ZNK4_STL9basic_iosIcNS_11char_traitsIcEEE5rdbufEv
	mov	r3, r0
	cmp	r3, #0
	moveq	r3, #0
	movne	r3, #1
	and	r3, r3, #255
	cmp	r3, #0
	beq	.L320
	.loc 19 130 0
	ldr	r2, [sp, #4]
	ldr	r3, [sp, #4]
	ldr	r3, [r3, #0]
	sub	r3, r3, #12
	ldr	r3, [r3, #0]
	add	r3, r2, r3
	mov	r0, r3
	bl	_ZNK4_STL9basic_iosIcNS_11char_traitsIcEEE5rdbufEv
	mov	r3, r0
	mov	r0, r3
	bl	_ZN4_STL15basic_streambufIcNS_11char_traitsIcEEE7pubsyncEv
	mov	r3, r0
	cmn	r3, #1
	movne	r3, #0
	moveq	r3, #1
	and	r3, r3, #255
	cmp	r3, #0
	beq	.L320
	.loc 19 131 0
	ldr	r2, [sp, #4]
	ldr	r3, [sp, #4]
	ldr	r3, [r3, #0]
	sub	r3, r3, #12
	ldr	r3, [r3, #0]
	add	r3, r2, r3
	mov	r0, r3
	mov	r1, #1
	bl	_ZN4_STL9basic_iosIcNS_11char_traitsIcEEE8setstateEi
.L320:
	.loc 19 132 0
	ldr	r3, [sp, #4]
	.loc 19 133 0
	mov	r0, r3
	add	sp, sp, #12
	ldmfd	sp!, {pc}
	.cfi_endproc
.LFE3602:
	.size	_ZN4_STL13basic_ostreamIcNS_11char_traitsIcEEE5flushEv, .-_ZN4_STL13basic_ostreamIcNS_11char_traitsIcEEE5flushEv
	.section	.rodata
	.align	2
.LC14:
	.ascii	"!(&x>=p && &x<p+max_p)\000"
	.align	2
.LC15:
	.ascii	"num_p < max_p\000"
	.section	.text._ZN8CIwArrayIi12CIwAllocatorIi15CIwMallocRouterIiEE17ReallocateDefaultIiS3_EE9push_backERKi,"axG",%progbits,_ZN8CIwArrayIi12CIwAllocatorIi15CIwMallocRouterIiEE17ReallocateDefaultIiS3_EE9push_backERKi,comdat
	.align	2
	.weak	_ZN8CIwArrayIi12CIwAllocatorIi15CIwMallocRouterIiEE17ReallocateDefaultIiS3_EE9push_backERKi
	.hidden	_ZN8CIwArrayIi12CIwAllocatorIi15CIwMallocRouterIiEE17ReallocateDefaultIiS3_EE9push_backERKi
	.type	_ZN8CIwArrayIi12CIwAllocatorIi15CIwMallocRouterIiEE17ReallocateDefaultIiS3_EE9push_backERKi, %function
_ZN8CIwArrayIi12CIwAllocatorIi15CIwMallocRouterIiEE17ReallocateDefaultIiS3_EE9push_backERKi:
.LFB3603:
	.loc 16 618 0
	.cfi_startproc
	@ args = 0, pretend = 0, frame = 8
	@ frame_needed = 0, uses_anonymous_args = 0
	str	lr, [sp, #-4]!
.LCFI135:
	.cfi_def_cfa_offset 4
	sub	sp, sp, #12
.LCFI136:
	.cfi_def_cfa_offset 16
	str	r0, [sp, #4]
	str	r1, [sp, #0]
.LBB36:
.LBB37:
	.loc 16 632 0
	ldr	r3, [sp, #4]
	ldr	r2, [r3, #0]
	ldr	r3, [sp, #0]
	cmp	r2, r3
	bhi	.L323
	.cfi_offset 14, -4
	ldr	r3, [sp, #4]
	ldr	r2, [r3, #0]
	ldr	r3, [sp, #4]
	ldr	r3, [r3, #8]
	mov	r3, r3, asl #2
	add	r2, r2, r3
	ldr	r3, [sp, #0]
	cmp	r2, r3
	bls	.L323
	ldr	r0, .L344
	bl	IwDebugAssertIsChannelOn
	mov	r3, r0
	cmp	r3, #0
	beq	.L323
	ldr	r3, .L344+4
	ldrb	r3, [r3, #0]	@ zero_extendqisi2
	cmp	r3, #0
	bne	.L323
	mov	r3, #1
	b	.L324
.L323:
	mov	r3, #0
.L324:
	cmp	r3, #0
	beq	.L325
	mov	r0, #0
	bl	IwDebugAssertSetSolution
	mov	r0, #0
	bl	IwDebugAssertSetUID
	mov	r0, #0
	bl	IwDebugAssertSetMessage
	ldr	r0, .L344+8
	ldr	r1, .L344+12
	mov	r2, #632
	mov	r3, #1
	bl	IwDebugAssertShow
	mov	r3, r0
	cmp	r3, #1
	beq	.L327
	cmp	r3, #2
	beq	.L328
	b	.L326
.L327:
	bl	s3eDebugIsDebuggerPresent
	mov	r3, r0
	cmp	r3, #0
	moveq	r3, #0
	movne	r3, #1
	and	r3, r3, #255
	cmp	r3, #0
	beq	.L329
	bl	s3eDebugIsDebuggerPresent
	mov	r3, r0
	cmp	r3, #0
	moveq	r3, #0
	movne	r3, #1
	and	r3, r3, #255
	cmp	r3, #0
	beq	.L342
	mvn	r3, #11
	mov	r2, #0
	str	r2, [r3, #0]
	b	.L326
.L329:
	bl	_ZL11IwDebugExitv
	b	.L326
.L328:
	ldr	r3, .L344+4
	mov	r2, #1
	strb	r2, [r3, #0]
	b	.L326
.L342:
	mov	r0, r0	@ nop
.L326:
	mov	r0, #0
	bl	IwDebugAssertSetUID
.L325:
.LBE37:
	.loc 16 634 0
	ldr	r3, [sp, #4]
	ldr	r3, [r3, #4]
	add	r3, r3, #1
	ldr	r0, [sp, #4]
	mov	r1, r3
	bl	_ZN8CIwArrayIi12CIwAllocatorIi15CIwMallocRouterIiEE17ReallocateDefaultIiS3_EE7reserveEj
.LBB38:
	.loc 16 635 0
	ldr	r3, [sp, #4]
	ldr	r2, [r3, #4]
	ldr	r3, [sp, #4]
	ldr	r3, [r3, #8]
	cmp	r2, r3
	bcc	.L332
	ldr	r0, .L344
	bl	IwDebugAssertIsChannelOn
	mov	r3, r0
	cmp	r3, #0
	beq	.L332
	ldr	r3, .L344+16
	ldrb	r3, [r3, #0]	@ zero_extendqisi2
	cmp	r3, #0
	bne	.L332
	mov	r3, #1
	b	.L333
.L332:
	mov	r3, #0
.L333:
	cmp	r3, #0
	beq	.L334
	mov	r0, #0
	bl	IwDebugAssertSetSolution
	mov	r0, #0
	bl	IwDebugAssertSetUID
	mov	r0, #0
	bl	IwDebugAssertSetMessage
	ldr	r0, .L344+20
	ldr	r1, .L344+12
	ldr	r2, .L344+24
	mov	r3, #1
	bl	IwDebugAssertShow
	mov	r3, r0
	cmp	r3, #1
	beq	.L336
	cmp	r3, #2
	beq	.L337
	b	.L335
.L336:
	bl	s3eDebugIsDebuggerPresent
	mov	r3, r0
	cmp	r3, #0
	moveq	r3, #0
	movne	r3, #1
	and	r3, r3, #255
	cmp	r3, #0
	beq	.L338
	bl	s3eDebugIsDebuggerPresent
	mov	r3, r0
	cmp	r3, #0
	moveq	r3, #0
	movne	r3, #1
	and	r3, r3, #255
	cmp	r3, #0
	beq	.L343
	mvn	r3, #11
	mov	r2, #0
	str	r2, [r3, #0]
	b	.L335
.L338:
	bl	_ZL11IwDebugExitv
	b	.L335
.L337:
	ldr	r3, .L344+16
	mov	r2, #1
	strb	r2, [r3, #0]
	b	.L335
.L343:
	mov	r0, r0	@ nop
.L335:
	mov	r0, #0
	bl	IwDebugAssertSetUID
.L334:
.LBE38:
	.loc 16 636 0
	ldr	r3, [sp, #4]
	ldr	r2, [r3, #0]
	ldr	r3, [sp, #4]
	ldr	r3, [r3, #4]
	mov	r3, r3, asl #2
	add	r3, r2, r3
	mov	r0, #4
	mov	r1, r3
	bl	_ZnwjPv
	mov	r3, r0
	ldr	r2, [sp, #0]
	ldr	r2, [r2, #0]
	str	r2, [r3, #0]
	.loc 16 637 0
	ldr	r3, [sp, #4]
	ldr	r3, [r3, #4]
	mov	r2, r3
	add	r1, r3, #1
	ldr	r3, [sp, #4]
	str	r1, [r3, #4]
	mov	r3, r2
.LBE36:
	.loc 16 638 0
	mov	r0, r3
	add	sp, sp, #12
	ldmfd	sp!, {pc}
.L345:
	.align	2
.L344:
	.word	.LC10
	.word	_ZZN8CIwArrayIi12CIwAllocatorIi15CIwMallocRouterIiEE17ReallocateDefaultIiS3_EE9push_backERKiE21_s_IwAssertIgnoreThis
	.word	.LC14
	.word	.LC13
	.word	_ZZN8CIwArrayIi12CIwAllocatorIi15CIwMallocRouterIiEE17ReallocateDefaultIiS3_EE9push_backERKiE21_s_IwAssertIgnoreThis_0
	.word	.LC15
	.word	635
	.cfi_endproc
.LFE3603:
	.size	_ZN8CIwArrayIi12CIwAllocatorIi15CIwMallocRouterIiEE17ReallocateDefaultIiS3_EE9push_backERKi, .-_ZN8CIwArrayIi12CIwAllocatorIi15CIwMallocRouterIiEE17ReallocateDefaultIiS3_EE9push_backERKi
	.section	.text._ZNK4_STL6vectorI8ObstacleNS_9allocatorIS1_EEE4sizeEv,"axG",%progbits,_ZNK4_STL6vectorI8ObstacleNS_9allocatorIS1_EEE4sizeEv,comdat
	.align	2
	.weak	_ZNK4_STL6vectorI8ObstacleNS_9allocatorIS1_EEE4sizeEv
	.hidden	_ZNK4_STL6vectorI8ObstacleNS_9allocatorIS1_EEE4sizeEv
	.type	_ZNK4_STL6vectorI8ObstacleNS_9allocatorIS1_EEE4sizeEv, %function
_ZNK4_STL6vectorI8ObstacleNS_9allocatorIS1_EEE4sizeEv:
.LFB3604:
	.loc 18 182 0
	.cfi_startproc
	@ args = 0, pretend = 0, frame = 8
	@ frame_needed = 0, uses_anonymous_args = 0
	@ link register save eliminated.
	sub	sp, sp, #8
.LCFI137:
	.cfi_def_cfa_offset 8
	str	r0, [sp, #4]
	.loc 18 182 0
	ldr	r3, [sp, #4]
	ldr	r3, [r3, #4]
	mov	r2, r3
	ldr	r3, [sp, #4]
	ldr	r3, [r3, #0]
	rsb	r3, r3, r2
	mov	r3, r3, asr #4
	mov	r0, r3
	add	sp, sp, #8
	bx	lr
	.cfi_endproc
.LFE3604:
	.size	_ZNK4_STL6vectorI8ObstacleNS_9allocatorIS1_EEE4sizeEv, .-_ZNK4_STL6vectorI8ObstacleNS_9allocatorIS1_EEE4sizeEv
	.section	.text._ZNK4_STL6vectorI8ObstacleNS_9allocatorIS1_EEE13get_allocatorEv,"axG",%progbits,_ZNK4_STL6vectorI8ObstacleNS_9allocatorIS1_EEE13get_allocatorEv,comdat
	.align	2
	.weak	_ZNK4_STL6vectorI8ObstacleNS_9allocatorIS1_EEE13get_allocatorEv
	.hidden	_ZNK4_STL6vectorI8ObstacleNS_9allocatorIS1_EEE13get_allocatorEv
	.type	_ZNK4_STL6vectorI8ObstacleNS_9allocatorIS1_EEE13get_allocatorEv, %function
_ZNK4_STL6vectorI8ObstacleNS_9allocatorIS1_EEE13get_allocatorEv:
.LFB3605:
	.loc 18 117 0
	.cfi_startproc
	@ args = 0, pretend = 0, frame = 8
	@ frame_needed = 0, uses_anonymous_args = 0
	stmfd	sp!, {r4, lr}
.LCFI138:
	.cfi_def_cfa_offset 8
	sub	sp, sp, #8
.LCFI139:
	.cfi_def_cfa_offset 16
	mov	r4, r0
	.cfi_offset 14, -4
	.cfi_offset 4, -8
	str	r1, [sp, #4]
	.loc 18 118 0
	mov	r2, r4
	ldr	r3, [sp, #4]
	add	r3, r3, #8
	mov	r0, r2
	mov	r1, r3
	bl	_ZN4_STL9allocatorI8ObstacleEC1ERKS2_
	.loc 18 119 0
	mov	r0, r4
	mov	r0, r4
	add	sp, sp, #8
	ldmfd	sp!, {r4, pc}
	.cfi_endproc
.LFE3605:
	.size	_ZNK4_STL6vectorI8ObstacleNS_9allocatorIS1_EEE13get_allocatorEv, .-_ZNK4_STL6vectorI8ObstacleNS_9allocatorIS1_EEE13get_allocatorEv
	.section	.text._ZN4_STL12_Vector_baseI8ObstacleNS_9allocatorIS1_EEEC2EjRKS3_,"axG",%progbits,_ZN4_STL12_Vector_baseI8ObstacleNS_9allocatorIS1_EEEC2EjRKS3_,comdat
	.align	2
	.weak	_ZN4_STL12_Vector_baseI8ObstacleNS_9allocatorIS1_EEEC2EjRKS3_
	.hidden	_ZN4_STL12_Vector_baseI8ObstacleNS_9allocatorIS1_EEEC2EjRKS3_
	.type	_ZN4_STL12_Vector_baseI8ObstacleNS_9allocatorIS1_EEEC2EjRKS3_, %function
_ZN4_STL12_Vector_baseI8ObstacleNS_9allocatorIS1_EEEC2EjRKS3_:
.LFB3607:
	.loc 18 74 0
	.cfi_startproc
	@ args = 0, pretend = 0, frame = 16
	@ frame_needed = 0, uses_anonymous_args = 0
	str	lr, [sp, #-4]!
.LCFI140:
	.cfi_def_cfa_offset 4
	sub	sp, sp, #20
.LCFI141:
	.cfi_def_cfa_offset 24
	str	r0, [sp, #12]
	str	r1, [sp, #8]
	str	r2, [sp, #4]
	.loc 18 75 0
	ldr	r3, [sp, #12]
	mov	r2, #0
	str	r2, [r3, #0]
	ldr	r3, [sp, #12]
	mov	r2, #0
	str	r2, [r3, #4]
	ldr	r3, [sp, #12]
	add	r3, r3, #8
	mov	r0, r3
	ldr	r1, [sp, #4]
	mov	r2, #0
	.cfi_offset 14, -4
	bl	_ZN4_STL17_STLP_alloc_proxyIP8ObstacleS1_NS_9allocatorIS1_EEEC1ERKS4_S2_
	.loc 18 77 0
	ldr	r3, [sp, #12]
	add	r3, r3, #8
	mov	r0, r3
	ldr	r1, [sp, #8]
	mov	r2, #0
	bl	_ZN4_STL9allocatorI8ObstacleE8allocateEjPKv
	mov	r2, r0
	ldr	r3, [sp, #12]
	str	r2, [r3, #0]
	.loc 18 78 0
	ldr	r3, [sp, #12]
	ldr	r2, [r3, #0]
	ldr	r3, [sp, #12]
	str	r2, [r3, #4]
	.loc 18 79 0
	ldr	r3, [sp, #12]
	ldr	r2, [r3, #0]
	ldr	r3, [sp, #8]
	mov	r3, r3, asl #4
	add	r2, r2, r3
	ldr	r3, [sp, #12]
	str	r2, [r3, #8]
	ldr	r3, [sp, #12]
	.loc 18 81 0
	mov	r0, r3
	add	sp, sp, #20
	ldmfd	sp!, {pc}
	.cfi_endproc
.LFE3607:
	.size	_ZN4_STL12_Vector_baseI8ObstacleNS_9allocatorIS1_EEEC2EjRKS3_, .-_ZN4_STL12_Vector_baseI8ObstacleNS_9allocatorIS1_EEEC2EjRKS3_
	.section	.text._ZN4_STL20__uninitialized_copyIPK8ObstaclePS1_EET0_T_S6_S5_RKNS_12__false_typeE,"axG",%progbits,_ZN4_STL20__uninitialized_copyIPK8ObstaclePS1_EET0_T_S6_S5_RKNS_12__false_typeE,comdat
	.align	2
	.weak	_ZN4_STL20__uninitialized_copyIPK8ObstaclePS1_EET0_T_S6_S5_RKNS_12__false_typeE
	.hidden	_ZN4_STL20__uninitialized_copyIPK8ObstaclePS1_EET0_T_S6_S5_RKNS_12__false_typeE
	.type	_ZN4_STL20__uninitialized_copyIPK8ObstaclePS1_EET0_T_S6_S5_RKNS_12__false_typeE, %function
_ZN4_STL20__uninitialized_copyIPK8ObstaclePS1_EET0_T_S6_S5_RKNS_12__false_typeE:
.LFB3609:
	.file 24 "c:/marmalade/6.2/s3e/h/std/c++/stl/_uninitialized.h"
	.loc 24 61 0
	.cfi_startproc
	@ args = 0, pretend = 0, frame = 24
	@ frame_needed = 0, uses_anonymous_args = 0
	str	lr, [sp, #-4]!
.LCFI142:
	.cfi_def_cfa_offset 4
	sub	sp, sp, #28
.LCFI143:
	.cfi_def_cfa_offset 32
	str	r0, [sp, #12]
	str	r1, [sp, #8]
	str	r2, [sp, #4]
	str	r3, [sp, #0]
.LBB39:
	.loc 24 64 0
	ldr	r3, [sp, #4]
	str	r3, [sp, #20]
	.loc 24 66 0
	b	.L354
	.cfi_offset 14, -4
.L355:
	.loc 24 67 0
	ldr	r0, [sp, #20]
	ldr	r1, [sp, #12]
	bl	_ZN4_STL10_ConstructI8ObstacleS1_EEvPT_RKT0_
	.loc 24 66 0
	ldr	r3, [sp, #12]
	add	r3, r3, #16
	str	r3, [sp, #12]
	ldr	r3, [sp, #20]
	add	r3, r3, #16
	str	r3, [sp, #20]
.L354:
	ldr	r2, [sp, #12]
	ldr	r3, [sp, #8]
	cmp	r2, r3
	moveq	r3, #0
	movne	r3, #1
	and	r3, r3, #255
	cmp	r3, #0
	bne	.L355
	.loc 24 68 0
	ldr	r3, [sp, #20]
.LBE39:
	.loc 24 74 0
	mov	r0, r3
	add	sp, sp, #28
	ldmfd	sp!, {pc}
	.cfi_endproc
.LFE3609:
	.size	_ZN4_STL20__uninitialized_copyIPK8ObstaclePS1_EET0_T_S6_S5_RKNS_12__false_typeE, .-_ZN4_STL20__uninitialized_copyIPK8ObstaclePS1_EET0_T_S6_S5_RKNS_12__false_typeE
	.section	.text._ZN8CIwArrayI12TileObstacle12CIwAllocatorIS0_15CIwMallocRouterIS0_EE17ReallocateDefaultIS0_S4_EE9push_backERKS0_,"axG",%progbits,_ZN8CIwArrayI12TileObstacle12CIwAllocatorIS0_15CIwMallocRouterIS0_EE17ReallocateDefaultIS0_S4_EE9push_backERKS0_,comdat
	.align	2
	.weak	_ZN8CIwArrayI12TileObstacle12CIwAllocatorIS0_15CIwMallocRouterIS0_EE17ReallocateDefaultIS0_S4_EE9push_backERKS0_
	.hidden	_ZN8CIwArrayI12TileObstacle12CIwAllocatorIS0_15CIwMallocRouterIS0_EE17ReallocateDefaultIS0_S4_EE9push_backERKS0_
	.type	_ZN8CIwArrayI12TileObstacle12CIwAllocatorIS0_15CIwMallocRouterIS0_EE17ReallocateDefaultIS0_S4_EE9push_backERKS0_, %function
_ZN8CIwArrayI12TileObstacle12CIwAllocatorIS0_15CIwMallocRouterIS0_EE17ReallocateDefaultIS0_S4_EE9push_backERKS0_:
.LFB3610:
	.loc 16 618 0
	.cfi_startproc
	@ args = 0, pretend = 0, frame = 8
	@ frame_needed = 0, uses_anonymous_args = 0
	str	lr, [sp, #-4]!
.LCFI144:
	.cfi_def_cfa_offset 4
	sub	sp, sp, #12
.LCFI145:
	.cfi_def_cfa_offset 16
	str	r0, [sp, #4]
	str	r1, [sp, #0]
.LBB40:
.LBB41:
	.loc 16 632 0
	ldr	r3, [sp, #4]
	ldr	r2, [r3, #0]
	ldr	r3, [sp, #0]
	cmp	r2, r3
	bhi	.L358
	.cfi_offset 14, -4
	ldr	r3, [sp, #4]
	ldr	r2, [r3, #0]
	ldr	r3, [sp, #4]
	ldr	r3, [r3, #8]
	mov	r1, #44
	mul	r3, r1, r3
	add	r2, r2, r3
	ldr	r3, [sp, #0]
	cmp	r2, r3
	bls	.L358
	ldr	r0, .L379
	bl	IwDebugAssertIsChannelOn
	mov	r3, r0
	cmp	r3, #0
	beq	.L358
	ldr	r3, .L379+4
	ldrb	r3, [r3, #0]	@ zero_extendqisi2
	cmp	r3, #0
	bne	.L358
	mov	r3, #1
	b	.L359
.L358:
	mov	r3, #0
.L359:
	cmp	r3, #0
	beq	.L360
	mov	r0, #0
	bl	IwDebugAssertSetSolution
	mov	r0, #0
	bl	IwDebugAssertSetUID
	mov	r0, #0
	bl	IwDebugAssertSetMessage
	ldr	r0, .L379+8
	ldr	r1, .L379+12
	mov	r2, #632
	mov	r3, #1
	bl	IwDebugAssertShow
	mov	r3, r0
	cmp	r3, #1
	beq	.L362
	cmp	r3, #2
	beq	.L363
	b	.L361
.L362:
	bl	s3eDebugIsDebuggerPresent
	mov	r3, r0
	cmp	r3, #0
	moveq	r3, #0
	movne	r3, #1
	and	r3, r3, #255
	cmp	r3, #0
	beq	.L364
	bl	s3eDebugIsDebuggerPresent
	mov	r3, r0
	cmp	r3, #0
	moveq	r3, #0
	movne	r3, #1
	and	r3, r3, #255
	cmp	r3, #0
	beq	.L377
	mvn	r3, #11
	mov	r2, #0
	str	r2, [r3, #0]
	b	.L361
.L364:
	bl	_ZL11IwDebugExitv
	b	.L361
.L363:
	ldr	r3, .L379+4
	mov	r2, #1
	strb	r2, [r3, #0]
	b	.L361
.L377:
	mov	r0, r0	@ nop
.L361:
	mov	r0, #0
	bl	IwDebugAssertSetUID
.L360:
.LBE41:
	.loc 16 634 0
	ldr	r3, [sp, #4]
	ldr	r3, [r3, #4]
	add	r3, r3, #1
	ldr	r0, [sp, #4]
	mov	r1, r3
	bl	_ZN8CIwArrayI12TileObstacle12CIwAllocatorIS0_15CIwMallocRouterIS0_EE17ReallocateDefaultIS0_S4_EE7reserveEj
.LBB42:
	.loc 16 635 0
	ldr	r3, [sp, #4]
	ldr	r2, [r3, #4]
	ldr	r3, [sp, #4]
	ldr	r3, [r3, #8]
	cmp	r2, r3
	bcc	.L367
	ldr	r0, .L379
	bl	IwDebugAssertIsChannelOn
	mov	r3, r0
	cmp	r3, #0
	beq	.L367
	ldr	r3, .L379+16
	ldrb	r3, [r3, #0]	@ zero_extendqisi2
	cmp	r3, #0
	bne	.L367
	mov	r3, #1
	b	.L368
.L367:
	mov	r3, #0
.L368:
	cmp	r3, #0
	beq	.L369
	mov	r0, #0
	bl	IwDebugAssertSetSolution
	mov	r0, #0
	bl	IwDebugAssertSetUID
	mov	r0, #0
	bl	IwDebugAssertSetMessage
	ldr	r0, .L379+20
	ldr	r1, .L379+12
	ldr	r2, .L379+24
	mov	r3, #1
	bl	IwDebugAssertShow
	mov	r3, r0
	cmp	r3, #1
	beq	.L371
	cmp	r3, #2
	beq	.L372
	b	.L370
.L371:
	bl	s3eDebugIsDebuggerPresent
	mov	r3, r0
	cmp	r3, #0
	moveq	r3, #0
	movne	r3, #1
	and	r3, r3, #255
	cmp	r3, #0
	beq	.L373
	bl	s3eDebugIsDebuggerPresent
	mov	r3, r0
	cmp	r3, #0
	moveq	r3, #0
	movne	r3, #1
	and	r3, r3, #255
	cmp	r3, #0
	beq	.L378
	mvn	r3, #11
	mov	r2, #0
	str	r2, [r3, #0]
	b	.L370
.L373:
	bl	_ZL11IwDebugExitv
	b	.L370
.L372:
	ldr	r3, .L379+16
	mov	r2, #1
	strb	r2, [r3, #0]
	b	.L370
.L378:
	mov	r0, r0	@ nop
.L370:
	mov	r0, #0
	bl	IwDebugAssertSetUID
.L369:
.LBE42:
	.loc 16 636 0
	ldr	r3, [sp, #4]
	ldr	r2, [r3, #0]
	ldr	r3, [sp, #4]
	ldr	r3, [r3, #4]
	mov	r1, #44
	mul	r3, r1, r3
	add	r3, r2, r3
	mov	r0, #44
	mov	r1, r3
	bl	_ZnwjPv
	mov	r3, r0
	mov	r0, r3
	ldr	r1, [sp, #0]
	bl	_ZN12TileObstacleC1ERKS_
	.loc 16 637 0
	ldr	r3, [sp, #4]
	ldr	r3, [r3, #4]
	mov	r2, r3
	add	r1, r3, #1
	ldr	r3, [sp, #4]
	str	r1, [r3, #4]
	mov	r3, r2
.LBE40:
	.loc 16 638 0
	mov	r0, r3
	add	sp, sp, #12
	ldmfd	sp!, {pc}
.L380:
	.align	2
.L379:
	.word	.LC10
	.word	_ZZN8CIwArrayI12TileObstacle12CIwAllocatorIS0_15CIwMallocRouterIS0_EE17ReallocateDefaultIS0_S4_EE9push_backERKS0_E21_s_IwAssertIgnoreThis
	.word	.LC14
	.word	.LC13
	.word	_ZZN8CIwArrayI12TileObstacle12CIwAllocatorIS0_15CIwMallocRouterIS0_EE17ReallocateDefaultIS0_S4_EE9push_backERKS0_E21_s_IwAssertIgnoreThis_0
	.word	.LC15
	.word	635
	.cfi_endproc
.LFE3610:
	.size	_ZN8CIwArrayI12TileObstacle12CIwAllocatorIS0_15CIwMallocRouterIS0_EE17ReallocateDefaultIS0_S4_EE9push_backERKS0_, .-_ZN8CIwArrayI12TileObstacle12CIwAllocatorIS0_15CIwMallocRouterIS0_EE17ReallocateDefaultIS0_S4_EE9push_backERKS0_
	.section	.text._ZN4_STL10_M_put_numIcNS_11char_traitsIcEElEERNS_13basic_ostreamIT_T0_EES7_T1_,"axG",%progbits,_ZN4_STL10_M_put_numIcNS_11char_traitsIcEElEERNS_13basic_ostreamIT_T0_EES7_T1_,comdat
	.align	2
	.weak	_ZN4_STL10_M_put_numIcNS_11char_traitsIcEElEERNS_13basic_ostreamIT_T0_EES7_T1_
	.hidden	_ZN4_STL10_M_put_numIcNS_11char_traitsIcEElEERNS_13basic_ostreamIT_T0_EES7_T1_
	.type	_ZN4_STL10_M_put_numIcNS_11char_traitsIcEElEERNS_13basic_ostreamIT_T0_EES7_T1_, %function
_ZN4_STL10_M_put_numIcNS_11char_traitsIcEElEERNS_13basic_ostreamIT_T0_EES7_T1_:
.LFB3611:
	.loc 22 202 0
	.cfi_startproc
	@ args = 0, pretend = 0, frame = 40
	@ frame_needed = 0, uses_anonymous_args = 0
	stmfd	sp!, {r4, r5, lr}
.LCFI146:
	.cfi_def_cfa_offset 12
	sub	sp, sp, #60
.LCFI147:
	.cfi_def_cfa_offset 72
	str	r0, [sp, #20]
	str	r1, [sp, #16]
.LBB43:
	.loc 22 205 0
	add	r3, sp, #24
	mov	r0, r3
	ldr	r1, [sp, #20]
	.cfi_offset 14, -4
	.cfi_offset 5, -8
	.cfi_offset 4, -12
	bl	_ZN4_STL13basic_ostreamIcNS_11char_traitsIcEEE6sentryC1ERS3_
	.loc 22 206 0
	mov	r3, #1
	strb	r3, [sp, #55]
	.loc 22 208 0
	add	r3, sp, #24
	mov	r0, r3
	bl	_ZNK4_STL13basic_ostreamIcNS_11char_traitsIcEEE6sentrycvbEv
	mov	r3, r0
	cmp	r3, #0
	beq	.L382
.LBB44:
	.loc 22 211 0
	ldr	r2, [sp, #20]
	ldr	r3, [sp, #20]
	ldr	r3, [r3, #0]
	sub	r3, r3, #12
	ldr	r3, [r3, #0]
	add	r3, r2, r3
	add	r2, sp, #40
	mov	r0, r2
	mov	r1, r3
	bl	_ZNK4_STL8ios_base6getlocEv
	add	r3, sp, #40
	mov	r0, r3
	bl	_ZN4_STL9use_facetINS_7num_putIcNS_19ostreambuf_iteratorIcNS_11char_traitsIcEEEEEEEERKT_RKNS_6localeE
	mov	r4, r0
	ldr	r2, [sp, #20]
	ldr	r3, [sp, #20]
	ldr	r3, [r3, #0]
	sub	r3, r3, #12
	ldr	r3, [r3, #0]
	add	r3, r2, r3
	mov	r0, r3
	bl	_ZNK4_STL9basic_iosIcNS_11char_traitsIcEEE5rdbufEv
	mov	r3, r0
	add	r2, sp, #44
	mov	r0, r2
	mov	r1, r3
	bl	_ZN4_STL19ostreambuf_iteratorIcNS_11char_traitsIcEEEC1EPNS_15basic_streambufIcS2_EE
	ldr	r2, [sp, #20]
	ldr	r3, [sp, #20]
	ldr	r3, [r3, #0]
	sub	r3, r3, #12
	ldr	r3, [r3, #0]
	add	r5, r2, r3
	ldr	r2, [sp, #20]
	ldr	r3, [sp, #20]
	ldr	r3, [r3, #0]
	sub	r3, r3, #12
	ldr	r3, [r3, #0]
	add	r3, r2, r3
	mov	r0, r3
	bl	_ZNK4_STL9basic_iosIcNS_11char_traitsIcEEE4fillEv
	mov	r3, r0
	mov	r2, r3
	add	r3, sp, #32
	str	r5, [sp, #0]
	str	r2, [sp, #4]
	ldr	r2, [sp, #16]
	str	r2, [sp, #8]
	mov	r0, r3
	mov	r1, r4
	add	r3, sp, #44
	ldmia	r3, {r2, r3}
	bl	_ZNK4_STL7num_putIcNS_19ostreambuf_iteratorIcNS_11char_traitsIcEEEEE3putES4_RNS_8ios_baseEcl
	add	r3, sp, #32
	mov	r0, r3
	bl	_ZNK4_STL19ostreambuf_iteratorIcNS_11char_traitsIcEEE6failedEv
	mov	r3, r0
	strb	r3, [sp, #55]
	add	r3, sp, #40
	mov	r0, r3
	bl	_ZN4_STL6localeD1Ev
.LBE44:
	.loc 22 216 0
	mov	r0, r0	@ nop
.L382:
	.loc 22 220 0
	ldrb	r3, [sp, #55]	@ zero_extendqisi2
	cmp	r3, #0
	beq	.L383
	.loc 22 221 0
	ldr	r2, [sp, #20]
	ldr	r3, [sp, #20]
	ldr	r3, [r3, #0]
	sub	r3, r3, #12
	ldr	r3, [r3, #0]
	add	r3, r2, r3
	mov	r0, r3
	mov	r1, #1
	bl	_ZN4_STL9basic_iosIcNS_11char_traitsIcEEE8setstateEi
.L383:
	.loc 22 222 0
	ldr	r4, [sp, #20]
	add	r3, sp, #24
	mov	r0, r3
	bl	_ZN4_STL13basic_ostreamIcNS_11char_traitsIcEEE6sentryD1Ev
	mov	r3, r4
.LBE43:
	.loc 22 223 0
	mov	r0, r3
	add	sp, sp, #60
	ldmfd	sp!, {r4, r5, pc}
	.cfi_endproc
.LFE3611:
	.size	_ZN4_STL10_M_put_numIcNS_11char_traitsIcEElEERNS_13basic_ostreamIT_T0_EES7_T1_, .-_ZN4_STL10_M_put_numIcNS_11char_traitsIcEElEERNS_13basic_ostreamIT_T0_EES7_T1_
	.section	.text._ZN15CIwMallocRouterIiE6DoFreeEPv,"axG",%progbits,_ZN15CIwMallocRouterIiE6DoFreeEPv,comdat
	.align	2
	.weak	_ZN15CIwMallocRouterIiE6DoFreeEPv
	.hidden	_ZN15CIwMallocRouterIiE6DoFreeEPv
	.type	_ZN15CIwMallocRouterIiE6DoFreeEPv, %function
_ZN15CIwMallocRouterIiE6DoFreeEPv:
.LFB3624:
	.loc 20 93 0
	.cfi_startproc
	@ args = 0, pretend = 0, frame = 8
	@ frame_needed = 0, uses_anonymous_args = 0
	str	lr, [sp, #-4]!
.LCFI148:
	.cfi_def_cfa_offset 4
	sub	sp, sp, #12
.LCFI149:
	.cfi_def_cfa_offset 16
	str	r0, [sp, #4]
	.loc 20 95 0
	ldr	r0, [sp, #4]
	mov	r1, #4
	.cfi_offset 14, -4
	bl	_ZN22CIwDefaultMallocRouter8BaseFreeEPvj
	.loc 20 96 0
	add	sp, sp, #12
	ldmfd	sp!, {pc}
	.cfi_endproc
.LFE3624:
	.size	_ZN15CIwMallocRouterIiE6DoFreeEPv, .-_ZN15CIwMallocRouterIiE6DoFreeEPv
	.section	.text._ZN4_STL17_STLP_alloc_proxyIP8ObstacleS1_NS_9allocatorIS1_EEEC1ERKS4_S2_,"axG",%progbits,_ZN4_STL17_STLP_alloc_proxyIP8ObstacleS1_NS_9allocatorIS1_EEEC1ERKS4_S2_,comdat
	.align	2
	.weak	_ZN4_STL17_STLP_alloc_proxyIP8ObstacleS1_NS_9allocatorIS1_EEEC1ERKS4_S2_
	.hidden	_ZN4_STL17_STLP_alloc_proxyIP8ObstacleS1_NS_9allocatorIS1_EEEC1ERKS4_S2_
	.type	_ZN4_STL17_STLP_alloc_proxyIP8ObstacleS1_NS_9allocatorIS1_EEEC1ERKS4_S2_, %function
_ZN4_STL17_STLP_alloc_proxyIP8ObstacleS1_NS_9allocatorIS1_EEEC1ERKS4_S2_:
.LFB3628:
	.loc 17 487 0
	.cfi_startproc
	@ args = 0, pretend = 0, frame = 16
	@ frame_needed = 0, uses_anonymous_args = 0
	str	lr, [sp, #-4]!
.LCFI150:
	.cfi_def_cfa_offset 4
	sub	sp, sp, #20
.LCFI151:
	.cfi_def_cfa_offset 24
	str	r0, [sp, #12]
	str	r1, [sp, #8]
	str	r2, [sp, #4]
	.loc 17 487 0
	ldr	r3, [sp, #12]
	mov	r0, r3
	ldr	r1, [sp, #8]
	.cfi_offset 14, -4
	bl	_ZN4_STL9allocatorI8ObstacleEC2ERKS2_
	ldr	r3, [sp, #12]
	ldr	r2, [sp, #4]
	str	r2, [r3, #0]
	ldr	r3, [sp, #12]
	mov	r0, r3
	add	sp, sp, #20
	ldmfd	sp!, {pc}
	.cfi_endproc
.LFE3628:
	.size	_ZN4_STL17_STLP_alloc_proxyIP8ObstacleS1_NS_9allocatorIS1_EEEC1ERKS4_S2_, .-_ZN4_STL17_STLP_alloc_proxyIP8ObstacleS1_NS_9allocatorIS1_EEEC1ERKS4_S2_
	.section	.text._ZN4_STL9allocatorI8ObstacleE10deallocateEPS1_j,"axG",%progbits,_ZN4_STL9allocatorI8ObstacleE10deallocateEPS1_j,comdat
	.align	2
	.weak	_ZN4_STL9allocatorI8ObstacleE10deallocateEPS1_j
	.hidden	_ZN4_STL9allocatorI8ObstacleE10deallocateEPS1_j
	.type	_ZN4_STL9allocatorI8ObstacleE10deallocateEPS1_j, %function
_ZN4_STL9allocatorI8ObstacleE10deallocateEPS1_j:
.LFB3629:
	.loc 17 358 0
	.cfi_startproc
	@ args = 0, pretend = 0, frame = 16
	@ frame_needed = 0, uses_anonymous_args = 0
	str	lr, [sp, #-4]!
.LCFI152:
	.cfi_def_cfa_offset 4
	sub	sp, sp, #20
.LCFI153:
	.cfi_def_cfa_offset 24
	str	r0, [sp, #12]
	str	r1, [sp, #8]
	str	r2, [sp, #4]
	.loc 17 360 0
	ldr	r3, [sp, #8]
	cmp	r3, #0
	beq	.L392
	.cfi_offset 14, -4
	ldr	r3, [sp, #4]
	mov	r3, r3, asl #4
	ldr	r0, [sp, #8]
	mov	r1, r3
	bl	_ZN4_STL14__malloc_allocILi0EE10deallocateEPvj
.L392:
	.loc 17 361 0
	add	sp, sp, #20
	ldmfd	sp!, {pc}
	.cfi_endproc
.LFE3629:
	.size	_ZN4_STL9allocatorI8ObstacleE10deallocateEPS1_j, .-_ZN4_STL9allocatorI8ObstacleE10deallocateEPS1_j
	.section	.text._ZN4_STL9__destroyIP8ObstacleS1_EEvT_S3_PT0_,"axG",%progbits,_ZN4_STL9__destroyIP8ObstacleS1_EEvT_S3_PT0_,comdat
	.align	2
	.weak	_ZN4_STL9__destroyIP8ObstacleS1_EEvT_S3_PT0_
	.hidden	_ZN4_STL9__destroyIP8ObstacleS1_EEvT_S3_PT0_
	.type	_ZN4_STL9__destroyIP8ObstacleS1_EEvT_S3_PT0_, %function
_ZN4_STL9__destroyIP8ObstacleS1_EEvT_S3_PT0_:
.LFB3630:
	.loc 21 132 0
	.cfi_startproc
	@ args = 0, pretend = 0, frame = 24
	@ frame_needed = 0, uses_anonymous_args = 0
	str	lr, [sp, #-4]!
.LCFI154:
	.cfi_def_cfa_offset 4
	sub	sp, sp, #28
.LCFI155:
	.cfi_def_cfa_offset 32
	str	r0, [sp, #12]
	str	r1, [sp, #8]
	str	r2, [sp, #4]
.LBB45:
	.loc 21 134 0
	add	r3, sp, #20
	ldr	r0, [sp, #12]
	ldr	r1, [sp, #8]
	mov	r2, r3
	.cfi_offset 14, -4
	bl	_ZN4_STL13__destroy_auxIP8ObstacleEEvT_S3_RKNS_12__false_typeE
.LBE45:
	.loc 21 135 0
	add	sp, sp, #28
	ldmfd	sp!, {pc}
	.cfi_endproc
.LFE3630:
	.size	_ZN4_STL9__destroyIP8ObstacleS1_EEvT_S3_PT0_, .-_ZN4_STL9__destroyIP8ObstacleS1_EEvT_S3_PT0_
	.section	.rodata
	.align	2
.LC16:
	.ascii	"q<=num_p\000"
	.section	.text._ZN8CIwArrayIi12CIwAllocatorIi15CIwMallocRouterIiEE17ReallocateDefaultIiS3_EE8truncateEj,"axG",%progbits,_ZN8CIwArrayIi12CIwAllocatorIi15CIwMallocRouterIiEE17ReallocateDefaultIiS3_EE8truncateEj,comdat
	.align	2
	.weak	_ZN8CIwArrayIi12CIwAllocatorIi15CIwMallocRouterIiEE17ReallocateDefaultIiS3_EE8truncateEj
	.hidden	_ZN8CIwArrayIi12CIwAllocatorIi15CIwMallocRouterIiEE17ReallocateDefaultIiS3_EE8truncateEj
	.type	_ZN8CIwArrayIi12CIwAllocatorIi15CIwMallocRouterIiEE17ReallocateDefaultIiS3_EE8truncateEj, %function
_ZN8CIwArrayIi12CIwAllocatorIi15CIwMallocRouterIiEE17ReallocateDefaultIiS3_EE8truncateEj:
.LFB3631:
	.loc 16 765 0
	.cfi_startproc
	@ args = 0, pretend = 0, frame = 16
	@ frame_needed = 0, uses_anonymous_args = 0
	str	lr, [sp, #-4]!
.LCFI156:
	.cfi_def_cfa_offset 4
	sub	sp, sp, #20
.LCFI157:
	.cfi_def_cfa_offset 24
	str	r0, [sp, #4]
	str	r1, [sp, #0]
.LBB46:
.LBB47:
	.loc 16 767 0
	ldr	r3, [sp, #4]
	ldr	r2, [r3, #4]
	ldr	r3, [sp, #0]
	cmp	r2, r3
	bcs	.L396
	.cfi_offset 14, -4
	ldr	r0, .L409
	bl	IwDebugAssertIsChannelOn
	mov	r3, r0
	cmp	r3, #0
	beq	.L396
	ldr	r3, .L409+4
	ldrb	r3, [r3, #0]	@ zero_extendqisi2
	cmp	r3, #0
	bne	.L396
	mov	r3, #1
	b	.L397
.L396:
	mov	r3, #0
.L397:
	cmp	r3, #0
	beq	.L398
	mov	r0, #0
	bl	IwDebugAssertSetSolution
	mov	r0, #0
	bl	IwDebugAssertSetUID
	mov	r0, #0
	bl	IwDebugAssertSetMessage
	ldr	r0, .L409+8
	ldr	r1, .L409+12
	ldr	r2, .L409+16
	mov	r3, #1
	bl	IwDebugAssertShow
	mov	r3, r0
	cmp	r3, #1
	beq	.L400
	cmp	r3, #2
	beq	.L401
	b	.L399
.L400:
	bl	s3eDebugIsDebuggerPresent
	mov	r3, r0
	cmp	r3, #0
	moveq	r3, #0
	movne	r3, #1
	and	r3, r3, #255
	cmp	r3, #0
	beq	.L402
	bl	s3eDebugIsDebuggerPresent
	mov	r3, r0
	cmp	r3, #0
	moveq	r3, #0
	movne	r3, #1
	and	r3, r3, #255
	cmp	r3, #0
	beq	.L408
	mvn	r3, #11
	mov	r2, #0
	str	r2, [r3, #0]
	b	.L399
.L402:
	bl	_ZL11IwDebugExitv
	b	.L399
.L401:
	ldr	r3, .L409+4
	mov	r2, #1
	strb	r2, [r3, #0]
	b	.L399
.L408:
	mov	r0, r0	@ nop
.L399:
	mov	r0, #0
	bl	IwDebugAssertSetUID
.L398:
.LBE47:
.LBB48:
	.loc 16 769 0
	ldr	r3, [sp, #0]
	str	r3, [sp, #12]
	b	.L405
.L406:
	ldr	r3, [sp, #12]
	add	r3, r3, #1
	str	r3, [sp, #12]
.L405:
	ldr	r3, [sp, #4]
	ldr	r2, [r3, #4]
	ldr	r3, [sp, #12]
	cmp	r2, r3
	movls	r3, #0
	movhi	r3, #1
	and	r3, r3, #255
	cmp	r3, #0
	bne	.L406
.LBE48:
	.loc 16 771 0
	ldr	r3, [sp, #4]
	ldr	r2, [sp, #0]
	str	r2, [r3, #4]
.LBE46:
	.loc 16 772 0
	add	sp, sp, #20
	ldmfd	sp!, {pc}
.L410:
	.align	2
.L409:
	.word	.LC10
	.word	_ZZN8CIwArrayIi12CIwAllocatorIi15CIwMallocRouterIiEE17ReallocateDefaultIiS3_EE8truncateEjE21_s_IwAssertIgnoreThis
	.word	.LC16
	.word	.LC13
	.word	767
	.cfi_endproc
.LFE3631:
	.size	_ZN8CIwArrayIi12CIwAllocatorIi15CIwMallocRouterIiEE17ReallocateDefaultIiS3_EE8truncateEj, .-_ZN8CIwArrayIi12CIwAllocatorIi15CIwMallocRouterIiEE17ReallocateDefaultIiS3_EE8truncateEj
	.section	.rodata
	.align	2
.LC17:
	.ascii	"qty>=0\000"
	.section	.text._ZN8CIwArrayIi12CIwAllocatorIi15CIwMallocRouterIiEE17ReallocateDefaultIiS3_EE13push_back_qtyEi,"axG",%progbits,_ZN8CIwArrayIi12CIwAllocatorIi15CIwMallocRouterIiEE17ReallocateDefaultIiS3_EE13push_back_qtyEi,comdat
	.align	2
	.weak	_ZN8CIwArrayIi12CIwAllocatorIi15CIwMallocRouterIiEE17ReallocateDefaultIiS3_EE13push_back_qtyEi
	.hidden	_ZN8CIwArrayIi12CIwAllocatorIi15CIwMallocRouterIiEE17ReallocateDefaultIiS3_EE13push_back_qtyEi
	.type	_ZN8CIwArrayIi12CIwAllocatorIi15CIwMallocRouterIiEE17ReallocateDefaultIiS3_EE13push_back_qtyEi, %function
_ZN8CIwArrayIi12CIwAllocatorIi15CIwMallocRouterIiEE17ReallocateDefaultIiS3_EE13push_back_qtyEi:
.LFB3632:
	.loc 16 679 0
	.cfi_startproc
	@ args = 0, pretend = 0, frame = 16
	@ frame_needed = 0, uses_anonymous_args = 0
	str	lr, [sp, #-4]!
.LCFI158:
	.cfi_def_cfa_offset 4
	sub	sp, sp, #20
.LCFI159:
	.cfi_def_cfa_offset 24
	str	r0, [sp, #4]
	str	r1, [sp, #0]
.LBB49:
.LBB50:
	.loc 16 681 0
	ldr	r3, [sp, #0]
	cmp	r3, #0
	bge	.L412
	.cfi_offset 14, -4
	ldr	r0, .L425
	bl	IwDebugAssertIsChannelOn
	mov	r3, r0
	cmp	r3, #0
	beq	.L412
	ldr	r3, .L425+4
	ldrb	r3, [r3, #0]	@ zero_extendqisi2
	cmp	r3, #0
	bne	.L412
	mov	r3, #1
	b	.L413
.L412:
	mov	r3, #0
.L413:
	cmp	r3, #0
	beq	.L414
	mov	r0, #0
	bl	IwDebugAssertSetSolution
	mov	r0, #0
	bl	IwDebugAssertSetUID
	mov	r0, #0
	bl	IwDebugAssertSetMessage
	ldr	r0, .L425+8
	ldr	r1, .L425+12
	ldr	r2, .L425+16
	mov	r3, #1
	bl	IwDebugAssertShow
	mov	r3, r0
	cmp	r3, #1
	beq	.L416
	cmp	r3, #2
	beq	.L417
	b	.L415
.L416:
	bl	s3eDebugIsDebuggerPresent
	mov	r3, r0
	cmp	r3, #0
	moveq	r3, #0
	movne	r3, #1
	and	r3, r3, #255
	cmp	r3, #0
	beq	.L418
	bl	s3eDebugIsDebuggerPresent
	mov	r3, r0
	cmp	r3, #0
	moveq	r3, #0
	movne	r3, #1
	and	r3, r3, #255
	cmp	r3, #0
	beq	.L424
	mvn	r3, #11
	mov	r2, #0
	str	r2, [r3, #0]
	b	.L415
.L418:
	bl	_ZL11IwDebugExitv
	b	.L415
.L417:
	ldr	r3, .L425+4
	mov	r2, #1
	strb	r2, [r3, #0]
	b	.L415
.L424:
	mov	r0, r0	@ nop
.L415:
	mov	r0, #0
	bl	IwDebugAssertSetUID
.L414:
.LBE50:
	.loc 16 682 0
	ldr	r3, [sp, #4]
	ldr	r2, [r3, #4]
	ldr	r3, [sp, #0]
	add	r3, r2, r3
	ldr	r0, [sp, #4]
	mov	r1, r3
	bl	_ZN8CIwArrayIi12CIwAllocatorIi15CIwMallocRouterIiEE17ReallocateDefaultIiS3_EE7reserveEj
.LBB51:
	.loc 16 683 0
	mov	r3, #0
	str	r3, [sp, #12]
	b	.L421
.L422:
	.loc 16 684 0
	ldr	r3, [sp, #4]
	ldr	r2, [r3, #0]
	ldr	r3, [sp, #4]
	ldr	r1, [r3, #4]
	ldr	r3, [sp, #12]
	add	r3, r1, r3
	mov	r3, r3, asl #2
	add	r3, r2, r3
	mov	r0, #4
	mov	r1, r3
	bl	_ZnwjPv
	.loc 16 683 0
	ldr	r3, [sp, #12]
	add	r3, r3, #1
	str	r3, [sp, #12]
.L421:
	ldr	r2, [sp, #12]
	ldr	r3, [sp, #0]
	cmp	r2, r3
	movge	r3, #0
	movlt	r3, #1
	and	r3, r3, #255
	cmp	r3, #0
	bne	.L422
.LBE51:
	.loc 16 685 0
	ldr	r3, [sp, #4]
	ldr	r2, [r3, #4]
	ldr	r3, [sp, #0]
	add	r2, r2, r3
	ldr	r3, [sp, #4]
	str	r2, [r3, #4]
.LBE49:
	.loc 16 686 0
	add	sp, sp, #20
	ldmfd	sp!, {pc}
.L426:
	.align	2
.L425:
	.word	.LC10
	.word	_ZZN8CIwArrayIi12CIwAllocatorIi15CIwMallocRouterIiEE17ReallocateDefaultIiS3_EE13push_back_qtyEiE21_s_IwAssertIgnoreThis
	.word	.LC17
	.word	.LC13
	.word	681
	.cfi_endproc
.LFE3632:
	.size	_ZN8CIwArrayIi12CIwAllocatorIi15CIwMallocRouterIiEE17ReallocateDefaultIiS3_EE13push_back_qtyEi, .-_ZN8CIwArrayIi12CIwAllocatorIi15CIwMallocRouterIiEE17ReallocateDefaultIiS3_EE13push_back_qtyEi
	.section	.text._ZN8CIwArrayI8TileUnit12CIwAllocatorIS0_15CIwMallocRouterIS0_EE17ReallocateDefaultIS0_S4_EE8truncateEj,"axG",%progbits,_ZN8CIwArrayI8TileUnit12CIwAllocatorIS0_15CIwMallocRouterIS0_EE17ReallocateDefaultIS0_S4_EE8truncateEj,comdat
	.align	2
	.weak	_ZN8CIwArrayI8TileUnit12CIwAllocatorIS0_15CIwMallocRouterIS0_EE17ReallocateDefaultIS0_S4_EE8truncateEj
	.hidden	_ZN8CIwArrayI8TileUnit12CIwAllocatorIS0_15CIwMallocRouterIS0_EE17ReallocateDefaultIS0_S4_EE8truncateEj
	.type	_ZN8CIwArrayI8TileUnit12CIwAllocatorIS0_15CIwMallocRouterIS0_EE17ReallocateDefaultIS0_S4_EE8truncateEj, %function
_ZN8CIwArrayI8TileUnit12CIwAllocatorIS0_15CIwMallocRouterIS0_EE17ReallocateDefaultIS0_S4_EE8truncateEj:
.LFB3633:
	.loc 16 765 0
	.cfi_startproc
	@ args = 0, pretend = 0, frame = 16
	@ frame_needed = 0, uses_anonymous_args = 0
	str	lr, [sp, #-4]!
.LCFI160:
	.cfi_def_cfa_offset 4
	sub	sp, sp, #20
.LCFI161:
	.cfi_def_cfa_offset 24
	str	r0, [sp, #4]
	str	r1, [sp, #0]
.LBB52:
.LBB53:
	.loc 16 767 0
	ldr	r3, [sp, #4]
	ldr	r2, [r3, #4]
	ldr	r3, [sp, #0]
	cmp	r2, r3
	bcs	.L428
	.cfi_offset 14, -4
	ldr	r0, .L441
	bl	IwDebugAssertIsChannelOn
	mov	r3, r0
	cmp	r3, #0
	beq	.L428
	ldr	r3, .L441+4
	ldrb	r3, [r3, #0]	@ zero_extendqisi2
	cmp	r3, #0
	bne	.L428
	mov	r3, #1
	b	.L429
.L428:
	mov	r3, #0
.L429:
	cmp	r3, #0
	beq	.L430
	mov	r0, #0
	bl	IwDebugAssertSetSolution
	mov	r0, #0
	bl	IwDebugAssertSetUID
	mov	r0, #0
	bl	IwDebugAssertSetMessage
	ldr	r0, .L441+8
	ldr	r1, .L441+12
	ldr	r2, .L441+16
	mov	r3, #1
	bl	IwDebugAssertShow
	mov	r3, r0
	cmp	r3, #1
	beq	.L432
	cmp	r3, #2
	beq	.L433
	b	.L431
.L432:
	bl	s3eDebugIsDebuggerPresent
	mov	r3, r0
	cmp	r3, #0
	moveq	r3, #0
	movne	r3, #1
	and	r3, r3, #255
	cmp	r3, #0
	beq	.L434
	bl	s3eDebugIsDebuggerPresent
	mov	r3, r0
	cmp	r3, #0
	moveq	r3, #0
	movne	r3, #1
	and	r3, r3, #255
	cmp	r3, #0
	beq	.L440
	mvn	r3, #11
	mov	r2, #0
	str	r2, [r3, #0]
	b	.L431
.L434:
	bl	_ZL11IwDebugExitv
	b	.L431
.L433:
	ldr	r3, .L441+4
	mov	r2, #1
	strb	r2, [r3, #0]
	b	.L431
.L440:
	mov	r0, r0	@ nop
.L431:
	mov	r0, #0
	bl	IwDebugAssertSetUID
.L430:
.LBE53:
.LBB54:
	.loc 16 769 0
	ldr	r3, [sp, #0]
	str	r3, [sp, #12]
	b	.L437
.L438:
	.loc 16 770 0
	ldr	r3, [sp, #4]
	ldr	r2, [r3, #0]
	ldr	r3, [sp, #12]
	mov	r3, r3, asl #3
	add	r3, r2, r3
	mov	r0, r3
	bl	_ZN8TileUnitD1Ev
	.loc 16 769 0
	ldr	r3, [sp, #12]
	add	r3, r3, #1
	str	r3, [sp, #12]
.L437:
	ldr	r3, [sp, #4]
	ldr	r2, [r3, #4]
	ldr	r3, [sp, #12]
	cmp	r2, r3
	movls	r3, #0
	movhi	r3, #1
	and	r3, r3, #255
	cmp	r3, #0
	bne	.L438
.LBE54:
	.loc 16 771 0
	ldr	r3, [sp, #4]
	ldr	r2, [sp, #0]
	str	r2, [r3, #4]
.LBE52:
	.loc 16 772 0
	add	sp, sp, #20
	ldmfd	sp!, {pc}
.L442:
	.align	2
.L441:
	.word	.LC10
	.word	_ZZN8CIwArrayI8TileUnit12CIwAllocatorIS0_15CIwMallocRouterIS0_EE17ReallocateDefaultIS0_S4_EE8truncateEjE21_s_IwAssertIgnoreThis
	.word	.LC16
	.word	.LC13
	.word	767
	.cfi_endproc
.LFE3633:
	.size	_ZN8CIwArrayI8TileUnit12CIwAllocatorIS0_15CIwMallocRouterIS0_EE17ReallocateDefaultIS0_S4_EE8truncateEj, .-_ZN8CIwArrayI8TileUnit12CIwAllocatorIS0_15CIwMallocRouterIS0_EE17ReallocateDefaultIS0_S4_EE8truncateEj
	.section	.text._ZN8CIwArrayI8TileUnit12CIwAllocatorIS0_15CIwMallocRouterIS0_EE17ReallocateDefaultIS0_S4_EE13push_back_qtyEi,"axG",%progbits,_ZN8CIwArrayI8TileUnit12CIwAllocatorIS0_15CIwMallocRouterIS0_EE17ReallocateDefaultIS0_S4_EE13push_back_qtyEi,comdat
	.align	2
	.weak	_ZN8CIwArrayI8TileUnit12CIwAllocatorIS0_15CIwMallocRouterIS0_EE17ReallocateDefaultIS0_S4_EE13push_back_qtyEi
	.hidden	_ZN8CIwArrayI8TileUnit12CIwAllocatorIS0_15CIwMallocRouterIS0_EE17ReallocateDefaultIS0_S4_EE13push_back_qtyEi
	.type	_ZN8CIwArrayI8TileUnit12CIwAllocatorIS0_15CIwMallocRouterIS0_EE17ReallocateDefaultIS0_S4_EE13push_back_qtyEi, %function
_ZN8CIwArrayI8TileUnit12CIwAllocatorIS0_15CIwMallocRouterIS0_EE17ReallocateDefaultIS0_S4_EE13push_back_qtyEi:
.LFB3634:
	.loc 16 679 0
	.cfi_startproc
	@ args = 0, pretend = 0, frame = 16
	@ frame_needed = 0, uses_anonymous_args = 0
	str	lr, [sp, #-4]!
.LCFI162:
	.cfi_def_cfa_offset 4
	sub	sp, sp, #20
.LCFI163:
	.cfi_def_cfa_offset 24
	str	r0, [sp, #4]
	str	r1, [sp, #0]
.LBB55:
.LBB56:
	.loc 16 681 0
	ldr	r3, [sp, #0]
	cmp	r3, #0
	bge	.L444
	.cfi_offset 14, -4
	ldr	r0, .L457
	bl	IwDebugAssertIsChannelOn
	mov	r3, r0
	cmp	r3, #0
	beq	.L444
	ldr	r3, .L457+4
	ldrb	r3, [r3, #0]	@ zero_extendqisi2
	cmp	r3, #0
	bne	.L444
	mov	r3, #1
	b	.L445
.L444:
	mov	r3, #0
.L445:
	cmp	r3, #0
	beq	.L446
	mov	r0, #0
	bl	IwDebugAssertSetSolution
	mov	r0, #0
	bl	IwDebugAssertSetUID
	mov	r0, #0
	bl	IwDebugAssertSetMessage
	ldr	r0, .L457+8
	ldr	r1, .L457+12
	ldr	r2, .L457+16
	mov	r3, #1
	bl	IwDebugAssertShow
	mov	r3, r0
	cmp	r3, #1
	beq	.L448
	cmp	r3, #2
	beq	.L449
	b	.L447
.L448:
	bl	s3eDebugIsDebuggerPresent
	mov	r3, r0
	cmp	r3, #0
	moveq	r3, #0
	movne	r3, #1
	and	r3, r3, #255
	cmp	r3, #0
	beq	.L450
	bl	s3eDebugIsDebuggerPresent
	mov	r3, r0
	cmp	r3, #0
	moveq	r3, #0
	movne	r3, #1
	and	r3, r3, #255
	cmp	r3, #0
	beq	.L456
	mvn	r3, #11
	mov	r2, #0
	str	r2, [r3, #0]
	b	.L447
.L450:
	bl	_ZL11IwDebugExitv
	b	.L447
.L449:
	ldr	r3, .L457+4
	mov	r2, #1
	strb	r2, [r3, #0]
	b	.L447
.L456:
	mov	r0, r0	@ nop
.L447:
	mov	r0, #0
	bl	IwDebugAssertSetUID
.L446:
.LBE56:
	.loc 16 682 0
	ldr	r3, [sp, #4]
	ldr	r2, [r3, #4]
	ldr	r3, [sp, #0]
	add	r3, r2, r3
	ldr	r0, [sp, #4]
	mov	r1, r3
	bl	_ZN8CIwArrayI8TileUnit12CIwAllocatorIS0_15CIwMallocRouterIS0_EE17ReallocateDefaultIS0_S4_EE7reserveEj
.LBB57:
	.loc 16 683 0
	mov	r3, #0
	str	r3, [sp, #12]
	b	.L453
.L454:
	.loc 16 684 0
	ldr	r3, [sp, #4]
	ldr	r2, [r3, #0]
	ldr	r3, [sp, #4]
	ldr	r1, [r3, #4]
	ldr	r3, [sp, #12]
	add	r3, r1, r3
	mov	r3, r3, asl #3
	add	r3, r2, r3
	mov	r0, #8
	mov	r1, r3
	bl	_ZnwjPv
	mov	r3, r0
	mov	r0, r3
	bl	_ZN8TileUnitC1Ev
	.loc 16 683 0
	ldr	r3, [sp, #12]
	add	r3, r3, #1
	str	r3, [sp, #12]
.L453:
	ldr	r2, [sp, #12]
	ldr	r3, [sp, #0]
	cmp	r2, r3
	movge	r3, #0
	movlt	r3, #1
	and	r3, r3, #255
	cmp	r3, #0
	bne	.L454
.LBE57:
	.loc 16 685 0
	ldr	r3, [sp, #4]
	ldr	r2, [r3, #4]
	ldr	r3, [sp, #0]
	add	r2, r2, r3
	ldr	r3, [sp, #4]
	str	r2, [r3, #4]
.LBE55:
	.loc 16 686 0
	add	sp, sp, #20
	ldmfd	sp!, {pc}
.L458:
	.align	2
.L457:
	.word	.LC10
	.word	_ZZN8CIwArrayI8TileUnit12CIwAllocatorIS0_15CIwMallocRouterIS0_EE17ReallocateDefaultIS0_S4_EE13push_back_qtyEiE21_s_IwAssertIgnoreThis
	.word	.LC17
	.word	.LC13
	.word	681
	.cfi_endproc
.LFE3634:
	.size	_ZN8CIwArrayI8TileUnit12CIwAllocatorIS0_15CIwMallocRouterIS0_EE17ReallocateDefaultIS0_S4_EE13push_back_qtyEi, .-_ZN8CIwArrayI8TileUnit12CIwAllocatorIS0_15CIwMallocRouterIS0_EE17ReallocateDefaultIS0_S4_EE13push_back_qtyEi
	.section	.text._ZN15CIwMallocRouterI8TileUnitE6DoFreeEPv,"axG",%progbits,_ZN15CIwMallocRouterI8TileUnitE6DoFreeEPv,comdat
	.align	2
	.weak	_ZN15CIwMallocRouterI8TileUnitE6DoFreeEPv
	.hidden	_ZN15CIwMallocRouterI8TileUnitE6DoFreeEPv
	.type	_ZN15CIwMallocRouterI8TileUnitE6DoFreeEPv, %function
_ZN15CIwMallocRouterI8TileUnitE6DoFreeEPv:
.LFB3635:
	.loc 20 93 0
	.cfi_startproc
	@ args = 0, pretend = 0, frame = 8
	@ frame_needed = 0, uses_anonymous_args = 0
	str	lr, [sp, #-4]!
.LCFI164:
	.cfi_def_cfa_offset 4
	sub	sp, sp, #12
.LCFI165:
	.cfi_def_cfa_offset 16
	str	r0, [sp, #4]
	.loc 20 95 0
	ldr	r0, [sp, #4]
	mov	r1, #8
	.cfi_offset 14, -4
	bl	_ZN22CIwDefaultMallocRouter8BaseFreeEPvj
	.loc 20 96 0
	add	sp, sp, #12
	ldmfd	sp!, {pc}
	.cfi_endproc
.LFE3635:
	.size	_ZN15CIwMallocRouterI8TileUnitE6DoFreeEPv, .-_ZN15CIwMallocRouterI8TileUnitE6DoFreeEPv
	.section	.text._ZN15CIwMallocRouterI12TileObstacleE6DoFreeEPv,"axG",%progbits,_ZN15CIwMallocRouterI12TileObstacleE6DoFreeEPv,comdat
	.align	2
	.weak	_ZN15CIwMallocRouterI12TileObstacleE6DoFreeEPv
	.hidden	_ZN15CIwMallocRouterI12TileObstacleE6DoFreeEPv
	.type	_ZN15CIwMallocRouterI12TileObstacleE6DoFreeEPv, %function
_ZN15CIwMallocRouterI12TileObstacleE6DoFreeEPv:
.LFB3638:
	.loc 20 93 0
	.cfi_startproc
	@ args = 0, pretend = 0, frame = 8
	@ frame_needed = 0, uses_anonymous_args = 0
	str	lr, [sp, #-4]!
.LCFI166:
	.cfi_def_cfa_offset 4
	sub	sp, sp, #12
.LCFI167:
	.cfi_def_cfa_offset 16
	str	r0, [sp, #4]
	.loc 20 95 0
	ldr	r0, [sp, #4]
	mov	r1, #44
	.cfi_offset 14, -4
	bl	_ZN22CIwDefaultMallocRouter8BaseFreeEPvj
	.loc 20 96 0
	add	sp, sp, #12
	ldmfd	sp!, {pc}
	.cfi_endproc
.LFE3638:
	.size	_ZN15CIwMallocRouterI12TileObstacleE6DoFreeEPv, .-_ZN15CIwMallocRouterI12TileObstacleE6DoFreeEPv
	.section	.text._ZN4_STL13basic_ostreamIcNS_11char_traitsIcEEE6sentryC1ERS3_,"axG",%progbits,_ZN4_STL13basic_ostreamIcNS_11char_traitsIcEEE6sentryC1ERS3_,comdat
	.align	2
	.weak	_ZN4_STL13basic_ostreamIcNS_11char_traitsIcEEE6sentryC1ERS3_
	.hidden	_ZN4_STL13basic_ostreamIcNS_11char_traitsIcEEE6sentryC1ERS3_
	.type	_ZN4_STL13basic_ostreamIcNS_11char_traitsIcEEE6sentryC1ERS3_, %function
_ZN4_STL13basic_ostreamIcNS_11char_traitsIcEEE6sentryC1ERS3_:
.LFB3657:
	.loc 19 171 0
	.cfi_startproc
	@ args = 0, pretend = 0, frame = 8
	@ frame_needed = 0, uses_anonymous_args = 0
	str	lr, [sp, #-4]!
.LCFI168:
	.cfi_def_cfa_offset 4
	sub	sp, sp, #12
.LCFI169:
	.cfi_def_cfa_offset 16
	str	r0, [sp, #4]
	str	r1, [sp, #0]
	.loc 19 172 0
	ldr	r3, [sp, #4]
	ldr	r2, [sp, #0]
	str	r2, [r3, #0]
	ldr	r0, [sp, #0]
	.cfi_offset 14, -4
	bl	_ZN4_STL7_M_initIcNS_11char_traitsIcEEEEbRNS_13basic_ostreamIT_T0_EE
	mov	r3, r0
	mov	r2, r3
	ldr	r3, [sp, #4]
	strb	r2, [r3, #4]
	.loc 19 173 0
	ldr	r3, [sp, #4]
	.loc 19 174 0
	mov	r0, r3
	add	sp, sp, #12
	ldmfd	sp!, {pc}
	.cfi_endproc
.LFE3657:
	.size	_ZN4_STL13basic_ostreamIcNS_11char_traitsIcEEE6sentryC1ERS3_, .-_ZN4_STL13basic_ostreamIcNS_11char_traitsIcEEE6sentryC1ERS3_
	.section	.text._ZN4_STL13basic_ostreamIcNS_11char_traitsIcEEE6sentryD1Ev,"axG",%progbits,_ZN4_STL13basic_ostreamIcNS_11char_traitsIcEEE6sentryD1Ev,comdat
	.align	2
	.weak	_ZN4_STL13basic_ostreamIcNS_11char_traitsIcEEE6sentryD1Ev
	.hidden	_ZN4_STL13basic_ostreamIcNS_11char_traitsIcEEE6sentryD1Ev
	.type	_ZN4_STL13basic_ostreamIcNS_11char_traitsIcEEE6sentryD1Ev, %function
_ZN4_STL13basic_ostreamIcNS_11char_traitsIcEEE6sentryD1Ev:
.LFB3660:
	.loc 19 176 0
	.cfi_startproc
	@ args = 0, pretend = 0, frame = 8
	@ frame_needed = 0, uses_anonymous_args = 0
	str	lr, [sp, #-4]!
.LCFI170:
	.cfi_def_cfa_offset 4
	sub	sp, sp, #12
.LCFI171:
	.cfi_def_cfa_offset 16
	str	r0, [sp, #4]
	.loc 19 177 0
	ldr	r3, [sp, #4]
	ldr	r3, [r3, #0]
	mov	r2, r3
	ldr	r3, [sp, #4]
	ldr	r3, [r3, #0]
	ldr	r3, [r3, #0]
	sub	r3, r3, #12
	ldr	r3, [r3, #0]
	add	r3, r2, r3
	mov	r0, r3
	.cfi_offset 14, -4
	bl	_ZNK4_STL8ios_base5flagsEv
	mov	r3, r0
	and	r3, r3, #8192
	cmp	r3, #0
	moveq	r3, #0
	movne	r3, #1
	and	r3, r3, #255
	cmp	r3, #0
	beq	.L467
	.loc 19 181 0
	ldr	r3, [sp, #4]
	ldr	r3, [r3, #0]
	mov	r0, r3
	bl	_ZN4_STL13basic_ostreamIcNS_11char_traitsIcEEE5flushEv
.L467:
	ldr	r3, [sp, #4]
	.loc 19 182 0
	mov	r0, r3
	add	sp, sp, #12
	ldmfd	sp!, {pc}
	.cfi_endproc
.LFE3660:
	.size	_ZN4_STL13basic_ostreamIcNS_11char_traitsIcEEE6sentryD1Ev, .-_ZN4_STL13basic_ostreamIcNS_11char_traitsIcEEE6sentryD1Ev
	.section	.text._ZNK4_STL13basic_ostreamIcNS_11char_traitsIcEEE6sentrycvbEv,"axG",%progbits,_ZNK4_STL13basic_ostreamIcNS_11char_traitsIcEEE6sentrycvbEv,comdat
	.align	2
	.weak	_ZNK4_STL13basic_ostreamIcNS_11char_traitsIcEEE6sentrycvbEv
	.hidden	_ZNK4_STL13basic_ostreamIcNS_11char_traitsIcEEE6sentrycvbEv
	.type	_ZNK4_STL13basic_ostreamIcNS_11char_traitsIcEEE6sentrycvbEv, %function
_ZNK4_STL13basic_ostreamIcNS_11char_traitsIcEEE6sentrycvbEv:
.LFB3661:
	.loc 19 184 0
	.cfi_startproc
	@ args = 0, pretend = 0, frame = 8
	@ frame_needed = 0, uses_anonymous_args = 0
	@ link register save eliminated.
	sub	sp, sp, #8
.LCFI172:
	.cfi_def_cfa_offset 8
	str	r0, [sp, #4]
	.loc 19 184 0
	ldr	r3, [sp, #4]
	ldrb	r3, [r3, #4]	@ zero_extendqisi2
	mov	r0, r3
	add	sp, sp, #8
	bx	lr
	.cfi_endproc
.LFE3661:
	.size	_ZNK4_STL13basic_ostreamIcNS_11char_traitsIcEEE6sentrycvbEv, .-_ZNK4_STL13basic_ostreamIcNS_11char_traitsIcEEE6sentrycvbEv
	.section	.text._ZNK4_STL9basic_iosIcNS_11char_traitsIcEEE5rdbufEv,"axG",%progbits,_ZNK4_STL9basic_iosIcNS_11char_traitsIcEEE5rdbufEv,comdat
	.align	2
	.weak	_ZNK4_STL9basic_iosIcNS_11char_traitsIcEEE5rdbufEv
	.hidden	_ZNK4_STL9basic_iosIcNS_11char_traitsIcEEE5rdbufEv
	.type	_ZNK4_STL9basic_iosIcNS_11char_traitsIcEEE5rdbufEv, %function
_ZNK4_STL9basic_iosIcNS_11char_traitsIcEEE5rdbufEv:
.LFB3662:
	.loc 23 71 0
	.cfi_startproc
	@ args = 0, pretend = 0, frame = 8
	@ frame_needed = 0, uses_anonymous_args = 0
	@ link register save eliminated.
	sub	sp, sp, #8
.LCFI173:
	.cfi_def_cfa_offset 8
	str	r0, [sp, #4]
	.loc 23 72 0
	ldr	r3, [sp, #4]
	ldr	r3, [r3, #88]
	mov	r0, r3
	add	sp, sp, #8
	bx	lr
	.cfi_endproc
.LFE3662:
	.size	_ZNK4_STL9basic_iosIcNS_11char_traitsIcEEE5rdbufEv, .-_ZNK4_STL9basic_iosIcNS_11char_traitsIcEEE5rdbufEv
	.section	.text._ZN4_STL15basic_streambufIcNS_11char_traitsIcEEE5sputnEPKci,"axG",%progbits,_ZN4_STL15basic_streambufIcNS_11char_traitsIcEEE5sputnEPKci,comdat
	.align	2
	.weak	_ZN4_STL15basic_streambufIcNS_11char_traitsIcEEE5sputnEPKci
	.hidden	_ZN4_STL15basic_streambufIcNS_11char_traitsIcEEE5sputnEPKci
	.type	_ZN4_STL15basic_streambufIcNS_11char_traitsIcEEE5sputnEPKci, %function
_ZN4_STL15basic_streambufIcNS_11char_traitsIcEEE5sputnEPKci:
.LFB3663:
	.file 25 "c:/marmalade/6.2/s3e/h/std/c++/stl/_streambuf.h"
	.loc 25 208 0
	.cfi_startproc
	@ args = 0, pretend = 0, frame = 16
	@ frame_needed = 0, uses_anonymous_args = 0
	str	lr, [sp, #-4]!
.LCFI174:
	.cfi_def_cfa_offset 4
	sub	sp, sp, #20
.LCFI175:
	.cfi_def_cfa_offset 24
	str	r0, [sp, #12]
	str	r1, [sp, #8]
	str	r2, [sp, #4]
	.loc 25 209 0
	ldr	r3, [sp, #12]
	ldr	r3, [r3, #0]
	add	r3, r3, #44
	ldr	r3, [r3, #0]
	ldr	r0, [sp, #12]
	ldr	r1, [sp, #8]
	ldr	r2, [sp, #4]
	.cfi_offset 14, -4
	blx	r3
	mov	r3, r0
	mov	r0, r3
	add	sp, sp, #20
	ldmfd	sp!, {pc}
	.cfi_endproc
.LFE3663:
	.size	_ZN4_STL15basic_streambufIcNS_11char_traitsIcEEE5sputnEPKci, .-_ZN4_STL15basic_streambufIcNS_11char_traitsIcEEE5sputnEPKci
	.section	.text._ZNK4_STL9basic_iosIcNS_11char_traitsIcEEE4fillEv,"axG",%progbits,_ZNK4_STL9basic_iosIcNS_11char_traitsIcEEE4fillEv,comdat
	.align	2
	.weak	_ZNK4_STL9basic_iosIcNS_11char_traitsIcEEE4fillEv
	.hidden	_ZNK4_STL9basic_iosIcNS_11char_traitsIcEEE4fillEv
	.type	_ZNK4_STL9basic_iosIcNS_11char_traitsIcEEE4fillEv, %function
_ZNK4_STL9basic_iosIcNS_11char_traitsIcEEE4fillEv:
.LFB3664:
	.loc 23 80 0
	.cfi_startproc
	@ args = 0, pretend = 0, frame = 8
	@ frame_needed = 0, uses_anonymous_args = 0
	@ link register save eliminated.
	sub	sp, sp, #8
.LCFI176:
	.cfi_def_cfa_offset 8
	str	r0, [sp, #4]
	.loc 23 80 0
	ldr	r3, [sp, #4]
	ldrb	r3, [r3, #84]	@ zero_extendqisi2
	mov	r0, r3
	add	sp, sp, #8
	bx	lr
	.cfi_endproc
.LFE3664:
	.size	_ZNK4_STL9basic_iosIcNS_11char_traitsIcEEE4fillEv, .-_ZNK4_STL9basic_iosIcNS_11char_traitsIcEEE4fillEv
	.section	.text._ZN4_STL15basic_streambufIcNS_11char_traitsIcEEE9_M_sputncEci,"axG",%progbits,_ZN4_STL15basic_streambufIcNS_11char_traitsIcEEE9_M_sputncEci,comdat
	.align	2
	.weak	_ZN4_STL15basic_streambufIcNS_11char_traitsIcEEE9_M_sputncEci
	.hidden	_ZN4_STL15basic_streambufIcNS_11char_traitsIcEEE9_M_sputncEci
	.type	_ZN4_STL15basic_streambufIcNS_11char_traitsIcEEE9_M_sputncEci, %function
_ZN4_STL15basic_streambufIcNS_11char_traitsIcEEE9_M_sputncEci:
.LFB3665:
	.loc 25 212 0
	.cfi_startproc
	@ args = 0, pretend = 0, frame = 16
	@ frame_needed = 0, uses_anonymous_args = 0
	str	lr, [sp, #-4]!
.LCFI177:
	.cfi_def_cfa_offset 4
	sub	sp, sp, #20
.LCFI178:
	.cfi_def_cfa_offset 24
	str	r0, [sp, #12]
	mov	r3, r1
	str	r2, [sp, #4]
	strb	r3, [sp, #11]
	.loc 25 213 0
	ldr	r3, [sp, #12]
	ldr	r3, [r3, #0]
	add	r3, r3, #48
	ldr	r3, [r3, #0]
	ldrb	r2, [sp, #11]	@ zero_extendqisi2
	ldr	r0, [sp, #12]
	mov	r1, r2
	ldr	r2, [sp, #4]
	.cfi_offset 14, -4
	blx	r3
	mov	r3, r0
	mov	r0, r3
	add	sp, sp, #20
	ldmfd	sp!, {pc}
	.cfi_endproc
.LFE3665:
	.size	_ZN4_STL15basic_streambufIcNS_11char_traitsIcEEE9_M_sputncEci, .-_ZN4_STL15basic_streambufIcNS_11char_traitsIcEEE9_M_sputncEci
	.section	.text._ZN4_STL9basic_iosIcNS_11char_traitsIcEEE8setstateEi,"axG",%progbits,_ZN4_STL9basic_iosIcNS_11char_traitsIcEEE8setstateEi,comdat
	.align	2
	.weak	_ZN4_STL9basic_iosIcNS_11char_traitsIcEEE8setstateEi
	.hidden	_ZN4_STL9basic_iosIcNS_11char_traitsIcEEE8setstateEi
	.type	_ZN4_STL9basic_iosIcNS_11char_traitsIcEEE8setstateEi, %function
_ZN4_STL9basic_iosIcNS_11char_traitsIcEEE8setstateEi:
.LFB3667:
	.loc 23 94 0
	.cfi_startproc
	@ args = 0, pretend = 0, frame = 8
	@ frame_needed = 0, uses_anonymous_args = 0
	str	lr, [sp, #-4]!
.LCFI179:
	.cfi_def_cfa_offset 4
	sub	sp, sp, #12
.LCFI180:
	.cfi_def_cfa_offset 16
	str	r0, [sp, #4]
	str	r1, [sp, #0]
	.loc 23 94 0
	ldr	r3, [sp, #4]
	mov	r0, r3
	.cfi_offset 14, -4
	bl	_ZNK4_STL8ios_base7rdstateEv
	mov	r2, r0
	ldr	r3, [sp, #0]
	orr	r3, r2, r3
	ldr	r0, [sp, #4]
	mov	r1, r3
	bl	_ZN4_STL9basic_iosIcNS_11char_traitsIcEEE5clearEi
	add	sp, sp, #12
	ldmfd	sp!, {pc}
	.cfi_endproc
.LFE3667:
	.size	_ZN4_STL9basic_iosIcNS_11char_traitsIcEEE8setstateEi, .-_ZN4_STL9basic_iosIcNS_11char_traitsIcEEE8setstateEi
	.section	.text._ZN4_STL15basic_streambufIcNS_11char_traitsIcEEE5sputcEc,"axG",%progbits,_ZN4_STL15basic_streambufIcNS_11char_traitsIcEEE5sputcEc,comdat
	.align	2
	.weak	_ZN4_STL15basic_streambufIcNS_11char_traitsIcEEE5sputcEc
	.hidden	_ZN4_STL15basic_streambufIcNS_11char_traitsIcEEE5sputcEc
	.type	_ZN4_STL15basic_streambufIcNS_11char_traitsIcEEE5sputcEc, %function
_ZN4_STL15basic_streambufIcNS_11char_traitsIcEEE5sputcEc:
.LFB3668:
	.loc 25 202 0
	.cfi_startproc
	@ args = 0, pretend = 0, frame = 8
	@ frame_needed = 0, uses_anonymous_args = 0
	stmfd	sp!, {r4, lr}
.LCFI181:
	.cfi_def_cfa_offset 8
	sub	sp, sp, #8
.LCFI182:
	.cfi_def_cfa_offset 16
	str	r0, [sp, #4]
	mov	r3, r1
	strb	r3, [sp, #3]
	.loc 25 204 0
	ldr	r3, [sp, #4]
	ldr	r2, [r3, #20]
	ldr	r3, [sp, #4]
	ldr	r3, [r3, #24]
	cmp	r2, r3
	bcs	.L482
	.cfi_offset 14, -4
	.cfi_offset 4, -8
	ldr	r3, [sp, #4]
	ldr	r2, [r3, #20]
	mov	r3, r2
	ldrb	r1, [sp, #3]	@ zero_extendqisi2
	strb	r1, [r3, #0]
	add	r1, r2, #1
	ldr	r2, [sp, #4]
	str	r1, [r2, #20]
	mov	r0, r3
	bl	_ZN4_STL11char_traitsIcE11to_int_typeERKc
	mov	r3, r0
	b	.L483
.L482:
	ldr	r3, [sp, #4]
	ldr	r3, [r3, #0]
	add	r3, r3, #52
	ldr	r4, [r3, #0]
	add	r3, sp, #3
	mov	r0, r3
	bl	_ZN4_STL11char_traitsIcE11to_int_typeERKc
	mov	r3, r0
	ldr	r0, [sp, #4]
	mov	r1, r3
	blx	r4
	mov	r3, r0
.L483:
	.loc 25 205 0
	mov	r0, r3
	add	sp, sp, #8
	ldmfd	sp!, {r4, pc}
	.cfi_endproc
.LFE3668:
	.size	_ZN4_STL15basic_streambufIcNS_11char_traitsIcEEE5sputcEc, .-_ZN4_STL15basic_streambufIcNS_11char_traitsIcEEE5sputcEc
	.section	.text._ZN4_STL9basic_iosIcNS_11char_traitsIcEEE6_S_eofEi,"axG",%progbits,_ZN4_STL9basic_iosIcNS_11char_traitsIcEEE6_S_eofEi,comdat
	.align	2
	.weak	_ZN4_STL9basic_iosIcNS_11char_traitsIcEEE6_S_eofEi
	.hidden	_ZN4_STL9basic_iosIcNS_11char_traitsIcEEE6_S_eofEi
	.type	_ZN4_STL9basic_iosIcNS_11char_traitsIcEEE6_S_eofEi, %function
_ZN4_STL9basic_iosIcNS_11char_traitsIcEEE6_S_eofEi:
.LFB3669:
	.loc 23 109 0
	.cfi_startproc
	@ args = 0, pretend = 0, frame = 16
	@ frame_needed = 0, uses_anonymous_args = 0
	str	lr, [sp, #-4]!
.LCFI183:
	.cfi_def_cfa_offset 4
	sub	sp, sp, #20
.LCFI184:
	.cfi_def_cfa_offset 24
	str	r0, [sp, #4]
.LBB58:
	.loc 23 110 0
	.cfi_offset 14, -4
	bl	_ZN4_STL18__char_traits_baseIciE3eofEv
	mov	r3, r0
	str	r3, [sp, #12]
	.loc 23 111 0
	add	r2, sp, #4
	add	r3, sp, #12
	mov	r0, r2
	mov	r1, r3
	bl	_ZN4_STL18__char_traits_baseIciE11eq_int_typeERKiS3_
	mov	r3, r0
.LBE58:
	.loc 23 112 0
	mov	r0, r3
	add	sp, sp, #20
	ldmfd	sp!, {pc}
	.cfi_endproc
.LFE3669:
	.size	_ZN4_STL9basic_iosIcNS_11char_traitsIcEEE6_S_eofEi, .-_ZN4_STL9basic_iosIcNS_11char_traitsIcEEE6_S_eofEi
	.section	.text._ZN4_STL15basic_streambufIcNS_11char_traitsIcEEE7pubsyncEv,"axG",%progbits,_ZN4_STL15basic_streambufIcNS_11char_traitsIcEEE7pubsyncEv,comdat
	.align	2
	.weak	_ZN4_STL15basic_streambufIcNS_11char_traitsIcEEE7pubsyncEv
	.hidden	_ZN4_STL15basic_streambufIcNS_11char_traitsIcEEE7pubsyncEv
	.type	_ZN4_STL15basic_streambufIcNS_11char_traitsIcEEE7pubsyncEv, %function
_ZN4_STL15basic_streambufIcNS_11char_traitsIcEEE7pubsyncEv:
.LFB3670:
	.loc 25 157 0
	.cfi_startproc
	@ args = 0, pretend = 0, frame = 8
	@ frame_needed = 0, uses_anonymous_args = 0
	str	lr, [sp, #-4]!
.LCFI185:
	.cfi_def_cfa_offset 4
	sub	sp, sp, #12
.LCFI186:
	.cfi_def_cfa_offset 16
	str	r0, [sp, #4]
	.loc 25 157 0
	ldr	r3, [sp, #4]
	ldr	r3, [r3, #0]
	add	r3, r3, #20
	ldr	r3, [r3, #0]
	ldr	r0, [sp, #4]
	.cfi_offset 14, -4
	blx	r3
	mov	r3, r0
	mov	r0, r3
	add	sp, sp, #12
	ldmfd	sp!, {pc}
	.cfi_endproc
.LFE3670:
	.size	_ZN4_STL15basic_streambufIcNS_11char_traitsIcEEE7pubsyncEv, .-_ZN4_STL15basic_streambufIcNS_11char_traitsIcEEE7pubsyncEv
	.section	.text._ZN8CIwArrayIi12CIwAllocatorIi15CIwMallocRouterIiEE17ReallocateDefaultIiS3_EE7reserveEj,"axG",%progbits,_ZN8CIwArrayIi12CIwAllocatorIi15CIwMallocRouterIiEE17ReallocateDefaultIiS3_EE7reserveEj,comdat
	.align	2
	.weak	_ZN8CIwArrayIi12CIwAllocatorIi15CIwMallocRouterIiEE17ReallocateDefaultIiS3_EE7reserveEj
	.hidden	_ZN8CIwArrayIi12CIwAllocatorIi15CIwMallocRouterIiEE17ReallocateDefaultIiS3_EE7reserveEj
	.type	_ZN8CIwArrayIi12CIwAllocatorIi15CIwMallocRouterIiEE17ReallocateDefaultIiS3_EE7reserveEj, %function
_ZN8CIwArrayIi12CIwAllocatorIi15CIwMallocRouterIiEE17ReallocateDefaultIiS3_EE7reserveEj:
.LFB3671:
	.loc 16 253 0
	.cfi_startproc
	@ args = 0, pretend = 0, frame = 8
	@ frame_needed = 0, uses_anonymous_args = 0
	str	lr, [sp, #-4]!
.LCFI187:
	.cfi_def_cfa_offset 4
	sub	sp, sp, #12
.LCFI188:
	.cfi_def_cfa_offset 16
	str	r0, [sp, #4]
	str	r1, [sp, #0]
	.loc 16 255 0
	ldr	r3, [sp, #4]
	ldr	r2, [r3, #8]
	ldr	r3, [sp, #0]
	cmp	r2, r3
	bcs	.L493
	.cfi_offset 14, -4
	.loc 16 257 0
	ldr	r3, [sp, #4]
	ldr	r3, [r3, #8]
	cmp	r3, #15
	bls	.L491
	ldr	r3, [sp, #4]
	ldr	r3, [r3, #8]
	mov	r3, r3, lsr #3
	b	.L492
.L491:
	mov	r3, #2
.L492:
	ldr	r2, [sp, #0]
	add	r3, r3, r2
	ldr	r0, [sp, #4]
	mov	r1, r3
	bl	_ZN8CIwArrayIi12CIwAllocatorIi15CIwMallocRouterIiEE17ReallocateDefaultIiS3_EE12set_capacityEj
.L493:
	.loc 16 259 0
	add	sp, sp, #12
	ldmfd	sp!, {pc}
	.cfi_endproc
.LFE3671:
	.size	_ZN8CIwArrayIi12CIwAllocatorIi15CIwMallocRouterIiEE17ReallocateDefaultIiS3_EE7reserveEj, .-_ZN8CIwArrayIi12CIwAllocatorIi15CIwMallocRouterIiEE17ReallocateDefaultIiS3_EE7reserveEj
	.section	.text._ZN4_STL9allocatorI8ObstacleEC2ERKS2_,"axG",%progbits,_ZN4_STL9allocatorI8ObstacleEC2ERKS2_,comdat
	.align	2
	.weak	_ZN4_STL9allocatorI8ObstacleEC2ERKS2_
	.hidden	_ZN4_STL9allocatorI8ObstacleEC2ERKS2_
	.type	_ZN4_STL9allocatorI8ObstacleEC2ERKS2_, %function
_ZN4_STL9allocatorI8ObstacleEC2ERKS2_:
.LFB3673:
	.loc 17 349 0
	.cfi_startproc
	@ args = 0, pretend = 0, frame = 8
	@ frame_needed = 0, uses_anonymous_args = 0
	@ link register save eliminated.
	sub	sp, sp, #8
.LCFI189:
	.cfi_def_cfa_offset 8
	str	r0, [sp, #4]
	str	r1, [sp, #0]
	.loc 17 349 0
	ldr	r3, [sp, #4]
	mov	r0, r3
	add	sp, sp, #8
	bx	lr
	.cfi_endproc
.LFE3673:
	.size	_ZN4_STL9allocatorI8ObstacleEC2ERKS2_, .-_ZN4_STL9allocatorI8ObstacleEC2ERKS2_
	.section	.text._ZN4_STL9allocatorI8ObstacleEC1ERKS2_,"axG",%progbits,_ZN4_STL9allocatorI8ObstacleEC1ERKS2_,comdat
	.align	2
	.weak	_ZN4_STL9allocatorI8ObstacleEC1ERKS2_
	.hidden	_ZN4_STL9allocatorI8ObstacleEC1ERKS2_
	.type	_ZN4_STL9allocatorI8ObstacleEC1ERKS2_, %function
_ZN4_STL9allocatorI8ObstacleEC1ERKS2_:
.LFB3674:
	.loc 17 349 0
	.cfi_startproc
	@ args = 0, pretend = 0, frame = 8
	@ frame_needed = 0, uses_anonymous_args = 0
	@ link register save eliminated.
	sub	sp, sp, #8
.LCFI190:
	.cfi_def_cfa_offset 8
	str	r0, [sp, #4]
	str	r1, [sp, #0]
	.loc 17 349 0
	ldr	r3, [sp, #4]
	mov	r0, r3
	add	sp, sp, #8
	bx	lr
	.cfi_endproc
.LFE3674:
	.size	_ZN4_STL9allocatorI8ObstacleEC1ERKS2_, .-_ZN4_STL9allocatorI8ObstacleEC1ERKS2_
	.section	.text._ZN4_STL9allocatorI8ObstacleE8allocateEjPKv,"axG",%progbits,_ZN4_STL9allocatorI8ObstacleE8allocateEjPKv,comdat
	.align	2
	.weak	_ZN4_STL9allocatorI8ObstacleE8allocateEjPKv
	.hidden	_ZN4_STL9allocatorI8ObstacleE8allocateEjPKv
	.type	_ZN4_STL9allocatorI8ObstacleE8allocateEjPKv, %function
_ZN4_STL9allocatorI8ObstacleE8allocateEjPKv:
.LFB3675:
	.loc 17 354 0
	.cfi_startproc
	@ args = 0, pretend = 0, frame = 16
	@ frame_needed = 0, uses_anonymous_args = 0
	str	lr, [sp, #-4]!
.LCFI191:
	.cfi_def_cfa_offset 4
	sub	sp, sp, #20
.LCFI192:
	.cfi_def_cfa_offset 24
	str	r0, [sp, #12]
	str	r1, [sp, #8]
	str	r2, [sp, #4]
	.loc 17 355 0
	ldr	r3, [sp, #8]
	cmp	r3, #0
	beq	.L501
	.cfi_offset 14, -4
	ldr	r3, [sp, #8]
	mov	r3, r3, asl #4
	mov	r0, r3
	bl	_ZN4_STL14__malloc_allocILi0EE8allocateEj
	mov	r3, r0
	b	.L502
.L501:
	mov	r3, #0
.L502:
	.loc 17 356 0
	mov	r0, r3
	add	sp, sp, #20
	ldmfd	sp!, {pc}
	.cfi_endproc
.LFE3675:
	.size	_ZN4_STL9allocatorI8ObstacleE8allocateEjPKv, .-_ZN4_STL9allocatorI8ObstacleE8allocateEjPKv
	.section	.text._ZN4_STL10_ConstructI8ObstacleS1_EEvPT_RKT0_,"axG",%progbits,_ZN4_STL10_ConstructI8ObstacleS1_EEvPT_RKT0_,comdat
	.align	2
	.weak	_ZN4_STL10_ConstructI8ObstacleS1_EEvPT_RKT0_
	.hidden	_ZN4_STL10_ConstructI8ObstacleS1_EEvPT_RKT0_
	.type	_ZN4_STL10_ConstructI8ObstacleS1_EEvPT_RKT0_, %function
_ZN4_STL10_ConstructI8ObstacleS1_EEvPT_RKT0_:
.LFB3676:
	.loc 21 93 0
	.cfi_startproc
	@ args = 0, pretend = 0, frame = 8
	@ frame_needed = 0, uses_anonymous_args = 0
	str	lr, [sp, #-4]!
.LCFI193:
	.cfi_def_cfa_offset 4
	sub	sp, sp, #12
.LCFI194:
	.cfi_def_cfa_offset 16
	str	r0, [sp, #4]
	str	r1, [sp, #0]
	.loc 21 97 0
	ldr	r3, [sp, #4]
	mov	r0, #16
	mov	r1, r3
	.cfi_offset 14, -4
	bl	_ZnwjPv
	mov	r3, r0
	mov	r2, r3
	ldr	r3, [sp, #0]
	mov	ip, r2
	ldmia	r3, {r0, r1, r2, r3}
	stmia	ip!, {r0, r1, r2}
	strh	r3, [ip, #0]	@ movhi
	add	ip, ip, #2
	mov	r3, r3, lsr #16
	strb	r3, [ip, #0]
	.loc 21 98 0
	add	sp, sp, #12
	ldmfd	sp!, {pc}
	.cfi_endproc
.LFE3676:
	.size	_ZN4_STL10_ConstructI8ObstacleS1_EEvPT_RKT0_, .-_ZN4_STL10_ConstructI8ObstacleS1_EEvPT_RKT0_
	.section	.text._ZN8CIwArrayI12TileObstacle12CIwAllocatorIS0_15CIwMallocRouterIS0_EE17ReallocateDefaultIS0_S4_EE7reserveEj,"axG",%progbits,_ZN8CIwArrayI12TileObstacle12CIwAllocatorIS0_15CIwMallocRouterIS0_EE17ReallocateDefaultIS0_S4_EE7reserveEj,comdat
	.align	2
	.weak	_ZN8CIwArrayI12TileObstacle12CIwAllocatorIS0_15CIwMallocRouterIS0_EE17ReallocateDefaultIS0_S4_EE7reserveEj
	.hidden	_ZN8CIwArrayI12TileObstacle12CIwAllocatorIS0_15CIwMallocRouterIS0_EE17ReallocateDefaultIS0_S4_EE7reserveEj
	.type	_ZN8CIwArrayI12TileObstacle12CIwAllocatorIS0_15CIwMallocRouterIS0_EE17ReallocateDefaultIS0_S4_EE7reserveEj, %function
_ZN8CIwArrayI12TileObstacle12CIwAllocatorIS0_15CIwMallocRouterIS0_EE17ReallocateDefaultIS0_S4_EE7reserveEj:
.LFB3677:
	.loc 16 253 0
	.cfi_startproc
	@ args = 0, pretend = 0, frame = 8
	@ frame_needed = 0, uses_anonymous_args = 0
	str	lr, [sp, #-4]!
.LCFI195:
	.cfi_def_cfa_offset 4
	sub	sp, sp, #12
.LCFI196:
	.cfi_def_cfa_offset 16
	str	r0, [sp, #4]
	str	r1, [sp, #0]
	.loc 16 255 0
	ldr	r3, [sp, #4]
	ldr	r2, [r3, #8]
	ldr	r3, [sp, #0]
	cmp	r2, r3
	bcs	.L510
	.cfi_offset 14, -4
	.loc 16 257 0
	ldr	r3, [sp, #4]
	ldr	r3, [r3, #8]
	cmp	r3, #15
	bls	.L508
	ldr	r3, [sp, #4]
	ldr	r3, [r3, #8]
	mov	r3, r3, lsr #3
	b	.L509
.L508:
	mov	r3, #2
.L509:
	ldr	r2, [sp, #0]
	add	r3, r3, r2
	ldr	r0, [sp, #4]
	mov	r1, r3
	bl	_ZN8CIwArrayI12TileObstacle12CIwAllocatorIS0_15CIwMallocRouterIS0_EE17ReallocateDefaultIS0_S4_EE12set_capacityEj
.L510:
	.loc 16 259 0
	add	sp, sp, #12
	ldmfd	sp!, {pc}
	.cfi_endproc
.LFE3677:
	.size	_ZN8CIwArrayI12TileObstacle12CIwAllocatorIS0_15CIwMallocRouterIS0_EE17ReallocateDefaultIS0_S4_EE7reserveEj, .-_ZN8CIwArrayI12TileObstacle12CIwAllocatorIS0_15CIwMallocRouterIS0_EE17ReallocateDefaultIS0_S4_EE7reserveEj
	.section	.text._ZN4_STL9use_facetINS_7num_putIcNS_19ostreambuf_iteratorIcNS_11char_traitsIcEEEEEEEERKT_RKNS_6localeE,"axG",%progbits,_ZN4_STL9use_facetINS_7num_putIcNS_19ostreambuf_iteratorIcNS_11char_traitsIcEEEEEEEERKT_RKNS_6localeE,comdat
	.align	2
	.weak	_ZN4_STL9use_facetINS_7num_putIcNS_19ostreambuf_iteratorIcNS_11char_traitsIcEEEEEEEERKT_RKNS_6localeE
	.hidden	_ZN4_STL9use_facetINS_7num_putIcNS_19ostreambuf_iteratorIcNS_11char_traitsIcEEEEEEEERKT_RKNS_6localeE
	.type	_ZN4_STL9use_facetINS_7num_putIcNS_19ostreambuf_iteratorIcNS_11char_traitsIcEEEEEEEERKT_RKNS_6localeE, %function
_ZN4_STL9use_facetINS_7num_putIcNS_19ostreambuf_iteratorIcNS_11char_traitsIcEEEEEEEERKT_RKNS_6localeE:
.LFB3678:
	.file 26 "c:/marmalade/6.2/s3e/h/std/c++/stl/_locale.h"
	.loc 26 205 0
	.cfi_startproc
	@ args = 0, pretend = 0, frame = 8
	@ frame_needed = 0, uses_anonymous_args = 0
	str	lr, [sp, #-4]!
.LCFI197:
	.cfi_def_cfa_offset 4
	sub	sp, sp, #12
.LCFI198:
	.cfi_def_cfa_offset 16
	str	r0, [sp, #4]
	.loc 26 208 0
	ldr	r0, [sp, #4]
	ldr	r1, .L513
	.cfi_offset 14, -4
	bl	_ZNK4_STL6locale12_M_use_facetERKNS0_2idE
	mov	r3, r0
	.loc 26 209 0
	mov	r0, r3
	add	sp, sp, #12
	ldmfd	sp!, {pc}
.L514:
	.align	2
.L513:
	.word	_ZN4_STL7num_putIcNS_19ostreambuf_iteratorIcNS_11char_traitsIcEEEEE2idE
	.cfi_endproc
.LFE3678:
	.size	_ZN4_STL9use_facetINS_7num_putIcNS_19ostreambuf_iteratorIcNS_11char_traitsIcEEEEEEEERKT_RKNS_6localeE, .-_ZN4_STL9use_facetINS_7num_putIcNS_19ostreambuf_iteratorIcNS_11char_traitsIcEEEEEEEERKT_RKNS_6localeE
	.section	.text._ZN4_STL19ostreambuf_iteratorIcNS_11char_traitsIcEEEC1EPNS_15basic_streambufIcS2_EE,"axG",%progbits,_ZN4_STL19ostreambuf_iteratorIcNS_11char_traitsIcEEEC1EPNS_15basic_streambufIcS2_EE,comdat
	.align	2
	.weak	_ZN4_STL19ostreambuf_iteratorIcNS_11char_traitsIcEEEC1EPNS_15basic_streambufIcS2_EE
	.hidden	_ZN4_STL19ostreambuf_iteratorIcNS_11char_traitsIcEEEC1EPNS_15basic_streambufIcS2_EE
	.type	_ZN4_STL19ostreambuf_iteratorIcNS_11char_traitsIcEEEC1EPNS_15basic_streambufIcS2_EE, %function
_ZN4_STL19ostreambuf_iteratorIcNS_11char_traitsIcEEEC1EPNS_15basic_streambufIcS2_EE:
.LFB3681:
	.file 27 "c:/marmalade/6.2/s3e/h/std/c++/stl/_ostreambuf_iterator.h"
	.loc 27 53 0
	.cfi_startproc
	@ args = 0, pretend = 0, frame = 8
	@ frame_needed = 0, uses_anonymous_args = 0
	@ link register save eliminated.
	sub	sp, sp, #8
.LCFI199:
	.cfi_def_cfa_offset 8
	str	r0, [sp, #4]
	str	r1, [sp, #0]
	.loc 27 53 0
	ldr	r3, [sp, #4]
	ldr	r2, [sp, #0]
	str	r2, [r3, #0]
	ldr	r3, [sp, #0]
	cmp	r3, #0
	moveq	r3, #0
	movne	r3, #1
	and	r2, r3, #255
	ldr	r3, [sp, #4]
	strb	r2, [r3, #4]
	ldr	r3, [sp, #4]
	mov	r0, r3
	add	sp, sp, #8
	bx	lr
	.cfi_endproc
.LFE3681:
	.size	_ZN4_STL19ostreambuf_iteratorIcNS_11char_traitsIcEEEC1EPNS_15basic_streambufIcS2_EE, .-_ZN4_STL19ostreambuf_iteratorIcNS_11char_traitsIcEEEC1EPNS_15basic_streambufIcS2_EE
	.section	.text._ZNK4_STL7num_putIcNS_19ostreambuf_iteratorIcNS_11char_traitsIcEEEEE3putES4_RNS_8ios_baseEcl,"axG",%progbits,_ZNK4_STL7num_putIcNS_19ostreambuf_iteratorIcNS_11char_traitsIcEEEEE3putES4_RNS_8ios_baseEcl,comdat
	.align	2
	.weak	_ZNK4_STL7num_putIcNS_19ostreambuf_iteratorIcNS_11char_traitsIcEEEEE3putES4_RNS_8ios_baseEcl
	.hidden	_ZNK4_STL7num_putIcNS_19ostreambuf_iteratorIcNS_11char_traitsIcEEEEE3putES4_RNS_8ios_baseEcl
	.type	_ZNK4_STL7num_putIcNS_19ostreambuf_iteratorIcNS_11char_traitsIcEEEEE3putES4_RNS_8ios_baseEcl, %function
_ZNK4_STL7num_putIcNS_19ostreambuf_iteratorIcNS_11char_traitsIcEEEEE3putES4_RNS_8ios_baseEcl:
.LFB3682:
	.file 28 "c:/marmalade/6.2/s3e/h/std/c++/stl/_num_put.h"
	.loc 28 61 0
	.cfi_startproc
	@ args = 12, pretend = 0, frame = 16
	@ frame_needed = 0, uses_anonymous_args = 0
	stmfd	sp!, {r4, lr}
.LCFI200:
	.cfi_def_cfa_offset 8
	sub	sp, sp, #32
.LCFI201:
	.cfi_def_cfa_offset 40
	mov	r4, r0
	.cfi_offset 14, -4
	.cfi_offset 4, -8
	str	r1, [sp, #28]
	add	r1, sp, #20
	stmia	r1, {r2, r3}
	.loc 28 63 0
	ldr	r3, [sp, #28]
	ldr	r3, [r3, #0]
	add	r3, r3, #12
	ldr	ip, [r3, #0]
	ldr	r3, [sp, #40]
	str	r3, [sp, #0]
	ldrb	r3, [sp, #44]	@ zero_extendqisi2
	str	r3, [sp, #4]
	ldr	r3, [sp, #48]
	str	r3, [sp, #8]
	mov	r0, r4
	ldr	r1, [sp, #28]
	add	r3, sp, #20
	ldmia	r3, {r2, r3}
	blx	ip
	.loc 28 64 0
	mov	r0, r4
	add	sp, sp, #32
	ldmfd	sp!, {r4, pc}
	.cfi_endproc
.LFE3682:
	.size	_ZNK4_STL7num_putIcNS_19ostreambuf_iteratorIcNS_11char_traitsIcEEEEE3putES4_RNS_8ios_baseEcl, .-_ZNK4_STL7num_putIcNS_19ostreambuf_iteratorIcNS_11char_traitsIcEEEEE3putES4_RNS_8ios_baseEcl
	.section	.text._ZNK4_STL19ostreambuf_iteratorIcNS_11char_traitsIcEEE6failedEv,"axG",%progbits,_ZNK4_STL19ostreambuf_iteratorIcNS_11char_traitsIcEEE6failedEv,comdat
	.align	2
	.weak	_ZNK4_STL19ostreambuf_iteratorIcNS_11char_traitsIcEEE6failedEv
	.hidden	_ZNK4_STL19ostreambuf_iteratorIcNS_11char_traitsIcEEE6failedEv
	.type	_ZNK4_STL19ostreambuf_iteratorIcNS_11char_traitsIcEEE6failedEv, %function
_ZNK4_STL19ostreambuf_iteratorIcNS_11char_traitsIcEEE6failedEv:
.LFB3683:
	.loc 27 67 0
	.cfi_startproc
	@ args = 0, pretend = 0, frame = 8
	@ frame_needed = 0, uses_anonymous_args = 0
	@ link register save eliminated.
	sub	sp, sp, #8
.LCFI202:
	.cfi_def_cfa_offset 8
	str	r0, [sp, #4]
	.loc 27 67 0
	ldr	r3, [sp, #4]
	ldrb	r3, [r3, #4]	@ zero_extendqisi2
	eor	r3, r3, #1
	and	r3, r3, #255
	mov	r0, r3
	add	sp, sp, #8
	bx	lr
	.cfi_endproc
.LFE3683:
	.size	_ZNK4_STL19ostreambuf_iteratorIcNS_11char_traitsIcEEE6failedEv, .-_ZNK4_STL19ostreambuf_iteratorIcNS_11char_traitsIcEEE6failedEv
	.section	.text._ZN4_STL14__malloc_allocILi0EE10deallocateEPvj,"axG",%progbits,_ZN4_STL14__malloc_allocILi0EE10deallocateEPvj,comdat
	.align	2
	.weak	_ZN4_STL14__malloc_allocILi0EE10deallocateEPvj
	.hidden	_ZN4_STL14__malloc_allocILi0EE10deallocateEPvj
	.type	_ZN4_STL14__malloc_allocILi0EE10deallocateEPvj, %function
_ZN4_STL14__malloc_allocILi0EE10deallocateEPvj:
.LFB3690:
	.loc 17 114 0
	.cfi_startproc
	@ args = 0, pretend = 0, frame = 8
	@ frame_needed = 0, uses_anonymous_args = 0
	str	lr, [sp, #-4]!
.LCFI203:
	.cfi_def_cfa_offset 4
	sub	sp, sp, #12
.LCFI204:
	.cfi_def_cfa_offset 16
	str	r0, [sp, #4]
	str	r1, [sp, #0]
	.loc 17 114 0
	ldr	r3, [sp, #4]
	mov	r0, r3
	.cfi_offset 14, -4
	bl	free
	add	sp, sp, #12
	ldmfd	sp!, {pc}
	.cfi_endproc
.LFE3690:
	.size	_ZN4_STL14__malloc_allocILi0EE10deallocateEPvj, .-_ZN4_STL14__malloc_allocILi0EE10deallocateEPvj
	.section	.text._ZN4_STL13__destroy_auxIP8ObstacleEEvT_S3_RKNS_12__false_typeE,"axG",%progbits,_ZN4_STL13__destroy_auxIP8ObstacleEEvT_S3_RKNS_12__false_typeE,comdat
	.align	2
	.weak	_ZN4_STL13__destroy_auxIP8ObstacleEEvT_S3_RKNS_12__false_typeE
	.hidden	_ZN4_STL13__destroy_auxIP8ObstacleEEvT_S3_RKNS_12__false_typeE
	.type	_ZN4_STL13__destroy_auxIP8ObstacleEEvT_S3_RKNS_12__false_typeE, %function
_ZN4_STL13__destroy_auxIP8ObstacleEEvT_S3_RKNS_12__false_typeE:
.LFB3691:
	.loc 21 122 0
	.cfi_startproc
	@ args = 0, pretend = 0, frame = 16
	@ frame_needed = 0, uses_anonymous_args = 0
	str	lr, [sp, #-4]!
.LCFI205:
	.cfi_def_cfa_offset 4
	sub	sp, sp, #20
.LCFI206:
	.cfi_def_cfa_offset 24
	str	r0, [sp, #12]
	str	r1, [sp, #8]
	str	r2, [sp, #4]
	.loc 21 123 0
	b	.L525
	.cfi_offset 14, -4
.L526:
	.loc 21 124 0
	ldr	r0, [sp, #12]
	bl	_ZN4_STL8_DestroyI8ObstacleEEvPT_
	.loc 21 123 0
	ldr	r3, [sp, #12]
	add	r3, r3, #16
	str	r3, [sp, #12]
.L525:
	ldr	r2, [sp, #12]
	ldr	r3, [sp, #8]
	cmp	r2, r3
	moveq	r3, #0
	movne	r3, #1
	and	r3, r3, #255
	cmp	r3, #0
	bne	.L526
	.loc 21 125 0
	add	sp, sp, #20
	ldmfd	sp!, {pc}
	.cfi_endproc
.LFE3691:
	.size	_ZN4_STL13__destroy_auxIP8ObstacleEEvT_S3_RKNS_12__false_typeE, .-_ZN4_STL13__destroy_auxIP8ObstacleEEvT_S3_RKNS_12__false_typeE
	.section	.text._ZN8CIwArrayI8TileUnit12CIwAllocatorIS0_15CIwMallocRouterIS0_EE17ReallocateDefaultIS0_S4_EE7reserveEj,"axG",%progbits,_ZN8CIwArrayI8TileUnit12CIwAllocatorIS0_15CIwMallocRouterIS0_EE17ReallocateDefaultIS0_S4_EE7reserveEj,comdat
	.align	2
	.weak	_ZN8CIwArrayI8TileUnit12CIwAllocatorIS0_15CIwMallocRouterIS0_EE17ReallocateDefaultIS0_S4_EE7reserveEj
	.hidden	_ZN8CIwArrayI8TileUnit12CIwAllocatorIS0_15CIwMallocRouterIS0_EE17ReallocateDefaultIS0_S4_EE7reserveEj
	.type	_ZN8CIwArrayI8TileUnit12CIwAllocatorIS0_15CIwMallocRouterIS0_EE17ReallocateDefaultIS0_S4_EE7reserveEj, %function
_ZN8CIwArrayI8TileUnit12CIwAllocatorIS0_15CIwMallocRouterIS0_EE17ReallocateDefaultIS0_S4_EE7reserveEj:
.LFB3692:
	.loc 16 253 0
	.cfi_startproc
	@ args = 0, pretend = 0, frame = 8
	@ frame_needed = 0, uses_anonymous_args = 0
	str	lr, [sp, #-4]!
.LCFI207:
	.cfi_def_cfa_offset 4
	sub	sp, sp, #12
.LCFI208:
	.cfi_def_cfa_offset 16
	str	r0, [sp, #4]
	str	r1, [sp, #0]
	.loc 16 255 0
	ldr	r3, [sp, #4]
	ldr	r2, [r3, #8]
	ldr	r3, [sp, #0]
	cmp	r2, r3
	bcs	.L532
	.cfi_offset 14, -4
	.loc 16 257 0
	ldr	r3, [sp, #4]
	ldr	r3, [r3, #8]
	cmp	r3, #15
	bls	.L530
	ldr	r3, [sp, #4]
	ldr	r3, [r3, #8]
	mov	r3, r3, lsr #3
	b	.L531
.L530:
	mov	r3, #2
.L531:
	ldr	r2, [sp, #0]
	add	r3, r3, r2
	ldr	r0, [sp, #4]
	mov	r1, r3
	bl	_ZN8CIwArrayI8TileUnit12CIwAllocatorIS0_15CIwMallocRouterIS0_EE17ReallocateDefaultIS0_S4_EE12set_capacityEj
.L532:
	.loc 16 259 0
	add	sp, sp, #12
	ldmfd	sp!, {pc}
	.cfi_endproc
.LFE3692:
	.size	_ZN8CIwArrayI8TileUnit12CIwAllocatorIS0_15CIwMallocRouterIS0_EE17ReallocateDefaultIS0_S4_EE7reserveEj, .-_ZN8CIwArrayI8TileUnit12CIwAllocatorIS0_15CIwMallocRouterIS0_EE17ReallocateDefaultIS0_S4_EE7reserveEj
	.section	.text._ZN4_STL7_M_initIcNS_11char_traitsIcEEEEbRNS_13basic_ostreamIT_T0_EE,"axG",%progbits,_ZN4_STL7_M_initIcNS_11char_traitsIcEEEEbRNS_13basic_ostreamIT_T0_EE,comdat
	.align	2
	.weak	_ZN4_STL7_M_initIcNS_11char_traitsIcEEEEbRNS_13basic_ostreamIT_T0_EE
	.hidden	_ZN4_STL7_M_initIcNS_11char_traitsIcEEEEbRNS_13basic_ostreamIT_T0_EE
	.type	_ZN4_STL7_M_initIcNS_11char_traitsIcEEEEbRNS_13basic_ostreamIT_T0_EE, %function
_ZN4_STL7_M_initIcNS_11char_traitsIcEEEEbRNS_13basic_ostreamIT_T0_EE:
.LFB3703:
	.loc 22 42 0
	.cfi_startproc
	@ args = 0, pretend = 0, frame = 8
	@ frame_needed = 0, uses_anonymous_args = 0
	str	lr, [sp, #-4]!
.LCFI209:
	.cfi_def_cfa_offset 4
	sub	sp, sp, #12
.LCFI210:
	.cfi_def_cfa_offset 16
	str	r0, [sp, #4]
	.loc 22 43 0
	ldr	r2, [sp, #4]
	ldr	r3, [sp, #4]
	ldr	r3, [r3, #0]
	sub	r3, r3, #12
	ldr	r3, [r3, #0]
	add	r3, r2, r3
	mov	r0, r3
	.cfi_offset 14, -4
	bl	_ZNK4_STL8ios_base4goodEv
	mov	r3, r0
	cmp	r3, #0
	beq	.L534
	.loc 22 45 0
	ldr	r2, [sp, #4]
	ldr	r3, [sp, #4]
	ldr	r3, [r3, #0]
	sub	r3, r3, #12
	ldr	r3, [r3, #0]
	add	r3, r2, r3
	mov	r0, r3
	bl	_ZNK4_STL9basic_iosIcNS_11char_traitsIcEEE5rdbufEv
	mov	r3, r0
	cmp	r3, #0
	movne	r3, #0
	moveq	r3, #1
	and	r3, r3, #255
	cmp	r3, #0
	beq	.L535
	.loc 22 46 0
	ldr	r2, [sp, #4]
	ldr	r3, [sp, #4]
	ldr	r3, [r3, #0]
	sub	r3, r3, #12
	ldr	r3, [r3, #0]
	add	r3, r2, r3
	mov	r0, r3
	mov	r1, #1
	bl	_ZN4_STL9basic_iosIcNS_11char_traitsIcEEE8setstateEi
.L535:
	.loc 22 47 0
	ldr	r2, [sp, #4]
	ldr	r3, [sp, #4]
	ldr	r3, [r3, #0]
	sub	r3, r3, #12
	ldr	r3, [r3, #0]
	add	r3, r2, r3
	mov	r0, r3
	bl	_ZNK4_STL9basic_iosIcNS_11char_traitsIcEEE3tieEv
	mov	r3, r0
	cmp	r3, #0
	moveq	r3, #0
	movne	r3, #1
	and	r3, r3, #255
	cmp	r3, #0
	beq	.L536
	.loc 22 48 0
	ldr	r2, [sp, #4]
	ldr	r3, [sp, #4]
	ldr	r3, [r3, #0]
	sub	r3, r3, #12
	ldr	r3, [r3, #0]
	add	r3, r2, r3
	mov	r0, r3
	bl	_ZNK4_STL9basic_iosIcNS_11char_traitsIcEEE3tieEv
	mov	r3, r0
	mov	r0, r3
	bl	_ZN4_STL13basic_ostreamIcNS_11char_traitsIcEEE5flushEv
.L536:
	.loc 22 49 0
	ldr	r2, [sp, #4]
	ldr	r3, [sp, #4]
	ldr	r3, [r3, #0]
	sub	r3, r3, #12
	ldr	r3, [r3, #0]
	add	r3, r2, r3
	mov	r0, r3
	bl	_ZNK4_STL8ios_base4goodEv
	mov	r3, r0
	b	.L537
.L534:
	.loc 22 51 0
	mov	r3, #0
.L537:
	.loc 22 52 0
	mov	r0, r3
	add	sp, sp, #12
	ldmfd	sp!, {pc}
	.cfi_endproc
.LFE3703:
	.size	_ZN4_STL7_M_initIcNS_11char_traitsIcEEEEbRNS_13basic_ostreamIT_T0_EE, .-_ZN4_STL7_M_initIcNS_11char_traitsIcEEEEbRNS_13basic_ostreamIT_T0_EE
	.section	.text._ZN4_STL9basic_iosIcNS_11char_traitsIcEEE5clearEi,"axG",%progbits,_ZN4_STL9basic_iosIcNS_11char_traitsIcEEE5clearEi,comdat
	.align	2
	.weak	_ZN4_STL9basic_iosIcNS_11char_traitsIcEEE5clearEi
	.hidden	_ZN4_STL9basic_iosIcNS_11char_traitsIcEEE5clearEi
	.type	_ZN4_STL9basic_iosIcNS_11char_traitsIcEEE5clearEi, %function
_ZN4_STL9basic_iosIcNS_11char_traitsIcEEE5clearEi:
.LFB3706:
	.loc 23 90 0
	.cfi_startproc
	@ args = 0, pretend = 0, frame = 8
	@ frame_needed = 0, uses_anonymous_args = 0
	stmfd	sp!, {r4, lr}
.LCFI211:
	.cfi_def_cfa_offset 8
	sub	sp, sp, #8
.LCFI212:
	.cfi_def_cfa_offset 16
	str	r0, [sp, #4]
	str	r1, [sp, #0]
	.loc 23 91 0
	ldr	r4, [sp, #4]
	.cfi_offset 14, -4
	.cfi_offset 4, -8
	ldr	r0, [sp, #4]
	bl	_ZNK4_STL9basic_iosIcNS_11char_traitsIcEEE5rdbufEv
	mov	r3, r0
	cmp	r3, #0
	bne	.L540
	ldr	r3, [sp, #0]
	orr	r3, r3, #1
	b	.L541
.L540:
	ldr	r3, [sp, #0]
.L541:
	mov	r0, r4
	mov	r1, r3
	bl	_ZN4_STL8ios_base16_M_clear_nothrowEi
	.loc 23 92 0
	ldr	r3, [sp, #4]
	mov	r0, r3
	bl	_ZN4_STL8ios_base23_M_check_exception_maskEv
	.loc 23 93 0
	add	sp, sp, #8
	ldmfd	sp!, {r4, pc}
	.cfi_endproc
.LFE3706:
	.size	_ZN4_STL9basic_iosIcNS_11char_traitsIcEEE5clearEi, .-_ZN4_STL9basic_iosIcNS_11char_traitsIcEEE5clearEi
	.section	.text._ZN4_STL18__char_traits_baseIciE3eofEv,"axG",%progbits,_ZN4_STL18__char_traits_baseIciE3eofEv,comdat
	.align	2
	.weak	_ZN4_STL18__char_traits_baseIciE3eofEv
	.hidden	_ZN4_STL18__char_traits_baseIciE3eofEv
	.type	_ZN4_STL18__char_traits_baseIciE3eofEv, %function
_ZN4_STL18__char_traits_baseIciE3eofEv:
.LFB3708:
	.loc 12 196 0
	.cfi_startproc
	@ args = 0, pretend = 0, frame = 0
	@ frame_needed = 0, uses_anonymous_args = 0
	@ link register save eliminated.
	.loc 12 197 0
	mvn	r3, #0
	.loc 12 199 0
	mov	r0, r3
	bx	lr
	.cfi_endproc
.LFE3708:
	.size	_ZN4_STL18__char_traits_baseIciE3eofEv, .-_ZN4_STL18__char_traits_baseIciE3eofEv
	.section	.text._ZN4_STL18__char_traits_baseIciE11eq_int_typeERKiS3_,"axG",%progbits,_ZN4_STL18__char_traits_baseIciE11eq_int_typeERKiS3_,comdat
	.align	2
	.weak	_ZN4_STL18__char_traits_baseIciE11eq_int_typeERKiS3_
	.hidden	_ZN4_STL18__char_traits_baseIciE11eq_int_typeERKiS3_
	.type	_ZN4_STL18__char_traits_baseIciE11eq_int_typeERKiS3_, %function
_ZN4_STL18__char_traits_baseIciE11eq_int_typeERKiS3_:
.LFB3709:
	.loc 12 192 0
	.cfi_startproc
	@ args = 0, pretend = 0, frame = 8
	@ frame_needed = 0, uses_anonymous_args = 0
	@ link register save eliminated.
	sub	sp, sp, #8
.LCFI213:
	.cfi_def_cfa_offset 8
	str	r0, [sp, #4]
	str	r1, [sp, #0]
	.loc 12 193 0
	ldr	r3, [sp, #4]
	ldr	r2, [r3, #0]
	ldr	r3, [sp, #0]
	ldr	r3, [r3, #0]
	cmp	r2, r3
	movne	r3, #0
	moveq	r3, #1
	and	r3, r3, #255
	.loc 12 194 0
	mov	r0, r3
	add	sp, sp, #8
	bx	lr
	.cfi_endproc
.LFE3709:
	.size	_ZN4_STL18__char_traits_baseIciE11eq_int_typeERKiS3_, .-_ZN4_STL18__char_traits_baseIciE11eq_int_typeERKiS3_
	.section	.rodata
	.align	2
.LC18:
	.ascii	"Attempting to change capacity of an array that does"
	.ascii	"n't own its data allocation.\000"
	.align	2
.LC19:
	.ascii	"!block_delete\000"
	.align	2
.LC20:
	.ascii	"Attempting to expand an array that has its size loc"
	.ascii	"ked.\000"
	.align	2
.LC21:
	.ascii	"!no_grow || q <= max_p\000"
	.align	2
.LC22:
	.ascii	"q>=num_p\000"
	.section	.text._ZN8CIwArrayIi12CIwAllocatorIi15CIwMallocRouterIiEE17ReallocateDefaultIiS3_EE12set_capacityEj,"axG",%progbits,_ZN8CIwArrayIi12CIwAllocatorIi15CIwMallocRouterIiEE17ReallocateDefaultIiS3_EE12set_capacityEj,comdat
	.align	2
	.weak	_ZN8CIwArrayIi12CIwAllocatorIi15CIwMallocRouterIiEE17ReallocateDefaultIiS3_EE12set_capacityEj
	.hidden	_ZN8CIwArrayIi12CIwAllocatorIi15CIwMallocRouterIiEE17ReallocateDefaultIiS3_EE12set_capacityEj
	.type	_ZN8CIwArrayIi12CIwAllocatorIi15CIwMallocRouterIiEE17ReallocateDefaultIiS3_EE12set_capacityEj, %function
_ZN8CIwArrayIi12CIwAllocatorIi15CIwMallocRouterIiEE17ReallocateDefaultIiS3_EE12set_capacityEj:
.LFB3711:
	.loc 16 804 0
	.cfi_startproc
	@ args = 0, pretend = 0, frame = 8
	@ frame_needed = 0, uses_anonymous_args = 0
	str	lr, [sp, #-4]!
.LCFI214:
	.cfi_def_cfa_offset 4
	sub	sp, sp, #20
.LCFI215:
	.cfi_def_cfa_offset 24
	str	r0, [sp, #12]
	str	r1, [sp, #8]
.LBB59:
.LBB60:
	.loc 16 806 0
	ldr	r3, [sp, #12]
	ldrb	r3, [r3, #12]
	and	r3, r3, #1
	and	r3, r3, #255
	cmp	r3, #0
	beq	.L548
	.cfi_offset 14, -4
	ldr	r0, .L585
	bl	IwDebugAssertIsChannelOn
	mov	r3, r0
	cmp	r3, #0
	beq	.L549
	ldr	r3, .L585+4
	ldrb	r3, [r3, #0]	@ zero_extendqisi2
	cmp	r3, #0
	bne	.L549
	mov	r3, #1
	b	.L550
.L549:
	mov	r3, #0
.L550:
	cmp	r3, #0
	beq	.L580
	ldr	r0, .L585+8
	bl	IwDebugAssertSetUID
	ldr	r0, .L585+12
	bl	IwDebugAssertSetMessage
	ldr	r0, .L585+16
	ldr	r1, .L585+20
	ldr	r2, .L585+24
	mov	r3, #1
	bl	IwDebugAssertShow
	mov	r3, r0
	cmp	r3, #1
	beq	.L553
	cmp	r3, #2
	beq	.L554
	b	.L552
.L553:
	bl	s3eDebugIsDebuggerPresent
	mov	r3, r0
	cmp	r3, #0
	moveq	r3, #0
	movne	r3, #1
	and	r3, r3, #255
	cmp	r3, #0
	beq	.L555
	bl	s3eDebugIsDebuggerPresent
	mov	r3, r0
	cmp	r3, #0
	moveq	r3, #0
	movne	r3, #1
	and	r3, r3, #255
	cmp	r3, #0
	beq	.L581
	mvn	r3, #11
	mov	r2, #0
	str	r2, [r3, #0]
	b	.L552
.L555:
	bl	_ZL11IwDebugExitv
	b	.L552
.L554:
	ldr	r3, .L585+4
	mov	r2, #1
	strb	r2, [r3, #0]
	b	.L552
.L581:
	mov	r0, r0	@ nop
.L552:
	mov	r0, #0
	bl	IwDebugAssertSetUID
	b	.L579
.L548:
.LBE60:
.LBB61:
	.loc 16 807 0
	ldr	r3, [sp, #12]
	ldrb	r3, [r3, #12]	@ zero_extendqisi2
	mov	r3, r3, lsr #1
	and	r3, r3, #1
	and	r3, r3, #255
	cmp	r3, #0
	beq	.L559
	ldr	r3, [sp, #12]
	ldr	r2, [r3, #8]
	ldr	r3, [sp, #8]
	cmp	r2, r3
	bcs	.L559
	ldr	r0, .L585
	bl	IwDebugAssertIsChannelOn
	mov	r3, r0
	cmp	r3, #0
	beq	.L559
	ldr	r3, .L585+28
	ldrb	r3, [r3, #0]	@ zero_extendqisi2
	cmp	r3, #0
	bne	.L559
	mov	r3, #1
	b	.L560
.L559:
	mov	r3, #0
.L560:
	cmp	r3, #0
	beq	.L561
	mov	r0, #0
	bl	IwDebugAssertSetSolution
	ldr	r0, .L585+32
	bl	IwDebugAssertSetUID
	ldr	r0, .L585+36
	bl	IwDebugAssertSetMessage
	ldr	r0, .L585+40
	ldr	r1, .L585+20
	ldr	r2, .L585+44
	mov	r3, #1
	bl	IwDebugAssertShow
	mov	r3, r0
	cmp	r3, #1
	beq	.L563
	cmp	r3, #2
	beq	.L564
	b	.L562
.L563:
	bl	s3eDebugIsDebuggerPresent
	mov	r3, r0
	cmp	r3, #0
	moveq	r3, #0
	movne	r3, #1
	and	r3, r3, #255
	cmp	r3, #0
	beq	.L565
	bl	s3eDebugIsDebuggerPresent
	mov	r3, r0
	cmp	r3, #0
	moveq	r3, #0
	movne	r3, #1
	and	r3, r3, #255
	cmp	r3, #0
	beq	.L582
	mvn	r3, #11
	mov	r2, #0
	str	r2, [r3, #0]
	b	.L562
.L565:
	bl	_ZL11IwDebugExitv
	b	.L562
.L564:
	ldr	r3, .L585+28
	mov	r2, #1
	strb	r2, [r3, #0]
	b	.L562
.L582:
	mov	r0, r0	@ nop
.L562:
	mov	r0, #0
	bl	IwDebugAssertSetUID
.L561:
.LBE61:
.LBB62:
	.loc 16 808 0
	ldr	r3, [sp, #12]
	ldr	r2, [r3, #4]
	ldr	r3, [sp, #8]
	cmp	r2, r3
	bls	.L568
	ldr	r0, .L585
	bl	IwDebugAssertIsChannelOn
	mov	r3, r0
	cmp	r3, #0
	beq	.L568
	ldr	r3, .L585+48
	ldrb	r3, [r3, #0]	@ zero_extendqisi2
	cmp	r3, #0
	bne	.L568
	mov	r3, #1
	b	.L569
.L568:
	mov	r3, #0
.L569:
	cmp	r3, #0
	beq	.L570
	mov	r0, #0
	bl	IwDebugAssertSetSolution
	mov	r0, #0
	bl	IwDebugAssertSetUID
	mov	r0, #0
	bl	IwDebugAssertSetMessage
	ldr	r0, .L585+52
	ldr	r1, .L585+20
	mov	r2, #808
	mov	r3, #1
	bl	IwDebugAssertShow
	mov	r3, r0
	cmp	r3, #1
	beq	.L572
	cmp	r3, #2
	beq	.L573
	b	.L571
.L572:
	bl	s3eDebugIsDebuggerPresent
	mov	r3, r0
	cmp	r3, #0
	moveq	r3, #0
	movne	r3, #1
	and	r3, r3, #255
	cmp	r3, #0
	beq	.L574
	bl	s3eDebugIsDebuggerPresent
	mov	r3, r0
	cmp	r3, #0
	moveq	r3, #0
	movne	r3, #1
	and	r3, r3, #255
	cmp	r3, #0
	beq	.L583
	mvn	r3, #11
	mov	r2, #0
	str	r2, [r3, #0]
	b	.L571
.L574:
	bl	_ZL11IwDebugExitv
	b	.L571
.L573:
	ldr	r3, .L585+48
	mov	r2, #1
	strb	r2, [r3, #0]
	b	.L571
.L583:
	mov	r0, r0	@ nop
.L571:
	mov	r0, #0
	bl	IwDebugAssertSetUID
.L570:
.LBE62:
	.loc 16 809 0
	ldr	r3, [sp, #12]
	ldr	r2, [r3, #8]
	ldr	r3, [sp, #8]
	cmp	r2, r3
	beq	.L584
.L577:
	.loc 16 810 0
	ldr	r3, [sp, #12]
	ldr	r2, [sp, #8]
	str	r2, [r3, #8]
	.loc 16 811 0
	ldr	r3, [sp, #8]
	cmp	r3, #0
	bne	.L578
	.loc 16 813 0
	ldr	r3, [sp, #12]
	add	r1, r3, #13
	ldr	r3, [sp, #12]
	ldr	r2, [r3, #0]
	ldr	r3, [sp, #12]
	ldr	r3, [r3, #8]
	mov	r0, r1
	mov	r1, r2
	mov	r2, r3
	bl	_ZN12CIwAllocatorIi15CIwMallocRouterIiEE10deallocateEPij
	.loc 16 814 0
	ldr	r3, [sp, #12]
	mov	r2, #0
	str	r2, [r3, #0]
	b	.L579
.L578:
	.loc 16 818 0
	ldr	r3, [sp, #12]
	ldr	r1, [r3, #4]
	ldr	r3, [sp, #12]
	ldr	r2, [r3, #8]
	ldr	r3, [sp, #12]
	ldr	r3, [r3, #0]
	ldr	r0, [sp, #12]
	add	r0, r0, #13
	str	r0, [sp, #0]
	ldr	r0, [sp, #8]
	bl	_ZN17ReallocateDefaultIi12CIwAllocatorIi15CIwMallocRouterIiEEE10ReallocateEjjjPiRS3_
	mov	r2, r0
	ldr	r3, [sp, #12]
	str	r2, [r3, #0]
	b	.L579
.L580:
.LBB63:
	.loc 16 806 0
	mov	r0, r0	@ nop
	b	.L579
.L584:
.LBE63:
	.loc 16 809 0
	mov	r0, r0	@ nop
.L579:
.LBE59:
	.loc 16 820 0
	add	sp, sp, #20
	ldmfd	sp!, {pc}
.L586:
	.align	2
.L585:
	.word	.LC10
	.word	_ZZN8CIwArrayIi12CIwAllocatorIi15CIwMallocRouterIiEE17ReallocateDefaultIiS3_EE12set_capacityEjE21_s_IwAssertIgnoreThis
	.word	1733
	.word	.LC18
	.word	.LC19
	.word	.LC13
	.word	806
	.word	_ZZN8CIwArrayIi12CIwAllocatorIi15CIwMallocRouterIiEE17ReallocateDefaultIiS3_EE12set_capacityEjE21_s_IwAssertIgnoreThis_0
	.word	1732
	.word	.LC20
	.word	.LC21
	.word	807
	.word	_ZZN8CIwArrayIi12CIwAllocatorIi15CIwMallocRouterIiEE17ReallocateDefaultIiS3_EE12set_capacityEjE21_s_IwAssertIgnoreThis_1
	.word	.LC22
	.cfi_endproc
.LFE3711:
	.size	_ZN8CIwArrayIi12CIwAllocatorIi15CIwMallocRouterIiEE17ReallocateDefaultIiS3_EE12set_capacityEj, .-_ZN8CIwArrayIi12CIwAllocatorIi15CIwMallocRouterIiEE17ReallocateDefaultIiS3_EE12set_capacityEj
	.section	.text._ZN4_STL14__malloc_allocILi0EE8allocateEj,"axG",%progbits,_ZN4_STL14__malloc_allocILi0EE8allocateEj,comdat
	.align	2
	.weak	_ZN4_STL14__malloc_allocILi0EE8allocateEj
	.hidden	_ZN4_STL14__malloc_allocILi0EE8allocateEj
	.type	_ZN4_STL14__malloc_allocILi0EE8allocateEj, %function
_ZN4_STL14__malloc_allocILi0EE8allocateEj:
.LFB3712:
	.loc 17 109 0
	.cfi_startproc
	@ args = 0, pretend = 0, frame = 16
	@ frame_needed = 0, uses_anonymous_args = 0
	str	lr, [sp, #-4]!
.LCFI216:
	.cfi_def_cfa_offset 4
	sub	sp, sp, #20
.LCFI217:
	.cfi_def_cfa_offset 24
	str	r0, [sp, #4]
.LBB64:
	.loc 17 110 0
	ldr	r0, [sp, #4]
	.cfi_offset 14, -4
	bl	malloc
	mov	r3, r0
	str	r3, [sp, #12]
	.loc 17 111 0
	ldr	r3, [sp, #12]
	cmp	r3, #0
	bne	.L588
	ldr	r0, [sp, #4]
	bl	_ZN4_STL14__malloc_allocILi0EE13_S_oom_mallocEj
	mov	r3, r0
	str	r3, [sp, #12]
.L588:
	.loc 17 112 0
	ldr	r3, [sp, #12]
.LBE64:
	.loc 17 113 0
	mov	r0, r3
	add	sp, sp, #20
	ldmfd	sp!, {pc}
	.cfi_endproc
.LFE3712:
	.size	_ZN4_STL14__malloc_allocILi0EE8allocateEj, .-_ZN4_STL14__malloc_allocILi0EE8allocateEj
	.section	.text._ZN8CIwArrayI12TileObstacle12CIwAllocatorIS0_15CIwMallocRouterIS0_EE17ReallocateDefaultIS0_S4_EE12set_capacityEj,"axG",%progbits,_ZN8CIwArrayI12TileObstacle12CIwAllocatorIS0_15CIwMallocRouterIS0_EE17ReallocateDefaultIS0_S4_EE12set_capacityEj,comdat
	.align	2
	.weak	_ZN8CIwArrayI12TileObstacle12CIwAllocatorIS0_15CIwMallocRouterIS0_EE17ReallocateDefaultIS0_S4_EE12set_capacityEj
	.hidden	_ZN8CIwArrayI12TileObstacle12CIwAllocatorIS0_15CIwMallocRouterIS0_EE17ReallocateDefaultIS0_S4_EE12set_capacityEj
	.type	_ZN8CIwArrayI12TileObstacle12CIwAllocatorIS0_15CIwMallocRouterIS0_EE17ReallocateDefaultIS0_S4_EE12set_capacityEj, %function
_ZN8CIwArrayI12TileObstacle12CIwAllocatorIS0_15CIwMallocRouterIS0_EE17ReallocateDefaultIS0_S4_EE12set_capacityEj:
.LFB3713:
	.loc 16 804 0
	.cfi_startproc
	@ args = 0, pretend = 0, frame = 8
	@ frame_needed = 0, uses_anonymous_args = 0
	str	lr, [sp, #-4]!
.LCFI218:
	.cfi_def_cfa_offset 4
	sub	sp, sp, #20
.LCFI219:
	.cfi_def_cfa_offset 24
	str	r0, [sp, #12]
	str	r1, [sp, #8]
.LBB65:
.LBB66:
	.loc 16 806 0
	ldr	r3, [sp, #12]
	ldrb	r3, [r3, #12]
	and	r3, r3, #1
	and	r3, r3, #255
	cmp	r3, #0
	beq	.L591
	.cfi_offset 14, -4
	ldr	r0, .L628
	bl	IwDebugAssertIsChannelOn
	mov	r3, r0
	cmp	r3, #0
	beq	.L592
	ldr	r3, .L628+4
	ldrb	r3, [r3, #0]	@ zero_extendqisi2
	cmp	r3, #0
	bne	.L592
	mov	r3, #1
	b	.L593
.L592:
	mov	r3, #0
.L593:
	cmp	r3, #0
	beq	.L623
	ldr	r0, .L628+8
	bl	IwDebugAssertSetUID
	ldr	r0, .L628+12
	bl	IwDebugAssertSetMessage
	ldr	r0, .L628+16
	ldr	r1, .L628+20
	ldr	r2, .L628+24
	mov	r3, #1
	bl	IwDebugAssertShow
	mov	r3, r0
	cmp	r3, #1
	beq	.L596
	cmp	r3, #2
	beq	.L597
	b	.L595
.L596:
	bl	s3eDebugIsDebuggerPresent
	mov	r3, r0
	cmp	r3, #0
	moveq	r3, #0
	movne	r3, #1
	and	r3, r3, #255
	cmp	r3, #0
	beq	.L598
	bl	s3eDebugIsDebuggerPresent
	mov	r3, r0
	cmp	r3, #0
	moveq	r3, #0
	movne	r3, #1
	and	r3, r3, #255
	cmp	r3, #0
	beq	.L624
	mvn	r3, #11
	mov	r2, #0
	str	r2, [r3, #0]
	b	.L595
.L598:
	bl	_ZL11IwDebugExitv
	b	.L595
.L597:
	ldr	r3, .L628+4
	mov	r2, #1
	strb	r2, [r3, #0]
	b	.L595
.L624:
	mov	r0, r0	@ nop
.L595:
	mov	r0, #0
	bl	IwDebugAssertSetUID
	b	.L622
.L591:
.LBE66:
.LBB67:
	.loc 16 807 0
	ldr	r3, [sp, #12]
	ldrb	r3, [r3, #12]	@ zero_extendqisi2
	mov	r3, r3, lsr #1
	and	r3, r3, #1
	and	r3, r3, #255
	cmp	r3, #0
	beq	.L602
	ldr	r3, [sp, #12]
	ldr	r2, [r3, #8]
	ldr	r3, [sp, #8]
	cmp	r2, r3
	bcs	.L602
	ldr	r0, .L628
	bl	IwDebugAssertIsChannelOn
	mov	r3, r0
	cmp	r3, #0
	beq	.L602
	ldr	r3, .L628+28
	ldrb	r3, [r3, #0]	@ zero_extendqisi2
	cmp	r3, #0
	bne	.L602
	mov	r3, #1
	b	.L603
.L602:
	mov	r3, #0
.L603:
	cmp	r3, #0
	beq	.L604
	mov	r0, #0
	bl	IwDebugAssertSetSolution
	ldr	r0, .L628+32
	bl	IwDebugAssertSetUID
	ldr	r0, .L628+36
	bl	IwDebugAssertSetMessage
	ldr	r0, .L628+40
	ldr	r1, .L628+20
	ldr	r2, .L628+44
	mov	r3, #1
	bl	IwDebugAssertShow
	mov	r3, r0
	cmp	r3, #1
	beq	.L606
	cmp	r3, #2
	beq	.L607
	b	.L605
.L606:
	bl	s3eDebugIsDebuggerPresent
	mov	r3, r0
	cmp	r3, #0
	moveq	r3, #0
	movne	r3, #1
	and	r3, r3, #255
	cmp	r3, #0
	beq	.L608
	bl	s3eDebugIsDebuggerPresent
	mov	r3, r0
	cmp	r3, #0
	moveq	r3, #0
	movne	r3, #1
	and	r3, r3, #255
	cmp	r3, #0
	beq	.L625
	mvn	r3, #11
	mov	r2, #0
	str	r2, [r3, #0]
	b	.L605
.L608:
	bl	_ZL11IwDebugExitv
	b	.L605
.L607:
	ldr	r3, .L628+28
	mov	r2, #1
	strb	r2, [r3, #0]
	b	.L605
.L625:
	mov	r0, r0	@ nop
.L605:
	mov	r0, #0
	bl	IwDebugAssertSetUID
.L604:
.LBE67:
.LBB68:
	.loc 16 808 0
	ldr	r3, [sp, #12]
	ldr	r2, [r3, #4]
	ldr	r3, [sp, #8]
	cmp	r2, r3
	bls	.L611
	ldr	r0, .L628
	bl	IwDebugAssertIsChannelOn
	mov	r3, r0
	cmp	r3, #0
	beq	.L611
	ldr	r3, .L628+48
	ldrb	r3, [r3, #0]	@ zero_extendqisi2
	cmp	r3, #0
	bne	.L611
	mov	r3, #1
	b	.L612
.L611:
	mov	r3, #0
.L612:
	cmp	r3, #0
	beq	.L613
	mov	r0, #0
	bl	IwDebugAssertSetSolution
	mov	r0, #0
	bl	IwDebugAssertSetUID
	mov	r0, #0
	bl	IwDebugAssertSetMessage
	ldr	r0, .L628+52
	ldr	r1, .L628+20
	mov	r2, #808
	mov	r3, #1
	bl	IwDebugAssertShow
	mov	r3, r0
	cmp	r3, #1
	beq	.L615
	cmp	r3, #2
	beq	.L616
	b	.L614
.L615:
	bl	s3eDebugIsDebuggerPresent
	mov	r3, r0
	cmp	r3, #0
	moveq	r3, #0
	movne	r3, #1
	and	r3, r3, #255
	cmp	r3, #0
	beq	.L617
	bl	s3eDebugIsDebuggerPresent
	mov	r3, r0
	cmp	r3, #0
	moveq	r3, #0
	movne	r3, #1
	and	r3, r3, #255
	cmp	r3, #0
	beq	.L626
	mvn	r3, #11
	mov	r2, #0
	str	r2, [r3, #0]
	b	.L614
.L617:
	bl	_ZL11IwDebugExitv
	b	.L614
.L616:
	ldr	r3, .L628+48
	mov	r2, #1
	strb	r2, [r3, #0]
	b	.L614
.L626:
	mov	r0, r0	@ nop
.L614:
	mov	r0, #0
	bl	IwDebugAssertSetUID
.L613:
.LBE68:
	.loc 16 809 0
	ldr	r3, [sp, #12]
	ldr	r2, [r3, #8]
	ldr	r3, [sp, #8]
	cmp	r2, r3
	beq	.L627
.L620:
	.loc 16 810 0
	ldr	r3, [sp, #12]
	ldr	r2, [sp, #8]
	str	r2, [r3, #8]
	.loc 16 811 0
	ldr	r3, [sp, #8]
	cmp	r3, #0
	bne	.L621
	.loc 16 813 0
	ldr	r3, [sp, #12]
	add	r1, r3, #13
	ldr	r3, [sp, #12]
	ldr	r2, [r3, #0]
	ldr	r3, [sp, #12]
	ldr	r3, [r3, #8]
	mov	r0, r1
	mov	r1, r2
	mov	r2, r3
	bl	_ZN12CIwAllocatorI12TileObstacle15CIwMallocRouterIS0_EE10deallocateEPS0_j
	.loc 16 814 0
	ldr	r3, [sp, #12]
	mov	r2, #0
	str	r2, [r3, #0]
	b	.L622
.L621:
	.loc 16 818 0
	ldr	r3, [sp, #12]
	ldr	r1, [r3, #4]
	ldr	r3, [sp, #12]
	ldr	r2, [r3, #8]
	ldr	r3, [sp, #12]
	ldr	r3, [r3, #0]
	ldr	r0, [sp, #12]
	add	r0, r0, #13
	str	r0, [sp, #0]
	ldr	r0, [sp, #8]
	bl	_ZN17ReallocateDefaultI12TileObstacle12CIwAllocatorIS0_15CIwMallocRouterIS0_EEE10ReallocateEjjjPS0_RS4_
	mov	r2, r0
	ldr	r3, [sp, #12]
	str	r2, [r3, #0]
	b	.L622
.L623:
.LBB69:
	.loc 16 806 0
	mov	r0, r0	@ nop
	b	.L622
.L627:
.LBE69:
	.loc 16 809 0
	mov	r0, r0	@ nop
.L622:
.LBE65:
	.loc 16 820 0
	add	sp, sp, #20
	ldmfd	sp!, {pc}
.L629:
	.align	2
.L628:
	.word	.LC10
	.word	_ZZN8CIwArrayI12TileObstacle12CIwAllocatorIS0_15CIwMallocRouterIS0_EE17ReallocateDefaultIS0_S4_EE12set_capacityEjE21_s_IwAssertIgnoreThis
	.word	1733
	.word	.LC18
	.word	.LC19
	.word	.LC13
	.word	806
	.word	_ZZN8CIwArrayI12TileObstacle12CIwAllocatorIS0_15CIwMallocRouterIS0_EE17ReallocateDefaultIS0_S4_EE12set_capacityEjE21_s_IwAssertIgnoreThis_0
	.word	1732
	.word	.LC20
	.word	.LC21
	.word	807
	.word	_ZZN8CIwArrayI12TileObstacle12CIwAllocatorIS0_15CIwMallocRouterIS0_EE17ReallocateDefaultIS0_S4_EE12set_capacityEjE21_s_IwAssertIgnoreThis_1
	.word	.LC22
	.cfi_endproc
.LFE3713:
	.size	_ZN8CIwArrayI12TileObstacle12CIwAllocatorIS0_15CIwMallocRouterIS0_EE17ReallocateDefaultIS0_S4_EE12set_capacityEj, .-_ZN8CIwArrayI12TileObstacle12CIwAllocatorIS0_15CIwMallocRouterIS0_EE17ReallocateDefaultIS0_S4_EE12set_capacityEj
	.section	.text._ZN4_STL8_DestroyI8ObstacleEEvPT_,"axG",%progbits,_ZN4_STL8_DestroyI8ObstacleEEvPT_,comdat
	.align	2
	.weak	_ZN4_STL8_DestroyI8ObstacleEEvPT_
	.hidden	_ZN4_STL8_DestroyI8ObstacleEEvPT_
	.type	_ZN4_STL8_DestroyI8ObstacleEEvPT_, %function
_ZN4_STL8_DestroyI8ObstacleEEvPT_:
.LFB3721:
	.loc 21 56 0
	.cfi_startproc
	@ args = 0, pretend = 0, frame = 8
	@ frame_needed = 0, uses_anonymous_args = 0
	str	lr, [sp, #-4]!
.LCFI220:
	.cfi_def_cfa_offset 4
	sub	sp, sp, #12
.LCFI221:
	.cfi_def_cfa_offset 16
	str	r0, [sp, #4]
	.loc 21 67 0
	ldr	r0, [sp, #4]
	.cfi_offset 14, -4
	bl	_ZN8ObstacleD1Ev
	.loc 21 73 0
	add	sp, sp, #12
	ldmfd	sp!, {pc}
	.cfi_endproc
.LFE3721:
	.size	_ZN4_STL8_DestroyI8ObstacleEEvPT_, .-_ZN4_STL8_DestroyI8ObstacleEEvPT_
	.section	.text._ZN8CIwArrayI8TileUnit12CIwAllocatorIS0_15CIwMallocRouterIS0_EE17ReallocateDefaultIS0_S4_EE12set_capacityEj,"axG",%progbits,_ZN8CIwArrayI8TileUnit12CIwAllocatorIS0_15CIwMallocRouterIS0_EE17ReallocateDefaultIS0_S4_EE12set_capacityEj,comdat
	.align	2
	.weak	_ZN8CIwArrayI8TileUnit12CIwAllocatorIS0_15CIwMallocRouterIS0_EE17ReallocateDefaultIS0_S4_EE12set_capacityEj
	.hidden	_ZN8CIwArrayI8TileUnit12CIwAllocatorIS0_15CIwMallocRouterIS0_EE17ReallocateDefaultIS0_S4_EE12set_capacityEj
	.type	_ZN8CIwArrayI8TileUnit12CIwAllocatorIS0_15CIwMallocRouterIS0_EE17ReallocateDefaultIS0_S4_EE12set_capacityEj, %function
_ZN8CIwArrayI8TileUnit12CIwAllocatorIS0_15CIwMallocRouterIS0_EE17ReallocateDefaultIS0_S4_EE12set_capacityEj:
.LFB3722:
	.loc 16 804 0
	.cfi_startproc
	@ args = 0, pretend = 0, frame = 8
	@ frame_needed = 0, uses_anonymous_args = 0
	str	lr, [sp, #-4]!
.LCFI222:
	.cfi_def_cfa_offset 4
	sub	sp, sp, #20
.LCFI223:
	.cfi_def_cfa_offset 24
	str	r0, [sp, #12]
	str	r1, [sp, #8]
.LBB70:
.LBB71:
	.loc 16 806 0
	ldr	r3, [sp, #12]
	ldrb	r3, [r3, #12]
	and	r3, r3, #1
	and	r3, r3, #255
	cmp	r3, #0
	beq	.L633
	.cfi_offset 14, -4
	ldr	r0, .L670
	bl	IwDebugAssertIsChannelOn
	mov	r3, r0
	cmp	r3, #0
	beq	.L634
	ldr	r3, .L670+4
	ldrb	r3, [r3, #0]	@ zero_extendqisi2
	cmp	r3, #0
	bne	.L634
	mov	r3, #1
	b	.L635
.L634:
	mov	r3, #0
.L635:
	cmp	r3, #0
	beq	.L665
	ldr	r0, .L670+8
	bl	IwDebugAssertSetUID
	ldr	r0, .L670+12
	bl	IwDebugAssertSetMessage
	ldr	r0, .L670+16
	ldr	r1, .L670+20
	ldr	r2, .L670+24
	mov	r3, #1
	bl	IwDebugAssertShow
	mov	r3, r0
	cmp	r3, #1
	beq	.L638
	cmp	r3, #2
	beq	.L639
	b	.L637
.L638:
	bl	s3eDebugIsDebuggerPresent
	mov	r3, r0
	cmp	r3, #0
	moveq	r3, #0
	movne	r3, #1
	and	r3, r3, #255
	cmp	r3, #0
	beq	.L640
	bl	s3eDebugIsDebuggerPresent
	mov	r3, r0
	cmp	r3, #0
	moveq	r3, #0
	movne	r3, #1
	and	r3, r3, #255
	cmp	r3, #0
	beq	.L666
	mvn	r3, #11
	mov	r2, #0
	str	r2, [r3, #0]
	b	.L637
.L640:
	bl	_ZL11IwDebugExitv
	b	.L637
.L639:
	ldr	r3, .L670+4
	mov	r2, #1
	strb	r2, [r3, #0]
	b	.L637
.L666:
	mov	r0, r0	@ nop
.L637:
	mov	r0, #0
	bl	IwDebugAssertSetUID
	b	.L664
.L633:
.LBE71:
.LBB72:
	.loc 16 807 0
	ldr	r3, [sp, #12]
	ldrb	r3, [r3, #12]	@ zero_extendqisi2
	mov	r3, r3, lsr #1
	and	r3, r3, #1
	and	r3, r3, #255
	cmp	r3, #0
	beq	.L644
	ldr	r3, [sp, #12]
	ldr	r2, [r3, #8]
	ldr	r3, [sp, #8]
	cmp	r2, r3
	bcs	.L644
	ldr	r0, .L670
	bl	IwDebugAssertIsChannelOn
	mov	r3, r0
	cmp	r3, #0
	beq	.L644
	ldr	r3, .L670+28
	ldrb	r3, [r3, #0]	@ zero_extendqisi2
	cmp	r3, #0
	bne	.L644
	mov	r3, #1
	b	.L645
.L644:
	mov	r3, #0
.L645:
	cmp	r3, #0
	beq	.L646
	mov	r0, #0
	bl	IwDebugAssertSetSolution
	ldr	r0, .L670+32
	bl	IwDebugAssertSetUID
	ldr	r0, .L670+36
	bl	IwDebugAssertSetMessage
	ldr	r0, .L670+40
	ldr	r1, .L670+20
	ldr	r2, .L670+44
	mov	r3, #1
	bl	IwDebugAssertShow
	mov	r3, r0
	cmp	r3, #1
	beq	.L648
	cmp	r3, #2
	beq	.L649
	b	.L647
.L648:
	bl	s3eDebugIsDebuggerPresent
	mov	r3, r0
	cmp	r3, #0
	moveq	r3, #0
	movne	r3, #1
	and	r3, r3, #255
	cmp	r3, #0
	beq	.L650
	bl	s3eDebugIsDebuggerPresent
	mov	r3, r0
	cmp	r3, #0
	moveq	r3, #0
	movne	r3, #1
	and	r3, r3, #255
	cmp	r3, #0
	beq	.L667
	mvn	r3, #11
	mov	r2, #0
	str	r2, [r3, #0]
	b	.L647
.L650:
	bl	_ZL11IwDebugExitv
	b	.L647
.L649:
	ldr	r3, .L670+28
	mov	r2, #1
	strb	r2, [r3, #0]
	b	.L647
.L667:
	mov	r0, r0	@ nop
.L647:
	mov	r0, #0
	bl	IwDebugAssertSetUID
.L646:
.LBE72:
.LBB73:
	.loc 16 808 0
	ldr	r3, [sp, #12]
	ldr	r2, [r3, #4]
	ldr	r3, [sp, #8]
	cmp	r2, r3
	bls	.L653
	ldr	r0, .L670
	bl	IwDebugAssertIsChannelOn
	mov	r3, r0
	cmp	r3, #0
	beq	.L653
	ldr	r3, .L670+48
	ldrb	r3, [r3, #0]	@ zero_extendqisi2
	cmp	r3, #0
	bne	.L653
	mov	r3, #1
	b	.L654
.L653:
	mov	r3, #0
.L654:
	cmp	r3, #0
	beq	.L655
	mov	r0, #0
	bl	IwDebugAssertSetSolution
	mov	r0, #0
	bl	IwDebugAssertSetUID
	mov	r0, #0
	bl	IwDebugAssertSetMessage
	ldr	r0, .L670+52
	ldr	r1, .L670+20
	mov	r2, #808
	mov	r3, #1
	bl	IwDebugAssertShow
	mov	r3, r0
	cmp	r3, #1
	beq	.L657
	cmp	r3, #2
	beq	.L658
	b	.L656
.L657:
	bl	s3eDebugIsDebuggerPresent
	mov	r3, r0
	cmp	r3, #0
	moveq	r3, #0
	movne	r3, #1
	and	r3, r3, #255
	cmp	r3, #0
	beq	.L659
	bl	s3eDebugIsDebuggerPresent
	mov	r3, r0
	cmp	r3, #0
	moveq	r3, #0
	movne	r3, #1
	and	r3, r3, #255
	cmp	r3, #0
	beq	.L668
	mvn	r3, #11
	mov	r2, #0
	str	r2, [r3, #0]
	b	.L656
.L659:
	bl	_ZL11IwDebugExitv
	b	.L656
.L658:
	ldr	r3, .L670+48
	mov	r2, #1
	strb	r2, [r3, #0]
	b	.L656
.L668:
	mov	r0, r0	@ nop
.L656:
	mov	r0, #0
	bl	IwDebugAssertSetUID
.L655:
.LBE73:
	.loc 16 809 0
	ldr	r3, [sp, #12]
	ldr	r2, [r3, #8]
	ldr	r3, [sp, #8]
	cmp	r2, r3
	beq	.L669
.L662:
	.loc 16 810 0
	ldr	r3, [sp, #12]
	ldr	r2, [sp, #8]
	str	r2, [r3, #8]
	.loc 16 811 0
	ldr	r3, [sp, #8]
	cmp	r3, #0
	bne	.L663
	.loc 16 813 0
	ldr	r3, [sp, #12]
	add	r1, r3, #13
	ldr	r3, [sp, #12]
	ldr	r2, [r3, #0]
	ldr	r3, [sp, #12]
	ldr	r3, [r3, #8]
	mov	r0, r1
	mov	r1, r2
	mov	r2, r3
	bl	_ZN12CIwAllocatorI8TileUnit15CIwMallocRouterIS0_EE10deallocateEPS0_j
	.loc 16 814 0
	ldr	r3, [sp, #12]
	mov	r2, #0
	str	r2, [r3, #0]
	b	.L664
.L663:
	.loc 16 818 0
	ldr	r3, [sp, #12]
	ldr	r1, [r3, #4]
	ldr	r3, [sp, #12]
	ldr	r2, [r3, #8]
	ldr	r3, [sp, #12]
	ldr	r3, [r3, #0]
	ldr	r0, [sp, #12]
	add	r0, r0, #13
	str	r0, [sp, #0]
	ldr	r0, [sp, #8]
	bl	_ZN17ReallocateDefaultI8TileUnit12CIwAllocatorIS0_15CIwMallocRouterIS0_EEE10ReallocateEjjjPS0_RS4_
	mov	r2, r0
	ldr	r3, [sp, #12]
	str	r2, [r3, #0]
	b	.L664
.L665:
.LBB74:
	.loc 16 806 0
	mov	r0, r0	@ nop
	b	.L664
.L669:
.LBE74:
	.loc 16 809 0
	mov	r0, r0	@ nop
.L664:
.LBE70:
	.loc 16 820 0
	add	sp, sp, #20
	ldmfd	sp!, {pc}
.L671:
	.align	2
.L670:
	.word	.LC10
	.word	_ZZN8CIwArrayI8TileUnit12CIwAllocatorIS0_15CIwMallocRouterIS0_EE17ReallocateDefaultIS0_S4_EE12set_capacityEjE21_s_IwAssertIgnoreThis
	.word	1733
	.word	.LC18
	.word	.LC19
	.word	.LC13
	.word	806
	.word	_ZZN8CIwArrayI8TileUnit12CIwAllocatorIS0_15CIwMallocRouterIS0_EE17ReallocateDefaultIS0_S4_EE12set_capacityEjE21_s_IwAssertIgnoreThis_0
	.word	1732
	.word	.LC20
	.word	.LC21
	.word	807
	.word	_ZZN8CIwArrayI8TileUnit12CIwAllocatorIS0_15CIwMallocRouterIS0_EE17ReallocateDefaultIS0_S4_EE12set_capacityEjE21_s_IwAssertIgnoreThis_1
	.word	.LC22
	.cfi_endproc
.LFE3722:
	.size	_ZN8CIwArrayI8TileUnit12CIwAllocatorIS0_15CIwMallocRouterIS0_EE17ReallocateDefaultIS0_S4_EE12set_capacityEj, .-_ZN8CIwArrayI8TileUnit12CIwAllocatorIS0_15CIwMallocRouterIS0_EE17ReallocateDefaultIS0_S4_EE12set_capacityEj
	.section	.text._ZNK4_STL9basic_iosIcNS_11char_traitsIcEEE3tieEv,"axG",%progbits,_ZNK4_STL9basic_iosIcNS_11char_traitsIcEEE3tieEv,comdat
	.align	2
	.weak	_ZNK4_STL9basic_iosIcNS_11char_traitsIcEEE3tieEv
	.hidden	_ZNK4_STL9basic_iosIcNS_11char_traitsIcEEE3tieEv
	.type	_ZNK4_STL9basic_iosIcNS_11char_traitsIcEEE3tieEv, %function
_ZNK4_STL9basic_iosIcNS_11char_traitsIcEEE3tieEv:
.LFB3735:
	.loc 23 61 0
	.cfi_startproc
	@ args = 0, pretend = 0, frame = 8
	@ frame_needed = 0, uses_anonymous_args = 0
	@ link register save eliminated.
	sub	sp, sp, #8
.LCFI224:
	.cfi_def_cfa_offset 8
	str	r0, [sp, #4]
	.loc 23 62 0
	ldr	r3, [sp, #4]
	ldr	r3, [r3, #92]
	.loc 23 63 0
	mov	r0, r3
	add	sp, sp, #8
	bx	lr
	.cfi_endproc
.LFE3735:
	.size	_ZNK4_STL9basic_iosIcNS_11char_traitsIcEEE3tieEv, .-_ZNK4_STL9basic_iosIcNS_11char_traitsIcEEE3tieEv
	.section	.text._ZN17ReallocateDefaultIi12CIwAllocatorIi15CIwMallocRouterIiEEE10ReallocateEjjjPiRS3_,"axG",%progbits,_ZN17ReallocateDefaultIi12CIwAllocatorIi15CIwMallocRouterIiEEE10ReallocateEjjjPiRS3_,comdat
	.align	2
	.weak	_ZN17ReallocateDefaultIi12CIwAllocatorIi15CIwMallocRouterIiEEE10ReallocateEjjjPiRS3_
	.hidden	_ZN17ReallocateDefaultIi12CIwAllocatorIi15CIwMallocRouterIiEEE10ReallocateEjjjPiRS3_
	.type	_ZN17ReallocateDefaultIi12CIwAllocatorIi15CIwMallocRouterIiEEE10ReallocateEjjjPiRS3_, %function
_ZN17ReallocateDefaultIi12CIwAllocatorIi15CIwMallocRouterIiEEE10ReallocateEjjjPiRS3_:
.LFB3737:
	.loc 16 52 0
	.cfi_startproc
	@ args = 4, pretend = 0, frame = 16
	@ frame_needed = 0, uses_anonymous_args = 0
	str	lr, [sp, #-4]!
.LCFI225:
	.cfi_def_cfa_offset 4
	sub	sp, sp, #20
.LCFI226:
	.cfi_def_cfa_offset 24
	str	r0, [sp, #12]
	str	r1, [sp, #8]
	str	r2, [sp, #4]
	str	r3, [sp, #0]
	.loc 16 54 0
	ldr	r3, [sp, #12]
	mov	r3, r3, asl #2
	ldr	r0, [sp, #24]
	ldr	r1, [sp, #0]
	mov	r2, r3
	.cfi_offset 14, -4
	bl	_ZN12CIwAllocatorIi15CIwMallocRouterIiEE10reallocateEPij
	mov	r3, r0
	.loc 16 55 0
	mov	r0, r3
	add	sp, sp, #20
	ldmfd	sp!, {pc}
	.cfi_endproc
.LFE3737:
	.size	_ZN17ReallocateDefaultIi12CIwAllocatorIi15CIwMallocRouterIiEEE10ReallocateEjjjPiRS3_, .-_ZN17ReallocateDefaultIi12CIwAllocatorIi15CIwMallocRouterIiEEE10ReallocateEjjjPiRS3_
	.section	.text._ZN17ReallocateDefaultI12TileObstacle12CIwAllocatorIS0_15CIwMallocRouterIS0_EEE10ReallocateEjjjPS0_RS4_,"axG",%progbits,_ZN17ReallocateDefaultI12TileObstacle12CIwAllocatorIS0_15CIwMallocRouterIS0_EEE10ReallocateEjjjPS0_RS4_,comdat
	.align	2
	.weak	_ZN17ReallocateDefaultI12TileObstacle12CIwAllocatorIS0_15CIwMallocRouterIS0_EEE10ReallocateEjjjPS0_RS4_
	.hidden	_ZN17ReallocateDefaultI12TileObstacle12CIwAllocatorIS0_15CIwMallocRouterIS0_EEE10ReallocateEjjjPS0_RS4_
	.type	_ZN17ReallocateDefaultI12TileObstacle12CIwAllocatorIS0_15CIwMallocRouterIS0_EEE10ReallocateEjjjPS0_RS4_, %function
_ZN17ReallocateDefaultI12TileObstacle12CIwAllocatorIS0_15CIwMallocRouterIS0_EEE10ReallocateEjjjPS0_RS4_:
.LFB3738:
	.loc 16 52 0
	.cfi_startproc
	@ args = 4, pretend = 0, frame = 16
	@ frame_needed = 0, uses_anonymous_args = 0
	str	lr, [sp, #-4]!
.LCFI227:
	.cfi_def_cfa_offset 4
	sub	sp, sp, #20
.LCFI228:
	.cfi_def_cfa_offset 24
	str	r0, [sp, #12]
	str	r1, [sp, #8]
	str	r2, [sp, #4]
	str	r3, [sp, #0]
	.loc 16 54 0
	ldr	r3, [sp, #12]
	mov	r2, #44
	mul	r3, r2, r3
	ldr	r0, [sp, #24]
	ldr	r1, [sp, #0]
	mov	r2, r3
	.cfi_offset 14, -4
	bl	_ZN12CIwAllocatorI12TileObstacle15CIwMallocRouterIS0_EE10reallocateEPS0_j
	mov	r3, r0
	.loc 16 55 0
	mov	r0, r3
	add	sp, sp, #20
	ldmfd	sp!, {pc}
	.cfi_endproc
.LFE3738:
	.size	_ZN17ReallocateDefaultI12TileObstacle12CIwAllocatorIS0_15CIwMallocRouterIS0_EEE10ReallocateEjjjPS0_RS4_, .-_ZN17ReallocateDefaultI12TileObstacle12CIwAllocatorIS0_15CIwMallocRouterIS0_EEE10ReallocateEjjjPS0_RS4_
	.section	.text._ZN17ReallocateDefaultI8TileUnit12CIwAllocatorIS0_15CIwMallocRouterIS0_EEE10ReallocateEjjjPS0_RS4_,"axG",%progbits,_ZN17ReallocateDefaultI8TileUnit12CIwAllocatorIS0_15CIwMallocRouterIS0_EEE10ReallocateEjjjPS0_RS4_,comdat
	.align	2
	.weak	_ZN17ReallocateDefaultI8TileUnit12CIwAllocatorIS0_15CIwMallocRouterIS0_EEE10ReallocateEjjjPS0_RS4_
	.hidden	_ZN17ReallocateDefaultI8TileUnit12CIwAllocatorIS0_15CIwMallocRouterIS0_EEE10ReallocateEjjjPS0_RS4_
	.type	_ZN17ReallocateDefaultI8TileUnit12CIwAllocatorIS0_15CIwMallocRouterIS0_EEE10ReallocateEjjjPS0_RS4_, %function
_ZN17ReallocateDefaultI8TileUnit12CIwAllocatorIS0_15CIwMallocRouterIS0_EEE10ReallocateEjjjPS0_RS4_:
.LFB3744:
	.loc 16 52 0
	.cfi_startproc
	@ args = 4, pretend = 0, frame = 16
	@ frame_needed = 0, uses_anonymous_args = 0
	str	lr, [sp, #-4]!
.LCFI229:
	.cfi_def_cfa_offset 4
	sub	sp, sp, #20
.LCFI230:
	.cfi_def_cfa_offset 24
	str	r0, [sp, #12]
	str	r1, [sp, #8]
	str	r2, [sp, #4]
	str	r3, [sp, #0]
	.loc 16 54 0
	ldr	r3, [sp, #12]
	mov	r3, r3, asl #3
	ldr	r0, [sp, #24]
	ldr	r1, [sp, #0]
	mov	r2, r3
	.cfi_offset 14, -4
	bl	_ZN12CIwAllocatorI8TileUnit15CIwMallocRouterIS0_EE10reallocateEPS0_j
	mov	r3, r0
	.loc 16 55 0
	mov	r0, r3
	add	sp, sp, #20
	ldmfd	sp!, {pc}
	.cfi_endproc
.LFE3744:
	.size	_ZN17ReallocateDefaultI8TileUnit12CIwAllocatorIS0_15CIwMallocRouterIS0_EEE10ReallocateEjjjPS0_RS4_, .-_ZN17ReallocateDefaultI8TileUnit12CIwAllocatorIS0_15CIwMallocRouterIS0_EEE10ReallocateEjjjPS0_RS4_
	.section	.text._ZN12CIwAllocatorIi15CIwMallocRouterIiEE10reallocateEPij,"axG",%progbits,_ZN12CIwAllocatorIi15CIwMallocRouterIiEE10reallocateEPij,comdat
	.align	2
	.weak	_ZN12CIwAllocatorIi15CIwMallocRouterIiEE10reallocateEPij
	.hidden	_ZN12CIwAllocatorIi15CIwMallocRouterIiEE10reallocateEPij
	.type	_ZN12CIwAllocatorIi15CIwMallocRouterIiEE10reallocateEPij, %function
_ZN12CIwAllocatorIi15CIwMallocRouterIiEE10reallocateEPij:
.LFB3749:
	.loc 20 142 0
	.cfi_startproc
	@ args = 0, pretend = 0, frame = 16
	@ frame_needed = 0, uses_anonymous_args = 0
	str	lr, [sp, #-4]!
.LCFI231:
	.cfi_def_cfa_offset 4
	sub	sp, sp, #20
.LCFI232:
	.cfi_def_cfa_offset 24
	str	r0, [sp, #12]
	str	r1, [sp, #8]
	str	r2, [sp, #4]
	.loc 20 144 0
	ldr	r0, [sp, #8]
	ldr	r1, [sp, #4]
	.cfi_offset 14, -4
	bl	_ZN15CIwMallocRouterIiE9DoReallocEPvj
	mov	r3, r0
	.loc 20 145 0
	mov	r0, r3
	add	sp, sp, #20
	ldmfd	sp!, {pc}
	.cfi_endproc
.LFE3749:
	.size	_ZN12CIwAllocatorIi15CIwMallocRouterIiEE10reallocateEPij, .-_ZN12CIwAllocatorIi15CIwMallocRouterIiEE10reallocateEPij
	.section	.text._ZN12CIwAllocatorI12TileObstacle15CIwMallocRouterIS0_EE10reallocateEPS0_j,"axG",%progbits,_ZN12CIwAllocatorI12TileObstacle15CIwMallocRouterIS0_EE10reallocateEPS0_j,comdat
	.align	2
	.weak	_ZN12CIwAllocatorI12TileObstacle15CIwMallocRouterIS0_EE10reallocateEPS0_j
	.hidden	_ZN12CIwAllocatorI12TileObstacle15CIwMallocRouterIS0_EE10reallocateEPS0_j
	.type	_ZN12CIwAllocatorI12TileObstacle15CIwMallocRouterIS0_EE10reallocateEPS0_j, %function
_ZN12CIwAllocatorI12TileObstacle15CIwMallocRouterIS0_EE10reallocateEPS0_j:
.LFB3750:
	.loc 20 142 0
	.cfi_startproc
	@ args = 0, pretend = 0, frame = 16
	@ frame_needed = 0, uses_anonymous_args = 0
	str	lr, [sp, #-4]!
.LCFI233:
	.cfi_def_cfa_offset 4
	sub	sp, sp, #20
.LCFI234:
	.cfi_def_cfa_offset 24
	str	r0, [sp, #12]
	str	r1, [sp, #8]
	str	r2, [sp, #4]
	.loc 20 144 0
	ldr	r0, [sp, #8]
	ldr	r1, [sp, #4]
	.cfi_offset 14, -4
	bl	_ZN15CIwMallocRouterI12TileObstacleE9DoReallocEPvj
	mov	r3, r0
	.loc 20 145 0
	mov	r0, r3
	add	sp, sp, #20
	ldmfd	sp!, {pc}
	.cfi_endproc
.LFE3750:
	.size	_ZN12CIwAllocatorI12TileObstacle15CIwMallocRouterIS0_EE10reallocateEPS0_j, .-_ZN12CIwAllocatorI12TileObstacle15CIwMallocRouterIS0_EE10reallocateEPS0_j
	.section	.text._ZN12CIwAllocatorI8TileUnit15CIwMallocRouterIS0_EE10reallocateEPS0_j,"axG",%progbits,_ZN12CIwAllocatorI8TileUnit15CIwMallocRouterIS0_EE10reallocateEPS0_j,comdat
	.align	2
	.weak	_ZN12CIwAllocatorI8TileUnit15CIwMallocRouterIS0_EE10reallocateEPS0_j
	.hidden	_ZN12CIwAllocatorI8TileUnit15CIwMallocRouterIS0_EE10reallocateEPS0_j
	.type	_ZN12CIwAllocatorI8TileUnit15CIwMallocRouterIS0_EE10reallocateEPS0_j, %function
_ZN12CIwAllocatorI8TileUnit15CIwMallocRouterIS0_EE10reallocateEPS0_j:
.LFB3756:
	.loc 20 142 0
	.cfi_startproc
	@ args = 0, pretend = 0, frame = 16
	@ frame_needed = 0, uses_anonymous_args = 0
	str	lr, [sp, #-4]!
.LCFI235:
	.cfi_def_cfa_offset 4
	sub	sp, sp, #20
.LCFI236:
	.cfi_def_cfa_offset 24
	str	r0, [sp, #12]
	str	r1, [sp, #8]
	str	r2, [sp, #4]
	.loc 20 144 0
	ldr	r0, [sp, #8]
	ldr	r1, [sp, #4]
	.cfi_offset 14, -4
	bl	_ZN15CIwMallocRouterI8TileUnitE9DoReallocEPvj
	mov	r3, r0
	.loc 20 145 0
	mov	r0, r3
	add	sp, sp, #20
	ldmfd	sp!, {pc}
	.cfi_endproc
.LFE3756:
	.size	_ZN12CIwAllocatorI8TileUnit15CIwMallocRouterIS0_EE10reallocateEPS0_j, .-_ZN12CIwAllocatorI8TileUnit15CIwMallocRouterIS0_EE10reallocateEPS0_j
	.section	.text._ZN15CIwMallocRouterIiE9DoReallocEPvj,"axG",%progbits,_ZN15CIwMallocRouterIiE9DoReallocEPvj,comdat
	.align	2
	.weak	_ZN15CIwMallocRouterIiE9DoReallocEPvj
	.hidden	_ZN15CIwMallocRouterIiE9DoReallocEPvj
	.type	_ZN15CIwMallocRouterIiE9DoReallocEPvj, %function
_ZN15CIwMallocRouterIiE9DoReallocEPvj:
.LFB3761:
	.loc 20 97 0
	.cfi_startproc
	@ args = 0, pretend = 0, frame = 8
	@ frame_needed = 0, uses_anonymous_args = 0
	str	lr, [sp, #-4]!
.LCFI237:
	.cfi_def_cfa_offset 4
	sub	sp, sp, #12
.LCFI238:
	.cfi_def_cfa_offset 16
	str	r0, [sp, #4]
	str	r1, [sp, #0]
	.loc 20 99 0
	ldr	r0, [sp, #4]
	ldr	r1, [sp, #0]
	mov	r2, #4
	.cfi_offset 14, -4
	bl	_ZN22CIwDefaultMallocRouter11BaseReallocEPvjj
	mov	r3, r0
	.loc 20 100 0
	mov	r0, r3
	add	sp, sp, #12
	ldmfd	sp!, {pc}
	.cfi_endproc
.LFE3761:
	.size	_ZN15CIwMallocRouterIiE9DoReallocEPvj, .-_ZN15CIwMallocRouterIiE9DoReallocEPvj
	.section	.text._ZN15CIwMallocRouterI12TileObstacleE9DoReallocEPvj,"axG",%progbits,_ZN15CIwMallocRouterI12TileObstacleE9DoReallocEPvj,comdat
	.align	2
	.weak	_ZN15CIwMallocRouterI12TileObstacleE9DoReallocEPvj
	.hidden	_ZN15CIwMallocRouterI12TileObstacleE9DoReallocEPvj
	.type	_ZN15CIwMallocRouterI12TileObstacleE9DoReallocEPvj, %function
_ZN15CIwMallocRouterI12TileObstacleE9DoReallocEPvj:
.LFB3762:
	.loc 20 97 0
	.cfi_startproc
	@ args = 0, pretend = 0, frame = 8
	@ frame_needed = 0, uses_anonymous_args = 0
	str	lr, [sp, #-4]!
.LCFI239:
	.cfi_def_cfa_offset 4
	sub	sp, sp, #12
.LCFI240:
	.cfi_def_cfa_offset 16
	str	r0, [sp, #4]
	str	r1, [sp, #0]
	.loc 20 99 0
	ldr	r0, [sp, #4]
	ldr	r1, [sp, #0]
	mov	r2, #44
	.cfi_offset 14, -4
	bl	_ZN22CIwDefaultMallocRouter11BaseReallocEPvjj
	mov	r3, r0
	.loc 20 100 0
	mov	r0, r3
	add	sp, sp, #12
	ldmfd	sp!, {pc}
	.cfi_endproc
.LFE3762:
	.size	_ZN15CIwMallocRouterI12TileObstacleE9DoReallocEPvj, .-_ZN15CIwMallocRouterI12TileObstacleE9DoReallocEPvj
	.section	.text._ZN15CIwMallocRouterI8TileUnitE9DoReallocEPvj,"axG",%progbits,_ZN15CIwMallocRouterI8TileUnitE9DoReallocEPvj,comdat
	.align	2
	.weak	_ZN15CIwMallocRouterI8TileUnitE9DoReallocEPvj
	.hidden	_ZN15CIwMallocRouterI8TileUnitE9DoReallocEPvj
	.type	_ZN15CIwMallocRouterI8TileUnitE9DoReallocEPvj, %function
_ZN15CIwMallocRouterI8TileUnitE9DoReallocEPvj:
.LFB3769:
	.loc 20 97 0
	.cfi_startproc
	@ args = 0, pretend = 0, frame = 8
	@ frame_needed = 0, uses_anonymous_args = 0
	str	lr, [sp, #-4]!
.LCFI241:
	.cfi_def_cfa_offset 4
	sub	sp, sp, #12
.LCFI242:
	.cfi_def_cfa_offset 16
	str	r0, [sp, #4]
	str	r1, [sp, #0]
	.loc 20 99 0
	ldr	r0, [sp, #4]
	ldr	r1, [sp, #0]
	mov	r2, #8
	.cfi_offset 14, -4
	bl	_ZN22CIwDefaultMallocRouter11BaseReallocEPvjj
	mov	r3, r0
	.loc 20 100 0
	mov	r0, r3
	add	sp, sp, #12
	ldmfd	sp!, {pc}
	.cfi_endproc
.LFE3769:
	.size	_ZN15CIwMallocRouterI8TileUnitE9DoReallocEPvj, .-_ZN15CIwMallocRouterI8TileUnitE9DoReallocEPvj
	.section	.text._Z41__static_initialization_and_destruction_0ii,"ax",%progbits
	.align	2
	.type	_Z41__static_initialization_and_destruction_0ii, %function
_Z41__static_initialization_and_destruction_0ii:
.LFB3775:
	.loc 15 307 0
	.cfi_startproc
	@ args = 0, pretend = 0, frame = 8
	@ frame_needed = 0, uses_anonymous_args = 0
	str	lr, [sp, #-4]!
.LCFI243:
	.cfi_def_cfa_offset 4
	sub	sp, sp, #12
.LCFI244:
	.cfi_def_cfa_offset 16
	str	r0, [sp, #4]
	str	r1, [sp, #0]
	.loc 15 307 0
	ldr	r3, [sp, #4]
	cmp	r3, #1
	bne	.L694
	.cfi_offset 14, -4
	ldr	r2, [sp, #0]
	ldr	r3, .L695
	cmp	r2, r3
	bne	.L694
	.file 29 "c:/marmalade/6.2/s3e/h/std/c++/iostream"
	.loc 29 69 0
	ldr	r0, .L695+4
	bl	_ZN4_STL8ios_base9_Loc_initC1Ev
	ldr	r3, .L695+8
	ldr	r0, .L695+4
	mov	r1, r3
	ldr	r2, .L695+12
	bl	__aeabi_atexit
	.loc 29 75 0
	ldr	r0, .L695+16
	bl	_ZN4_STL8ios_base4InitC1Ev
	ldr	r3, .L695+20
	ldr	r0, .L695+16
	mov	r1, r3
	ldr	r2, .L695+12
	bl	__aeabi_atexit
.L694:
	.loc 15 307 0
	add	sp, sp, #12
	ldmfd	sp!, {pc}
.L696:
	.align	2
.L695:
	.word	65535
	.word	_ZN4_STLL8_LocInitE
	.word	_ZN4_STL8ios_base9_Loc_initD1Ev
	.word	__dso_handle
	.word	_ZN4_STLL8_IosInitE
	.word	_ZN4_STL8ios_base4InitD1Ev
	.cfi_endproc
.LFE3775:
	.size	_Z41__static_initialization_and_destruction_0ii, .-_Z41__static_initialization_and_destruction_0ii
	.hidden	_ZN4_STL7num_putIcNS_19ostreambuf_iteratorIcNS_11char_traitsIcEEEEE2idE
	.weak	_ZN4_STL7num_putIcNS_19ostreambuf_iteratorIcNS_11char_traitsIcEEEEE2idE
	.section	.bss._ZN4_STL7num_putIcNS_19ostreambuf_iteratorIcNS_11char_traitsIcEEEEE2idE,"awG",%nobits,_ZN4_STL7num_putIcNS_19ostreambuf_iteratorIcNS_11char_traitsIcEEEEE2idE,comdat
	.align	2
	.type	_ZN4_STL7num_putIcNS_19ostreambuf_iteratorIcNS_11char_traitsIcEEEEE2idE, %object
	.size	_ZN4_STL7num_putIcNS_19ostreambuf_iteratorIcNS_11char_traitsIcEEEEE2idE, 4
_ZN4_STL7num_putIcNS_19ostreambuf_iteratorIcNS_11char_traitsIcEEEEE2idE:
	.space	4
	.section	.text._GLOBAL__I__ZN3MapD2Ev,"ax",%progbits
	.align	2
	.type	_GLOBAL__I__ZN3MapD2Ev, %function
_GLOBAL__I__ZN3MapD2Ev:
.LFB3856:
	.loc 15 307 0
	.cfi_startproc
	@ args = 0, pretend = 0, frame = 0
	@ frame_needed = 0, uses_anonymous_args = 0
	stmfd	sp!, {r3, lr}
.LCFI245:
	.cfi_def_cfa_offset 8
	.loc 15 307 0
	mov	r0, #1
	ldr	r1, .L699
	.cfi_offset 14, -4
	.cfi_offset 3, -8
	bl	_Z41__static_initialization_and_destruction_0ii
	ldmfd	sp!, {r3, pc}
.L700:
	.align	2
.L699:
	.word	65535
	.cfi_endproc
.LFE3856:
	.size	_GLOBAL__I__ZN3MapD2Ev, .-_GLOBAL__I__ZN3MapD2Ev
	.section	.init_array,"aw",%init_array
	.align	2
	.word	_GLOBAL__I__ZN3MapD2Ev(target1)
	.hidden	_ZZNK8CIwArrayIi12CIwAllocatorIi15CIwMallocRouterIiEE17ReallocateDefaultIiS3_EEixEiE21_s_IwAssertIgnoreThis
	.weak	_ZZNK8CIwArrayIi12CIwAllocatorIi15CIwMallocRouterIiEE17ReallocateDefaultIiS3_EEixEiE21_s_IwAssertIgnoreThis
	.section	.bss._ZZNK8CIwArrayIi12CIwAllocatorIi15CIwMallocRouterIiEE17ReallocateDefaultIiS3_EEixEiE21_s_IwAssertIgnoreThis,"awG",%nobits,_ZZNK8CIwArrayIi12CIwAllocatorIi15CIwMallocRouterIiEE17ReallocateDefaultIiS3_EEixEiE21_s_IwAssertIgnoreThis,comdat
	.type	_ZZNK8CIwArrayIi12CIwAllocatorIi15CIwMallocRouterIiEE17ReallocateDefaultIiS3_EEixEiE21_s_IwAssertIgnoreThis, %object
	.size	_ZZNK8CIwArrayIi12CIwAllocatorIi15CIwMallocRouterIiEE17ReallocateDefaultIiS3_EEixEiE21_s_IwAssertIgnoreThis, 1
_ZZNK8CIwArrayIi12CIwAllocatorIi15CIwMallocRouterIiEE17ReallocateDefaultIiS3_EEixEiE21_s_IwAssertIgnoreThis:
	.space	1
	.hidden	_ZZNK8CIwArrayI12TileObstacle12CIwAllocatorIS0_15CIwMallocRouterIS0_EE17ReallocateDefaultIS0_S4_EEixEiE21_s_IwAssertIgnoreThis
	.weak	_ZZNK8CIwArrayI12TileObstacle12CIwAllocatorIS0_15CIwMallocRouterIS0_EE17ReallocateDefaultIS0_S4_EEixEiE21_s_IwAssertIgnoreThis
	.section	.bss._ZZNK8CIwArrayI12TileObstacle12CIwAllocatorIS0_15CIwMallocRouterIS0_EE17ReallocateDefaultIS0_S4_EEixEiE21_s_IwAssertIgnoreThis,"awG",%nobits,_ZZNK8CIwArrayI12TileObstacle12CIwAllocatorIS0_15CIwMallocRouterIS0_EE17ReallocateDefaultIS0_S4_EEixEiE21_s_IwAssertIgnoreThis,comdat
	.type	_ZZNK8CIwArrayI12TileObstacle12CIwAllocatorIS0_15CIwMallocRouterIS0_EE17ReallocateDefaultIS0_S4_EEixEiE21_s_IwAssertIgnoreThis, %object
	.size	_ZZNK8CIwArrayI12TileObstacle12CIwAllocatorIS0_15CIwMallocRouterIS0_EE17ReallocateDefaultIS0_S4_EEixEiE21_s_IwAssertIgnoreThis, 1
_ZZNK8CIwArrayI12TileObstacle12CIwAllocatorIS0_15CIwMallocRouterIS0_EE17ReallocateDefaultIS0_S4_EEixEiE21_s_IwAssertIgnoreThis:
	.space	1
	.hidden	_ZZN8CIwArrayIi12CIwAllocatorIi15CIwMallocRouterIiEE17ReallocateDefaultIiS3_EE8truncateEjE21_s_IwAssertIgnoreThis
	.weak	_ZZN8CIwArrayIi12CIwAllocatorIi15CIwMallocRouterIiEE17ReallocateDefaultIiS3_EE8truncateEjE21_s_IwAssertIgnoreThis
	.section	.bss._ZZN8CIwArrayIi12CIwAllocatorIi15CIwMallocRouterIiEE17ReallocateDefaultIiS3_EE8truncateEjE21_s_IwAssertIgnoreThis,"awG",%nobits,_ZZN8CIwArrayIi12CIwAllocatorIi15CIwMallocRouterIiEE17ReallocateDefaultIiS3_EE8truncateEjE21_s_IwAssertIgnoreThis,comdat
	.type	_ZZN8CIwArrayIi12CIwAllocatorIi15CIwMallocRouterIiEE17ReallocateDefaultIiS3_EE8truncateEjE21_s_IwAssertIgnoreThis, %object
	.size	_ZZN8CIwArrayIi12CIwAllocatorIi15CIwMallocRouterIiEE17ReallocateDefaultIiS3_EE8truncateEjE21_s_IwAssertIgnoreThis, 1
_ZZN8CIwArrayIi12CIwAllocatorIi15CIwMallocRouterIiEE17ReallocateDefaultIiS3_EE8truncateEjE21_s_IwAssertIgnoreThis:
	.space	1
	.hidden	_ZZN8CIwArrayIi12CIwAllocatorIi15CIwMallocRouterIiEE17ReallocateDefaultIiS3_EE13push_back_qtyEiE21_s_IwAssertIgnoreThis
	.weak	_ZZN8CIwArrayIi12CIwAllocatorIi15CIwMallocRouterIiEE17ReallocateDefaultIiS3_EE13push_back_qtyEiE21_s_IwAssertIgnoreThis
	.section	.bss._ZZN8CIwArrayIi12CIwAllocatorIi15CIwMallocRouterIiEE17ReallocateDefaultIiS3_EE13push_back_qtyEiE21_s_IwAssertIgnoreThis,"awG",%nobits,_ZZN8CIwArrayIi12CIwAllocatorIi15CIwMallocRouterIiEE17ReallocateDefaultIiS3_EE13push_back_qtyEiE21_s_IwAssertIgnoreThis,comdat
	.type	_ZZN8CIwArrayIi12CIwAllocatorIi15CIwMallocRouterIiEE17ReallocateDefaultIiS3_EE13push_back_qtyEiE21_s_IwAssertIgnoreThis, %object
	.size	_ZZN8CIwArrayIi12CIwAllocatorIi15CIwMallocRouterIiEE17ReallocateDefaultIiS3_EE13push_back_qtyEiE21_s_IwAssertIgnoreThis, 1
_ZZN8CIwArrayIi12CIwAllocatorIi15CIwMallocRouterIiEE17ReallocateDefaultIiS3_EE13push_back_qtyEiE21_s_IwAssertIgnoreThis:
	.space	1
	.hidden	_ZZN8CIwArrayIi12CIwAllocatorIi15CIwMallocRouterIiEE17ReallocateDefaultIiS3_EE12set_capacityEjE21_s_IwAssertIgnoreThis
	.weak	_ZZN8CIwArrayIi12CIwAllocatorIi15CIwMallocRouterIiEE17ReallocateDefaultIiS3_EE12set_capacityEjE21_s_IwAssertIgnoreThis
	.section	.bss._ZZN8CIwArrayIi12CIwAllocatorIi15CIwMallocRouterIiEE17ReallocateDefaultIiS3_EE12set_capacityEjE21_s_IwAssertIgnoreThis,"awG",%nobits,_ZZN8CIwArrayIi12CIwAllocatorIi15CIwMallocRouterIiEE17ReallocateDefaultIiS3_EE12set_capacityEjE21_s_IwAssertIgnoreThis,comdat
	.type	_ZZN8CIwArrayIi12CIwAllocatorIi15CIwMallocRouterIiEE17ReallocateDefaultIiS3_EE12set_capacityEjE21_s_IwAssertIgnoreThis, %object
	.size	_ZZN8CIwArrayIi12CIwAllocatorIi15CIwMallocRouterIiEE17ReallocateDefaultIiS3_EE12set_capacityEjE21_s_IwAssertIgnoreThis, 1
_ZZN8CIwArrayIi12CIwAllocatorIi15CIwMallocRouterIiEE17ReallocateDefaultIiS3_EE12set_capacityEjE21_s_IwAssertIgnoreThis:
	.space	1
	.hidden	_ZZN8CIwArrayIi12CIwAllocatorIi15CIwMallocRouterIiEE17ReallocateDefaultIiS3_EE12set_capacityEjE21_s_IwAssertIgnoreThis_0
	.weak	_ZZN8CIwArrayIi12CIwAllocatorIi15CIwMallocRouterIiEE17ReallocateDefaultIiS3_EE12set_capacityEjE21_s_IwAssertIgnoreThis_0
	.section	.bss._ZZN8CIwArrayIi12CIwAllocatorIi15CIwMallocRouterIiEE17ReallocateDefaultIiS3_EE12set_capacityEjE21_s_IwAssertIgnoreThis_0,"awG",%nobits,_ZZN8CIwArrayIi12CIwAllocatorIi15CIwMallocRouterIiEE17ReallocateDefaultIiS3_EE12set_capacityEjE21_s_IwAssertIgnoreThis_0,comdat
	.type	_ZZN8CIwArrayIi12CIwAllocatorIi15CIwMallocRouterIiEE17ReallocateDefaultIiS3_EE12set_capacityEjE21_s_IwAssertIgnoreThis_0, %object
	.size	_ZZN8CIwArrayIi12CIwAllocatorIi15CIwMallocRouterIiEE17ReallocateDefaultIiS3_EE12set_capacityEjE21_s_IwAssertIgnoreThis_0, 1
_ZZN8CIwArrayIi12CIwAllocatorIi15CIwMallocRouterIiEE17ReallocateDefaultIiS3_EE12set_capacityEjE21_s_IwAssertIgnoreThis_0:
	.space	1
	.hidden	_ZZN8CIwArrayIi12CIwAllocatorIi15CIwMallocRouterIiEE17ReallocateDefaultIiS3_EE12set_capacityEjE21_s_IwAssertIgnoreThis_1
	.weak	_ZZN8CIwArrayIi12CIwAllocatorIi15CIwMallocRouterIiEE17ReallocateDefaultIiS3_EE12set_capacityEjE21_s_IwAssertIgnoreThis_1
	.section	.bss._ZZN8CIwArrayIi12CIwAllocatorIi15CIwMallocRouterIiEE17ReallocateDefaultIiS3_EE12set_capacityEjE21_s_IwAssertIgnoreThis_1,"awG",%nobits,_ZZN8CIwArrayIi12CIwAllocatorIi15CIwMallocRouterIiEE17ReallocateDefaultIiS3_EE12set_capacityEjE21_s_IwAssertIgnoreThis_1,comdat
	.type	_ZZN8CIwArrayIi12CIwAllocatorIi15CIwMallocRouterIiEE17ReallocateDefaultIiS3_EE12set_capacityEjE21_s_IwAssertIgnoreThis_1, %object
	.size	_ZZN8CIwArrayIi12CIwAllocatorIi15CIwMallocRouterIiEE17ReallocateDefaultIiS3_EE12set_capacityEjE21_s_IwAssertIgnoreThis_1, 1
_ZZN8CIwArrayIi12CIwAllocatorIi15CIwMallocRouterIiEE17ReallocateDefaultIiS3_EE12set_capacityEjE21_s_IwAssertIgnoreThis_1:
	.space	1
	.hidden	_ZZN8CIwArrayI8TileUnit12CIwAllocatorIS0_15CIwMallocRouterIS0_EE17ReallocateDefaultIS0_S4_EE8truncateEjE21_s_IwAssertIgnoreThis
	.weak	_ZZN8CIwArrayI8TileUnit12CIwAllocatorIS0_15CIwMallocRouterIS0_EE17ReallocateDefaultIS0_S4_EE8truncateEjE21_s_IwAssertIgnoreThis
	.section	.bss._ZZN8CIwArrayI8TileUnit12CIwAllocatorIS0_15CIwMallocRouterIS0_EE17ReallocateDefaultIS0_S4_EE8truncateEjE21_s_IwAssertIgnoreThis,"awG",%nobits,_ZZN8CIwArrayI8TileUnit12CIwAllocatorIS0_15CIwMallocRouterIS0_EE17ReallocateDefaultIS0_S4_EE8truncateEjE21_s_IwAssertIgnoreThis,comdat
	.type	_ZZN8CIwArrayI8TileUnit12CIwAllocatorIS0_15CIwMallocRouterIS0_EE17ReallocateDefaultIS0_S4_EE8truncateEjE21_s_IwAssertIgnoreThis, %object
	.size	_ZZN8CIwArrayI8TileUnit12CIwAllocatorIS0_15CIwMallocRouterIS0_EE17ReallocateDefaultIS0_S4_EE8truncateEjE21_s_IwAssertIgnoreThis, 1
_ZZN8CIwArrayI8TileUnit12CIwAllocatorIS0_15CIwMallocRouterIS0_EE17ReallocateDefaultIS0_S4_EE8truncateEjE21_s_IwAssertIgnoreThis:
	.space	1
	.hidden	_ZZN8CIwArrayI8TileUnit12CIwAllocatorIS0_15CIwMallocRouterIS0_EE17ReallocateDefaultIS0_S4_EE13push_back_qtyEiE21_s_IwAssertIgnoreThis
	.weak	_ZZN8CIwArrayI8TileUnit12CIwAllocatorIS0_15CIwMallocRouterIS0_EE17ReallocateDefaultIS0_S4_EE13push_back_qtyEiE21_s_IwAssertIgnoreThis
	.section	.bss._ZZN8CIwArrayI8TileUnit12CIwAllocatorIS0_15CIwMallocRouterIS0_EE17ReallocateDefaultIS0_S4_EE13push_back_qtyEiE21_s_IwAssertIgnoreThis,"awG",%nobits,_ZZN8CIwArrayI8TileUnit12CIwAllocatorIS0_15CIwMallocRouterIS0_EE17ReallocateDefaultIS0_S4_EE13push_back_qtyEiE21_s_IwAssertIgnoreThis,comdat
	.type	_ZZN8CIwArrayI8TileUnit12CIwAllocatorIS0_15CIwMallocRouterIS0_EE17ReallocateDefaultIS0_S4_EE13push_back_qtyEiE21_s_IwAssertIgnoreThis, %object
	.size	_ZZN8CIwArrayI8TileUnit12CIwAllocatorIS0_15CIwMallocRouterIS0_EE17ReallocateDefaultIS0_S4_EE13push_back_qtyEiE21_s_IwAssertIgnoreThis, 1
_ZZN8CIwArrayI8TileUnit12CIwAllocatorIS0_15CIwMallocRouterIS0_EE17ReallocateDefaultIS0_S4_EE13push_back_qtyEiE21_s_IwAssertIgnoreThis:
	.space	1
	.hidden	_ZZN8CIwArrayI8TileUnit12CIwAllocatorIS0_15CIwMallocRouterIS0_EE17ReallocateDefaultIS0_S4_EE12set_capacityEjE21_s_IwAssertIgnoreThis
	.weak	_ZZN8CIwArrayI8TileUnit12CIwAllocatorIS0_15CIwMallocRouterIS0_EE17ReallocateDefaultIS0_S4_EE12set_capacityEjE21_s_IwAssertIgnoreThis
	.section	.bss._ZZN8CIwArrayI8TileUnit12CIwAllocatorIS0_15CIwMallocRouterIS0_EE17ReallocateDefaultIS0_S4_EE12set_capacityEjE21_s_IwAssertIgnoreThis,"awG",%nobits,_ZZN8CIwArrayI8TileUnit12CIwAllocatorIS0_15CIwMallocRouterIS0_EE17ReallocateDefaultIS0_S4_EE12set_capacityEjE21_s_IwAssertIgnoreThis,comdat
	.type	_ZZN8CIwArrayI8TileUnit12CIwAllocatorIS0_15CIwMallocRouterIS0_EE17ReallocateDefaultIS0_S4_EE12set_capacityEjE21_s_IwAssertIgnoreThis, %object
	.size	_ZZN8CIwArrayI8TileUnit12CIwAllocatorIS0_15CIwMallocRouterIS0_EE17ReallocateDefaultIS0_S4_EE12set_capacityEjE21_s_IwAssertIgnoreThis, 1
_ZZN8CIwArrayI8TileUnit12CIwAllocatorIS0_15CIwMallocRouterIS0_EE17ReallocateDefaultIS0_S4_EE12set_capacityEjE21_s_IwAssertIgnoreThis:
	.space	1
	.hidden	_ZZN8CIwArrayI8TileUnit12CIwAllocatorIS0_15CIwMallocRouterIS0_EE17ReallocateDefaultIS0_S4_EE12set_capacityEjE21_s_IwAssertIgnoreThis_0
	.weak	_ZZN8CIwArrayI8TileUnit12CIwAllocatorIS0_15CIwMallocRouterIS0_EE17ReallocateDefaultIS0_S4_EE12set_capacityEjE21_s_IwAssertIgnoreThis_0
	.section	.bss._ZZN8CIwArrayI8TileUnit12CIwAllocatorIS0_15CIwMallocRouterIS0_EE17ReallocateDefaultIS0_S4_EE12set_capacityEjE21_s_IwAssertIgnoreThis_0,"awG",%nobits,_ZZN8CIwArrayI8TileUnit12CIwAllocatorIS0_15CIwMallocRouterIS0_EE17ReallocateDefaultIS0_S4_EE12set_capacityEjE21_s_IwAssertIgnoreThis_0,comdat
	.type	_ZZN8CIwArrayI8TileUnit12CIwAllocatorIS0_15CIwMallocRouterIS0_EE17ReallocateDefaultIS0_S4_EE12set_capacityEjE21_s_IwAssertIgnoreThis_0, %object
	.size	_ZZN8CIwArrayI8TileUnit12CIwAllocatorIS0_15CIwMallocRouterIS0_EE17ReallocateDefaultIS0_S4_EE12set_capacityEjE21_s_IwAssertIgnoreThis_0, 1
_ZZN8CIwArrayI8TileUnit12CIwAllocatorIS0_15CIwMallocRouterIS0_EE17ReallocateDefaultIS0_S4_EE12set_capacityEjE21_s_IwAssertIgnoreThis_0:
	.space	1
	.hidden	_ZZN8CIwArrayI8TileUnit12CIwAllocatorIS0_15CIwMallocRouterIS0_EE17ReallocateDefaultIS0_S4_EE12set_capacityEjE21_s_IwAssertIgnoreThis_1
	.weak	_ZZN8CIwArrayI8TileUnit12CIwAllocatorIS0_15CIwMallocRouterIS0_EE17ReallocateDefaultIS0_S4_EE12set_capacityEjE21_s_IwAssertIgnoreThis_1
	.section	.bss._ZZN8CIwArrayI8TileUnit12CIwAllocatorIS0_15CIwMallocRouterIS0_EE17ReallocateDefaultIS0_S4_EE12set_capacityEjE21_s_IwAssertIgnoreThis_1,"awG",%nobits,_ZZN8CIwArrayI8TileUnit12CIwAllocatorIS0_15CIwMallocRouterIS0_EE17ReallocateDefaultIS0_S4_EE12set_capacityEjE21_s_IwAssertIgnoreThis_1,comdat
	.type	_ZZN8CIwArrayI8TileUnit12CIwAllocatorIS0_15CIwMallocRouterIS0_EE17ReallocateDefaultIS0_S4_EE12set_capacityEjE21_s_IwAssertIgnoreThis_1, %object
	.size	_ZZN8CIwArrayI8TileUnit12CIwAllocatorIS0_15CIwMallocRouterIS0_EE17ReallocateDefaultIS0_S4_EE12set_capacityEjE21_s_IwAssertIgnoreThis_1, 1
_ZZN8CIwArrayI8TileUnit12CIwAllocatorIS0_15CIwMallocRouterIS0_EE17ReallocateDefaultIS0_S4_EE12set_capacityEjE21_s_IwAssertIgnoreThis_1:
	.space	1
	.hidden	_ZZN8CIwArrayI12TileObstacle12CIwAllocatorIS0_15CIwMallocRouterIS0_EE17ReallocateDefaultIS0_S4_EE9push_backERKS0_E21_s_IwAssertIgnoreThis
	.weak	_ZZN8CIwArrayI12TileObstacle12CIwAllocatorIS0_15CIwMallocRouterIS0_EE17ReallocateDefaultIS0_S4_EE9push_backERKS0_E21_s_IwAssertIgnoreThis
	.section	.bss._ZZN8CIwArrayI12TileObstacle12CIwAllocatorIS0_15CIwMallocRouterIS0_EE17ReallocateDefaultIS0_S4_EE9push_backERKS0_E21_s_IwAssertIgnoreThis,"awG",%nobits,_ZZN8CIwArrayI12TileObstacle12CIwAllocatorIS0_15CIwMallocRouterIS0_EE17ReallocateDefaultIS0_S4_EE9push_backERKS0_E21_s_IwAssertIgnoreThis,comdat
	.type	_ZZN8CIwArrayI12TileObstacle12CIwAllocatorIS0_15CIwMallocRouterIS0_EE17ReallocateDefaultIS0_S4_EE9push_backERKS0_E21_s_IwAssertIgnoreThis, %object
	.size	_ZZN8CIwArrayI12TileObstacle12CIwAllocatorIS0_15CIwMallocRouterIS0_EE17ReallocateDefaultIS0_S4_EE9push_backERKS0_E21_s_IwAssertIgnoreThis, 1
_ZZN8CIwArrayI12TileObstacle12CIwAllocatorIS0_15CIwMallocRouterIS0_EE17ReallocateDefaultIS0_S4_EE9push_backERKS0_E21_s_IwAssertIgnoreThis:
	.space	1
	.hidden	_ZZN8CIwArrayI12TileObstacle12CIwAllocatorIS0_15CIwMallocRouterIS0_EE17ReallocateDefaultIS0_S4_EE9push_backERKS0_E21_s_IwAssertIgnoreThis_0
	.weak	_ZZN8CIwArrayI12TileObstacle12CIwAllocatorIS0_15CIwMallocRouterIS0_EE17ReallocateDefaultIS0_S4_EE9push_backERKS0_E21_s_IwAssertIgnoreThis_0
	.section	.bss._ZZN8CIwArrayI12TileObstacle12CIwAllocatorIS0_15CIwMallocRouterIS0_EE17ReallocateDefaultIS0_S4_EE9push_backERKS0_E21_s_IwAssertIgnoreThis_0,"awG",%nobits,_ZZN8CIwArrayI12TileObstacle12CIwAllocatorIS0_15CIwMallocRouterIS0_EE17ReallocateDefaultIS0_S4_EE9push_backERKS0_E21_s_IwAssertIgnoreThis_0,comdat
	.type	_ZZN8CIwArrayI12TileObstacle12CIwAllocatorIS0_15CIwMallocRouterIS0_EE17ReallocateDefaultIS0_S4_EE9push_backERKS0_E21_s_IwAssertIgnoreThis_0, %object
	.size	_ZZN8CIwArrayI12TileObstacle12CIwAllocatorIS0_15CIwMallocRouterIS0_EE17ReallocateDefaultIS0_S4_EE9push_backERKS0_E21_s_IwAssertIgnoreThis_0, 1
_ZZN8CIwArrayI12TileObstacle12CIwAllocatorIS0_15CIwMallocRouterIS0_EE17ReallocateDefaultIS0_S4_EE9push_backERKS0_E21_s_IwAssertIgnoreThis_0:
	.space	1
	.hidden	_ZZN8CIwArrayI12TileObstacle12CIwAllocatorIS0_15CIwMallocRouterIS0_EE17ReallocateDefaultIS0_S4_EE12set_capacityEjE21_s_IwAssertIgnoreThis
	.weak	_ZZN8CIwArrayI12TileObstacle12CIwAllocatorIS0_15CIwMallocRouterIS0_EE17ReallocateDefaultIS0_S4_EE12set_capacityEjE21_s_IwAssertIgnoreThis
	.section	.bss._ZZN8CIwArrayI12TileObstacle12CIwAllocatorIS0_15CIwMallocRouterIS0_EE17ReallocateDefaultIS0_S4_EE12set_capacityEjE21_s_IwAssertIgnoreThis,"awG",%nobits,_ZZN8CIwArrayI12TileObstacle12CIwAllocatorIS0_15CIwMallocRouterIS0_EE17ReallocateDefaultIS0_S4_EE12set_capacityEjE21_s_IwAssertIgnoreThis,comdat
	.type	_ZZN8CIwArrayI12TileObstacle12CIwAllocatorIS0_15CIwMallocRouterIS0_EE17ReallocateDefaultIS0_S4_EE12set_capacityEjE21_s_IwAssertIgnoreThis, %object
	.size	_ZZN8CIwArrayI12TileObstacle12CIwAllocatorIS0_15CIwMallocRouterIS0_EE17ReallocateDefaultIS0_S4_EE12set_capacityEjE21_s_IwAssertIgnoreThis, 1
_ZZN8CIwArrayI12TileObstacle12CIwAllocatorIS0_15CIwMallocRouterIS0_EE17ReallocateDefaultIS0_S4_EE12set_capacityEjE21_s_IwAssertIgnoreThis:
	.space	1
	.hidden	_ZZN8CIwArrayI12TileObstacle12CIwAllocatorIS0_15CIwMallocRouterIS0_EE17ReallocateDefaultIS0_S4_EE12set_capacityEjE21_s_IwAssertIgnoreThis_0
	.weak	_ZZN8CIwArrayI12TileObstacle12CIwAllocatorIS0_15CIwMallocRouterIS0_EE17ReallocateDefaultIS0_S4_EE12set_capacityEjE21_s_IwAssertIgnoreThis_0
	.section	.bss._ZZN8CIwArrayI12TileObstacle12CIwAllocatorIS0_15CIwMallocRouterIS0_EE17ReallocateDefaultIS0_S4_EE12set_capacityEjE21_s_IwAssertIgnoreThis_0,"awG",%nobits,_ZZN8CIwArrayI12TileObstacle12CIwAllocatorIS0_15CIwMallocRouterIS0_EE17ReallocateDefaultIS0_S4_EE12set_capacityEjE21_s_IwAssertIgnoreThis_0,comdat
	.type	_ZZN8CIwArrayI12TileObstacle12CIwAllocatorIS0_15CIwMallocRouterIS0_EE17ReallocateDefaultIS0_S4_EE12set_capacityEjE21_s_IwAssertIgnoreThis_0, %object
	.size	_ZZN8CIwArrayI12TileObstacle12CIwAllocatorIS0_15CIwMallocRouterIS0_EE17ReallocateDefaultIS0_S4_EE12set_capacityEjE21_s_IwAssertIgnoreThis_0, 1
_ZZN8CIwArrayI12TileObstacle12CIwAllocatorIS0_15CIwMallocRouterIS0_EE17ReallocateDefaultIS0_S4_EE12set_capacityEjE21_s_IwAssertIgnoreThis_0:
	.space	1
	.hidden	_ZZN8CIwArrayI12TileObstacle12CIwAllocatorIS0_15CIwMallocRouterIS0_EE17ReallocateDefaultIS0_S4_EE12set_capacityEjE21_s_IwAssertIgnoreThis_1
	.weak	_ZZN8CIwArrayI12TileObstacle12CIwAllocatorIS0_15CIwMallocRouterIS0_EE17ReallocateDefaultIS0_S4_EE12set_capacityEjE21_s_IwAssertIgnoreThis_1
	.section	.bss._ZZN8CIwArrayI12TileObstacle12CIwAllocatorIS0_15CIwMallocRouterIS0_EE17ReallocateDefaultIS0_S4_EE12set_capacityEjE21_s_IwAssertIgnoreThis_1,"awG",%nobits,_ZZN8CIwArrayI12TileObstacle12CIwAllocatorIS0_15CIwMallocRouterIS0_EE17ReallocateDefaultIS0_S4_EE12set_capacityEjE21_s_IwAssertIgnoreThis_1,comdat
	.type	_ZZN8CIwArrayI12TileObstacle12CIwAllocatorIS0_15CIwMallocRouterIS0_EE17ReallocateDefaultIS0_S4_EE12set_capacityEjE21_s_IwAssertIgnoreThis_1, %object
	.size	_ZZN8CIwArrayI12TileObstacle12CIwAllocatorIS0_15CIwMallocRouterIS0_EE17ReallocateDefaultIS0_S4_EE12set_capacityEjE21_s_IwAssertIgnoreThis_1, 1
_ZZN8CIwArrayI12TileObstacle12CIwAllocatorIS0_15CIwMallocRouterIS0_EE17ReallocateDefaultIS0_S4_EE12set_capacityEjE21_s_IwAssertIgnoreThis_1:
	.space	1
	.hidden	_ZZN8CIwArrayIi12CIwAllocatorIi15CIwMallocRouterIiEE17ReallocateDefaultIiS3_EE9push_backERKiE21_s_IwAssertIgnoreThis
	.weak	_ZZN8CIwArrayIi12CIwAllocatorIi15CIwMallocRouterIiEE17ReallocateDefaultIiS3_EE9push_backERKiE21_s_IwAssertIgnoreThis
	.section	.bss._ZZN8CIwArrayIi12CIwAllocatorIi15CIwMallocRouterIiEE17ReallocateDefaultIiS3_EE9push_backERKiE21_s_IwAssertIgnoreThis,"awG",%nobits,_ZZN8CIwArrayIi12CIwAllocatorIi15CIwMallocRouterIiEE17ReallocateDefaultIiS3_EE9push_backERKiE21_s_IwAssertIgnoreThis,comdat
	.type	_ZZN8CIwArrayIi12CIwAllocatorIi15CIwMallocRouterIiEE17ReallocateDefaultIiS3_EE9push_backERKiE21_s_IwAssertIgnoreThis, %object
	.size	_ZZN8CIwArrayIi12CIwAllocatorIi15CIwMallocRouterIiEE17ReallocateDefaultIiS3_EE9push_backERKiE21_s_IwAssertIgnoreThis, 1
_ZZN8CIwArrayIi12CIwAllocatorIi15CIwMallocRouterIiEE17ReallocateDefaultIiS3_EE9push_backERKiE21_s_IwAssertIgnoreThis:
	.space	1
	.hidden	_ZZN8CIwArrayIi12CIwAllocatorIi15CIwMallocRouterIiEE17ReallocateDefaultIiS3_EE9push_backERKiE21_s_IwAssertIgnoreThis_0
	.weak	_ZZN8CIwArrayIi12CIwAllocatorIi15CIwMallocRouterIiEE17ReallocateDefaultIiS3_EE9push_backERKiE21_s_IwAssertIgnoreThis_0
	.section	.bss._ZZN8CIwArrayIi12CIwAllocatorIi15CIwMallocRouterIiEE17ReallocateDefaultIiS3_EE9push_backERKiE21_s_IwAssertIgnoreThis_0,"awG",%nobits,_ZZN8CIwArrayIi12CIwAllocatorIi15CIwMallocRouterIiEE17ReallocateDefaultIiS3_EE9push_backERKiE21_s_IwAssertIgnoreThis_0,comdat
	.type	_ZZN8CIwArrayIi12CIwAllocatorIi15CIwMallocRouterIiEE17ReallocateDefaultIiS3_EE9push_backERKiE21_s_IwAssertIgnoreThis_0, %object
	.size	_ZZN8CIwArrayIi12CIwAllocatorIi15CIwMallocRouterIiEE17ReallocateDefaultIiS3_EE9push_backERKiE21_s_IwAssertIgnoreThis_0, 1
_ZZN8CIwArrayIi12CIwAllocatorIi15CIwMallocRouterIiEE17ReallocateDefaultIiS3_EE9push_backERKiE21_s_IwAssertIgnoreThis_0:
	.space	1
	.text
.Letext0: