((dp0
S'arm_dbg_args'
p1
S'-via:"c:\\Users\\1106786\\Dropbox\\Dropbox\\PG life\\Project Impact\\Code\\Demos\\Demo_1_Movement_Map\\build_demo_1_movement_map_vc10\\Demo_1_Movement_Map_vc10_arm_debug.via" -qemu'
p2
sS'game-icf'
p3
S''
p4
sS'dist'
p5
NsS'module_path_append'
p6
NsS'global_path'
p7
S'c:\\users\\1106786\\dropbox\\dropbox\\pg life\\project impact\\code\\demos'
p8
sS'system_path'
p9
S'c:\\marmalade\\6.2\\s3e\\makefile_builder'
p10
sS'use_prebuilt'
p11
NsS'arm_rel_rtsm_args'
p12
S'-via:"c:\\Users\\1106786\\Dropbox\\Dropbox\\PG life\\Project Impact\\Code\\Demos\\Demo_1_Movement_Map\\build_demo_1_movement_map_vc10\\Demo_1_Movement_Map_vc10_arm_release.via" -qemu'
p13
sS'amd64'
p14
NsS'line-width'
p15
I80
sS'gcc_dbg_args'
p16
S'-via:"c:\\Users\\1106786\\Dropbox\\Dropbox\\PG life\\Project Impact\\Code\\Demos\\Demo_1_Movement_Map\\build_demo_1_movement_map_vc10\\Demo_1_Movement_Map_vc10_gcc_debug.via" -qemu'
p17
sS'x86_dbg_exe'
p18
S'c:/marmalade/6.2/s3e\\win32\\s3e_simulator_debug.exe'
p19
sS'disable-runtime-checks'
p20
NsS'release'
p21
NsS'no-make'
p22
NsS'optimise-size'
p23
NsS'output-name-debug'
p24
g4
sS'arm-fpu'
p25
S'vfp'
p26
sS'psp'
p27
NsS'proj_name'
p28
S'Demo_1_Movement_Map_vc10'
p29
sS'rvct-version'
p30
S'none'
p31
sS'compiler'
p32
g4
sS'execute'
p33
NsS'compile-static'
p34
NsS'msvc-project'
p35
NsS'buildenv'
p36
g4
sS'debug'
p37
NsS'module_path'
p38
NsS'use-release-std-libs'
p39
NsS'using_perforce'
p40
I00
sS'mips-s3e'
p41
NsS'shared-arm-lib'
p42
NsS'arm-cpu'
p43
g4
sS'compile-thumb'
p44
NsS'no-ide'
p45
NsS'msvc-version'
p46
S'6.0'
p47
sS'arm'
p48
NsS'builddir'
p49
g4
sS'compile-debug-as-release'
p50
I0
sS'brief'
p51
NsS'dll'
p52
NsS'buildenv-toolset'
p53
g4
sS'version'
p54
NsS'ccache'
p55
I0
sS'offline'
p56
NsS'ios-version'
p57
g4
sS'jobs'
p58
I0
sS'linkflags'
p59
NsS'quick'
p60
NsS'gcc_rel_rtsm_args'
p61
S'-via:"c:\\Users\\1106786\\Dropbox\\Dropbox\\PG life\\Project Impact\\Code\\Demos\\Demo_1_Movement_Map\\build_demo_1_movement_map_vc10\\Demo_1_Movement_Map_vc10_gcc_release.via" -qemu'
p62
sS'done_defaults'
p63
I1
sS'path'
p64
NsS's3e-data-dir'
p65
S'c:/Users/1106786/Dropbox/Dropbox/PG life/Project Impact/Code/Demos/Demo_1_Movement_Map\\data'
p66
sS'enable-exceptions'
p67
NsS'osx-dll'
p68
NsS'extension'
p69
g4
sS'no-vc6'
p70
NsS'non-interactive'
p71
NsS'win32-console'
p72
NsS'nds'
p73
NsS'dist-format'
p74
g4
sS's3e-force-arch'
p75
NsS'dump_defines'
p76
NsS'verbose'
p77
I0
sS'psp-minis'
p78
NsS'gcc-version'
p79
g4
sS'x86_dbg_args'
p80
S'-via:"c:\\Users\\1106786\\Dropbox\\Dropbox\\PG life\\Project Impact\\Code\\Demos\\Demo_1_Movement_Map\\build_demo_1_movement_map_vc10\\Demo_1_Movement_Map_vc10_debug.via"'
p81
sS'arm-debugger'
p82
g4
sS'use_temp_extension'
p83
NsS'log'
p84
NsS'no-strip'
p85
NsS'rebuild'
p86
NsS'win32-simulator-dll'
p87
NsS'strict'
p88
NsS'mips_dbg_args'
p89
S'../../tools/DeployTool/DeployTool.exe --dir "c:\\Users\\1106786\\Dropbox\\Dropbox\\PG life\\Project Impact\\Code\\Demos\\Demo_1_Movement_Map\\build_demo_1_movement_map_vc10"'
p90
sS'enable-global-path'
p91
NsS'iphone'
p92
NsS'cflags'
p93
NsS'dist-dir'
p94
g4
sS'jflags'
p95
NsS'distcc'
p96
NsS'external-compiler'
p97
NsS'no-distcc'
p98
NsS'preinclude'
p99
NsS'using_sdk'
p100
I01
sS'nologo'
p101
NsS'warn-level'
p102
I2
sS'mips_dbg_exe'
p103
S'c:\\marmalade\\6.2\\s3e\\makefile_builder\\tool_launcher.exe'
p104
sS'mkb_in'
p105
S'c:/Users/1106786/Dropbox/Dropbox/PG life/Project Impact/Code/Demos/Demo_1_Movement_Map/Demo_1_Movement_Map.mkb'
p106
sS'arm_dbg_exe'
p107
S'c:/marmalade/6.2/s3e\\bin\\armdebug.exe'
p108
sS'list-targets'
p109
NsS'arm_rel_exe'
p110
g104
sS'arm_rel_args'
p111
g90
sS'makedeps'
p112
NsS'default-buildenv'
p113
S'VC10'
p114
sS'x86_rel_exe'
p115
g19
sS'preprocess-java'
p116
NsS'mips_rel_args'
p117
g90
sS'defines'
p118
NsS'lib'
p119
NsS'global_argv'
p120
(lp121
S'C:\\Marmalade\\6.2\\s3e\\makefile_builder\\mkb.py'
p122
aS'C:\\Users\\1106786\\Dropbox\\Dropbox\\PG life\\Project Impact\\Code\\Demos\\Demo_1_Movement_Map\\Demo_1_Movement_Map.mkb'
p123
asS'make'
p124
NsS'optimise-speed'
p125
NsS'internal'
p126
NsS'enable-stdinc'
p127
NsS'deploy-only'
p128
NsS'x86'
p129
NsS'deploy'
p130
g4
sS'x86_run_exe'
p131
S'c:/marmalade/6.2/s3e\\win32\\s3e_console.exe'
p132
sS'x86_rel_args'
p133
S'-via:"c:\\Users\\1106786\\Dropbox\\Dropbox\\PG life\\Project Impact\\Code\\Demos\\Demo_1_Movement_Map\\build_demo_1_movement_map_vc10\\Demo_1_Movement_Map_vc10_release.via"'
p134
sS'gcc_rel_args'
p135
g90
sS'mips'
p136
NsS'incredibuild'
p137
NsS'strict-compile'
p138
NsS'use-auto-subdirs'
p139
NsS'mips_rel_exe'
p140
g104
sS'app-icf'
p141
g4
sS'deployargs'
p142
NsS'mkf_in'
p143
(lp144
S'c:\\marmalade\\6.2\\modules\\iw2d\\iw2d.mkf'
p145
aS'c:\\marmalade\\6.2\\modules\\iwgx\\iwgx.mkf'
p146
aS'c:\\marmalade\\6.2\\modules\\iwgeom\\iwgeom.mkf'
p147
aS'c:\\marmalade\\6.2\\modules\\iwutil\\iwutil.mkf'
p148
aVc:\u005cusers\u005c1106786\u005cappdata\u005croaming\u005cmarmalade\u005cpackages\u005c6.2.2\u005clibjpeg_6b\u005clibjpeg.mkf
p149
aVc:\u005cusers\u005c1106786\u005cappdata\u005croaming\u005cmarmalade\u005cpackages\u005c6.2.2\u005clibpng_1.2.34\u005clibpng.mkf
p150
aVc:\u005cusers\u005c1106786\u005cappdata\u005croaming\u005cmarmalade\u005cpackages\u005c6.2.2\u005czlib_1.2.4\u005czlib.mkf
p151
aS'c:\\marmalade\\6.2\\modules\\iwresmanager\\iwresmanager.mkf'
p152
aS'c:\\marmalade\\6.2\\modules\\iwgl\\iwgl.mkf'
p153
aS'c:\\marmalade\\6.2\\modules\\iwgxfont\\iwgxfont.mkf'
p154
aVc:\u005cusers\u005c1106786\u005cappdata\u005croaming\u005cmarmalade\u005cpackages\u005c6.2.2\u005ctiniconv_1.0.1\u005ctiniconv.mkf
p155
aS'c:\\users\\1106786\\dropbox\\dropbox\\pg life\\project impact\\code\\demos\\demo_1_movement_map\\demo_1_movement_map.mkf'
p156
asS'strict-mkb'
p157
NsS'executeargs'
p158
NsS'clean'
p159
NsS'no-asm'
p160
NsS'output-name'
p161
g4
sS'no-modules'
p162
NsS'find_define'
p163
g4
s(dp164
S'c:\\marmalade\\6.2\\s3e\\makefile_builder\\templates\\xcode_pbxuser.py'
p165
F1365595058.0
sS'c:\\marmalade\\6.2\\s3e\\makefile_builder\\templates'
p166
F1378901971.8745732
sS'c:\\marmalade\\6.2\\s3e\\makefile_builder\\plugins\\null.pyc'
p167
F1365605816.0
sS'c:\\marmalade\\6.2\\s3e\\makefile_builder\\plugins\\XcodeEmitter.pyc'
p168
F1380286836.0994766
sS'c:\\marmalade\\6.2\\s3e\\makefile_builder\\plugins'
p169
F1380286836.2464912
sS'c:\\marmalade\\6.2\\s3e\\makefile_builder\\extensions'
p170
F1378901971.8765736
sS'c:\\marmalade\\6.2\\s3e\\makefile_builder\\templates\\vc6_opt.pyc'
p171
F1365605816.0
sS'c:\\marmalade\\6.2\\s3e\\makefile_builder\\templates\\win32_vcxproj_filters.pyc'
p172
F1365605816.0
sS'c:\\marmalade\\6.2\\s3e\\makefile_builder\\mkb_parser.pyc'
p173
F1365605816.0
sS'c:\\marmalade\\6.2\\s3e\\makefile_builder\\plugins\\xcode4_schememanagement.pyc'
p174
F1380286836.1074774
sS'c:\\marmalade\\6.2\\s3e\\makefile_builder\\plugins\\win32_vc6.pyc'
p175
F1365605816.0
sS'c:\\marmalade\\6.2\\s3e\\makefile_builder\\templates\\template.suo'
p176
F1365595058.0
sS'c:\\marmalade\\6.2\\s3e\\makefile_builder\\plugins\\s3e_xcode.py'
p177
F1365595058.0
sS'c:\\marmalade\\6.2\\s3e\\makefile_builder\\templates\\make.py'
p178
F1365595058.0
sS'c:\\marmalade\\6.2\\s3e\\makefile_builder\\docs\\options.txt'
p179
F1365595058.0
sS'c:\\marmalade\\6.2\\s3e\\makefile_builder\\plugins\\linux_scons.pyc'
p180
F1365605816.0
sS'c:\\marmalade\\6.2\\s3e\\makefile_builder\\templates\\linker_script'
p181
F1365595058.0
sS'c:\\marmalade\\6.2\\s3e\\makefile_builder\\plugins\\s3e_scons.pyc'
p182
F1365605816.0
sS'c:\\marmalade\\6.2\\s3e\\makefile_builder\\templates\\xcode.py'
p183
F1365595058.0
sS'c:\\marmalade\\6.2\\s3e\\makefile_builder\\plugins\\java.pyc'
p184
F1365605816.0
sS'c:\\marmalade\\6.2\\s3e\\makefile_builder\\templates\\win32_dsw.pyc'
p185
F1365605816.0
sS'c:\\marmalade\\6.2\\s3e\\makefile_builder\\docs\\mkb.defines.txt'
p186
F1365595058.0
sS'c:\\marmalade\\6.2\\s3e\\makefile_builder\\docs\\deprecated.defines.txt'
p187
F1365595058.0
sS'c:\\marmalade\\6.2\\s3e\\makefile_builder\\templates\\win32_vcxproj.pyc'
p188
F1365605816.0
sS'c:\\marmalade\\6.2\\s3e\\makefile_builder\\deployment.pyc'
p189
F1365605816.0
sS'c:\\marmalade\\6.2\\s3e\\makefile_builder\\plugins\\s3e_qmake.py'
p190
F1365595058.0
sS'c:\\marmalade\\6.2\\s3e\\makefile_builder\\templates\\win32_sln.pyc'
p191
F1365605816.0
sS'c:\\marmalade\\6.2\\s3e\\makefile_builder\\tool_launcher.exe'
p192
F1365595808.0
sS'c:\\marmalade\\6.2\\s3e\\makefile_builder\\plugins\\Emitter.pyc'
p193
F1365605816.0
sS'c:\\marmalade\\6.2\\s3e\\makefile_builder\\docs\\deprecated.options.txt'
p194
F1365595058.0
sS'c:\\marmalade\\6.2\\s3e\\makefile_builder\\templates\\rvct_linker_script'
p195
F1365595058.0
sS'c:\\marmalade\\6.2\\s3e\\makefile_builder\\plugins\\vc6_utils.pyc'
p196
F1365605816.0
sS'c:\\marmalade\\6.2\\s3e\\makefile_builder\\mkb_main.pyc'
p197
F1365605816.0
sS'c:\\marmalade\\6.2\\s3e\\makefile_builder\\plugins\\iphone.pyc'
p198
F1365605816.0
sS'c:\\marmalade\\6.2\\s3e\\makefile_builder\\plugins\\S3EEmitter.pyc'
p199
F1365605816.0
sS'c:\\marmalade\\6.2\\s3e\\makefile_builder\\plugins\\xcode4_schememanagement.py'
p200
F1365595058.0
sS'c:\\marmalade\\6.2\\s3e\\makefile_builder\\templates\\xcode4_DeployTool.xcscheme'
p201
F1365595058.0
sS'c:\\marmalade\\6.2\\s3e\\makefile_builder\\mkb_util.pyc'
p202
F1365605816.0
sS'c:\\marmalade\\6.2\\s3e\\makefile_builder\\mkb_globals.pyc'
p203
F1365605816.0
sS'c:\\marmalade\\6.2\\s3e\\makefile_builder\\templates\\qmake_user.py'
p204
F1365595058.0
sS'c:\\marmalade\\6.2\\s3e\\makefile_builder\\plugins\\vc7_utils.pyc'
p205
F1365605816.0
sS'c:\\marmalade\\6.2\\s3e\\makefile_builder\\templates\\MainWindow.xib'
p206
F1365595058.0
sS'c:\\marmalade\\6.2\\s3e\\makefile_builder\\plugins\\s3e_make.pyc'
p207
F1365605816.0
sS'c:\\marmalade\\6.2\\s3e\\makefile_builder\\templates\\vc10_user.pyc'
p208
F1365605816.0
sS'c:\\marmalade\\6.2\\s3e\\makefile_builder\\templates\\Info.plist'
p209
F1365595058.0
sS'c:\\marmalade\\6.2\\s3e\\makefile_builder\\plugins\\SConsEmitter.pyc'
p210
F1365605816.0
sS'c:\\marmalade\\6.2\\s3e\\makefile_builder\\docs'
p211
F1378901971.9095769
sS'c:\\marmalade\\6.2\\s3e\\makefile_builder\\mkb_option.pyc'
p212
F1365605816.0
sS'c:\\marmalade\\6.2\\s3e\\makefile_builder\\docs\\parse_options.pyc'
p213
F1365605816.0
sS'c:\\marmalade\\6.2\\s3e\\makefile_builder\\plugins\\XcodeEmitter.py'
p214
F1365595058.0
sS'c:\\marmalade\\6.2\\s3e\\makefile_builder\\mkb_launcher.exe'
p215
F1365595806.0
sS'c:\\marmalade\\6.2\\s3e\\makefile_builder\\templates\\vc8_user.pyc'
p216
F1365605816.0
sS'c:\\marmalade\\6.2\\s3e\\makefile_builder\\templates\\win32_dsp.pyc'
p217
F1365605816.0
sS'c:\\marmalade\\6.2\\s3e\\makefile_builder\\templates\\mips_linker_script'
p218
F1365595058.0
sS'c:\\marmalade\\6.2\\s3e\\makefile_builder\\mkb.py'
p219
F1365595058.0
sS'c:\\marmalade\\6.2\\s3e\\makefile_builder\\plugins\\osx_scons.pyc'
p220
F1365605816.0
sS'c:\\marmalade\\6.2\\s3e\\makefile_builder\\plugins\\deploy.pyc'
p221
F1365605816.0
sS'c:\\marmalade\\6.2\\s3e\\makefile_builder\\plugins\\VisualStudioEmitter.pyc'
p222
F1365605816.0
sS'c:\\marmalade\\6.2\\s3e\\makefile_builder\\plugins\\s3e_qmake.pyc'
p223
F1380286836.202487
sS'c:\\marmalade\\6.2\\s3e\\makefile_builder\\plugins\\s3e_xcode.pyc'
p224
F1380286836.2464912
sS'c:\\marmalade\\6.2\\s3e\\makefile_builder\\docs\\deployment_options.txt'
p225
F1365595058.0
sS'c:\\marmalade\\6.2\\s3e\\makefile_builder\\plugins\\s3e_web.pyc'
p226
F1365605816.0
sS'c:\\marmalade\\6.2\\s3e\\makefile_builder\\templates\\template.opt'
p227
F1365595058.0
sS'c:\\marmalade\\6.2\\s3e\\makefile_builder\\templates\\scons.pyc'
p228
F1365605816.0
sS'c:\\marmalade\\6.2\\s3e\\makefile_builder\\templates\\xcode4.xcscheme'
p229
F1365595058.0
sS'c:\\marmalade\\6.2\\s3e\\makefile_builder\\templates\\vc7_suo.pyc'
p230
F1365605816.0
sS'c:\\marmalade\\6.2\\s3e\\makefile_builder\\plugins\\MakeEmitter.pyc'
p231
F1365605816.0
sS'c:\\marmalade\\6.2\\s3e\\makefile_builder\\templates\\qmake.py'
p232
F1365595058.0
sS'c:\\marmalade\\6.2\\s3e\\makefile_builder\\templates\\win32_vcproj.pyc'
p233
F1365605816.0
sS'c:\\marmalade\\6.2\\s3e\\makefile_builder\\templates\\gdb_start.txt'
p234
F1365595058.0
sS'c:\\marmalade\\6.2\\s3e\\makefile_builder\\plugins\\s3e_vc6.pyc'
p235
F1365605816.0
sS'c:\\marmalade\\6.2\\s3e\\makefile_builder\\plugins\\osx_xcode.pyc'
p236
F1365605816.0
sS'c:\\marmalade\\6.2\\s3e\\makefile_builder\\extensions\\make_dist.py'
p237
F1365595058.0
sccopy_reg
_reconstructor
p238
(cmkb_main
MkbFile
p239
c__builtin__
object
p240
Ntp241
Rp242
(dp243
g5
(lp244
sS'target_name'
p245
S'Demo_1_Movement_Map'
p246
sS'current_file'
p247
g106
sS'package_path'
p248
(lp249
VC:\u005cUsers\u005c1106786\u005cAppData\u005cRoaming\u005cMarmalade\u005cpackages\u005c6.2.2\u005clibjpeg_6b
p250
aVC:\u005cUsers\u005c1106786\u005cAppData\u005cRoaming\u005cMarmalade\u005cpackages\u005c6.2.2\u005clibpng_1.2.34
p251
aVC:\u005cUsers\u005c1106786\u005cAppData\u005cRoaming\u005cMarmalade\u005cpackages\u005c6.2.2\u005czlib_1.2.4
p252
aVC:\u005cUsers\u005c1106786\u005cAppData\u005cRoaming\u005cMarmalade\u005cpackages\u005c6.2.2\u005ctiniconv_1.0.1
p253
asS'post_build'
p254
(lp255
(lp256
S'c:/marmalade/6.2/s3e/tools'
p257
aS'C:\\Marmalade\\6.2\\s3e\\python\\python.exe .\\process_map.py "$(TargetPath)"'
p258
aa(S'c:\\marmalade\\6.2\\s3e'
p259
S'"c:\\marmalade\\6.2\\s3e\\bin\\s3e_plink" -l "$(TargetPath)"'
p260
g129
tp261
asS'librarys'
p262
(lp263
g238
(cmkb_main
Library
p264
g240
Ntp265
Rp266
(dp267
S'name'
p268
S'vc6_compat.lib'
p269
sS'expand_name'
p270
I00
sS'include_spec_rvct_objs'
p271
(lp272
sS'include_all_objs'
p273
I00
sS'share_arm'
p274
I00
sS'arch'
p275
S'x86'
p276
sS'nodebug'
p277
I00
sg32
Nsbag238
(g264
g240
Ntp278
Rp279
(dp280
g268
S'jpeg'
p281
sg270
I01
sg271
(lp282
sg273
I00
sg274
Nsg275
Nsg277
I00
sg32
Nsbag238
(g264
g240
Ntp283
Rp284
(dp285
g268
S'z'
p286
sg270
I01
sg271
g282
sg273
I00
sg274
Nsg275
Nsg277
I00
sg32
Nsbag238
(g264
g240
Ntp287
Rp288
(dp289
g268
S'png'
p290
sg270
I01
sg271
g282
sg273
I00
sg274
Nsg275
Nsg277
I00
sg32
Nsbag238
(g264
g240
Ntp291
Rp292
(dp293
g268
S'iwutil'
p294
sg270
I01
sg271
g282
sg273
I00
sg274
I01
sg275
Nsg277
I00
sg32
Nsbag238
(g264
g240
Ntp295
Rp296
(dp297
g268
S'iwgeom'
p298
sg270
I01
sg271
g282
sg273
I00
sg274
I01
sg275
Nsg277
I00
sg32
Nsbag238
(g264
g240
Ntp299
Rp300
(dp301
g268
S'iwresmanager'
p302
sg270
I01
sg271
g282
sg273
I00
sg274
I01
sg275
Nsg277
I00
sg32
Nsbag238
(g264
g240
Ntp303
Rp304
(dp305
g268
S'ATI_Compress_MT_VC7.lib'
p306
sg270
I00
sg271
g282
sg273
I00
sg274
Nsg275
S'x86'
p307
sg277
I00
sg32
Nsbag238
(g264
g240
Ntp308
Rp309
(dp310
g268
S'iwgx'
p311
sg270
I01
sg271
g282
sg273
I00
sg274
I01
sg275
Nsg277
I00
sg32
Nsbag238
(g264
g240
Ntp312
Rp313
(dp314
g268
S'iwgl'
p315
sg270
I01
sg271
g282
sg273
I00
sg274
Nsg275
Nsg277
I00
sg32
Nsbag238
(g264
g240
Ntp316
Rp317
(dp318
g268
S'iwgxfont'
p319
sg270
I01
sg271
g282
sg273
I00
sg274
I01
sg275
Nsg277
I00
sg32
Nsbag238
(g264
g240
Ntp320
Rp321
(dp322
g268
S'tiniconv'
p323
sg270
I01
sg271
g282
sg273
I00
sg274
Nsg275
Nsg277
I00
sg32
Nsbag238
(g264
g240
Ntp324
Rp325
(dp326
g268
S'iw2d'
p327
sg270
I01
sg271
g282
sg273
I00
sg274
I01
sg275
Nsg277
I00
sg32
Nsbag238
(g264
g240
Ntp328
Rp329
(dp330
g268
S's3e_cpp'
p331
sg270
I01
sg271
g272
sg273
I00
sg274
I00
sg275
Nsg277
I00
sg32
Nsbag238
(g264
g240
Ntp332
Rp333
(dp334
g268
S's3e'
p335
sg270
I01
sg271
(lp336
S'iwcrt.o'
p337
asg273
I00
sg274
I00
sg275
Nsg277
I00
sg32
Nsbag238
(g264
g240
Ntp338
Rp339
(dp340
g268
S's3e_api'
p341
sg270
I01
sg271
g272
sg273
I00
sg274
I00
sg275
Nsg277
I1
sg32
Nsbag238
(g264
g240
Ntp342
Rp343
(dp344
g268
S's3e_api'
p345
sg270
I00
sg271
g272
sg273
I00
sg274
I00
sg275
S'arm'
p346
sg277
I00
sg32
S'gcc'
p347
sbag238
(g264
g240
Ntp348
Rp349
(dp350
g268
S'stdc++'
p351
sg270
I00
sg271
g272
sg273
I00
sg274
I00
sg275
S'mips'
p352
sg277
I00
sg32
Nsbag238
(g264
g240
Ntp353
Rp354
(dp355
g268
S'c'
p356
sg270
I00
sg271
g272
sg273
I00
sg274
I00
sg275
S'mips'
p357
sg277
I00
sg32
Nsbag238
(g264
g240
Ntp358
Rp359
(dp360
g268
S'm'
p361
sg270
I00
sg271
g272
sg273
I00
sg274
I00
sg275
S'mips'
p362
sg277
I00
sg32
Nsbag238
(g264
g240
Ntp363
Rp364
(dp365
g268
S'gcc'
p366
sg270
I00
sg271
g272
sg273
I00
sg274
I00
sg275
S'mips'
p367
sg277
I00
sg32
NsbasS'library_paths'
p368
(lp369
g238
(cmkb_main
LibraryPath
p370
g240
Ntp371
Rp372
(dp373
S'expand_path'
p374
I01
sS'add_cpu_variant'
p375
I00
sg268
Vc:/users/1106786/appdata/roaming/marmalade/packages/6.2.2/libjpeg_6b
p376
sbag238
(g370
g240
Ntp377
Rp378
(dp379
g374
I01
sg375
I00
sg268
Vc:/users/1106786/appdata/roaming/marmalade/packages/6.2.2/zlib_1.2.4
p380
sbag238
(g370
g240
Ntp381
Rp382
(dp383
g374
I01
sg375
I00
sg268
Vc:/users/1106786/appdata/roaming/marmalade/packages/6.2.2/libpng_1.2.34
p384
sbag238
(g370
g240
Ntp385
Rp386
(dp387
g374
I01
sg375
I00
sg268
S'c:/marmalade/6.2/modules/iwutil'
p388
sbag238
(g370
g240
Ntp389
Rp390
(dp391
g374
I01
sg375
I00
sg268
S'c:/marmalade/6.2/modules/iwgeom'
p392
sbag238
(g370
g240
Ntp393
Rp394
(dp395
g374
I01
sg375
I00
sg268
S'c:/marmalade/6.2/modules/iwresmanager'
p396
sbag238
(g370
g240
Ntp397
Rp398
(dp399
g374
I00
sg375
I00
sg268
S'c:/marmalade/6.2/modules/iwgx/atitools'
p400
sbag238
(g370
g240
Ntp401
Rp402
(dp403
g374
I01
sg375
I00
sg268
S'c:/marmalade/6.2/modules/iwgx'
p404
sbag238
(g370
g240
Ntp405
Rp406
(dp407
g374
I01
sg375
I00
sg268
S'c:/marmalade/6.2/modules/iwgl'
p408
sbag238
(g370
g240
Ntp409
Rp410
(dp411
g374
I01
sg375
I00
sg268
S'c:/marmalade/6.2/modules/iwgxfont'
p412
sbag238
(g370
g240
Ntp413
Rp414
(dp415
g374
I01
sg375
I00
sg268
Vc:/users/1106786/appdata/roaming/marmalade/packages/6.2.2/tiniconv_1.0.1
p416
sbag238
(g370
g240
Ntp417
Rp418
(dp419
g374
I01
sg375
I00
sg268
S'c:/marmalade/6.2/modules/iw2d'
p420
sbag238
(g370
g240
Ntp421
Rp422
(dp423
g374
I01
sg375
I00
sg268
S'c:/marmalade/6.2/s3e'
p424
sbasS'macros'
p425
(dp426
S'IW_USE_CALLSTACK'
p427
NsS'IW_SDK'
p428
NsS'I3D_PLATFORM_S3E'
p429
NsS'IW_MKF_LIBJPEG'
p430
NsS'I3D_OS_S3E'
p431
NsS'IW_MKF_TINICONV'
p432
NsS'IW_APP_VERSION'
p433
S'"1.0"'
p434
sS'IW_MKF_IWRESMANAGER'
p435
NsS'IW_MKF_IWUTIL'
p436
NsS'IW_MKF_IWGEOM'
p437
NsS'IW_ASSERTION_CHANNEL_2D'
p438
S'1'
p439
sS'IW_APP_NAME'
p440
S'"Demo_1_Movement_Map"'
p441
sS'IW_MKF_IWGXFONT'
p442
NsS'IW_PLATFORM_S3E'
p443
NsS'IW_MKF_ZLIB'
p444
NsS'IW_MKF_IWGX'
p445
NsS'IW_USE_ASSERTIONS'
p446
NsS'_CRT_SECURE_NO_DEPRECATE'
p447
NsS'IW_MKF_IWGL'
p448
NsS'IW_MKF_LIBPNG'
p449
NsS'IW_MKF_DEMO_1_MOVEMENT_MAP'
p450
NsS'IW_DEBUG'
p451
NsS'IW_USE_TRACING'
p452
NsS'S3E_INCLUDE_LEGACY'
p453
NsS'__S3E__'
p454
NsS'IW_MKF_IW2D'
p455
NssS'done_warnings'
p456
(dp457
sS'subprojects'
p458
(dp459
g152
S'iwresmanager'
p460
sVc:\u005cusers\u005c1106786\u005cappdata\u005croaming\u005cmarmalade\u005cpackages\u005c6.2.2\u005czlib_1.2.4\u005czlib.mkf
p461
S'zlib'
p462
sg156
S'Demo_1_Movement_Map'
p463
sg148
S'iwutil'
p464
sVc:\u005cusers\u005c1106786\u005cappdata\u005croaming\u005cmarmalade\u005cpackages\u005c6.2.2\u005clibjpeg_6b\u005clibjpeg.mkf
p465
S'libjpeg'
p466
sg147
S'iwgeom'
p467
sg146
S'iwgx'
p468
sVc:\u005cusers\u005c1106786\u005cappdata\u005croaming\u005cmarmalade\u005cpackages\u005c6.2.2\u005clibpng_1.2.34\u005clibpng.mkf
p469
S'libpng'
p470
sg154
S'iwgxfont'
p471
sg153
S'iwgl'
p472
sg145
S'iw2d'
p473
sVc:\u005cusers\u005c1106786\u005cappdata\u005croaming\u005cmarmalade\u005cpackages\u005c6.2.2\u005ctiniconv_1.0.1\u005ctiniconv.mkf
p474
S'tiniconv'
p475
ssS'deployments'
p476
(dp477
S'Default'
p478
g238
(cdeployment
Deployment
p479
g240
Ntp480
Rp481
(dp482
S'got_version'
p483
I0
sS'assets'
p484
g478
sS'mkb'
p485
g242
sS'target'
p486
Nsg275
(lp487
sS'options'
p488
(dp489
S'iphone-link-lib'
p490
(lp491
sS'game-icf'
p492
NsS'iphone-icon-high-res'
p493
NsS'win32-pref-windowposy'
p494
NsS'win32-pref-windowposx'
p495
NsS'bada-appsecret'
p496
NsS'playbook-author'
p497
NsS'winmobile-icon32'
p498
NsS'linux-ext-lib'
p499
(lp500
sS'target-folder'
p501
NsS'iphone-splashscreen-landscape'
p502
NsS'psp-discversion'
p503
NsS'lgtv-use-drm'
p504
NsS'nds-bannertitle-sp'
p505
NsS'symbian-platsecflags'
p506
NsS'psp-producer'
p507
NsS'blackberry-playbook-icon'
p508
NsS'iphone-icon-ipad-search-high-res'
p509
NsS'iphone-provisioning-profile'
p510
NsS'copyright'
p511
NsS'winmobile-png45'
p512
NsS'iphone-link-libdir'
p513
(lp514
sS'symbian-cert'
p515
NsS'nds-bannertitle-hn'
p516
NsS'brew-depends'
p517
NsS'winmobile-png60'
p518
NsS'winmobile-nouninstall'
p519
NsS'android-icon-hdpi'
p520
NsS'iphone-ipad-only'
p521
NsS'iphone-splash-full-orient'
p522
NsS'iphone-bundle-url-name'
p523
NsS'android-aliasname'
p524
NsS'iphone-splash-retina-generate'
p525
NsS'psp-dlgmanual'
p526
NsS'iphone-backgroundmode-audio'
p527
NsS'android-pkgname'
p528
NsS'webos-memory'
p529
NsS'brew-uid'
p530
NsS'android-keypass'
p531
NsS'symbian-locationsupport'
p532
NsS'iphone-signing-host'
p533
NsS'nds-bannertitle-jp'
p534
NsS'name'
p535
NsS'osx-info-plist'
p536
NsS'symbian-icon1-format'
p537
NsS'uiq3-uid'
p538
NsS'psp-dlgcontentid'
p539
NsS'auto-derbh'
p540
NsS'bada-use-partner-privileges'
p541
NsS'nds-bannertitle-it'
p542
NsS'blackberry-authorid'
p543
NsS'nds-publicsavedatasize'
p544
NsS'splashscreen'
p545
NsS'brew-mif'
p546
NsS'symbian-icon2-format'
p547
NsS'long-caption'
p548
NsS'iphone-icon-settings-high-res'
p549
NsS'android-manifest'
p550
NsS'winmobile-icon16'
p551
NsS's3e-compression'
p552
NsS'blackberry-cskpass'
p553
NsS'iphone-link-opts'
p554
(lp555
sS'iphone-region'
p556
NsS'uiq3-icon3-mask'
p557
NsS'winmobile-start-menu-folder'
p558
NsS'brew-clsid'
p559
NsS'brew-encoding'
p560
NsS'symbian-icon1'
p561
NsS'symbian-icon2'
p562
NsS'psp-parentallevel'
p563
NsS'osx-ext-dll'
p564
(lp565
sS'version'
p566
NsS'bada-manifest'
p567
NsS'provider'
p568
NsS'iphone-prerendered-icon'
p569
NsS'iphone-appid'
p570
NsS'playbook-keystore'
p571
NsS'nds-initialcode'
p572
NsS'symbian8-uid'
p573
NsS'symbian-osexecsupport'
p574
NsS'winmobile-icon64'
p575
NsS'iphone-persistent-wifi'
p576
NsS'symbian7-uid'
p577
NsS'winmobile-setup-dll'
p578
NsS'android-external-jars'
p579
(lp580
sS'android-install-location'
p581
NsS'olddeploytoolstyle'
p582
NsS'nds-privatesavedatasize'
p583
NsS'symbian9-uid'
p584
NsS'nds-bannertitle-cn'
p585
NsS'winmobile-trace-file'
p586
NsS'playbook-storepass'
p587
NsS'android-icon-ldpi'
p588
NsS'psp-appversion'
p589
NsS'networking'
p590
NsS'winmobile-install-folder'
p591
NsS'arch'
p592
NsS'android-external-res'
p593
(lp594
sS'manufacturer'
p595
NsS'android-icon-gallery'
p596
NsS'bada-signed'
p597
NsS'android-supports-gl-texture'
p598
(lp599
sS'iphone-apple-wwdr-cert'
p600
NsS'psp-snd0'
p601
NsS'iphone-extra-sections'
p602
NsS'blackberry-keystore'
p603
NsS'iphone-nosign'
p604
NsS'caption'
p605
NsS'winmobile-ampd-part-number'
p606
NsS'iphone-icon-large'
p607
NsS'android-storepass'
p608
NsS'iphone-info-plist'
p609
NsS'win32-icon'
p610
NsS'android-extra-manifest'
p611
(lp612
sS'iphone-icon-ipad-search'
p613
NsS'android-custom-activity'
p614
NsS'version-minor'
p615
NsS'iphone-icon-ipad'
p616
NsS'bada-appid'
p617
NsS'iphone-distribution-key'
p618
NsS'iphone-link-libdirs'
p619
(lp620
sS'psp-copyright'
p621
NsS'symbian-maxheapsize'
p622
NsS'embed-icf'
p623
NsS'psp-titlename'
p624
NsS'symbian-icon1-mask'
p625
NsS'nds-makercode'
p626
NsS'psp-icon1'
p627
NsS'priv-sign-key'
p628
NsS'webos-appinfo'
p629
NsS'symbian-cert-key'
p630
NsS'android-icon'
p631
NsS'webos-appid'
p632
NsS'android-icon-nonstandard'
p633
NsS'android-extra-application-manifest'
p634
(lp635
sS'iphone-icon-settings'
p636
NsS'iphone-distribution-cert'
p637
NsS'osx-icon'
p638
NsS'nds-titlename'
p639
NsS'splashscreen-auto-onblack'
p640
NsS'icon'
p641
NsS'nds-romheadertemplate'
p642
NsS'webos-icon'
p643
NsS'nds-bannertitle-en'
p644
NsS'win32-ext-dll'
p645
(lp646
sS'psp-dlgicon0'
p647
NsS'iphone-development-key'
p648
NsS'psp-discid'
p649
NsS'winmobile-icon48'
p650
NsS'uiq3-icon1-mask'
p651
NsS'playbook-cskpass'
p652
NsS'android-so'
p653
(lp654
sS'itunes-artwork'
p655
NsS'bada-splash'
p656
NsS'version-revision'
p657
NsS'android-icon-mdpi'
p658
NsS'android-keystore'
p659
NsS'uiq3-icon2-format'
p660
NsS'version-string'
p661
NsS'winmobile-png90'
p662
NsS'iphone-icon-ipad-high-res'
p663
NsS'iphone-disable-ipad'
p664
NsS'uiq3-icon1-format'
p665
NsS'iphone-bundle-url-schemes'
p666
NsS'nds-icon'
p667
NsS'iphone-development-cert'
p668
NsS'playbook-authorid'
p669
NsS'android_extra_strings'
p670
NsS'playbook-icon'
p671
NsS'uid'
p672
NsS'iphone-signing-identity'
p673
NsS'brew-icon-medium'
p674
NsS'blackberry-phone-icon'
p675
NsS'iphone-enable-4inch-retina'
p676
NsS'pkguid-as-uid'
p677
NsS'symbian-icon1-mask-black'
p678
NsS'uiq3-icon2'
p679
NsS'pub-sign-key'
p680
NsS'nds-bannertitle-fr'
p681
NsS'win32-pref-windowtitle'
p682
NsS'symbian-disable-ecompxl'
p683
NsS'symbian-soundrecordsupport'
p684
NsS'splashscreen-use-all'
p685
NsS'android-unsigned'
p686
NsS'brew-priviledges'
p687
NsS'brew-icon-small'
p688
NsS'psp-dlgpic2'
p689
NsS'bada-icon'
p690
NsS'psp-dlgpic0'
p691
NsS'lgtv_l9-use-drm'
p692
NsS'psp-pic0'
p693
NsS'psp-pic1'
p694
NsS'iphone-icon'
p695
NsS'psp-icon0'
p696
NsS'blackberry-permissions-access-shared'
p697
NsS'uiq3-icon3-format'
p698
NsS'version-major'
p699
NsS'iphone_bundle_localisations'
p700
NsS'winmobile-icon'
p701
NsS'blackberry-author'
p702
NsS'symbian-keypwd'
p703
NsS'iphone-no-splash'
p704
NsS'playbook-access-shared'
p705
NsS'psp-dlghealthwarning'
p706
NsS'iphone-link-libs'
p707
(lp708
sS'iphone-splash'
p709
NsS'nds-bannertitle-ge'
p710
NsS'android_icon_gallery'
p711
NsS'brew-icon-large'
p712
NsS'iphone-app-fonts'
p713
NsS'symbian-icon2-mask'
p714
NsS'iphone-sign-for-distribution'
p715
NsS'psp-dlgprotectdocument'
p716
NsS'winmobile-cab-compress'
p717
NsS'uiq3-icon3'
p718
NsS'uiq3-icon1'
p719
NsS'symbian-run-on-install'
p720
NsS'assets'
p721
NsS'symbian-key'
p722
NsS'app-icf'
p723
NsS'blackberry-storepass'
p724
NsS'brew-compress-loader'
p725
NsS'uiq3-icon2-mask'
p726
NsS'symbian-icon2-mask-black'
p727
NsS'symbian-icon-svg'
p728
NsS'android-extra-strings'
p729
NsS'iphone-splashscreen-portrait'
p730
NsS'iphone-bundle-localisations'
p731
Nssg268
g478
sbssS'platform'
p732
S'S3E'
p733
sg54
S'1.0'
p734
sS'arcade_platform'
p735
g4
sS'extensions'
p736
(dp737
sS'source_groups_tree'
p738
(dp739
S'(Demo_1_Movement_Map)'
p740
(dp741
S'src'
p742
(dp743
S'c:/users/1106786/dropbox/dropbox/pg life/project impact/code/demos/demo_1_movement_map/h/character.h'
p744
(lp745
I1
a(dp746
asS'c:/users/1106786/dropbox/dropbox/pg life/project impact/code/demos/demo_1_movement_map/src/tile.cpp'
p747
(lp748
I1
ag746
asS'c:/users/1106786/dropbox/dropbox/pg life/project impact/code/demos/demo_1_movement_map/src/game.cpp'
p749
(lp750
I1
ag746
asS'c:/users/1106786/dropbox/dropbox/pg life/project impact/code/demos/demo_1_movement_map/h/game.h'
p751
(lp752
I1
ag746
asS'c:/users/1106786/dropbox/dropbox/pg life/project impact/code/demos/demo_1_movement_map/src/map.cpp'
p753
(lp754
I1
ag746
asS'c:/users/1106786/dropbox/dropbox/pg life/project impact/code/demos/demo_1_movement_map/src/character.cpp'
p755
(lp756
I1
ag746
asS'c:/users/1106786/dropbox/dropbox/pg life/project impact/code/demos/demo_1_movement_map/h/tile.h'
p757
(lp758
I1
ag746
asS'c:/users/1106786/dropbox/dropbox/pg life/project impact/code/demos/demo_1_movement_map/src/main.cpp'
p759
(lp760
I1
ag746
asS'c:/users/1106786/dropbox/dropbox/pg life/project impact/code/demos/demo_1_movement_map/h/map.h'
p761
(lp762
I1
ag746
asS'c:/users/1106786/dropbox/dropbox/pg life/project impact/code/demos/demo_1_movement_map/src/input.cpp'
p763
(lp764
I1
ag746
asS'c:/users/1106786/dropbox/dropbox/pg life/project impact/code/demos/demo_1_movement_map/h/input.h'
p765
(lp766
I1
ag746
assS'Data'
p767
(dp768
S'c:/users/1106786/dropbox/dropbox/pg life/project impact/code/demos/demo_1_movement_map/data/imgs.group'
p769
(lp770
I1
ag746
assS'c:/users/1106786/dropbox/dropbox/pg life/project impact/code/demos/demo_1_movement_map/demo_1_movement_map.mkf'
p771
(lp772
I1
a(dp773
assS'(libpng)'
p774
(dp775
Vc:/users/1106786/appdata/roaming/marmalade/packages/6.2.2/libpng_1.2.34/libpng.mkf
p776
(lp777
I1
a(dp778
asVc:/users/1106786/appdata/roaming/marmalade/packages/6.2.2/libpng_1.2.34/h/png.h
p779
(lp780
I1
a(dp781
asVc:/users/1106786/appdata/roaming/marmalade/packages/6.2.2/libpng_1.2.34/h/pngconf.h
p782
(lp783
I1
ag781
assS'(libjpeg)'
p784
(dp785
Vc:/users/1106786/appdata/roaming/marmalade/packages/6.2.2/libjpeg_6b/h/jmemsys.h
p786
(lp787
I1
a(dp788
asVc:/users/1106786/appdata/roaming/marmalade/packages/6.2.2/libjpeg_6b/h/jpegint.h
p789
(lp790
I1
ag788
asVc:/users/1106786/appdata/roaming/marmalade/packages/6.2.2/libjpeg_6b/h/jconfig.h
p791
(lp792
I1
ag788
asVc:/users/1106786/appdata/roaming/marmalade/packages/6.2.2/libjpeg_6b/h/cderror.h
p793
(lp794
I1
ag788
asVc:/users/1106786/appdata/roaming/marmalade/packages/6.2.2/libjpeg_6b/h/jerror.h
p795
(lp796
I1
ag788
asVc:/users/1106786/appdata/roaming/marmalade/packages/6.2.2/libjpeg_6b/libjpeg.mkf
p797
(lp798
I1
a(dp799
asVc:/users/1106786/appdata/roaming/marmalade/packages/6.2.2/libjpeg_6b/h/cdjpeg.h
p800
(lp801
I1
ag788
asVc:/users/1106786/appdata/roaming/marmalade/packages/6.2.2/libjpeg_6b/h/jversion.h
p802
(lp803
I1
ag788
asVc:/users/1106786/appdata/roaming/marmalade/packages/6.2.2/libjpeg_6b/h/jinclude.h
p804
(lp805
I1
ag788
asVc:/users/1106786/appdata/roaming/marmalade/packages/6.2.2/libjpeg_6b/h/jdct.h
p806
(lp807
I1
ag788
asVc:/users/1106786/appdata/roaming/marmalade/packages/6.2.2/libjpeg_6b/h/jpeglib.h
p808
(lp809
I1
ag788
asVc:/users/1106786/appdata/roaming/marmalade/packages/6.2.2/libjpeg_6b/h/jdhuff.h
p810
(lp811
I1
ag788
asVc:/users/1106786/appdata/roaming/marmalade/packages/6.2.2/libjpeg_6b/h/transupp.h
p812
(lp813
I1
ag788
asVc:/users/1106786/appdata/roaming/marmalade/packages/6.2.2/libjpeg_6b/h/jchuff.h
p814
(lp815
I1
ag788
asVc:/users/1106786/appdata/roaming/marmalade/packages/6.2.2/libjpeg_6b/h/jmorecfg.h
p816
(lp817
I1
ag788
assS'(tiniconv)'
p818
(dp819
Vc:/users/1106786/appdata/roaming/marmalade/packages/6.2.2/tiniconv_1.0.1/tiniconv.mkf
p820
(lp821
I1
a(dp822
asVc:/users/1106786/appdata/roaming/marmalade/packages/6.2.2/tiniconv_1.0.1/h/tiniconv.h
p823
(lp824
I1
a(dp825
asVc:/users/1106786/appdata/roaming/marmalade/packages/6.2.2/tiniconv_1.0.1/h/tiniconv_int.h
p826
(lp827
I1
ag825
assS"'Marmalade Studio'"
p828
(dp829
S'iwgl'
p830
(dp831
S'c:/marmalade/6.2/modules/iwgl/h/IwGLExt.h'
p832
(lp833
I1
a(dp834
asS'c:/marmalade/6.2/modules/iwgl/docs/iwgl.config.txt'
p835
(lp836
I1
ag834
asS'c:/marmalade/6.2/modules/iwgl/h/IwGL.h'
p837
(lp838
I1
ag834
asS'c:/marmalade/6.2/modules/iwgl/iwgl.mkf'
p839
(lp840
I1
a(dp841
assS'iw2d'
p842
(dp843
S'c:/marmalade/6.2/modules/iw2d/h/Iw2D.h'
p844
(lp845
I1
a(dp846
asS'c:/marmalade/6.2/modules/iw2d/docs/iw2d_public.defines.txt'
p847
(lp848
I1
ag846
asS'c:/marmalade/6.2/modules/iw2d/docs/iw2d.config.txt'
p849
(lp850
I1
ag846
asS'c:/marmalade/6.2/modules/iw2d/iw2d.mkf'
p851
(lp852
I1
a(dp853
assS'iwgxfont'
p854
(dp855
S'c:/marmalade/6.2/modules/iwgxfont/docs/iwgxfont_public.defines.txt'
p856
(lp857
I1
a(dp858
asS'c:/marmalade/6.2/modules/iwgxfont/iwgxfont.mkf'
p859
(lp860
I1
a(dp861
asS'c:/marmalade/6.2/modules/iwgxfont/h/IwGxFontState.h'
p862
(lp863
I1
ag858
asS'c:/marmalade/6.2/modules/iwgxfont/h/IwGxFontGlyph.h'
p864
(lp865
I1
ag858
asS'c:/marmalade/6.2/modules/iwgxfont/h/IwGxFontPreparedData.h'
p866
(lp867
I1
ag858
asS'c:/marmalade/6.2/modules/iwgxfont/h/IwGxFontContainer.h'
p868
(lp869
I1
ag858
asS'c:/marmalade/6.2/modules/iwgxfont/h/IwGxFontTypes.h'
p870
(lp871
I1
ag858
asS'c:/marmalade/6.2/modules/iwgxfont/docs/iwgxfont.config.txt'
p872
(lp873
I1
ag858
asS'c:/marmalade/6.2/modules/iwgxfont/h/IwGxFont.h'
p874
(lp875
I1
ag858
assS'iwgeom'
p876
(dp877
S'c:/marmalade/6.2/modules/iwgeom/h/IwGeomMenu.h'
p878
(lp879
I1
a(dp880
asS'c:/marmalade/6.2/modules/iwgeom/h/IwGeomFVec3.h'
p881
(lp882
I1
ag880
asS'c:/marmalade/6.2/modules/iwgeom/h/IwGeom.h'
p883
(lp884
I1
ag880
asS'c:/marmalade/6.2/modules/iwgeom/h/IwGeomFVec4.h'
p885
(lp886
I1
ag880
asS'c:/marmalade/6.2/modules/iwgeom/h/IwGeomVec2.h'
p887
(lp888
I1
ag880
asS'c:/marmalade/6.2/modules/iwgeom/h/IwGeomIntersect.h'
p889
(lp890
I1
ag880
asS'c:/marmalade/6.2/modules/iwgeom/h/IwGeomFBBox.h'
p891
(lp892
I1
ag880
asS'c:/marmalade/6.2/modules/iwgeom/h/IwGeomLegacy.h'
p893
(lp894
I1
ag880
asS'c:/marmalade/6.2/modules/iwgeom/h/IwGeomSqrt.h'
p895
(lp896
I1
ag880
asS'c:/marmalade/6.2/modules/iwgeom/h/IwGeomFIntersect.h'
p897
(lp898
I1
ag880
asS'c:/marmalade/6.2/modules/iwgeom/h/IwGeomSVec4.h'
p899
(lp900
I1
ag880
asS'c:/marmalade/6.2/modules/iwgeom/h/IwGeomCore.h'
p901
(lp902
I1
ag880
asS'c:/marmalade/6.2/modules/iwgeom/h/IwGeomBBox.h'
p903
(lp904
I1
ag880
asS'c:/marmalade/6.2/modules/iwgeom/h/IwGeomVec4.h'
p905
(lp906
I1
ag880
asS'c:/marmalade/6.2/modules/iwgeom/h/IwGeomFPlane.h'
p907
(lp908
I1
ag880
asS'c:/marmalade/6.2/modules/iwgeom/docs/iwgeom.config.txt'
p909
(lp910
I1
ag880
asS'c:/marmalade/6.2/modules/iwgeom/h/IwGeomSQuat.h'
p911
(lp912
I1
ag880
asS'c:/marmalade/6.2/modules/iwgeom/iwgeom.mkf'
p913
(lp914
I1
a(dp915
asS'c:/marmalade/6.2/modules/iwgeom/h/IwGeomQuat.h'
p916
(lp917
I1
ag880
asS'c:/marmalade/6.2/modules/iwgeom/h/IwGeomMat2D.h'
p918
(lp919
I1
ag880
asS'c:/marmalade/6.2/modules/iwgeom/h/IwGeomFSphere.h'
p920
(lp921
I1
ag880
asS'c:/marmalade/6.2/modules/iwgeom/h/IwGeomSVec3.h'
p922
(lp923
I1
ag880
asS'c:/marmalade/6.2/modules/iwgeom/h/IwGeomSVec2.h'
p924
(lp925
I1
ag880
asS'c:/marmalade/6.2/modules/iwgeom/h/IwGeomSphere.h'
p926
(lp927
I1
ag880
asS'c:/marmalade/6.2/modules/iwgeom/h/IwGeomPlane.h'
p928
(lp929
I1
ag880
asS'c:/marmalade/6.2/modules/iwgeom/h/IwGeomFMat.h'
p930
(lp931
I1
ag880
asS'c:/marmalade/6.2/modules/iwgeom/h/IwGeomFVec2.h'
p932
(lp933
I1
ag880
asS'c:/marmalade/6.2/modules/iwgeom/h/IwGeomMat.h'
p934
(lp935
I1
ag880
asS'c:/marmalade/6.2/modules/iwgeom/h/IwGeomFQuat.h'
p936
(lp937
I1
ag880
asS'c:/marmalade/6.2/modules/iwgeom/h/IwGeomFMat2D.h'
p938
(lp939
I1
ag880
asS'c:/marmalade/6.2/modules/iwgeom/h/IwGeomVec.h'
p940
(lp941
I1
ag880
asS'c:/marmalade/6.2/modules/iwgeom/h/IwGeomVec3.h'
p942
(lp943
I1
ag880
assS'iwresmanager'
p944
(dp945
S'c:/marmalade/6.2/modules/iwresmanager/h/IwResSerialise.h'
p946
(lp947
I1
a(dp948
asS'c:/marmalade/6.2/modules/iwresmanager/h/IwResHandlerGROUP.h'
p949
(lp950
I1
ag948
asS'c:/marmalade/6.2/modules/iwresmanager/h/IwResManagerClass.h'
p951
(lp952
I1
ag948
asS'c:/marmalade/6.2/modules/iwresmanager/h/IwResHandlerImage.h'
p953
(lp954
I1
ag948
asS'c:/marmalade/6.2/modules/iwresmanager/docs/iwresmanager.config.txt'
p955
(lp956
I1
ag948
asS'c:/marmalade/6.2/modules/iwresmanager/h/IwResHandler.h'
p957
(lp958
I1
ag948
asS'c:/marmalade/6.2/modules/iwresmanager/iwresmanager.mkf'
p959
(lp960
I1
a(dp961
asS'c:/marmalade/6.2/modules/iwresmanager/h/IwResGroup.h'
p962
(lp963
I1
ag948
asS'c:/marmalade/6.2/modules/iwresmanager/h/IwResManager.h'
p964
(lp965
I1
ag948
asS'c:/marmalade/6.2/modules/iwresmanager/h/IwResHandlerITX.h'
p966
(lp967
I1
ag948
assS'iwgx'
p968
(dp969
S'c:/marmalade/6.2/modules/iwgx/h/IwGxFuncTable.h'
p970
(lp971
I1
a(dp972
asS'c:/marmalade/6.2/modules/iwgx/h/IwClip.inl'
p973
(lp974
I1
ag972
asS'c:/marmalade/6.2/modules/iwgx/h/IwGxTypes.h'
p975
(lp976
I1
ag972
asS'c:/marmalade/6.2/modules/iwgx/h/IwGxTransformSW.h'
p977
(lp978
I1
ag972
asS'c:/marmalade/6.2/modules/iwgx/docs/iwgx_public.defines.txt'
p979
(lp980
I1
ag972
asS'c:/marmalade/6.2/modules/iwgx/h/IwDebugPrim.h'
p981
(lp982
I1
ag972
asS'c:/marmalade/6.2/modules/iwgx/h/IwResHandlerMTL.h'
p983
(lp984
I1
ag972
asS'c:/marmalade/6.2/modules/iwgx/docs/iwgx.config.txt'
p985
(lp986
I1
ag972
asS'c:/marmalade/6.2/modules/iwgx/h/IwGxDebug.h'
p987
(lp988
I1
ag972
asS'c:/marmalade/6.2/modules/iwgx/h/IwTexture.h'
p989
(lp990
I1
ag972
asS'c:/marmalade/6.2/modules/iwgx/h/IwFColour.h'
p991
(lp992
I1
ag972
asS'c:/marmalade/6.2/modules/iwgx/h/IwGxError.h'
p993
(lp994
I1
ag972
asS'c:/marmalade/6.2/modules/iwgx/h/IwColour.h'
p995
(lp996
I1
ag972
asS'c:/marmalade/6.2/modules/iwgx/h/IwMaterial.h'
p997
(lp998
I1
ag972
asS'c:/marmalade/6.2/modules/iwgx/h/IwGxPrint.h'
p999
(lp1000
I1
ag972
asS'c:/marmalade/6.2/modules/iwgx/h/IwTPage.h'
p1001
(lp1002
I1
ag972
asS'c:/marmalade/6.2/modules/iwgx/iwgx.mkf'
p1003
(lp1004
I1
a(dp1005
asS'c:/marmalade/6.2/modules/iwgx/h/IwGxMetrics.h'
p1006
(lp1007
I1
ag972
asS'c:/marmalade/6.2/modules/iwgx/h/IwGxSurface.h'
p1008
(lp1009
I1
ag972
asS'c:/marmalade/6.2/modules/iwgx/h/IwGx.h'
p1010
(lp1011
I1
ag972
asS'c:/marmalade/6.2/modules/iwgx/h/IwGxShaderTechnique.h'
p1012
(lp1013
I1
ag972
asS'c:/marmalade/6.2/modules/iwgx/h/IwGxStream.h'
p1014
(lp1015
I1
ag972
asS'c:/marmalade/6.2/modules/iwgx/h/IwMatAnim.h'
p1016
(lp1017
I1
ag972
asS'c:/marmalade/6.2/modules/iwgx/h/IwClip.h'
p1018
(lp1019
I1
ag972
asS'c:/marmalade/6.2/modules/iwgx/h/IwGxState.h'
p1020
(lp1021
I1
ag972
assS'iwutil'
p1022
(dp1023
S'c:/marmalade/6.2/modules/iwutil/h/IwBuffer.h'
p1024
(lp1025
I1
a(dp1026
asS'c:/marmalade/6.2/modules/iwutil/h/IwResource.h'
p1027
(lp1028
I1
ag1026
asS'c:/marmalade/6.2/modules/iwutil/h/IwFile.h'
p1029
(lp1030
I1
ag1026
asS'c:/marmalade/6.2/modules/iwutil/docs/iwutil.config.txt'
p1031
(lp1032
I1
ag1026
asS'c:/marmalade/6.2/modules/iwutil/h/IwCore.h'
p1033
(lp1034
I1
ag1026
asS'c:/marmalade/6.2/modules/iwutil/h/IwOptimiseSpeed.h'
p1035
(lp1036
I1
ag1026
asS'c:/marmalade/6.2/modules/iwutil/h/IwSerialise.h'
p1037
(lp1038
I1
ag1026
asS'c:/marmalade/6.2/modules/iwutil/h/IwPath.h'
p1039
(lp1040
I1
ag1026
asS'c:/marmalade/6.2/modules/iwutil/h/IwImage.h'
p1041
(lp1042
I1
ag1026
asS'c:/marmalade/6.2/modules/iwutil/h/IwCopyingPtr.h'
p1043
(lp1044
I1
ag1026
asS'c:/marmalade/6.2/modules/iwutil/h/IwUtilInitTerm.h'
p1045
(lp1046
I1
ag1026
asS'c:/marmalade/6.2/modules/iwutil/h/IwOptimiseARM.h'
p1047
(lp1048
I1
ag1026
asS'c:/marmalade/6.2/modules/iwutil/h/IwMath.h'
p1049
(lp1050
I1
ag1026
asS'c:/marmalade/6.2/modules/iwutil/iwutil.mkf'
p1051
(lp1052
I1
a(dp1053
asS'c:/marmalade/6.2/modules/iwutil/h/IwUncopyable.h'
p1054
(lp1055
I1
ag1026
asS'c:/marmalade/6.2/modules/iwutil/h/IwDebug.h'
p1056
(lp1057
I1
ag1026
asS'c:/marmalade/6.2/modules/iwutil/h/IwSingleton.h'
p1058
(lp1059
I1
ag1026
asS'c:/marmalade/6.2/modules/iwutil/h/IwRandom.h'
p1060
(lp1061
I1
ag1026
asS'c:/marmalade/6.2/modules/iwutil/h/IwMemManagerDL.h'
p1062
(lp1063
I1
ag1026
asS'c:/marmalade/6.2/modules/iwutil/h/IwMemory.h'
p1064
(lp1065
I1
ag1026
asS'c:/marmalade/6.2/modules/iwutil/h/IwUtil.h'
p1066
(lp1067
I1
ag1026
asS'c:/marmalade/6.2/modules/iwutil/h/IwManagedList.h'
p1068
(lp1069
I1
ag1026
asS'c:/marmalade/6.2/modules/iwutil/h/IwMenu.h'
p1070
(lp1071
I1
ag1026
asS'c:/marmalade/6.2/modules/iwutil/h/IwArray.h'
p1072
(lp1073
I1
ag1026
asS'c:/marmalade/6.2/modules/iwutil/h/IwOptimiseSize.h'
p1074
(lp1075
I1
ag1026
asS'c:/marmalade/6.2/modules/iwutil/h/IwString.h'
p1076
(lp1077
I1
ag1026
asS'c:/marmalade/6.2/modules/iwutil/h/IwProfileMenu.h'
p1078
(lp1079
I1
ag1026
asS'c:/marmalade/6.2/modules/iwutil/h/IwKeymap.h'
p1080
(lp1081
I1
ag1026
asS'c:/marmalade/6.2/modules/iwutil/h/IwMemBucket.h'
p1082
(lp1083
I1
ag1026
asS'c:/marmalade/6.2/modules/iwutil/h/IwUTF8.h'
p1084
(lp1085
I1
ag1026
asS'c:/marmalade/6.2/modules/iwutil/h/IwRuntime.h'
p1086
(lp1087
I1
ag1026
asS'c:/marmalade/6.2/modules/iwutil/h/IwVariableBitField.h'
p1088
(lp1089
I1
ag1026
asS'c:/marmalade/6.2/modules/iwutil/h/IwOptimiseThumb.h'
p1090
(lp1091
I1
ag1026
asS'c:/marmalade/6.2/modules/iwutil/h/IwList.h'
p1092
(lp1093
I1
ag1026
asS'c:/marmalade/6.2/modules/iwutil/h/IwDivTable.h'
p1094
(lp1095
I1
ag1026
asS'c:/marmalade/6.2/modules/iwutil/h/IwMemBucketHelpers.h'
p1096
(lp1097
I1
ag1026
asS'c:/marmalade/6.2/modules/iwutil/h/IwClassFactory.h'
p1098
(lp1099
I1
ag1026
asS'c:/marmalade/6.2/modules/iwutil/h/IwAutoFile.h'
p1100
(lp1101
I1
ag1026
asS'c:/marmalade/6.2/modules/iwutil/h/IwAllocator.h'
p1102
(lp1103
I1
ag1026
asS'c:/marmalade/6.2/modules/iwutil/h/IwImageHelper.h'
p1104
(lp1105
I1
ag1026
asS'c:/marmalade/6.2/modules/iwutil/h/IwTextParserITX.h'
p1106
(lp1107
I1
ag1026
asS'c:/marmalade/6.2/modules/iwutil/h/IwTextParser.h'
p1108
(lp1109
I1
ag1026
asS'c:/marmalade/6.2/modules/iwutil/h/IwTextParseable.h'
p1110
(lp1111
I1
ag1026
asS'c:/marmalade/6.2/modules/iwutil/h/IwDivide.h'
p1112
(lp1113
I1
ag1026
asS'c:/marmalade/6.2/modules/iwutil/h/IwHashString.h'
p1114
(lp1115
I1
ag1026
asS'c:/marmalade/6.2/modules/iwutil/h/IwTypes.h'
p1116
(lp1117
I1
ag1026
asS'c:/marmalade/6.2/modules/iwutil/h/IwManaged.h'
p1118
(lp1119
I1
ag1026
asS'c:/marmalade/6.2/modules/iwutil/h/IwEvent.h'
p1120
(lp1121
I1
ag1026
asS'c:/marmalade/6.2/modules/iwutil/h/IwChar.h'
p1122
(lp1123
I1
ag1026
asS'c:/marmalade/6.2/modules/iwutil/h/IwFibre.h'
p1124
(lp1125
I1
ag1026
asssS'(zlib)'
p1126
(dp1127
Vc:/users/1106786/appdata/roaming/marmalade/packages/6.2.2/zlib_1.2.4/h/zconf.h
p1128
(lp1129
I1
a(dp1130
asVc:/users/1106786/appdata/roaming/marmalade/packages/6.2.2/zlib_1.2.4/h/zlib.h
p1131
(lp1132
I1
ag1130
asVc:/users/1106786/appdata/roaming/marmalade/packages/6.2.2/zlib_1.2.4/zlib.mkf
p1133
(lp1134
I1
a(dp1135
asssS'files'
p1136
(dp1137
S'IwGxFontPreparedData.h'
p1138
g238
(cmkb_main
File
p1139
g240
Ntp1140
Rp1141
(dp1142
S'flags'
p1143
g858
sS'group'
p1144
(lp1145
S"'Marmalade Studio'"
p1146
ag854
asg268
g866
sbsS'iterator'
p1147
g238
(g1139
g240
Ntp1148
Rp1149
(dp1150
g1143
(dp1151
sg1144
(lp1152
S"'Marmalade System (S3E)'"
p1153
aS'stdc headers'
p1154
aS'c++'
p1155
asg268
S'c:/marmalade/6.2/s3e/h/std/c++/iterator'
p1156
sbsS'IwGeomPlane.h'
p1157
g238
(g1139
g240
Ntp1158
Rp1159
(dp1160
g1143
g880
sg1144
(lp1161
S"'Marmalade Studio'"
p1162
ag876
asg268
g928
sbsS's3e.h'
p1163
g238
(g1139
g240
Ntp1164
Rp1165
(dp1166
g1143
g1151
sg1144
(lp1167
g1153
asg268
S'c:/marmalade/6.2/s3e/h/s3e.h'
p1168
sbsS'errno.h'
p1169
g238
(g1139
g240
Ntp1170
Rp1171
(dp1172
g1143
g1151
sg1144
(lp1173
g1153
aS'stdc headers'
p1174
asg268
S'c:/marmalade/6.2/s3e/h/std/errno.h'
p1175
sbsS'IwSingleton.h'
p1176
g238
(g1139
g240
Ntp1177
Rp1178
(dp1179
g1143
g1026
sg1144
(lp1180
S"'Marmalade Studio'"
p1181
ag1022
asg268
g1058
sbsS'dlfcn.h'
p1182
g238
(g1139
g240
Ntp1183
Rp1184
(dp1185
g1143
g1151
sg1144
g1173
sg268
S'c:/marmalade/6.2/s3e/h/std/dlfcn.h'
p1186
sbsS'stdio_streambuf'
p1187
g238
(g1139
g240
Ntp1188
Rp1189
(dp1190
g1143
g1151
sg1144
g1152
sg268
S'c:/marmalade/6.2/s3e/h/std/c++/stdio_streambuf'
p1191
sbsS'sched.h'
p1192
g238
(g1139
g240
Ntp1193
Rp1194
(dp1195
g1143
g1151
sg1144
g1173
sg268
S'c:/marmalade/6.2/s3e/h/std/sched.h'
p1196
sbsS'IwGeomFMat2D.h'
p1197
g238
(g1139
g240
Ntp1198
Rp1199
(dp1200
g1143
g880
sg1144
g1161
sg268
g938
sbsS's3eExt.h'
p1201
g238
(g1139
g240
Ntp1202
Rp1203
(dp1204
g1143
g1151
sg1144
g1167
sg268
S'c:/marmalade/6.2/s3e/h/s3eExt.h'
p1205
sbsS'grp.h'
p1206
g238
(g1139
g240
Ntp1207
Rp1208
(dp1209
g1143
g1151
sg1144
g1173
sg268
S'c:/marmalade/6.2/s3e/h/std/grp.h'
p1210
sbsS'list'
p1211
g238
(g1139
g240
Ntp1212
Rp1213
(dp1214
g1143
g1151
sg1144
g1152
sg268
S'c:/marmalade/6.2/s3e/h/std/c++/list'
p1215
sbsS'istream'
p1216
g238
(g1139
g240
Ntp1217
Rp1218
(dp1219
g1143
g1151
sg1144
g1152
sg268
S'c:/marmalade/6.2/s3e/h/std/c++/istream'
p1220
sbsVjpeglib.h
p1221
g238
(g1139
g240
Ntp1222
Rp1223
(dp1224
g1143
g788
sg1144
(lp1225
g784
asg268
g808
sbsS'iw2d_public.defines.txt'
p1226
g238
(g1139
g240
Ntp1227
Rp1228
(dp1229
g1143
g846
sg1144
(lp1230
S"'Marmalade Studio'"
p1231
ag842
asg268
g847
sbsS'iostream.h'
p1232
g238
(g1139
g240
Ntp1233
Rp1234
(dp1235
g1143
g1151
sg1144
g1152
sg268
S'c:/marmalade/6.2/s3e/h/std/c++/iostream.h'
p1236
sbsS'string'
p1237
g238
(g1139
g240
Ntp1238
Rp1239
(dp1240
g1143
g1151
sg1144
g1152
sg268
S'c:/marmalade/6.2/s3e/h/std/c++/string'
p1241
sbsS'IwMemory.h'
p1242
g238
(g1139
g240
Ntp1243
Rp1244
(dp1245
g1143
g1026
sg1144
g1180
sg268
g1064
sbsS'IwGL.h'
p1246
g238
(g1139
g240
Ntp1247
Rp1248
(dp1249
g1143
g834
sg1144
(lp1250
S"'Marmalade Studio'"
p1251
ag830
asg268
g837
sbsS'iw2d.config.txt'
p1252
g238
(g1139
g240
Ntp1253
Rp1254
(dp1255
g1143
g846
sg1144
g1230
sg268
g849
sbsS'iomanip'
p1256
g238
(g1139
g240
Ntp1257
Rp1258
(dp1259
g1143
g1151
sg1144
g1152
sg268
S'c:/marmalade/6.2/s3e/h/std/c++/iomanip'
p1260
sbsS'iwgeom.mkf'
p1261
g238
(g1139
g240
Ntp1262
Rp1263
(dp1264
g1143
g915
sg1144
g1161
sg268
g913
sbsS'IwGxError.h'
p1265
g238
(g1139
g240
Ntp1266
Rp1267
(dp1268
g1143
g972
sg1144
(lp1269
S"'Marmalade Studio'"
p1270
ag968
asg268
g993
sbsS'IwGeom.h'
p1271
g238
(g1139
g240
Ntp1272
Rp1273
(dp1274
g1143
g880
sg1144
g1161
sg268
g883
sbsS'IwGeomVec4.h'
p1275
g238
(g1139
g240
Ntp1276
Rp1277
(dp1278
g1143
g880
sg1144
g1161
sg268
g905
sbsS'dir.h'
p1279
g238
(g1139
g240
Ntp1280
Rp1281
(dp1282
g1143
g1151
sg1144
(lp1283
g1153
aS'stdc headers'
p1284
aS'sys'
p1285
asg268
S'c:/marmalade/6.2/s3e/h/std/sys/dir.h'
p1286
sbsS'locale.h'
p1287
g238
(g1139
g240
Ntp1288
Rp1289
(dp1290
g1143
g1151
sg1144
g1173
sg268
S'c:/marmalade/6.2/s3e/h/std/locale.h'
p1291
sbsS'vector'
p1292
g238
(g1139
g240
Ntp1293
Rp1294
(dp1295
g1143
g1151
sg1144
g1152
sg268
S'c:/marmalade/6.2/s3e/h/std/c++/vector'
p1296
sbsS'IwManaged.h'
p1297
g238
(g1139
g240
Ntp1298
Rp1299
(dp1300
g1143
g1026
sg1144
g1180
sg268
g1118
sbsS's3eCompass.h'
p1301
g238
(g1139
g240
Ntp1302
Rp1303
(dp1304
g1143
g1151
sg1144
g1167
sg268
S'c:/marmalade/6.2/s3e/h/s3eCompass.h'
p1305
sbsVcderror.h
p1306
g238
(g1139
g240
Ntp1307
Rp1308
(dp1309
g1143
g788
sg1144
g1225
sg268
g793
sbsS'climits'
p1310
g238
(g1139
g240
Ntp1311
Rp1312
(dp1313
g1143
g1151
sg1144
g1152
sg268
S'c:/marmalade/6.2/s3e/h/std/c++/climits'
p1314
sbsS's3eVibra.h'
p1315
g238
(g1139
g240
Ntp1316
Rp1317
(dp1318
g1143
g1151
sg1144
g1167
sg268
S'c:/marmalade/6.2/s3e/h/s3eVibra.h'
p1319
sbsVjversion.h
p1320
g238
(g1139
g240
Ntp1321
Rp1322
(dp1323
g1143
g788
sg1144
g1225
sg268
g802
sbsS'fnmatch.h'
p1324
g238
(g1139
g240
Ntp1325
Rp1326
(dp1327
g1143
g1151
sg1144
g1173
sg268
S'c:/marmalade/6.2/s3e/h/std/fnmatch.h'
p1328
sbsS'IwGxState.h'
p1329
g238
(g1139
g240
Ntp1330
Rp1331
(dp1332
g1143
g972
sg1144
g1269
sg268
g1020
sbsS's3eAudio.h'
p1333
g238
(g1139
g240
Ntp1334
Rp1335
(dp1336
g1143
g1151
sg1144
g1167
sg268
S'c:/marmalade/6.2/s3e/h/s3eAudio.h'
p1337
sbsS's3eSurface.h'
p1338
g238
(g1139
g240
Ntp1339
Rp1340
(dp1341
g1143
g1151
sg1144
g1167
sg268
S'c:/marmalade/6.2/s3e/h/s3eSurface.h'
p1342
sbsS'new'
p1343
g238
(g1139
g240
Ntp1344
Rp1345
(dp1346
g1143
g1151
sg1144
g1152
sg268
S'c:/marmalade/6.2/s3e/h/std/c++/new'
p1347
sbsS's3eWindow.h'
p1348
g238
(g1139
g240
Ntp1349
Rp1350
(dp1351
g1143
g1151
sg1144
(lp1352
g1153
aS'Extensions'
p1353
asg268
S'c:/marmalade/6.2/s3e/h/ext/s3eWindow.h'
p1354
sbsS'IwBuffer.h'
p1355
g238
(g1139
g240
Ntp1356
Rp1357
(dp1358
g1143
g1026
sg1144
g1180
sg268
g1024
sbsS's3eOSExec.h'
p1359
g238
(g1139
g240
Ntp1360
Rp1361
(dp1362
g1143
g1151
sg1144
g1352
sg268
S'c:/marmalade/6.2/s3e/h/ext/s3eOSExec.h'
p1363
sbsS'IwGxTransformSW.h'
p1364
g238
(g1139
g240
Ntp1365
Rp1366
(dp1367
g1143
g972
sg1144
g1269
sg268
g977
sbsS'imgs.group'
p1368
g238
(g1139
g240
Ntp1369
Rp1370
(dp1371
g1143
g746
sg1144
(lp1372
g740
ag767
asg268
g769
sbsS'unistd.h'
p1373
g238
(g1139
g240
Ntp1374
Rp1375
(dp1376
g1143
g1151
sg1144
g1173
sg268
S'c:/marmalade/6.2/s3e/h/std/unistd.h'
p1377
sbsS'iwgxfont.config.txt'
p1378
g238
(g1139
g240
Ntp1379
Rp1380
(dp1381
g1143
g858
sg1144
g1145
sg268
g872
sbsS'gl2platform.h'
p1382
g238
(g1139
g240
Ntp1383
Rp1384
(dp1385
g1143
g1151
sg1144
(lp1386
g1153
aS'GL'
p1387
aS'GLES 2.0'
p1388
asg268
S'c:/marmalade/6.2/s3e/h/GLES2/gl2platform.h'
p1389
sbsS'IwResManagerClass.h'
p1390
g238
(g1139
g240
Ntp1391
Rp1392
(dp1393
g1143
g948
sg1144
(lp1394
g828
ag944
asg268
g951
sbsS'queue'
p1395
g238
(g1139
g240
Ntp1396
Rp1397
(dp1398
g1143
g1151
sg1144
g1152
sg268
S'c:/marmalade/6.2/s3e/h/std/c++/queue'
p1399
sbsS'time_1.h'
p1400
g238
(g1139
g240
Ntp1401
Rp1402
(dp1403
g1143
g1151
sg1144
g1283
sg268
S'c:/marmalade/6.2/s3e/h/std/sys/time.h'
p1404
sbsS'Iw2D.h'
p1405
g238
(g1139
g240
Ntp1406
Rp1407
(dp1408
g1143
g846
sg1144
g1230
sg268
g844
sbsS'IwGeomVec2.h'
p1409
g238
(g1139
g240
Ntp1410
Rp1411
(dp1412
g1143
g880
sg1144
g1161
sg268
g887
sbsS's3eDevice.h'
p1413
g238
(g1139
g240
Ntp1414
Rp1415
(dp1416
g1143
g1151
sg1144
g1167
sg268
S'c:/marmalade/6.2/s3e/h/s3eDevice.h'
p1417
sbsS'malloc.h'
p1418
g238
(g1139
g240
Ntp1419
Rp1420
(dp1421
g1143
g1151
sg1144
g1173
sg268
S'c:/marmalade/6.2/s3e/h/std/malloc.h'
p1422
sbsS'stdarg.h'
p1423
g238
(g1139
g240
Ntp1424
Rp1425
(dp1426
g1143
g1151
sg1144
g1173
sg268
S'c:/marmalade/6.2/s3e/h/std/stdarg.h'
p1427
sbsS'IwGeomCore.h'
p1428
g238
(g1139
g240
Ntp1429
Rp1430
(dp1431
g1143
g880
sg1144
g1161
sg268
g901
sbsS'endian.h'
p1432
g238
(g1139
g240
Ntp1433
Rp1434
(dp1435
g1143
g1151
sg1144
g1173
sg268
S'c:/marmalade/6.2/s3e/h/std/endian.h'
p1436
sbsS'glob.h'
p1437
g238
(g1139
g240
Ntp1438
Rp1439
(dp1440
g1143
g1151
sg1144
g1173
sg268
S'c:/marmalade/6.2/s3e/h/std/glob.h'
p1441
sbsS'fstream'
p1442
g238
(g1139
g240
Ntp1443
Rp1444
(dp1445
g1143
g1151
sg1144
g1152
sg268
S'c:/marmalade/6.2/s3e/h/std/c++/fstream'
p1446
sbsS's3eCamera.h'
p1447
g238
(g1139
g240
Ntp1448
Rp1449
(dp1450
g1143
g1151
sg1144
g1167
sg268
S'c:/marmalade/6.2/s3e/h/s3eCamera.h'
p1451
sbsVjconfig.h
p1452
g238
(g1139
g240
Ntp1453
Rp1454
(dp1455
g1143
g788
sg1144
g1225
sg268
g791
sbsS'memory'
p1456
g238
(g1139
g240
Ntp1457
Rp1458
(dp1459
g1143
g1151
sg1144
g1152
sg268
S'c:/marmalade/6.2/s3e/h/std/c++/memory'
p1460
sbsS'egl.h'
p1461
g238
(g1139
g240
Ntp1462
Rp1463
(dp1464
g1143
g1151
sg1144
(lp1465
g1153
aS'GL'
p1466
aS'EGL'
p1467
asg268
S'c:/marmalade/6.2/s3e/h/EGL/egl.h'
p1468
sbsS'IwClip.inl'
p1469
g238
(g1139
g240
Ntp1470
Rp1471
(dp1472
g1143
g972
sg1144
g1269
sg268
g973
sbsS'IwMemManagerDL.h'
p1473
g238
(g1139
g240
Ntp1474
Rp1475
(dp1476
g1143
g1026
sg1144
g1180
sg268
g1062
sbsS'deque'
p1477
g238
(g1139
g240
Ntp1478
Rp1479
(dp1480
g1143
g1151
sg1144
g1152
sg268
S'c:/marmalade/6.2/s3e/h/std/c++/deque'
p1481
sbsS'IwString.h'
p1482
g238
(g1139
g240
Ntp1483
Rp1484
(dp1485
g1143
g1026
sg1144
g1180
sg268
g1076
sbsS'cwchar'
p1486
g238
(g1139
g240
Ntp1487
Rp1488
(dp1489
g1143
g1151
sg1144
g1152
sg268
S'c:/marmalade/6.2/s3e/h/std/c++/cwchar'
p1490
sbsS'iwutil.mkf'
p1491
g238
(g1139
g240
Ntp1492
Rp1493
(dp1494
g1143
g1053
sg1144
g1180
sg268
g1051
sbsS'csignal'
p1495
g238
(g1139
g240
Ntp1496
Rp1497
(dp1498
g1143
g1151
sg1144
g1152
sg268
S'c:/marmalade/6.2/s3e/h/std/c++/csignal'
p1499
sbsS'float.h'
p1500
g238
(g1139
g240
Ntp1501
Rp1502
(dp1503
g1143
g1151
sg1144
g1173
sg268
S'c:/marmalade/6.2/s3e/h/std/float.h'
p1504
sbsS'pthread_alloc'
p1505
g238
(g1139
g240
Ntp1506
Rp1507
(dp1508
g1143
g1151
sg1144
g1152
sg268
S'c:/marmalade/6.2/s3e/h/std/c++/pthread_alloc'
p1509
sbsS'getopt.h'
p1510
g238
(g1139
g240
Ntp1511
Rp1512
(dp1513
g1143
g1151
sg1144
g1173
sg268
S'c:/marmalade/6.2/s3e/h/std/getopt.h'
p1514
sbsS'IwOptimiseARM.h'
p1515
g238
(g1139
g240
Ntp1516
Rp1517
(dp1518
g1143
g1026
sg1144
g1180
sg268
g1047
sbsS'times.h'
p1519
g238
(g1139
g240
Ntp1520
Rp1521
(dp1522
g1143
g1151
sg1144
g1283
sg268
S'c:/marmalade/6.2/s3e/h/std/sys/times.h'
p1523
sbsS'IwGeomFSphere.h'
p1524
g238
(g1139
g240
Ntp1525
Rp1526
(dp1527
g1143
g880
sg1144
g1161
sg268
g920
sbsS'game.h'
p1528
g238
(g1139
g240
Ntp1529
Rp1530
(dp1531
g1143
g746
sg1144
(lp1532
g740
ag742
asg268
g751
sbsS'functional'
p1533
g238
(g1139
g240
Ntp1534
Rp1535
(dp1536
g1143
g1151
sg1144
g1152
sg268
S'c:/marmalade/6.2/s3e/h/std/c++/functional'
p1537
sbsS'IwTypes.h'
p1538
g238
(g1139
g240
Ntp1539
Rp1540
(dp1541
g1143
g1026
sg1144
g1180
sg268
g1116
sbsS'IwGxMetrics.h'
p1542
g238
(g1139
g240
Ntp1543
Rp1544
(dp1545
g1143
g972
sg1144
g1269
sg268
g1006
sbsS's3eCompression.h'
p1546
g238
(g1139
g240
Ntp1547
Rp1548
(dp1549
g1143
g1151
sg1144
g1167
sg268
S'c:/marmalade/6.2/s3e/h/s3eCompression.h'
p1550
sbsS'langinfo.h'
p1551
g238
(g1139
g240
Ntp1552
Rp1553
(dp1554
g1143
g1151
sg1144
g1173
sg268
S'c:/marmalade/6.2/s3e/h/std/langinfo.h'
p1555
sbsS's3edebugHeap.h'
p1556
g238
(g1139
g240
Ntp1557
Rp1558
(dp1559
g1143
g1151
sg1144
g1352
sg268
S'c:/marmalade/6.2/s3e/h/ext/s3edebugHeap.h'
p1560
sbsS'AirplayVersion.h'
p1561
g238
(g1139
g240
Ntp1562
Rp1563
(dp1564
g1143
g1151
sg1144
g1167
sg268
S'c:/marmalade/6.2/s3e/h/AirplayVersion.h'
p1565
sbsS'gl2extimg.h'
p1566
g238
(g1139
g240
Ntp1567
Rp1568
(dp1569
g1143
g1151
sg1144
g1386
sg268
S'c:/marmalade/6.2/s3e/h/GLES2/gl2extimg.h'
p1570
sbsS'app.config.txt'
p1571
g238
(g1139
g240
Ntp1572
Rp1573
(dp1574
g1143
(dp1575
sg1144
g4
sg268
S'c:/Users/1106786/Dropbox/Dropbox/PG life/Project Impact/Code/Demos/Demo_1_Movement_Map/data/app.config.txt'
p1576
sbsS'IwGeomSqrt.h'
p1577
g238
(g1139
g240
Ntp1578
Rp1579
(dp1580
g1143
g880
sg1144
g1161
sg268
g895
sbsVtiniconv_int.h
p1581
g238
(g1139
g240
Ntp1582
Rp1583
(dp1584
g1143
g825
sg1144
(lp1585
g818
asg268
g826
sbsS'syslog.h'
p1586
g238
(g1139
g240
Ntp1587
Rp1588
(dp1589
g1143
g1151
sg1144
g1173
sg268
S'c:/marmalade/6.2/s3e/h/std/syslog.h'
p1590
sbsS'IwGxFontTypes.h'
p1591
g238
(g1139
g240
Ntp1592
Rp1593
(dp1594
g1143
g858
sg1144
g1145
sg268
g870
sbsS'IwGeomFIntersect.h'
p1595
g238
(g1139
g240
Ntp1596
Rp1597
(dp1598
g1143
g880
sg1144
g1161
sg268
g897
sbsS'hash_map'
p1599
g238
(g1139
g240
Ntp1600
Rp1601
(dp1602
g1143
g1151
sg1144
g1152
sg268
S'c:/marmalade/6.2/s3e/h/std/c++/hash_map'
p1603
sbsS's3e.mkf'
p1604
g238
(g1139
g240
Ntp1605
Rp1606
(dp1607
g1143
(dp1608
sg1144
g1167
sg268
S'c:/marmalade/6.2/s3e/s3e.mkf'
p1609
sbsS's3eOSReadString.h'
p1610
g238
(g1139
g240
Ntp1611
Rp1612
(dp1613
g1143
g1151
sg1144
g1352
sg268
S'c:/marmalade/6.2/s3e/h/ext/s3eOSReadString.h'
p1614
sbsS'map'
p1615
g238
(g1139
g240
Ntp1616
Rp1617
(dp1618
g1143
g1151
sg1144
g1152
sg268
S'c:/marmalade/6.2/s3e/h/std/c++/map'
p1619
sbsS'IwOptimiseSpeed.h'
p1620
g238
(g1139
g240
Ntp1621
Rp1622
(dp1623
g1143
g1026
sg1144
g1180
sg268
g1035
sbsS'msl_string.h'
p1624
g238
(g1139
g240
Ntp1625
Rp1626
(dp1627
g1143
g1151
sg1144
g1152
sg268
S'c:/marmalade/6.2/s3e/h/std/c++/msl_string.h'
p1628
sbsS'select.h'
p1629
g238
(g1139
g240
Ntp1630
Rp1631
(dp1632
g1143
g1151
sg1144
g1283
sg268
S'c:/marmalade/6.2/s3e/h/std/sys/select.h'
p1633
sbsVzlib.mkf
p1634
g238
(g1139
g240
Ntp1635
Rp1636
(dp1637
g1143
g1135
sg1144
(lp1638
g1126
asg268
g1133
sbsS'signal.h'
p1639
g238
(g1139
g240
Ntp1640
Rp1641
(dp1642
g1143
g1151
sg1144
g1173
sg268
S'c:/marmalade/6.2/s3e/h/std/signal.h'
p1643
sbsS'sigcontext.h'
p1644
g238
(g1139
g240
Ntp1645
Rp1646
(dp1647
g1143
g1151
sg1144
g1173
sg268
S'c:/marmalade/6.2/s3e/h/std/sigcontext.h'
p1648
sbsVlibpng.mkf
p1649
g238
(g1139
g240
Ntp1650
Rp1651
(dp1652
g1143
g778
sg1144
(lp1653
g774
asg268
g776
sbsS's3eClipboard.h'
p1654
g238
(g1139
g240
Ntp1655
Rp1656
(dp1657
g1143
g1151
sg1144
g1167
sg268
S'c:/marmalade/6.2/s3e/h/s3eClipboard.h'
p1658
sbsS'IwGxFuncTable.h'
p1659
g238
(g1139
g240
Ntp1660
Rp1661
(dp1662
g1143
g972
sg1144
g1269
sg268
g970
sbsS'IwResHandlerGROUP.h'
p1663
g238
(g1139
g240
Ntp1664
Rp1665
(dp1666
g1143
g948
sg1144
g1394
sg268
g949
sbsS's3eDebug.h'
p1667
g238
(g1139
g240
Ntp1668
Rp1669
(dp1670
g1143
g1151
sg1144
g1167
sg268
S'c:/marmalade/6.2/s3e/h/s3eDebug.h'
p1671
sbsS'socket.h'
p1672
g238
(g1139
g240
Ntp1673
Rp1674
(dp1675
g1143
g1151
sg1144
g1283
sg268
S'c:/marmalade/6.2/s3e/h/std/sys/socket.h'
p1676
sbsS'glext.h'
p1677
g238
(g1139
g240
Ntp1678
Rp1679
(dp1680
g1143
g1151
sg1144
(lp1681
g1153
aS'GL'
p1682
aS'GLES 1.x'
p1683
asg268
S'c:/marmalade/6.2/s3e/h/GLES/glext.h'
p1684
sbsS'typeinfo.h'
p1685
g238
(g1139
g240
Ntp1686
Rp1687
(dp1688
g1143
g1151
sg1144
g1152
sg268
S'c:/marmalade/6.2/s3e/h/std/c++/typeinfo.h'
p1689
sbsS'typeinfo'
p1690
g238
(g1139
g240
Ntp1691
Rp1692
(dp1693
g1143
g1151
sg1144
g1152
sg268
S'c:/marmalade/6.2/s3e/h/std/c++/typeinfo'
p1694
sbsS'fstream.h'
p1695
g238
(g1139
g240
Ntp1696
Rp1697
(dp1698
g1143
g1151
sg1144
g1152
sg268
S'c:/marmalade/6.2/s3e/h/std/c++/fstream.h'
p1699
sbsS's3ePointer.h'
p1700
g238
(g1139
g240
Ntp1701
Rp1702
(dp1703
g1143
g1151
sg1144
g1167
sg268
S'c:/marmalade/6.2/s3e/h/s3ePointer.h'
p1704
sbsS'iw2d.mkf'
p1705
g238
(g1139
g240
Ntp1706
Rp1707
(dp1708
g1143
g853
sg1144
g1230
sg268
g851
sbsS's3eGL.h'
p1709
g238
(g1139
g240
Ntp1710
Rp1711
(dp1712
g1143
g1151
sg1144
g1167
sg268
S'c:/marmalade/6.2/s3e/h/s3eGL.h'
p1713
sbsS'IwGeomFVec2.h'
p1714
g238
(g1139
g240
Ntp1715
Rp1716
(dp1717
g1143
g880
sg1144
g1161
sg268
g932
sbsS'IwGeomSVec4.h'
p1718
g238
(g1139
g240
Ntp1719
Rp1720
(dp1721
g1143
g880
sg1144
g1161
sg268
g899
sbsS'poll.h'
p1722
g238
(g1139
g240
Ntp1723
Rp1724
(dp1725
g1143
g1151
sg1144
g1173
sg268
S'c:/marmalade/6.2/s3e/h/std/poll.h'
p1726
sbsS'IwMatAnim.h'
p1727
g238
(g1139
g240
Ntp1728
Rp1729
(dp1730
g1143
g972
sg1144
g1269
sg268
g1016
sbsS'IwGeomFVec4.h'
p1731
g238
(g1139
g240
Ntp1732
Rp1733
(dp1734
g1143
g880
sg1144
g1161
sg268
g885
sbsS'IwGx.h'
p1735
g238
(g1139
g240
Ntp1736
Rp1737
(dp1738
g1143
g972
sg1144
g1269
sg268
g1010
sbsS'valarray'
p1739
g238
(g1139
g240
Ntp1740
Rp1741
(dp1742
g1143
g1151
sg1144
g1152
sg268
S'c:/marmalade/6.2/s3e/h/std/c++/valarray'
p1743
sbsS'iosfwd'
p1744
g238
(g1139
g240
Ntp1745
Rp1746
(dp1747
g1143
g1151
sg1144
g1152
sg268
S'c:/marmalade/6.2/s3e/h/std/c++/iosfwd'
p1748
sbsS'gl2.h'
p1749
g238
(g1139
g240
Ntp1750
Rp1751
(dp1752
g1143
g1151
sg1144
g1386
sg268
S'c:/marmalade/6.2/s3e/h/GLES2/gl2.h'
p1753
sbsS'IwManagedList.h'
p1754
g238
(g1139
g240
Ntp1755
Rp1756
(dp1757
g1143
g1026
sg1144
g1180
sg268
g1068
sbsS'stdiostream.h'
p1758
g238
(g1139
g240
Ntp1759
Rp1760
(dp1761
g1143
g1151
sg1144
g1152
sg268
S'c:/marmalade/6.2/s3e/h/std/c++/stdiostream.h'
p1762
sbsS'mem.h'
p1763
g238
(g1139
g240
Ntp1764
Rp1765
(dp1766
g1143
g1151
sg1144
g1152
sg268
S'c:/marmalade/6.2/s3e/h/std/c++/mem.h'
p1767
sbsVjerror.h
p1768
g238
(g1139
g240
Ntp1769
Rp1770
(dp1771
g1143
g788
sg1144
g1225
sg268
g795
sbsVzconf.h
p1772
g238
(g1139
g240
Ntp1773
Rp1774
(dp1775
g1143
g1130
sg1144
g1638
sg268
g1128
sbsS's3e.config.txt'
p1776
g238
(g1139
g240
Ntp1777
Rp1778
(dp1779
g1143
g1151
sg1144
g1167
sg268
S'c:/marmalade/6.2/s3e/s3e.config.txt'
p1780
sbsS'numeric'
p1781
g238
(g1139
g240
Ntp1782
Rp1783
(dp1784
g1143
g1151
sg1144
g1152
sg268
S'c:/marmalade/6.2/s3e/h/std/c++/numeric'
p1785
sbsS'utime.h'
p1786
g238
(g1139
g240
Ntp1787
Rp1788
(dp1789
g1143
g1151
sg1144
g1173
sg268
S'c:/marmalade/6.2/s3e/h/std/utime.h'
p1790
sbsVjdhuff.h
p1791
g238
(g1139
g240
Ntp1792
Rp1793
(dp1794
g1143
g788
sg1144
g1225
sg268
g810
sbsS'character.h'
p1795
g238
(g1139
g240
Ntp1796
Rp1797
(dp1798
g1143
g746
sg1144
g1532
sg268
g744
sbsS'IwGxStream.h'
p1799
g238
(g1139
g240
Ntp1800
Rp1801
(dp1802
g1143
g972
sg1144
g1269
sg268
g1014
sbsS'IwImage.h'
p1803
g238
(g1139
g240
Ntp1804
Rp1805
(dp1806
g1143
g1026
sg1144
g1180
sg268
g1041
sbsS's3eImagePicker.h'
p1807
g238
(g1139
g240
Ntp1808
Rp1809
(dp1810
g1143
g1151
sg1144
g1352
sg268
S'c:/marmalade/6.2/s3e/h/ext/s3eImagePicker.h'
p1811
sbsS'IwTextParserITX.h'
p1812
g238
(g1139
g240
Ntp1813
Rp1814
(dp1815
g1143
g1026
sg1144
g1180
sg268
g1106
sbsS'stdlib.h'
p1816
g238
(g1139
g240
Ntp1817
Rp1818
(dp1819
g1143
g1151
sg1144
g1173
sg268
S'c:/marmalade/6.2/s3e/h/std/stdlib.h'
p1820
sbsS'IwCopyingPtr.h'
p1821
g238
(g1139
g240
Ntp1822
Rp1823
(dp1824
g1143
g1026
sg1144
g1180
sg268
g1043
sbsS'iostream'
p1825
g238
(g1139
g240
Ntp1826
Rp1827
(dp1828
g1143
g1151
sg1144
g1152
sg268
S'c:/marmalade/6.2/s3e/h/std/c++/iostream'
p1829
sbsVpng.h
p1830
g238
(g1139
g240
Ntp1831
Rp1832
(dp1833
g1143
g781
sg1144
g1653
sg268
g779
sbsS'stddef.h'
p1834
g238
(g1139
g240
Ntp1835
Rp1836
(dp1837
g1143
g1151
sg1144
g1173
sg268
S'c:/marmalade/6.2/s3e/h/std/stddef.h'
p1838
sbsS'character.cpp'
p1839
g238
(g1139
g240
Ntp1840
Rp1841
(dp1842
g1143
g746
sg1144
g1532
sg268
g755
sbsS'setjmp_win32.h'
p1843
g238
(g1139
g240
Ntp1844
Rp1845
(dp1846
g1143
g1151
sg1144
g1173
sg268
S'c:/marmalade/6.2/s3e/h/std/setjmp_win32.h'
p1847
sbsS'IwGxPrint.h'
p1848
g238
(g1139
g240
Ntp1849
Rp1850
(dp1851
g1143
g972
sg1144
g1269
sg268
g999
sbsS'IwGeomSVec2.h'
p1852
g238
(g1139
g240
Ntp1853
Rp1854
(dp1855
g1143
g880
sg1144
g1161
sg268
g924
sbsS'streambuf.h'
p1856
g238
(g1139
g240
Ntp1857
Rp1858
(dp1859
g1143
g1151
sg1144
g1152
sg268
S'c:/marmalade/6.2/s3e/h/std/c++/streambuf.h'
p1860
sbsS'IwGeomFPlane.h'
p1861
g238
(g1139
g240
Ntp1862
Rp1863
(dp1864
g1143
g880
sg1144
g1161
sg268
g907
sbsS'wchar.h'
p1865
g238
(g1139
g240
Ntp1866
Rp1867
(dp1868
g1143
g1151
sg1144
g1173
sg268
S'c:/marmalade/6.2/s3e/h/std/wchar.h'
p1869
sbsS's3eCameraCapture.h'
p1870
g238
(g1139
g240
Ntp1871
Rp1872
(dp1873
g1143
g1151
sg1144
g1352
sg268
S'c:/marmalade/6.2/s3e/h/ext/s3eCameraCapture.h'
p1874
sbsS'eglext.h'
p1875
g238
(g1139
g240
Ntp1876
Rp1877
(dp1878
g1143
g1151
sg1144
g1465
sg268
S'c:/marmalade/6.2/s3e/h/EGL/eglext.h'
p1879
sbsS'IwResHandlerImage.h'
p1880
g238
(g1139
g240
Ntp1881
Rp1882
(dp1883
g1143
g948
sg1144
g1394
sg268
g953
sbsS'strstream.h'
p1884
g238
(g1139
g240
Ntp1885
Rp1886
(dp1887
g1143
g1151
sg1144
g1152
sg268
S'c:/marmalade/6.2/s3e/h/std/c++/strstream.h'
p1888
sbsVtiniconv.h
p1889
g238
(g1139
g240
Ntp1890
Rp1891
(dp1892
g1143
g825
sg1144
g1585
sg268
g823
sbsS'IwGLExt.h'
p1893
g238
(g1139
g240
Ntp1894
Rp1895
(dp1896
g1143
g834
sg1144
g1250
sg268
g832
sbsS'app.icf'
p1897
g238
(g1139
g240
Ntp1898
Rp1899
(dp1900
g1143
(dp1901
sg1144
g4
sg268
S'c:/Users/1106786/Dropbox/Dropbox/PG life/Project Impact/Code/Demos/Demo_1_Movement_Map/data/app.icf'
p1902
sbsS'IwClassFactory.h'
p1903
g238
(g1139
g240
Ntp1904
Rp1905
(dp1906
g1143
g1026
sg1144
g1180
sg268
g1098
sbsS'file.h'
p1907
g238
(g1139
g240
Ntp1908
Rp1909
(dp1910
g1143
g1151
sg1144
g1283
sg268
S'c:/marmalade/6.2/s3e/h/std/sys/file.h'
p1911
sbsS'cstring'
p1912
g238
(g1139
g240
Ntp1913
Rp1914
(dp1915
g1143
g1151
sg1144
g1152
sg268
S'c:/marmalade/6.2/s3e/h/std/c++/cstring'
p1916
sbsS'iwutil.config.txt'
p1917
g238
(g1139
g240
Ntp1918
Rp1919
(dp1920
g1143
g1026
sg1144
g1180
sg268
g1031
sbsS's3eSMS.h'
p1921
g238
(g1139
g240
Ntp1922
Rp1923
(dp1924
g1143
g1151
sg1144
g1352
sg268
S'c:/marmalade/6.2/s3e/h/ext/s3eSMS.h'
p1925
sbsS'limits.h'
p1926
g238
(g1139
g240
Ntp1927
Rp1928
(dp1929
g1143
g1151
sg1144
g1173
sg268
S'c:/marmalade/6.2/s3e/h/std/limits.h'
p1930
sbsS'iwgl.config.txt'
p1931
g238
(g1139
g240
Ntp1932
Rp1933
(dp1934
g1143
g834
sg1144
g1250
sg268
g835
sbsS'iwgx_public.defines.txt'
p1935
g238
(g1139
g240
Ntp1936
Rp1937
(dp1938
g1143
g972
sg1144
g1269
sg268
g979
sbsS'IwMaterial.h'
p1939
g238
(g1139
g240
Ntp1940
Rp1941
(dp1942
g1143
g972
sg1144
g1269
sg268
g997
sbsS'IwGxSurface.h'
p1943
g238
(g1139
g240
Ntp1944
Rp1945
(dp1946
g1143
g972
sg1144
g1269
sg268
g1008
sbsS's3eSocket.h'
p1947
g238
(g1139
g240
Ntp1948
Rp1949
(dp1950
g1143
g1151
sg1144
g1167
sg268
S'c:/marmalade/6.2/s3e/h/s3eSocket.h'
p1951
sbsS'IwAutoFile.h'
p1952
g238
(g1139
g240
Ntp1953
Rp1954
(dp1955
g1143
g1026
sg1144
g1180
sg268
g1100
sbsS'ipc.h'
p1956
g238
(g1139
g240
Ntp1957
Rp1958
(dp1959
g1143
g1151
sg1144
g1283
sg268
S'c:/marmalade/6.2/s3e/h/std/sys/ipc.h'
p1960
sbsS'poll_1.h'
p1961
g238
(g1139
g240
Ntp1962
Rp1963
(dp1964
g1143
g1151
sg1144
g1283
sg268
S'c:/marmalade/6.2/s3e/h/std/sys/poll.h'
p1965
sbsS's3eThread.h'
p1966
g238
(g1139
g240
Ntp1967
Rp1968
(dp1969
g1143
g1151
sg1144
g1167
sg268
S'c:/marmalade/6.2/s3e/h/s3eThread.h'
p1970
sbsS'ucontext.h'
p1971
g238
(g1139
g240
Ntp1972
Rp1973
(dp1974
g1143
g1151
sg1144
g1173
sg268
S'c:/marmalade/6.2/s3e/h/std/ucontext.h'
p1975
sbsS'time.h'
p1976
g238
(g1139
g240
Ntp1977
Rp1978
(dp1979
g1143
g1151
sg1144
g1173
sg268
S'c:/marmalade/6.2/s3e/h/std/time.h'
p1980
sbsVjchuff.h
p1981
g238
(g1139
g240
Ntp1982
Rp1983
(dp1984
g1143
g788
sg1144
g1225
sg268
g814
sbsS's3eSoundRecord.h'
p1985
g238
(g1139
g240
Ntp1986
Rp1987
(dp1988
g1143
g1151
sg1144
g1167
sg268
S'c:/marmalade/6.2/s3e/h/s3eSoundRecord.h'
p1989
sbsS'IwFibre.h'
p1990
g238
(g1139
g240
Ntp1991
Rp1992
(dp1993
g1143
g1026
sg1144
g1180
sg268
g1124
sbsS's3eVersion.h'
p1994
g238
(g1139
g240
Ntp1995
Rp1996
(dp1997
g1143
g1151
sg1144
g1167
sg268
S'c:/marmalade/6.2/s3e/h/s3eVersion.h'
p1998
sbsS'input.cpp'
p1999
g238
(g1139
g240
Ntp2000
Rp2001
(dp2002
g1143
g746
sg1144
g1532
sg268
g763
sbsS'IwGxFontGlyph.h'
p2003
g238
(g1139
g240
Ntp2004
Rp2005
(dp2006
g1143
g858
sg1144
g1145
sg268
g864
sbsS's3eTypes.h'
p2007
g238
(g1139
g240
Ntp2008
Rp2009
(dp2010
g1143
g1151
sg1144
g1167
sg268
S'c:/marmalade/6.2/s3e/h/s3eTypes.h'
p2011
sbsS'signal_2.h'
p2012
g238
(g1139
g240
Ntp2013
Rp2014
(dp2015
g1143
g1151
sg1144
g1152
sg268
S'c:/marmalade/6.2/s3e/h/std/c++/signal.h'
p2016
sbsS'termios.h'
p2017
g238
(g1139
g240
Ntp2018
Rp2019
(dp2020
g1143
g1151
sg1144
g1173
sg268
S'c:/marmalade/6.2/s3e/h/std/termios.h'
p2021
sbsS'slist'
p2022
g238
(g1139
g240
Ntp2023
Rp2024
(dp2025
g1143
g1151
sg1144
g1152
sg268
S'c:/marmalade/6.2/s3e/h/std/c++/slist'
p2026
sbsS'cstdlib'
p2027
g238
(g1139
g240
Ntp2028
Rp2029
(dp2030
g1143
g1151
sg1144
g1152
sg268
S'c:/marmalade/6.2/s3e/h/std/c++/cstdlib'
p2031
sbsS's3eLocation.h'
p2032
g238
(g1139
g240
Ntp2033
Rp2034
(dp2035
g1143
g1151
sg1144
g1167
sg268
S'c:/marmalade/6.2/s3e/h/s3eLocation.h'
p2036
sbsS'IwMemBucketHelpers.h'
p2037
g238
(g1139
g240
Ntp2038
Rp2039
(dp2040
g1143
g1026
sg1144
g1180
sg268
g1096
sbsS's3eHash.h'
p2041
g238
(g1139
g240
Ntp2042
Rp2043
(dp2044
g1143
g1151
sg1144
g1167
sg268
S'c:/marmalade/6.2/s3e/h/s3eHash.h'
p2045
sbsS'IwGeomFMat.h'
p2046
g238
(g1139
g240
Ntp2047
Rp2048
(dp2049
g1143
g880
sg1144
g1161
sg268
g930
sbsS'type_traits.h'
p2050
g238
(g1139
g240
Ntp2051
Rp2052
(dp2053
g1143
g1151
sg1144
g1152
sg268
S'c:/marmalade/6.2/s3e/h/std/c++/type_traits.h'
p2054
sbsS'IwMenu.h'
p2055
g238
(g1139
g240
Ntp2056
Rp2057
(dp2058
g1143
g1026
sg1144
g1180
sg268
g1070
sbsS'IwResHandlerITX.h'
p2059
g238
(g1139
g240
Ntp2060
Rp2061
(dp2062
g1143
g948
sg1144
g1394
sg268
g966
sbsS'IwArray.h'
p2063
g238
(g1139
g240
Ntp2064
Rp2065
(dp2066
g1143
g1026
sg1144
g1180
sg268
g1072
sbsS'IwUTF8.h'
p2067
g238
(g1139
g240
Ntp2068
Rp2069
(dp2070
g1143
g1026
sg1144
g1180
sg268
g1084
sbsS'math_rvct.h'
p2071
g238
(g1139
g240
Ntp2072
Rp2073
(dp2074
g1143
g1151
sg1144
g1173
sg268
S'c:/marmalade/6.2/s3e/h/std/math_rvct.h'
p2075
sbsS'IwUtil.h'
p2076
g238
(g1139
g240
Ntp2077
Rp2078
(dp2079
g1143
g1026
sg1144
g1180
sg268
g1066
sbsS'IwGeomVec3.h'
p2080
g238
(g1139
g240
Ntp2081
Rp2082
(dp2083
g1143
g880
sg1144
g1161
sg268
g942
sbsS'wctype.h'
p2084
g238
(g1139
g240
Ntp2085
Rp2086
(dp2087
g1143
g1151
sg1144
g1173
sg268
S'c:/marmalade/6.2/s3e/h/std/wctype.h'
p2088
sbsS'cstddef'
p2089
g238
(g1139
g240
Ntp2090
Rp2091
(dp2092
g1143
g1151
sg1144
g1152
sg268
S'c:/marmalade/6.2/s3e/h/std/c++/cstddef'
p2093
sbsS'assert.h'
p2094
g238
(g1139
g240
Ntp2095
Rp2096
(dp2097
g1143
g1151
sg1144
g1173
sg268
S'c:/marmalade/6.2/s3e/h/std/assert.h'
p2098
sbsS'mman.h'
p2099
g238
(g1139
g240
Ntp2100
Rp2101
(dp2102
g1143
g1151
sg1144
g1283
sg268
S'c:/marmalade/6.2/s3e/h/std/sys/mman.h'
p2103
sbsS'IwRandom.h'
p2104
g238
(g1139
g240
Ntp2105
Rp2106
(dp2107
g1143
g1026
sg1144
g1180
sg268
g1060
sbsS'libgen.h'
p2108
g238
(g1139
g240
Ntp2109
Rp2110
(dp2111
g1143
g1151
sg1144
g1173
sg268
S'c:/marmalade/6.2/s3e/h/std/libgen.h'
p2112
sbsS'utsname.h'
p2113
g238
(g1139
g240
Ntp2114
Rp2115
(dp2116
g1143
g1151
sg1144
g1283
sg268
S'c:/marmalade/6.2/s3e/h/std/sys/utsname.h'
p2117
sbsS'wait.h'
p2118
g238
(g1139
g240
Ntp2119
Rp2120
(dp2121
g1143
g1151
sg1144
g1283
sg268
S'c:/marmalade/6.2/s3e/h/std/sys/wait.h'
p2122
sbsS'param.h'
p2123
g238
(g1139
g240
Ntp2124
Rp2125
(dp2126
g1143
g1151
sg1144
g1283
sg268
S'c:/marmalade/6.2/s3e/h/std/sys/param.h'
p2127
sbsS'IwDivide.h'
p2128
g238
(g1139
g240
Ntp2129
Rp2130
(dp2131
g1143
g1026
sg1144
g1180
sg268
g1112
sbsS'IwResManager.h'
p2132
g238
(g1139
g240
Ntp2133
Rp2134
(dp2135
g1143
g948
sg1144
g1394
sg268
g964
sbsS'ostream'
p2136
g238
(g1139
g240
Ntp2137
Rp2138
(dp2139
g1143
g1151
sg1144
g1152
sg268
S'c:/marmalade/6.2/s3e/h/std/c++/ostream'
p2140
sbsS'cwctype'
p2141
g238
(g1139
g240
Ntp2142
Rp2143
(dp2144
g1143
g1151
sg1144
g1152
sg268
S'c:/marmalade/6.2/s3e/h/std/c++/cwctype'
p2145
sbsS'set'
p2146
g238
(g1139
g240
Ntp2147
Rp2148
(dp2149
g1143
g1151
sg1144
g1152
sg268
S'c:/marmalade/6.2/s3e/h/std/c++/set'
p2150
sbsS'IwGeomSQuat.h'
p2151
g238
(g1139
g240
Ntp2152
Rp2153
(dp2154
g1143
g880
sg1144
g1161
sg268
g911
sbsS'locale'
p2155
g238
(g1139
g240
Ntp2156
Rp2157
(dp2158
g1143
g1151
sg1144
g1152
sg268
S'c:/marmalade/6.2/s3e/h/std/c++/locale'
p2159
sbsS'cstdio'
p2160
g238
(g1139
g240
Ntp2161
Rp2162
(dp2163
g1143
g1151
sg1144
g1152
sg268
S'c:/marmalade/6.2/s3e/h/std/c++/cstdio'
p2164
sbsVcdjpeg.h
p2165
g238
(g1139
g240
Ntp2166
Rp2167
(dp2168
g1143
g788
sg1144
g1225
sg268
g800
sbsS'IwList.h'
p2169
g238
(g1139
g240
Ntp2170
Rp2171
(dp2172
g1143
g1026
sg1144
g1180
sg268
g1092
sbsS'inttypes.h'
p2173
g238
(g1139
g240
Ntp2174
Rp2175
(dp2176
g1143
g1151
sg1144
g1173
sg268
S'c:/marmalade/6.2/s3e/h/std/inttypes.h'
p2177
sbsS'dirent.h'
p2178
g238
(g1139
g240
Ntp2179
Rp2180
(dp2181
g1143
g1151
sg1144
g1173
sg268
S'c:/marmalade/6.2/s3e/h/std/dirent.h'
p2182
sbsS'IwFColour.h'
p2183
g238
(g1139
g240
Ntp2184
Rp2185
(dp2186
g1143
g972
sg1144
g1269
sg268
g991
sbsVtransupp.h
p2187
g238
(g1139
g240
Ntp2188
Rp2189
(dp2190
g1143
g788
sg1144
g1225
sg268
g812
sbsS'IwMath.h'
p2191
g238
(g1139
g240
Ntp2192
Rp2193
(dp2194
g1143
g1026
sg1144
g1180
sg268
g1049
sbsS'IwGeomQuat.h'
p2195
g238
(g1139
g240
Ntp2196
Rp2197
(dp2198
g1143
g880
sg1144
g1161
sg268
g916
sbsS'glplatform.h'
p2199
g238
(g1139
g240
Ntp2200
Rp2201
(dp2202
g1143
g1151
sg1144
g1681
sg268
S'c:/marmalade/6.2/s3e/h/GLES/glplatform.h'
p2203
sbsS'bitset'
p2204
g238
(g1139
g240
Ntp2205
Rp2206
(dp2207
g1143
g1151
sg1144
g1152
sg268
S'c:/marmalade/6.2/s3e/h/std/c++/bitset'
p2208
sbsS'alloca.h'
p2209
g238
(g1139
g240
Ntp2210
Rp2211
(dp2212
g1143
g1151
sg1144
g1173
sg268
S'c:/marmalade/6.2/s3e/h/std/alloca.h'
p2213
sbsS'IwResHandler.h'
p2214
g238
(g1139
g240
Ntp2215
Rp2216
(dp2217
g1143
g948
sg1144
g1394
sg268
g957
sbsS'IwResHandlerMTL.h'
p2218
g238
(g1139
g240
Ntp2219
Rp2220
(dp2221
g1143
g972
sg1144
g1269
sg268
g983
sbsS'IwRuntime.h'
p2222
g238
(g1139
g240
Ntp2223
Rp2224
(dp2225
g1143
g1026
sg1144
g1180
sg268
g1086
sbsS'limits'
p2226
g238
(g1139
g240
Ntp2227
Rp2228
(dp2229
g1143
g1151
sg1144
g1152
sg268
S'c:/marmalade/6.2/s3e/h/std/c++/limits'
p2230
sbsS'IwGeomBBox.h'
p2231
g238
(g1139
g240
Ntp2232
Rp2233
(dp2234
g1143
g880
sg1144
g1161
sg268
g903
sbsS's3eContacts.h'
p2235
g238
(g1139
g240
Ntp2236
Rp2237
(dp2238
g1143
g1151
sg1144
g1167
sg268
S'c:/marmalade/6.2/s3e/h/s3eContacts.h'
p2239
sbsS's3eLicense.h'
p2240
g238
(g1139
g240
Ntp2241
Rp2242
(dp2243
g1143
g1151
sg1144
g1167
sg268
S'c:/marmalade/6.2/s3e/h/s3eLicense.h'
p2244
sbsS'iwgx.config.txt'
p2245
g238
(g1139
g240
Ntp2246
Rp2247
(dp2248
g1143
g972
sg1144
g1269
sg268
g985
sbsS'IwTextParser.h'
p2249
g238
(g1139
g240
Ntp2250
Rp2251
(dp2252
g1143
g1026
sg1144
g1180
sg268
g1108
sbsS's3eTimer.h'
p2253
g238
(g1139
g240
Ntp2254
Rp2255
(dp2256
g1143
g1151
sg1144
g1167
sg268
S'c:/marmalade/6.2/s3e/h/s3eTimer.h'
p2257
sbsS'IwGeomVec.h'
p2258
g238
(g1139
g240
Ntp2259
Rp2260
(dp2261
g1143
g880
sg1144
g1161
sg268
g940
sbsS'IwSerialise.h'
p2262
g238
(g1139
g240
Ntp2263
Rp2264
(dp2265
g1143
g1026
sg1144
g1180
sg268
g1037
sbsS'cstdarg'
p2266
g238
(g1139
g240
Ntp2267
Rp2268
(dp2269
g1143
g1151
sg1144
g1152
sg268
S'c:/marmalade/6.2/s3e/h/std/c++/cstdarg'
p2270
sbsS'gl2ext.h'
p2271
g238
(g1139
g240
Ntp2272
Rp2273
(dp2274
g1143
g1151
sg1144
g1386
sg268
S'c:/marmalade/6.2/s3e/h/GLES2/gl2ext.h'
p2275
sbsS'IwChar.h'
p2276
g238
(g1139
g240
Ntp2277
Rp2278
(dp2279
g1143
g1026
sg1144
g1180
sg268
g1122
sbsS's3eSound.h'
p2280
g238
(g1139
g240
Ntp2281
Rp2282
(dp2283
g1143
g1151
sg1144
g1167
sg268
S'c:/marmalade/6.2/s3e/h/s3eSound.h'
p2284
sbsS'IwOptimiseThumb.h'
p2285
g238
(g1139
g240
Ntp2286
Rp2287
(dp2288
g1143
g1026
sg1144
g1180
sg268
g1090
sbsS'exception.h'
p2289
g238
(g1139
g240
Ntp2290
Rp2291
(dp2292
g1143
g1151
sg1144
g1152
sg268
S'c:/marmalade/6.2/s3e/h/std/c++/exception.h'
p2293
sbsS'iwgeom.config.txt'
p2294
g238
(g1139
g240
Ntp2295
Rp2296
(dp2297
g1143
g880
sg1144
g1161
sg268
g909
sbsS'iwgx.mkf'
p2298
g238
(g1139
g240
Ntp2299
Rp2300
(dp2301
g1143
g1005
sg1144
g1269
sg268
g1003
sbsS'gl.h'
p2302
g238
(g1139
g240
Ntp2303
Rp2304
(dp2305
g1143
g1151
sg1144
g1681
sg268
S'c:/marmalade/6.2/s3e/h/GLES/gl.h'
p2306
sbsVzlib.h
p2307
g238
(g1139
g240
Ntp2308
Rp2309
(dp2310
g1143
g1130
sg1144
g1638
sg268
g1131
sbsS'iwgl.mkf'
p2311
g238
(g1139
g240
Ntp2312
Rp2313
(dp2314
g1143
g841
sg1144
g1250
sg268
g839
sbsS'IwColour.h'
p2315
g238
(g1139
g240
Ntp2316
Rp2317
(dp2318
g1143
g972
sg1144
g1269
sg268
g995
sbsS's3eLibrary.h'
p2319
g238
(g1139
g240
Ntp2320
Rp2321
(dp2322
g1143
g1151
sg1144
g1352
sg268
S'c:/marmalade/6.2/s3e/h/ext/s3eLibrary.h'
p2323
sbsS'types.h'
p2324
g238
(g1139
g240
Ntp2325
Rp2326
(dp2327
g1143
g1151
sg1144
g1283
sg268
S'c:/marmalade/6.2/s3e/h/std/sys/types.h'
p2328
sbsS'ifaddrs.h'
p2329
g238
(g1139
g240
Ntp2330
Rp2331
(dp2332
g1143
g1151
sg1144
g1173
sg268
S'c:/marmalade/6.2/s3e/h/std/ifaddrs.h'
p2333
sbsS'strstream'
p2334
g238
(g1139
g240
Ntp2335
Rp2336
(dp2337
g1143
g1151
sg1144
g1152
sg268
S'c:/marmalade/6.2/s3e/h/std/c++/strstream'
p2338
sbsS'exception'
p2339
g238
(g1139
g240
Ntp2340
Rp2341
(dp2342
g1143
g1151
sg1144
g1152
sg268
S'c:/marmalade/6.2/s3e/h/std/c++/exception'
p2343
sbsS'rlocks.h'
p2344
g238
(g1139
g240
Ntp2345
Rp2346
(dp2347
g1143
g1151
sg1144
g1152
sg268
S'c:/marmalade/6.2/s3e/h/std/c++/rlocks.h'
p2348
sbsS'ioctl.h'
p2349
g238
(g1139
g240
Ntp2350
Rp2351
(dp2352
g1143
g1151
sg1144
g1283
sg268
S'c:/marmalade/6.2/s3e/h/std/sys/ioctl.h'
p2353
sbsS'rope'
p2354
g238
(g1139
g240
Ntp2355
Rp2356
(dp2357
g1143
g1151
sg1144
g1152
sg268
S'c:/marmalade/6.2/s3e/h/std/c++/rope'
p2358
sbsVjinclude.h
p2359
g238
(g1139
g240
Ntp2360
Rp2361
(dp2362
g1143
g788
sg1144
g1225
sg268
g804
sbsS'IwEvent.h'
p2363
g238
(g1139
g240
Ntp2364
Rp2365
(dp2366
g1143
g1026
sg1144
g1180
sg268
g1120
sbsS'IwOptimiseSize.h'
p2367
g238
(g1139
g240
Ntp2368
Rp2369
(dp2370
g1143
g1026
sg1144
g1180
sg268
g1074
sbsS'iwgxfont_public.defines.txt'
p2371
g238
(g1139
g240
Ntp2372
Rp2373
(dp2374
g1143
g858
sg1144
g1145
sg268
g856
sbsS'iconv.h'
p2375
g238
(g1139
g240
Ntp2376
Rp2377
(dp2378
g1143
g1151
sg1144
g1173
sg268
S'c:/marmalade/6.2/s3e/h/std/iconv.h'
p2379
sbsS'sendfile.h'
p2380
g238
(g1139
g240
Ntp2381
Rp2382
(dp2383
g1143
g1151
sg1144
g1283
sg268
S'c:/marmalade/6.2/s3e/h/std/sys/sendfile.h'
p2384
sbsS'IwGeomSphere.h'
p2385
g238
(g1139
g240
Ntp2386
Rp2387
(dp2388
g1143
g880
sg1144
g1161
sg268
g926
sbsVtiniconv.mkf
p2389
g238
(g1139
g240
Ntp2390
Rp2391
(dp2392
g1143
g822
sg1144
g1585
sg268
g820
sbsVjdct.h
p2393
g238
(g1139
g240
Ntp2394
Rp2395
(dp2396
g1143
g788
sg1144
g1225
sg268
g806
sbsS'cctype'
p2397
g238
(g1139
g240
Ntp2398
Rp2399
(dp2400
g1143
g1151
sg1144
g1152
sg268
S'c:/marmalade/6.2/s3e/h/std/c++/cctype'
p2401
sbsS's3eConfig.h'
p2402
g238
(g1139
g240
Ntp2403
Rp2404
(dp2405
g1143
g1151
sg1144
g1167
sg268
S'c:/marmalade/6.2/s3e/h/s3eConfig.h'
p2406
sbsS'IwHashString.h'
p2407
g238
(g1139
g240
Ntp2408
Rp2409
(dp2410
g1143
g1026
sg1144
g1180
sg268
g1114
sbsS'stat.h'
p2411
g238
(g1139
g240
Ntp2412
Rp2413
(dp2414
g1143
g1151
sg1144
g1283
sg268
S'c:/marmalade/6.2/s3e/h/std/sys/stat.h'
p2415
sbsS'byteswap.h'
p2416
g238
(g1139
g240
Ntp2417
Rp2418
(dp2419
g1143
g1151
sg1144
g1173
sg268
S'c:/marmalade/6.2/s3e/h/std/byteswap.h'
p2420
sbsS'iwresmanager.mkf'
p2421
g238
(g1139
g240
Ntp2422
Rp2423
(dp2424
g1143
g961
sg1144
g1394
sg268
g959
sbsS'IwUtilInitTerm.h'
p2425
g238
(g1139
g240
Ntp2426
Rp2427
(dp2428
g1143
g1026
sg1144
g1180
sg268
g1045
sbsS'pthread_1.h'
p2429
g238
(g1139
g240
Ntp2430
Rp2431
(dp2432
g1143
g1151
sg1144
g1152
sg268
S'c:/marmalade/6.2/s3e/h/std/c++/pthread.h'
p2433
sbsS'IwMemBucket.h'
p2434
g238
(g1139
g240
Ntp2435
Rp2436
(dp2437
g1143
g1026
sg1144
g1180
sg268
g1082
sbsS'complex'
p2438
g238
(g1139
g240
Ntp2439
Rp2440
(dp2441
g1143
g1151
sg1144
g1152
sg268
S'c:/marmalade/6.2/s3e/h/std/c++/complex'
p2442
sbsS'game.cpp'
p2443
g238
(g1139
g240
Ntp2444
Rp2445
(dp2446
g1143
g746
sg1144
g1532
sg268
g749
sbsS's3e.icf'
p2447
g238
(g1139
g240
Ntp2448
Rp2449
(dp2450
g1143
g1151
sg1144
g1167
sg268
S'c:/marmalade/6.2/s3e/s3e.icf'
p2451
sbsS'IwVariableBitField.h'
p2452
g238
(g1139
g240
Ntp2453
Rp2454
(dp2455
g1143
g1026
sg1144
g1180
sg268
g1088
sbsS'sem.h'
p2456
g238
(g1139
g240
Ntp2457
Rp2458
(dp2459
g1143
g1151
sg1144
g1283
sg268
S'c:/marmalade/6.2/s3e/h/std/sys/sem.h'
p2460
sbsS'IwGxFontState.h'
p2461
g238
(g1139
g240
Ntp2462
Rp2463
(dp2464
g1143
g858
sg1144
g1145
sg268
g862
sbsS'stdio.h'
p2465
g238
(g1139
g240
Ntp2466
Rp2467
(dp2468
g1143
g1151
sg1144
g1173
sg268
S'c:/marmalade/6.2/s3e/h/std/stdio.h'
p2469
sbsVjmemsys.h
p2470
g238
(g1139
g240
Ntp2471
Rp2472
(dp2473
g1143
g788
sg1144
g1225
sg268
g786
sbsS'ios'
p2474
g238
(g1139
g240
Ntp2475
Rp2476
(dp2477
g1143
g1151
sg1144
g1152
sg268
S'c:/marmalade/6.2/s3e/h/std/c++/ios'
p2478
sbsS'stack'
p2479
g238
(g1139
g240
Ntp2480
Rp2481
(dp2482
g1143
g1151
sg1144
g1152
sg268
S'c:/marmalade/6.2/s3e/h/std/c++/stack'
p2483
sbsS'new.h'
p2484
g238
(g1139
g240
Ntp2485
Rp2486
(dp2487
g1143
g1151
sg1144
g1152
sg268
S'c:/marmalade/6.2/s3e/h/std/c++/new.h'
p2488
sbsS's3eEMail.h'
p2489
g238
(g1139
g240
Ntp2490
Rp2491
(dp2492
g1143
g1151
sg1144
g1352
sg268
S'c:/marmalade/6.2/s3e/h/ext/s3eEMail.h'
p2493
sbsS's3eVideo.h'
p2494
g238
(g1139
g240
Ntp2495
Rp2496
(dp2497
g1143
g1151
sg1144
g1167
sg268
S'c:/marmalade/6.2/s3e/h/s3eVideo.h'
p2498
sbsS'IwFile.h'
p2499
g238
(g1139
g240
Ntp2500
Rp2501
(dp2502
g1143
g1026
sg1144
g1180
sg268
g1029
sbsS'pwd.h'
p2503
g238
(g1139
g240
Ntp2504
Rp2505
(dp2506
g1143
g1151
sg1144
g1173
sg268
S'c:/marmalade/6.2/s3e/h/std/pwd.h'
p2507
sbsS'IwClip.h'
p2508
g238
(g1139
g240
Ntp2509
Rp2510
(dp2511
g1143
g972
sg1144
g1269
sg268
g1018
sbsS'iwresmanager.config.txt'
p2512
g238
(g1139
g240
Ntp2513
Rp2514
(dp2515
g1143
g948
sg1144
g1394
sg268
g955
sbsS'IwGxShaderTechnique.h'
p2516
g238
(g1139
g240
Ntp2517
Rp2518
(dp2519
g1143
g972
sg1144
g1269
sg268
g1012
sbsS'IwCore.h'
p2520
g238
(g1139
g240
Ntp2521
Rp2522
(dp2523
g1143
g1026
sg1144
g1180
sg268
g1033
sbsS'cfloat'
p2524
g238
(g1139
g240
Ntp2525
Rp2526
(dp2527
g1143
g1151
sg1144
g1152
sg268
S'c:/marmalade/6.2/s3e/h/std/c++/cfloat'
p2528
sbsS'IwGeomMat2D.h'
p2529
g238
(g1139
g240
Ntp2530
Rp2531
(dp2532
g1143
g880
sg1144
g1161
sg268
g918
sbsS'IwAllocator.h'
p2533
g238
(g1139
g240
Ntp2534
Rp2535
(dp2536
g1143
g1026
sg1144
g1180
sg268
g1102
sbsS'IwPath.h'
p2537
g238
(g1139
g240
Ntp2538
Rp2539
(dp2540
g1143
g1026
sg1144
g1180
sg268
g1039
sbsS'iwgxfont.mkf'
p2541
g238
(g1139
g240
Ntp2542
Rp2543
(dp2544
g1143
g861
sg1144
g1145
sg268
g859
sbsS'IwTexture.h'
p2545
g238
(g1139
g240
Ntp2546
Rp2547
(dp2548
g1143
g972
sg1144
g1269
sg268
g989
sbsS's3eAccelerometer.h'
p2549
g238
(g1139
g240
Ntp2550
Rp2551
(dp2552
g1143
g1151
sg1144
g1167
sg268
S'c:/marmalade/6.2/s3e/h/s3eAccelerometer.h'
p2553
sbsS'setjmp.h'
p2554
g238
(g1139
g240
Ntp2555
Rp2556
(dp2557
g1143
g1151
sg1144
g1173
sg268
S'c:/marmalade/6.2/s3e/h/std/setjmp.h'
p2558
sbsVpngconf.h
p2559
g238
(g1139
g240
Ntp2560
Rp2561
(dp2562
g1143
g781
sg1144
g1653
sg268
g782
sbsS'IwTextParseable.h'
p2563
g238
(g1139
g240
Ntp2564
Rp2565
(dp2566
g1143
g1026
sg1144
g1180
sg268
g1110
sbsS'istream.h'
p2567
g238
(g1139
g240
Ntp2568
Rp2569
(dp2570
g1143
g1151
sg1144
g1152
sg268
S'c:/marmalade/6.2/s3e/h/std/c++/istream.h'
p2571
sbsS'stdint.h'
p2572
g238
(g1139
g240
Ntp2573
Rp2574
(dp2575
g1143
g1151
sg1144
g1173
sg268
S'c:/marmalade/6.2/s3e/h/std/stdint.h'
p2576
sbsS'semaphore.h'
p2577
g238
(g1139
g240
Ntp2578
Rp2579
(dp2580
g1143
g1151
sg1144
g1173
sg268
S'c:/marmalade/6.2/s3e/h/std/semaphore.h'
p2581
sbsS'ctime'
p2582
g238
(g1139
g240
Ntp2583
Rp2584
(dp2585
g1143
g1151
sg1144
g1152
sg268
S'c:/marmalade/6.2/s3e/h/std/c++/ctime'
p2586
sbsS'sstream'
p2587
g238
(g1139
g240
Ntp2588
Rp2589
(dp2590
g1143
g1151
sg1144
g1152
sg268
S'c:/marmalade/6.2/s3e/h/std/c++/sstream'
p2591
sbsS'IwGeomFBBox.h'
p2592
g238
(g1139
g240
Ntp2593
Rp2594
(dp2595
g1143
g880
sg1144
g1161
sg268
g891
sbsS'IwDebugPrim.h'
p2596
g238
(g1139
g240
Ntp2597
Rp2598
(dp2599
g1143
g972
sg1144
g1269
sg268
g981
sbsS'IwGxFontContainer.h'
p2600
g238
(g1139
g240
Ntp2601
Rp2602
(dp2603
g1143
g858
sg1144
g1145
sg268
g868
sbsS'tile.h'
p2604
g238
(g1139
g240
Ntp2605
Rp2606
(dp2607
g1143
g746
sg1144
g1532
sg268
g757
sbsS'IwGeomSVec3.h'
p2608
g238
(g1139
g240
Ntp2609
Rp2610
(dp2611
g1143
g880
sg1144
g1161
sg268
g922
sbsS'cassert'
p2612
g238
(g1139
g240
Ntp2613
Rp2614
(dp2615
g1143
g1151
sg1144
g1152
sg268
S'c:/marmalade/6.2/s3e/h/std/c++/cassert'
p2616
sbsS'IwGeomFVec3.h'
p2617
g238
(g1139
g240
Ntp2618
Rp2619
(dp2620
g1143
g880
sg1144
g1161
sg268
g881
sbsS'streambuf'
p2621
g238
(g1139
g240
Ntp2622
Rp2623
(dp2624
g1143
g1151
sg1144
g1152
sg268
S'c:/marmalade/6.2/s3e/h/std/c++/streambuf'
p2625
sbsS's3eMetrics.h'
p2626
g238
(g1139
g240
Ntp2627
Rp2628
(dp2629
g1143
g1151
sg1144
g1352
sg268
S'c:/marmalade/6.2/s3e/h/ext/s3eMetrics.h'
p2630
sbsS'IwGxFont.h'
p2631
g238
(g1139
g240
Ntp2632
Rp2633
(dp2634
g1143
g858
sg1144
g1145
sg268
g874
sbsS's3eSecureStorage.h'
p2635
g238
(g1139
g240
Ntp2636
Rp2637
(dp2638
g1143
g1151
sg1144
g1167
sg268
S'c:/marmalade/6.2/s3e/h/s3eSecureStorage.h'
p2639
sbsS'map.cpp'
p2640
g238
(g1139
g240
Ntp2641
Rp2642
(dp2643
g1143
g746
sg1144
g1532
sg268
g753
sbsS'string.h'
p2644
g238
(g1139
g240
Ntp2645
Rp2646
(dp2647
g1143
g1151
sg1144
g1173
sg268
S'c:/marmalade/6.2/s3e/h/std/string.h'
p2648
sbsS'IwResource.h'
p2649
g238
(g1139
g240
Ntp2650
Rp2651
(dp2652
g1143
g1026
sg1144
g1180
sg268
g1027
sbsVlibjpeg.mkf
p2653
g238
(g1139
g240
Ntp2654
Rp2655
(dp2656
g1143
g799
sg1144
g1225
sg268
g797
sbsS'IwGxDebug.h'
p2657
g238
(g1139
g240
Ntp2658
Rp2659
(dp2660
g1143
g972
sg1144
g1269
sg268
g987
sbsS'pthread_types.h'
p2661
g238
(g1139
g240
Ntp2662
Rp2663
(dp2664
g1143
g1151
sg1144
g1173
sg268
S'c:/marmalade/6.2/s3e/h/std/pthread_types.h'
p2665
sbsS'iomanip.h'
p2666
g238
(g1139
g240
Ntp2667
Rp2668
(dp2669
g1143
g1151
sg1144
g1152
sg268
S'c:/marmalade/6.2/s3e/h/std/c++/iomanip.h'
p2670
sbsS'IwKeymap.h'
p2671
g238
(g1139
g240
Ntp2672
Rp2673
(dp2674
g1143
g1026
sg1144
g1180
sg268
g1080
sbsS'IwDebug.h'
p2675
g238
(g1139
g240
Ntp2676
Rp2677
(dp2678
g1143
g1026
sg1144
g1180
sg268
g1056
sbsS's3eIOSBackgroundAudio.h'
p2679
g238
(g1139
g240
Ntp2680
Rp2681
(dp2682
g1143
g1151
sg1144
g1352
sg268
S'c:/marmalade/6.2/s3e/h/ext/s3eIOSBackgroundAudio.h'
p2683
sbsS'IwGeomMenu.h'
p2684
g238
(g1139
g240
Ntp2685
Rp2686
(dp2687
g1143
g880
sg1144
g1161
sg268
g878
sbsS'IwDivTable.h'
p2688
g238
(g1139
g240
Ntp2689
Rp2690
(dp2691
g1143
g1026
sg1144
g1180
sg268
g1094
sbsS'ctype.h'
p2692
g238
(g1139
g240
Ntp2693
Rp2694
(dp2695
g1143
g1151
sg1144
g1173
sg268
S'c:/marmalade/6.2/s3e/h/std/ctype.h'
p2696
sbsS'IwGeomMat.h'
p2697
g238
(g1139
g240
Ntp2698
Rp2699
(dp2700
g1143
g880
sg1144
g1161
sg268
g934
sbsS'IwResGroup.h'
p2701
g238
(g1139
g240
Ntp2702
Rp2703
(dp2704
g1143
g948
sg1144
g1394
sg268
g962
sbsS'signal_1.h'
p2705
g238
(g1139
g240
Ntp2706
Rp2707
(dp2708
g1143
g1151
sg1144
g1283
sg268
S'c:/marmalade/6.2/s3e/h/std/sys/signal.h'
p2709
sbsS'main.cpp'
p2710
g238
(g1139
g240
Ntp2711
Rp2712
(dp2713
g1143
g746
sg1144
g1532
sg268
g759
sbsS'shm.h'
p2714
g238
(g1139
g240
Ntp2715
Rp2716
(dp2717
g1143
g1151
sg1144
g1283
sg268
S'c:/marmalade/6.2/s3e/h/std/sys/shm.h'
p2718
sbsVjpegint.h
p2719
g238
(g1139
g240
Ntp2720
Rp2721
(dp2722
g1143
g788
sg1144
g1225
sg268
g789
sbsS'prctl.h'
p2723
g238
(g1139
g240
Ntp2724
Rp2725
(dp2726
g1143
g1151
sg1144
g1283
sg268
S'c:/marmalade/6.2/s3e/h/std/sys/prctl.h'
p2727
sbsS'un.h'
p2728
g238
(g1139
g240
Ntp2729
Rp2730
(dp2731
g1143
g1151
sg1144
g1283
sg268
S'c:/marmalade/6.2/s3e/h/std/sys/un.h'
p2732
sbsS'tile.cpp'
p2733
g238
(g1139
g240
Ntp2734
Rp2735
(dp2736
g1143
g746
sg1144
g1532
sg268
g747
sbsS'utility'
p2737
g238
(g1139
g240
Ntp2738
Rp2739
(dp2740
g1143
g1151
sg1144
g1152
sg268
S'c:/marmalade/6.2/s3e/h/std/c++/utility'
p2741
sbsS'input.h'
p2742
g238
(g1139
g240
Ntp2743
Rp2744
(dp2745
g1143
g746
sg1144
g1532
sg268
g765
sbsS'IwGeomLegacy.h'
p2746
g238
(g1139
g240
Ntp2747
Rp2748
(dp2749
g1143
g880
sg1144
g1161
sg268
g893
sbsS'IwTPage.h'
p2750
g238
(g1139
g240
Ntp2751
Rp2752
(dp2753
g1143
g972
sg1144
g1269
sg268
g1001
sbsS'IwResSerialise.h'
p2754
g238
(g1139
g240
Ntp2755
Rp2756
(dp2757
g1143
g948
sg1144
g1394
sg268
g946
sbsS's3eCrypto.h'
p2758
g238
(g1139
g240
Ntp2759
Rp2760
(dp2761
g1143
g1151
sg1144
g1167
sg268
S'c:/marmalade/6.2/s3e/h/s3eCrypto.h'
p2762
sbsS's3eKeyboard.h'
p2763
g238
(g1139
g240
Ntp2764
Rp2765
(dp2766
g1143
g1151
sg1144
g1167
sg268
S'c:/marmalade/6.2/s3e/h/s3eKeyboard.h'
p2767
sbsS'fcntl.h'
p2768
g238
(g1139
g240
Ntp2769
Rp2770
(dp2771
g1143
g1151
sg1144
g1173
sg268
S'c:/marmalade/6.2/s3e/h/std/fcntl.h'
p2772
sbsS'memory.h'
p2773
g238
(g1139
g240
Ntp2774
Rp2775
(dp2776
g1143
g1151
sg1144
g1173
sg268
S'c:/marmalade/6.2/s3e/h/std/memory.h'
p2777
sbsS'pthread.h'
p2778
g238
(g1139
g240
Ntp2779
Rp2780
(dp2781
g1143
g1151
sg1144
g1173
sg268
S'c:/marmalade/6.2/s3e/h/std/pthread.h'
p2782
sbsS'IwGeomIntersect.h'
p2783
g238
(g1139
g240
Ntp2784
Rp2785
(dp2786
g1143
g880
sg1144
g1161
sg268
g889
sbsS'algorithm'
p2787
g238
(g1139
g240
Ntp2788
Rp2789
(dp2790
g1143
g1151
sg1144
g1152
sg268
S'c:/marmalade/6.2/s3e/h/std/c++/algorithm'
p2791
sbsS'egl_1.h'
p2792
g238
(g1139
g240
Ntp2793
Rp2794
(dp2795
g1143
g1151
sg1144
g1681
sg268
S'c:/marmalade/6.2/s3e/h/GLES/egl.h'
p2796
sbsS'ostream.h'
p2797
g238
(g1139
g240
Ntp2798
Rp2799
(dp2800
g1143
g1151
sg1144
g1152
sg268
S'c:/marmalade/6.2/s3e/h/std/c++/ostream.h'
p2801
sbsS'stl_user_config.h'
p2802
g238
(g1139
g240
Ntp2803
Rp2804
(dp2805
g1143
g1151
sg1144
g1152
sg268
S'c:/marmalade/6.2/s3e/h/std/c++/stl_user_config.h'
p2806
sbsS'IwProfileMenu.h'
p2807
g238
(g1139
g240
Ntp2808
Rp2809
(dp2810
g1143
g1026
sg1144
g1180
sg268
g1078
sbsS'MarmaladeVersion.h'
p2811
g238
(g1139
g240
Ntp2812
Rp2813
(dp2814
g1143
g1151
sg1144
g1167
sg268
S'c:/marmalade/6.2/s3e/h/MarmaladeVersion.h'
p2815
sbsS'ios.h'
p2816
g238
(g1139
g240
Ntp2817
Rp2818
(dp2819
g1143
g1151
sg1144
g1152
sg268
S'c:/marmalade/6.2/s3e/h/std/c++/ios.h'
p2820
sbsS'IwImageHelper.h'
p2821
g238
(g1139
g240
Ntp2822
Rp2823
(dp2824
g1143
g1026
sg1144
g1180
sg268
g1104
sbsS'hash_set'
p2825
g238
(g1139
g240
Ntp2826
Rp2827
(dp2828
g1143
g1151
sg1144
g1152
sg268
S'c:/marmalade/6.2/s3e/h/std/c++/hash_set'
p2829
sbsS'IwGeomFQuat.h'
p2830
g238
(g1139
g240
Ntp2831
Rp2832
(dp2833
g1143
g880
sg1144
g1161
sg268
g936
sbsVjmorecfg.h
p2834
g238
(g1139
g240
Ntp2835
Rp2836
(dp2837
g1143
g788
sg1144
g1225
sg268
g816
sbsS'eglplatform.h'
p2838
g238
(g1139
g240
Ntp2839
Rp2840
(dp2841
g1143
g1151
sg1144
g1465
sg268
S'c:/marmalade/6.2/s3e/h/EGL/eglplatform.h'
p2842
sbsS'stdbool.h'
p2843
g238
(g1139
g240
Ntp2844
Rp2845
(dp2846
g1143
g1151
sg1144
g1173
sg268
S'c:/marmalade/6.2/s3e/h/std/stdbool.h'
p2847
sbsS'math_gcc.h'
p2848
g238
(g1139
g240
Ntp2849
Rp2850
(dp2851
g1143
g1151
sg1144
g1173
sg268
S'c:/marmalade/6.2/s3e/h/std/math_gcc.h'
p2852
sbsS's3eMemory.h'
p2853
g238
(g1139
g240
Ntp2854
Rp2855
(dp2856
g1143
g1151
sg1144
g1167
sg268
S'c:/marmalade/6.2/s3e/h/s3eMemory.h'
p2857
sbsS'strings.h'
p2858
g238
(g1139
g240
Ntp2859
Rp2860
(dp2861
g1143
g1151
sg1144
g1173
sg268
S'c:/marmalade/6.2/s3e/h/std/strings.h'
p2862
sbsS's3eFile.h'
p2863
g238
(g1139
g240
Ntp2864
Rp2865
(dp2866
g1143
g1151
sg1144
g1167
sg268
S'c:/marmalade/6.2/s3e/h/s3eFile.h'
p2867
sbsS'IwGxTypes.h'
p2868
g238
(g1139
g240
Ntp2869
Rp2870
(dp2871
g1143
g972
sg1144
g1269
sg268
g975
sbsS'cerrno'
p2872
g238
(g1139
g240
Ntp2873
Rp2874
(dp2875
g1143
g1151
sg1144
g1152
sg268
S'c:/marmalade/6.2/s3e/h/std/c++/cerrno'
p2876
sbsS'map.h'
p2877
g238
(g1139
g240
Ntp2878
Rp2879
(dp2880
g1143
g746
sg1144
g1532
sg268
g761
sbsS'resource.h'
p2881
g238
(g1139
g240
Ntp2882
Rp2883
(dp2884
g1143
g1151
sg1144
g1283
sg268
S'c:/marmalade/6.2/s3e/h/std/sys/resource.h'
p2885
sbsS'clocale'
p2886
g238
(g1139
g240
Ntp2887
Rp2888
(dp2889
g1143
g1151
sg1144
g1152
sg268
S'c:/marmalade/6.2/s3e/h/std/c++/clocale'
p2890
sbsS'csetjmp'
p2891
g238
(g1139
g240
Ntp2892
Rp2893
(dp2894
g1143
g1151
sg1144
g1152
sg268
S'c:/marmalade/6.2/s3e/h/std/c++/csetjmp'
p2895
sbsS'netdb.h'
p2896
g238
(g1139
g240
Ntp2897
Rp2898
(dp2899
g1143
g1151
sg1144
g1173
sg268
S'c:/marmalade/6.2/s3e/h/std/netdb.h'
p2900
sbsS's3eAndroidJNI.h'
p2901
g238
(g1139
g240
Ntp2902
Rp2903
(dp2904
g1143
g1151
sg1144
g1352
sg268
S'c:/marmalade/6.2/s3e/h/ext/s3eAndroidJNI.h'
p2905
sbsS'stdexcept'
p2906
g238
(g1139
g240
Ntp2907
Rp2908
(dp2909
g1143
g1151
sg1144
g1152
sg268
S'c:/marmalade/6.2/s3e/h/std/c++/stdexcept'
p2910
sbsS'math.h'
p2911
g238
(g1139
g240
Ntp2912
Rp2913
(dp2914
g1143
g1151
sg1144
g1173
sg268
S'c:/marmalade/6.2/s3e/h/std/math.h'
p2915
sbsS'cmath'
p2916
g238
(g1139
g240
Ntp2917
Rp2918
(dp2919
g1143
g1151
sg1144
g1152
sg268
S'c:/marmalade/6.2/s3e/h/std/c++/cmath'
p2920
sbsS'uio.h'
p2921
g238
(g1139
g240
Ntp2922
Rp2923
(dp2924
g1143
g1151
sg1144
g1283
sg268
S'c:/marmalade/6.2/s3e/h/std/sys/uio.h'
p2925
sbsS'demo_1_movement_map.mkf'
p2926
g238
(g1139
g240
Ntp2927
Rp2928
(dp2929
g1143
g773
sg1144
(lp2930
g740
asg268
g771
sbsS'IwUncopyable.h'
p2931
g238
(g1139
g240
Ntp2932
Rp2933
(dp2934
g1143
g1026
sg1144
g1180
sg268
g1054
sbssS'tests'
p2935
(lp2936
sS'project_name'
p2937
g246
sS'root_file'
p2938
g106
sS'current_root'
p2939
S'c:/Users/1106786/Dropbox/Dropbox/PG life/Project Impact/Code/Demos/Demo_1_Movement_Map'
p2940
sS'dependencies'
p2941
(lp2942
sS'include_paths'
p2943
(lp2944
Vc:/users/1106786/appdata/roaming/marmalade/packages/6.2.2/libjpeg_6b/h
p2945
aVc:/users/1106786/appdata/roaming/marmalade/packages/6.2.2/zlib_1.2.4/h
p2946
aVc:/users/1106786/appdata/roaming/marmalade/packages/6.2.2/libpng_1.2.34/h
p2947
aS'c:/marmalade/6.2/modules/iwutil/h'
p2948
aS'c:/marmalade/6.2/modules/iwgeom/h'
p2949
aS'c:/marmalade/6.2/modules/iwresmanager/h'
p2950
aS'c:/marmalade/6.2/modules/iwgl/h'
p2951
aS'c:/marmalade/6.2/modules/iwgx/h'
p2952
aVc:/users/1106786/appdata/roaming/marmalade/packages/6.2.2/tiniconv_1.0.1/h
p2953
aS'c:/marmalade/6.2/modules/iwgxfont/h'
p2954
aS'c:/marmalade/6.2/modules/iw2d/h'
p2955
aS'c:/users/1106786/dropbox/dropbox/pg life/project impact/code/demos/demo_1_movement_map/h'
p2956
aS'c:/marmalade/6.2/s3e/h'
p2957
aS'c:/marmalade/6.2/s3e/h/ext'
p2958
aS'c:/marmalade/6.2/s3e/h/std'
p2959
aS'c:/marmalade/6.2/s3e/h/std/c++'
p2960
aS'c:/marmalade/6.2/s3e/h/ext_legacy'
p2961
aS'c:/marmalade/6.2/s3e/h/legacy'
p2962
asS'weak_frameworks'
p2963
(lp2964
sS'extprojects'
p2965
(dp2966
sg484
(dp2967
g478
(lp2968
(g66
S'.'
p2969
I0
tp2970
asS'default'
p2971
(lp2972
(S'c:/users/1106786/dropbox/dropbox/pg life/project impact/code/demos/demo_1_movement_map/data/splashscreen.jpg'
p2973
S'splashscreen.jpg'
p2974
I0
tp2975
a(S'c:/users/1106786/dropbox/dropbox/pg life/project impact/code/demos/demo_1_movement_map/data-ram/data-gles1/imgs.group.bin,c:/users/1106786/dropbox/dropbox/pg life/project impact/code/demos/demo_1_movement_map/data/imgs.group.bin'
p2976
S'imgs.group.bin'
p2977
I0
tp2978
asS'artbuild'
p2979
(lp2980
(S'c:/users/1106786/dropbox/dropbox/pg life/project impact/code/demos/demo_1_movement_map/data'
p2981
g2969
I0
tp2982
assS'macro_types'
p2983
(dp2984
g427
I1
sg428
I0
sg429
I0
sg430
I0
sg431
I0
sg432
I0
sg433
I0
sg435
I0
sg436
I0
sg437
I0
sg438
I0
sg440
I0
sg442
I0
sg443
I0
sg444
I0
sg445
I0
sg446
I1
sg447
I0
sg448
I0
sg449
I0
sg450
I0
sg451
I01
sg452
I1
sg453
I0
sg454
I0
sg455
I0
ssS'commands'
p2985
(lp2986
sg486
(g733
S'VC10'
p2987
S'X86ARM'
p2988
tp2989
sS'subprojectOptions'
p2990
(dp2991
g490
(lp2992
sg492
Nsg493
Nsg494
Nsg495
Nsg496
Nsg497
Nsg498
Nsg499
(lp2993
sg501
Nsg616
Nsg504
Nsg505
Nsg506
Nsg507
Nsg508
Nsg509
Nsg510
Nsg511
Nsg512
Nsg513
(lp2994
sg693
Nsg516
Nsg517
Nsg694
Nsg689
Nsg519
Nsg520
Nsg521
Nsg522
Nsg523
Nsg524
Nsg697
Nsg526
Nsg527
Nsg688
Nsg528
Nsg529
Nsg530
Nsg531
Nsg532
Nsg533
Nsg571
Nsg535
Nsg536
Nsg537
Nsg539
Nsg540
Nsg541
Nsg542
Nsg543
Nsg544
Nsg545
Nsg546
Nsg621
Nsg547
Nsg549
Nsg550
Nsg551
Nsg552
Nsg553
Nsg554
(lp2995
sg556
Nsg557
Nsg558
Nsg559
Nsg560
Nsg561
Nsg562
Nsg626
Nsg564
(lp2996
sg566
Nsg567
Nsg568
Nsg569
Nsg570
Nsg534
Nsg572
Nsg628
Nsg574
Nsg575
Nsg576
Nsg577
Nsg578
Nsg579
(lp2997
sg581
Nsg710
Nsg583
Nsg584
Nsg585
Nsg586
Nsg587
Nsg588
Nsg589
Nsg630
Nsg591
Nsg593
(lp2998
sg595
Nsg596
Nsg711
Nsg598
(lp2999
sg600
Nsg601
Nsg602
Nsg603
Nsg604
Nsg605
Nsg631
Nsg607
Nsg608
Nsg609
Nsg610
Nsg611
(lp3000
sg613
Nsg614
Nsg615
Nsg503
Nsg617
Nsg618
Nsg619
(lp3001
sg502
Nsg622
Nsg623
Nsg624
Nsg625
Nsg563
Nsg573
Nsg629
Nsg590
Nsg606
Nsg632
Nsg633
Nsg679
Nsg636
Nsg637
Nsg638
Nsg639
Nsg640
Nsg719
Nsg642
Nsg643
Nsg644
Nsg645
(lp3002
sg647
Nsg648
Nsg649
Nsg650
Nsg651
Nsg652
Nsg653
(lp3003
sg655
Nsg656
Nsg657
Nsg658
Nsg659
Nsg660
Nsg661
Nsg662
Nsg663
Nsg664
Nsg722
Nsg666
Nsg667
Nsg675
Nsg668
Nsg677
Nsg670
Nsg671
Nsg672
Nsg678
Nsg674
Nsg717
Nsg634
(lp3004
sg676
Nsg669
Nsg673
Nsg725
Nsg681
Nsg682
Nsg683
Nsg716
Nsg684
Nsg685
Nsg686
Nsg687
Nsg538
Nsg525
Nsg690
Nsg691
Nsg692
Nsg515
Nsg518
Nsg695
Nsg696
Nsg627
Nsg698
Nsg699
Nsg700
Nsg701
Nsg702
Nsg703
Nsg704
Nsg705
Nsg706
Nsg707
(lp3005
sg709
Nsg582
Nsg597
Nsg712
Nsg713
Nsg714
Nsg715
Nsg548
Nsg592
Nsg718
Nsg641
Nsg730
Nsg721
Nsg665
Nsg723
Nsg724
Nsg680
Nsg726
Nsg727
Nsg728
Nsg729
Nsg720
Nsg731
NssS'build_libs'
p3006
(dp3007
sS'frameworks'
p3008
(lp3009
sS'environ'
p3010
(dp3011
sS'target_name_debug'
p3012
g246
sS'builders'
p3013
(dp3014
S'.S'
p3015
(dp3016
S'rvct'
p3017
(lp3018
S'.obj'
p3019
aS'echo ARM Assembling(RVCT) ${SOURCE}...'
p3020
aS'c:/marmalade/6.2/s3e\\rvct\\bin\\armasm -o ${TARGET} ${SOURCE}'
p3021
asg347
(lp3022
g3019
aS'echo ARM Assembling(GCC) ${SOURCE}...'
p3023
aS'c:/marmalade/6.2/s3e\\gcc\\bin\\arm-none-eabi-gcc -c -o ${TARGET} ${SOURCE}'
p3024
asS'ppu'
p3025
(lp3026
S'.a'
p3027
aS'echo PPU Assembling(SNC) ${SOURCE}...'
p3028
aS'c:/marmalade/6.2/s3e\\rvct\\bin\\armasm -o ${TARGET} ${SOURCE}'
p3029
assS'.s'
p3030
g3016
sS'.vp'
p3031
(lp3032
NaS'"C:/Marmalade/6.2/s3e/python/python.exe" "c:/marmalade/6.2/modules/iwgx/tools/compile_shaders.py" ${SOURCE}'
p3033
assg488
g0
sbtp3034
.